ARM GAS  /var/folders/d2/nstgp4h54kz7g1l847x_b8wc0000gn/T//ccSYBGul.s 			page 1


   1              		.cpu cortex-m4
   2              		.eabi_attribute 27, 1
   3              		.eabi_attribute 28, 1
   4              		.eabi_attribute 20, 1
   5              		.eabi_attribute 21, 1
   6              		.eabi_attribute 23, 3
   7              		.eabi_attribute 24, 1
   8              		.eabi_attribute 25, 1
   9              		.eabi_attribute 26, 1
  10              		.eabi_attribute 30, 2
  11              		.eabi_attribute 34, 1
  12              		.eabi_attribute 18, 4
  13              		.file	"testmtx.c"
  14              		.text
  15              	.Ltext0:
  16              		.cfi_sections	.debug_frame
  17              		.section	.text.mtx1_execute,"ax",%progbits
  18              		.align	1
  19              		.p2align 4,,15
  20              		.syntax unified
  21              		.thumb
  22              		.thumb_func
  23              		.fpu fpv4-sp-d16
  24              		.type	mtx1_execute, %function
  25              	mtx1_execute:
  26              	.LFB221:
  27              		.file 1 "../e-puck2_main-processor/ChibiOS//test/rt/testmtx.c"
  28              		.loc 1 96 0
  29              		.cfi_startproc
  30              		@ args = 0, pretend = 0, frame = 8
  31              		@ frame_needed = 0, uses_anonymous_args = 0
  32 0000 2DE9F041 		push	{r4, r5, r6, r7, r8, lr}
  33              		.cfi_def_cfa_offset 24
  34              		.cfi_offset 4, -24
  35              		.cfi_offset 5, -20
  36              		.cfi_offset 6, -16
  37              		.cfi_offset 7, -12
  38              		.cfi_offset 8, -8
  39              		.cfi_offset 14, -4
  40              	.LBB167:
  41              	.LBB168:
  42              	.LBB169:
  43              	.LBB170:
  44              		.file 2 "../e-puck2_main-processor/ChibiOS//os/rt/include/chthreads.h"
  45              		.loc 2 176 0
  46 0004 324F     		ldr	r7, .L9
  47              	.LBE170:
  48              	.LBE169:
  49              	.LBE168:
  50              	.LBE167:
  51              		.loc 1 96 0
  52 0006 DFF8F480 		ldr	r8, .L9+44
  53              	.LBB173:
  54              	.LBB171:
  55              		.loc 2 189 0
  56 000a BA69     		ldr	r2, [r7, #24]
  57              	.LBE171:
ARM GAS  /var/folders/d2/nstgp4h54kz7g1l847x_b8wc0000gn/T//ccSYBGul.s 			page 2


  58              	.LBE173:
  59              		.loc 1 100 0
  60 000c 314E     		ldr	r6, .L9+4
  61              	.LBB174:
  62              	.LBB172:
  63              		.loc 2 189 0
  64 000e 9468     		ldr	r4, [r2, #8]
  65              	.LBE172:
  66              	.LBE174:
  67              		.loc 1 96 0
  68 0010 D8F80030 		ldr	r3, [r8]
  69              		.loc 1 99 0
  70 0014 3048     		ldr	r0, .L9+8
  71              		.loc 1 100 0
  72 0016 314D     		ldr	r5, .L9+12
  73              		.loc 1 96 0
  74 0018 84B0     		sub	sp, sp, #16
  75              		.cfi_def_cfa_offset 40
  76              		.loc 1 96 0
  77 001a 0393     		str	r3, [sp, #12]
  78              		.loc 1 99 0
  79 001c FFF7FEFF 		bl	chMtxLock
  80              	.LVL0:
  81              		.loc 1 100 0
  82 0020 2F4B     		ldr	r3, .L9+16
  83 0022 0093     		str	r3, [sp]
  84 0024 621C     		adds	r2, r4, #1
  85 0026 2F4B     		ldr	r3, .L9+20
  86 0028 3068     		ldr	r0, [r6]
  87 002a 4FF4FC71 		mov	r1, #504
  88 002e FFF7FEFF 		bl	chThdCreateStatic
  89              	.LVL1:
  90              		.loc 1 101 0
  91 0032 7168     		ldr	r1, [r6, #4]
  92 0034 2C4B     		ldr	r3, .L9+24
  93              		.loc 1 100 0
  94 0036 2860     		str	r0, [r5]
  95              		.loc 1 101 0
  96 0038 A21C     		adds	r2, r4, #2
  97 003a 0846     		mov	r0, r1
  98 003c 0093     		str	r3, [sp]
  99 003e 4FF4FC71 		mov	r1, #504
 100 0042 284B     		ldr	r3, .L9+20
 101 0044 FFF7FEFF 		bl	chThdCreateStatic
 102              	.LVL2:
 103              		.loc 1 102 0
 104 0048 B168     		ldr	r1, [r6, #8]
 105 004a 284B     		ldr	r3, .L9+28
 106              		.loc 1 101 0
 107 004c 6860     		str	r0, [r5, #4]
 108              		.loc 1 102 0
 109 004e E21C     		adds	r2, r4, #3
 110 0050 0846     		mov	r0, r1
 111 0052 0093     		str	r3, [sp]
 112 0054 4FF4FC71 		mov	r1, #504
 113 0058 224B     		ldr	r3, .L9+20
 114 005a FFF7FEFF 		bl	chThdCreateStatic
ARM GAS  /var/folders/d2/nstgp4h54kz7g1l847x_b8wc0000gn/T//ccSYBGul.s 			page 3


 115              	.LVL3:
 116              		.loc 1 103 0
 117 005e F168     		ldr	r1, [r6, #12]
 118 0060 234B     		ldr	r3, .L9+32
 119              		.loc 1 102 0
 120 0062 A860     		str	r0, [r5, #8]
 121              		.loc 1 103 0
 122 0064 221D     		adds	r2, r4, #4
 123 0066 0846     		mov	r0, r1
 124 0068 0093     		str	r3, [sp]
 125 006a 4FF4FC71 		mov	r1, #504
 126 006e 1D4B     		ldr	r3, .L9+20
 127 0070 FFF7FEFF 		bl	chThdCreateStatic
 128              	.LVL4:
 129              		.loc 1 104 0
 130 0074 3169     		ldr	r1, [r6, #16]
 131 0076 1F4B     		ldr	r3, .L9+36
 132              		.loc 1 103 0
 133 0078 E860     		str	r0, [r5, #12]
 134              		.loc 1 104 0
 135 007a 621D     		adds	r2, r4, #5
 136 007c 0846     		mov	r0, r1
 137 007e 0093     		str	r3, [sp]
 138 0080 4FF4FC71 		mov	r1, #504
 139 0084 174B     		ldr	r3, .L9+20
 140 0086 FFF7FEFF 		bl	chThdCreateStatic
 141              	.LVL5:
 142 008a 2861     		str	r0, [r5, #16]
 143              		.loc 1 105 0
 144 008c 1248     		ldr	r0, .L9+8
 145 008e FFF7FEFF 		bl	chMtxUnlock
 146              	.LVL6:
 147              		.loc 1 106 0
 148 0092 FFF7FEFF 		bl	test_wait_threads
 149              	.LVL7:
 150              	.LBB175:
 151              	.LBB176:
 152              		.loc 2 189 0
 153 0096 BB69     		ldr	r3, [r7, #24]
 154              	.LBE176:
 155              	.LBE175:
 156              		.loc 1 107 0
 157 0098 9968     		ldr	r1, [r3, #8]
 158 009a 091B     		subs	r1, r1, r4
 159 009c B1FA81F1 		clz	r1, r1
 160 00a0 0120     		movs	r0, #1
 161 00a2 4909     		lsrs	r1, r1, #5
 162 00a4 FFF7FEFF 		bl	_test_assert
 163              	.LVL8:
 164              		.loc 1 109 0
 165 00a8 039A     		ldr	r2, [sp, #12]
 166 00aa D8F80030 		ldr	r3, [r8]
 167              		.loc 1 107 0
 168 00ae 20B1     		cbz	r0, .L8
 169              		.loc 1 109 0
 170 00b0 9A42     		cmp	r2, r3
 171 00b2 0BD1     		bne	.L6
ARM GAS  /var/folders/d2/nstgp4h54kz7g1l847x_b8wc0000gn/T//ccSYBGul.s 			page 4


 172 00b4 04B0     		add	sp, sp, #16
 173              		.cfi_remember_state
 174              		.cfi_def_cfa_offset 24
 175              		@ sp needed
 176 00b6 BDE8F081 		pop	{r4, r5, r6, r7, r8, pc}
 177              	.L8:
 178              		.cfi_restore_state
 179              		.loc 1 108 0
 180 00ba 9A42     		cmp	r2, r3
 181 00bc 06D1     		bne	.L6
 182 00be 0E49     		ldr	r1, .L9+40
 183 00c0 0220     		movs	r0, #2
 184              		.loc 1 109 0
 185 00c2 04B0     		add	sp, sp, #16
 186              		.cfi_remember_state
 187              		.cfi_def_cfa_offset 24
 188              		@ sp needed
 189 00c4 BDE8F041 		pop	{r4, r5, r6, r7, r8, lr}
 190              		.cfi_restore 14
 191              		.cfi_restore 8
 192              		.cfi_restore 7
 193              		.cfi_restore 6
 194              		.cfi_restore 5
 195              		.cfi_restore 4
 196              		.cfi_def_cfa_offset 0
 197              		.loc 1 108 0
 198 00c8 FFF7FEBF 		b	_test_assert_sequence
 199              	.LVL9:
 200              	.L6:
 201              		.cfi_restore_state
 202              		.loc 1 109 0
 203 00cc FFF7FEFF 		bl	__stack_chk_fail
 204              	.LVL10:
 205              	.L10:
 206              		.align	2
 207              	.L9:
 208 00d0 00000000 		.word	ch
 209 00d4 00000000 		.word	wa
 210 00d8 00000000 		.word	.LANCHOR0
 211 00dc 00000000 		.word	threads
 212 00e0 00000000 		.word	.LC0
 213 00e4 00000000 		.word	thread1
 214 00e8 04000000 		.word	.LC1
 215 00ec 08000000 		.word	.LC2
 216 00f0 0C000000 		.word	.LC3
 217 00f4 10000000 		.word	.LC4
 218 00f8 14000000 		.word	.LC5
 219 00fc 00000000 		.word	__stack_chk_guard
 220              		.cfi_endproc
 221              	.LFE221:
 222              		.size	mtx1_execute, .-mtx1_execute
 223              		.section	.text.thread1,"ax",%progbits
 224              		.align	1
 225              		.p2align 4,,15
 226              		.syntax unified
 227              		.thumb
 228              		.thumb_func
ARM GAS  /var/folders/d2/nstgp4h54kz7g1l847x_b8wc0000gn/T//ccSYBGul.s 			page 5


 229              		.fpu fpv4-sp-d16
 230              		.type	thread1, %function
 231              	thread1:
 232              	.LFB220:
 233              		.loc 1 89 0
 234              		.cfi_startproc
 235              		@ args = 0, pretend = 0, frame = 8
 236              		@ frame_needed = 0, uses_anonymous_args = 0
 237              	.LVL11:
 238 0000 30B5     		push	{r4, r5, lr}
 239              		.cfi_def_cfa_offset 12
 240              		.cfi_offset 4, -12
 241              		.cfi_offset 5, -8
 242              		.cfi_offset 14, -4
 243 0002 0B4C     		ldr	r4, .L16
 244 0004 83B0     		sub	sp, sp, #12
 245              		.cfi_def_cfa_offset 24
 246              		.loc 1 89 0
 247 0006 0546     		mov	r5, r0
 248 0008 2368     		ldr	r3, [r4]
 249              		.loc 1 91 0
 250 000a 0A48     		ldr	r0, .L16+4
 251              	.LVL12:
 252              		.loc 1 89 0
 253 000c 0193     		str	r3, [sp, #4]
 254              		.loc 1 91 0
 255 000e FFF7FEFF 		bl	chMtxLock
 256              	.LVL13:
 257              		.loc 1 92 0
 258 0012 2878     		ldrb	r0, [r5]	@ zero_extendqisi2
 259 0014 FFF7FEFF 		bl	test_emit_token
 260              	.LVL14:
 261              		.loc 1 93 0
 262 0018 019A     		ldr	r2, [sp, #4]
 263 001a 2368     		ldr	r3, [r4]
 264 001c 9A42     		cmp	r2, r3
 265 001e 05D1     		bne	.L15
 266 0020 0448     		ldr	r0, .L16+4
 267              		.loc 1 94 0
 268 0022 03B0     		add	sp, sp, #12
 269              		.cfi_remember_state
 270              		.cfi_def_cfa_offset 12
 271              		@ sp needed
 272 0024 BDE83040 		pop	{r4, r5, lr}
 273              		.cfi_restore 14
 274              		.cfi_restore 5
 275              		.cfi_restore 4
 276              		.cfi_def_cfa_offset 0
 277              	.LVL15:
 278              		.loc 1 93 0
 279 0028 FFF7FEBF 		b	chMtxUnlock
 280              	.LVL16:
 281              	.L15:
 282              		.cfi_restore_state
 283 002c FFF7FEFF 		bl	__stack_chk_fail
 284              	.LVL17:
 285              	.L17:
ARM GAS  /var/folders/d2/nstgp4h54kz7g1l847x_b8wc0000gn/T//ccSYBGul.s 			page 6


 286              		.align	2
 287              	.L16:
 288 0030 00000000 		.word	__stack_chk_guard
 289 0034 00000000 		.word	.LANCHOR0
 290              		.cfi_endproc
 291              	.LFE220:
 292              		.size	thread1, .-thread1
 293              		.section	.text.thread12,"ax",%progbits
 294              		.align	1
 295              		.p2align 4,,15
 296              		.syntax unified
 297              		.thumb
 298              		.thumb_func
 299              		.fpu fpv4-sp-d16
 300              		.type	thread12, %function
 301              	thread12:
 302              	.LFB247:
 303              		.loc 1 576 0
 304              		.cfi_startproc
 305              		@ args = 0, pretend = 0, frame = 8
 306              		@ frame_needed = 0, uses_anonymous_args = 0
 307              	.LVL18:
 308 0000 30B5     		push	{r4, r5, lr}
 309              		.cfi_def_cfa_offset 12
 310              		.cfi_offset 4, -12
 311              		.cfi_offset 5, -8
 312              		.cfi_offset 14, -4
 313 0002 0B4C     		ldr	r4, .L23
 314 0004 83B0     		sub	sp, sp, #12
 315              		.cfi_def_cfa_offset 24
 316              		.loc 1 576 0
 317 0006 0546     		mov	r5, r0
 318 0008 2368     		ldr	r3, [r4]
 319              		.loc 1 578 0
 320 000a 0A48     		ldr	r0, .L23+4
 321              	.LVL19:
 322              		.loc 1 576 0
 323 000c 0193     		str	r3, [sp, #4]
 324              		.loc 1 578 0
 325 000e FFF7FEFF 		bl	chMtxLock
 326              	.LVL20:
 327              		.loc 1 579 0
 328 0012 2878     		ldrb	r0, [r5]	@ zero_extendqisi2
 329 0014 FFF7FEFF 		bl	test_emit_token
 330              	.LVL21:
 331              		.loc 1 580 0
 332 0018 019A     		ldr	r2, [sp, #4]
 333 001a 2368     		ldr	r3, [r4]
 334 001c 9A42     		cmp	r2, r3
 335 001e 05D1     		bne	.L22
 336 0020 0448     		ldr	r0, .L23+4
 337              		.loc 1 581 0
 338 0022 03B0     		add	sp, sp, #12
 339              		.cfi_remember_state
 340              		.cfi_def_cfa_offset 12
 341              		@ sp needed
 342 0024 BDE83040 		pop	{r4, r5, lr}
ARM GAS  /var/folders/d2/nstgp4h54kz7g1l847x_b8wc0000gn/T//ccSYBGul.s 			page 7


 343              		.cfi_restore 14
 344              		.cfi_restore 5
 345              		.cfi_restore 4
 346              		.cfi_def_cfa_offset 0
 347              	.LVL22:
 348              		.loc 1 580 0
 349 0028 FFF7FEBF 		b	chMtxUnlock
 350              	.LVL23:
 351              	.L22:
 352              		.cfi_restore_state
 353 002c FFF7FEFF 		bl	__stack_chk_fail
 354              	.LVL24:
 355              	.L24:
 356              		.align	2
 357              	.L23:
 358 0030 00000000 		.word	__stack_chk_guard
 359 0034 00000000 		.word	.LANCHOR1
 360              		.cfi_endproc
 361              	.LFE247:
 362              		.size	thread12, .-thread12
 363              		.section	.text.mtx1_setup,"ax",%progbits
 364              		.align	1
 365              		.p2align 4,,15
 366              		.syntax unified
 367              		.thumb
 368              		.thumb_func
 369              		.fpu fpv4-sp-d16
 370              		.type	mtx1_setup, %function
 371              	mtx1_setup:
 372              	.LFB219:
 373              		.loc 1 84 0
 374              		.cfi_startproc
 375              		@ args = 0, pretend = 0, frame = 8
 376              		@ frame_needed = 0, uses_anonymous_args = 0
 377 0000 00B5     		push	{lr}
 378              		.cfi_def_cfa_offset 4
 379              		.cfi_offset 14, -4
 380 0002 084B     		ldr	r3, .L30
 381 0004 83B0     		sub	sp, sp, #12
 382              		.cfi_def_cfa_offset 16
 383              		.loc 1 84 0
 384 0006 1A68     		ldr	r2, [r3]
 385 0008 0192     		str	r2, [sp, #4]
 386              		.loc 1 86 0
 387 000a 019A     		ldr	r2, [sp, #4]
 388 000c 1B68     		ldr	r3, [r3]
 389 000e 9A42     		cmp	r2, r3
 390 0010 05D1     		bne	.L29
 391 0012 0548     		ldr	r0, .L30+4
 392              		.loc 1 87 0
 393 0014 03B0     		add	sp, sp, #12
 394              		.cfi_remember_state
 395              		.cfi_def_cfa_offset 4
 396              		@ sp needed
 397 0016 5DF804EB 		ldr	lr, [sp], #4
 398              		.cfi_restore 14
 399              		.cfi_def_cfa_offset 0
ARM GAS  /var/folders/d2/nstgp4h54kz7g1l847x_b8wc0000gn/T//ccSYBGul.s 			page 8


 400              		.loc 1 86 0
 401 001a FFF7FEBF 		b	chMtxObjectInit
 402              	.LVL25:
 403              	.L29:
 404              		.cfi_restore_state
 405 001e FFF7FEFF 		bl	__stack_chk_fail
 406              	.LVL26:
 407              	.L31:
 408 0022 00BF     		.align	2
 409              	.L30:
 410 0024 00000000 		.word	__stack_chk_guard
 411 0028 00000000 		.word	.LANCHOR0
 412              		.cfi_endproc
 413              	.LFE219:
 414              		.size	mtx1_setup, .-mtx1_setup
 415              		.section	.text.mtx2_setup,"ax",%progbits
 416              		.align	1
 417              		.p2align 4,,15
 418              		.syntax unified
 419              		.thumb
 420              		.thumb_func
 421              		.fpu fpv4-sp-d16
 422              		.type	mtx2_setup, %function
 423              	mtx2_setup:
 424              	.LFB251:
 425              		.cfi_startproc
 426              		@ args = 0, pretend = 0, frame = 8
 427              		@ frame_needed = 0, uses_anonymous_args = 0
 428 0000 00B5     		push	{lr}
 429              		.cfi_def_cfa_offset 4
 430              		.cfi_offset 14, -4
 431 0002 074B     		ldr	r3, .L37
 432 0004 83B0     		sub	sp, sp, #12
 433              		.cfi_def_cfa_offset 16
 434 0006 1A68     		ldr	r2, [r3]
 435 0008 0192     		str	r2, [sp, #4]
 436 000a 019A     		ldr	r2, [sp, #4]
 437 000c 1B68     		ldr	r3, [r3]
 438 000e 9A42     		cmp	r2, r3
 439 0010 04D1     		bne	.L36
 440 0012 03B0     		add	sp, sp, #12
 441              		.cfi_remember_state
 442              		.cfi_def_cfa_offset 4
 443              		@ sp needed
 444 0014 5DF804EB 		ldr	lr, [sp], #4
 445              		.cfi_restore 14
 446              		.cfi_def_cfa_offset 0
 447 0018 FFF7FEBF 		b	mtx1_setup
 448              	.L36:
 449              		.cfi_restore_state
 450 001c FFF7FEFF 		bl	__stack_chk_fail
 451              	.L38:
 452              		.align	2
 453              	.L37:
 454 0020 00000000 		.word	__stack_chk_guard
 455              		.cfi_endproc
 456              	.LFE251:
ARM GAS  /var/folders/d2/nstgp4h54kz7g1l847x_b8wc0000gn/T//ccSYBGul.s 			page 9


 457              		.size	mtx2_setup, .-mtx2_setup
 458              		.section	.text.mtx5_setup,"ax",%progbits
 459              		.align	1
 460              		.p2align 4,,15
 461              		.syntax unified
 462              		.thumb
 463              		.thumb_func
 464              		.fpu fpv4-sp-d16
 465              		.type	mtx5_setup, %function
 466              	mtx5_setup:
 467              	.LFB253:
 468              		.cfi_startproc
 469              		@ args = 0, pretend = 0, frame = 8
 470              		@ frame_needed = 0, uses_anonymous_args = 0
 471 0000 00B5     		push	{lr}
 472              		.cfi_def_cfa_offset 4
 473              		.cfi_offset 14, -4
 474 0002 074B     		ldr	r3, .L44
 475 0004 83B0     		sub	sp, sp, #12
 476              		.cfi_def_cfa_offset 16
 477 0006 1A68     		ldr	r2, [r3]
 478 0008 0192     		str	r2, [sp, #4]
 479 000a 019A     		ldr	r2, [sp, #4]
 480 000c 1B68     		ldr	r3, [r3]
 481 000e 9A42     		cmp	r2, r3
 482 0010 04D1     		bne	.L43
 483 0012 03B0     		add	sp, sp, #12
 484              		.cfi_remember_state
 485              		.cfi_def_cfa_offset 4
 486              		@ sp needed
 487 0014 5DF804EB 		ldr	lr, [sp], #4
 488              		.cfi_restore 14
 489              		.cfi_def_cfa_offset 0
 490 0018 FFF7FEBF 		b	mtx1_setup
 491              	.L43:
 492              		.cfi_restore_state
 493 001c FFF7FEFF 		bl	__stack_chk_fail
 494              	.L45:
 495              		.align	2
 496              	.L44:
 497 0020 00000000 		.word	__stack_chk_guard
 498              		.cfi_endproc
 499              	.LFE253:
 500              		.size	mtx5_setup, .-mtx5_setup
 501              		.section	.text.mtx3_setup,"ax",%progbits
 502              		.align	1
 503              		.p2align 4,,15
 504              		.syntax unified
 505              		.thumb
 506              		.thumb_func
 507              		.fpu fpv4-sp-d16
 508              		.type	mtx3_setup, %function
 509              	mtx3_setup:
 510              	.LFB227:
 511              		.loc 1 237 0
 512              		.cfi_startproc
 513              		@ args = 0, pretend = 0, frame = 8
ARM GAS  /var/folders/d2/nstgp4h54kz7g1l847x_b8wc0000gn/T//ccSYBGul.s 			page 10


 514              		@ frame_needed = 0, uses_anonymous_args = 0
 515              		.loc 1 237 0
 516 0000 10B5     		push	{r4, lr}
 517              		.cfi_def_cfa_offset 8
 518              		.cfi_offset 4, -8
 519              		.cfi_offset 14, -4
 520 0002 094C     		ldr	r4, .L51
 521              		.loc 1 239 0
 522 0004 0948     		ldr	r0, .L51+4
 523              		.loc 1 237 0
 524 0006 2368     		ldr	r3, [r4]
 525 0008 82B0     		sub	sp, sp, #8
 526              		.cfi_def_cfa_offset 16
 527              		.loc 1 237 0
 528 000a 0193     		str	r3, [sp, #4]
 529              		.loc 1 239 0
 530 000c FFF7FEFF 		bl	chMtxObjectInit
 531              	.LVL27:
 532              		.loc 1 240 0
 533 0010 019A     		ldr	r2, [sp, #4]
 534 0012 2368     		ldr	r3, [r4]
 535 0014 9A42     		cmp	r2, r3
 536 0016 05D1     		bne	.L50
 537 0018 0548     		ldr	r0, .L51+8
 538              		.loc 1 241 0
 539 001a 02B0     		add	sp, sp, #8
 540              		.cfi_remember_state
 541              		.cfi_def_cfa_offset 8
 542              		@ sp needed
 543 001c BDE81040 		pop	{r4, lr}
 544              		.cfi_restore 14
 545              		.cfi_restore 4
 546              		.cfi_def_cfa_offset 0
 547              		.loc 1 240 0
 548 0020 FFF7FEBF 		b	chMtxObjectInit
 549              	.LVL28:
 550              	.L50:
 551              		.cfi_restore_state
 552 0024 FFF7FEFF 		bl	__stack_chk_fail
 553              	.LVL29:
 554              	.L52:
 555              		.align	2
 556              	.L51:
 557 0028 00000000 		.word	__stack_chk_guard
 558 002c 00000000 		.word	.LANCHOR0
 559 0030 00000000 		.word	.LANCHOR1
 560              		.cfi_endproc
 561              	.LFE227:
 562              		.size	mtx3_setup, .-mtx3_setup
 563              		.section	.text.mtx4_setup,"ax",%progbits
 564              		.align	1
 565              		.p2align 4,,15
 566              		.syntax unified
 567              		.thumb
 568              		.thumb_func
 569              		.fpu fpv4-sp-d16
 570              		.type	mtx4_setup, %function
ARM GAS  /var/folders/d2/nstgp4h54kz7g1l847x_b8wc0000gn/T//ccSYBGul.s 			page 11


 571              	mtx4_setup:
 572              	.LFB255:
 573              		.cfi_startproc
 574              		@ args = 0, pretend = 0, frame = 8
 575              		@ frame_needed = 0, uses_anonymous_args = 0
 576 0000 00B5     		push	{lr}
 577              		.cfi_def_cfa_offset 4
 578              		.cfi_offset 14, -4
 579 0002 074B     		ldr	r3, .L58
 580 0004 83B0     		sub	sp, sp, #12
 581              		.cfi_def_cfa_offset 16
 582 0006 1A68     		ldr	r2, [r3]
 583 0008 0192     		str	r2, [sp, #4]
 584 000a 019A     		ldr	r2, [sp, #4]
 585 000c 1B68     		ldr	r3, [r3]
 586 000e 9A42     		cmp	r2, r3
 587 0010 04D1     		bne	.L57
 588 0012 03B0     		add	sp, sp, #12
 589              		.cfi_remember_state
 590              		.cfi_def_cfa_offset 4
 591              		@ sp needed
 592 0014 5DF804EB 		ldr	lr, [sp], #4
 593              		.cfi_restore 14
 594              		.cfi_def_cfa_offset 0
 595 0018 FFF7FEBF 		b	mtx3_setup
 596              	.L57:
 597              		.cfi_restore_state
 598 001c FFF7FEFF 		bl	__stack_chk_fail
 599              	.L59:
 600              		.align	2
 601              	.L58:
 602 0020 00000000 		.word	__stack_chk_guard
 603              		.cfi_endproc
 604              	.LFE255:
 605              		.size	mtx4_setup, .-mtx4_setup
 606              		.section	.text.thread2L,"ax",%progbits
 607              		.align	1
 608              		.p2align 4,,15
 609              		.syntax unified
 610              		.thumb
 611              		.thumb_func
 612              		.fpu fpv4-sp-d16
 613              		.type	thread2L, %function
 614              	thread2L:
 615              	.LFB223:
 616              		.loc 1 156 0
 617              		.cfi_startproc
 618              		@ args = 0, pretend = 0, frame = 8
 619              		@ frame_needed = 0, uses_anonymous_args = 0
 620              	.LVL30:
 621              		.loc 1 156 0
 622 0000 10B5     		push	{r4, lr}
 623              		.cfi_def_cfa_offset 8
 624              		.cfi_offset 4, -8
 625              		.cfi_offset 14, -4
 626 0002 0E4C     		ldr	r4, .L65
 627              		.loc 1 159 0
ARM GAS  /var/folders/d2/nstgp4h54kz7g1l847x_b8wc0000gn/T//ccSYBGul.s 			page 12


 628 0004 0E48     		ldr	r0, .L65+4
 629              	.LVL31:
 630              		.loc 1 156 0
 631 0006 2368     		ldr	r3, [r4]
 632 0008 82B0     		sub	sp, sp, #8
 633              		.cfi_def_cfa_offset 16
 634              		.loc 1 156 0
 635 000a 0193     		str	r3, [sp, #4]
 636              		.loc 1 159 0
 637 000c FFF7FEFF 		bl	chMtxLock
 638              	.LVL32:
 639              		.loc 1 160 0
 640 0010 2820     		movs	r0, #40
 641 0012 FFF7FEFF 		bl	test_cpu_pulse
 642              	.LVL33:
 643              		.loc 1 161 0
 644 0016 0A48     		ldr	r0, .L65+4
 645 0018 FFF7FEFF 		bl	chMtxUnlock
 646              	.LVL34:
 647              		.loc 1 162 0
 648 001c 0A20     		movs	r0, #10
 649 001e FFF7FEFF 		bl	test_cpu_pulse
 650              	.LVL35:
 651              		.loc 1 163 0
 652 0022 019A     		ldr	r2, [sp, #4]
 653 0024 2368     		ldr	r3, [r4]
 654 0026 9A42     		cmp	r2, r3
 655 0028 05D1     		bne	.L64
 656 002a 4320     		movs	r0, #67
 657              		.loc 1 164 0
 658 002c 02B0     		add	sp, sp, #8
 659              		.cfi_remember_state
 660              		.cfi_def_cfa_offset 8
 661              		@ sp needed
 662 002e BDE81040 		pop	{r4, lr}
 663              		.cfi_restore 14
 664              		.cfi_restore 4
 665              		.cfi_def_cfa_offset 0
 666              		.loc 1 163 0
 667 0032 FFF7FEBF 		b	test_emit_token
 668              	.LVL36:
 669              	.L64:
 670              		.cfi_restore_state
 671 0036 FFF7FEFF 		bl	__stack_chk_fail
 672              	.LVL37:
 673              	.L66:
 674 003a 00BF     		.align	2
 675              	.L65:
 676 003c 00000000 		.word	__stack_chk_guard
 677 0040 00000000 		.word	.LANCHOR0
 678              		.cfi_endproc
 679              	.LFE223:
 680              		.size	thread2L, .-thread2L
 681              		.section	.text.thread3LL,"ax",%progbits
 682              		.align	1
 683              		.p2align 4,,15
 684              		.syntax unified
ARM GAS  /var/folders/d2/nstgp4h54kz7g1l847x_b8wc0000gn/T//ccSYBGul.s 			page 13


 685              		.thumb
 686              		.thumb_func
 687              		.fpu fpv4-sp-d16
 688              		.type	thread3LL, %function
 689              	thread3LL:
 690              	.LFB228:
 691              		.loc 1 244 0
 692              		.cfi_startproc
 693              		@ args = 0, pretend = 0, frame = 8
 694              		@ frame_needed = 0, uses_anonymous_args = 0
 695              	.LVL38:
 696 0000 10B5     		push	{r4, lr}
 697              		.cfi_def_cfa_offset 8
 698              		.cfi_offset 4, -8
 699              		.cfi_offset 14, -4
 700 0002 0C4C     		ldr	r4, .L72
 701              		.loc 1 247 0
 702 0004 0C48     		ldr	r0, .L72+4
 703              	.LVL39:
 704              		.loc 1 244 0
 705 0006 2368     		ldr	r3, [r4]
 706 0008 82B0     		sub	sp, sp, #8
 707              		.cfi_def_cfa_offset 16
 708              		.loc 1 244 0
 709 000a 0193     		str	r3, [sp, #4]
 710              		.loc 1 247 0
 711 000c FFF7FEFF 		bl	chMtxLock
 712              	.LVL40:
 713              		.loc 1 248 0
 714 0010 1E20     		movs	r0, #30
 715 0012 FFF7FEFF 		bl	test_cpu_pulse
 716              	.LVL41:
 717              		.loc 1 249 0
 718 0016 0848     		ldr	r0, .L72+4
 719 0018 FFF7FEFF 		bl	chMtxUnlock
 720              	.LVL42:
 721              		.loc 1 250 0
 722 001c 019A     		ldr	r2, [sp, #4]
 723 001e 2368     		ldr	r3, [r4]
 724 0020 9A42     		cmp	r2, r3
 725 0022 05D1     		bne	.L71
 726 0024 4520     		movs	r0, #69
 727              		.loc 1 251 0
 728 0026 02B0     		add	sp, sp, #8
 729              		.cfi_remember_state
 730              		.cfi_def_cfa_offset 8
 731              		@ sp needed
 732 0028 BDE81040 		pop	{r4, lr}
 733              		.cfi_restore 14
 734              		.cfi_restore 4
 735              		.cfi_def_cfa_offset 0
 736              		.loc 1 250 0
 737 002c FFF7FEBF 		b	test_emit_token
 738              	.LVL43:
 739              	.L71:
 740              		.cfi_restore_state
 741 0030 FFF7FEFF 		bl	__stack_chk_fail
ARM GAS  /var/folders/d2/nstgp4h54kz7g1l847x_b8wc0000gn/T//ccSYBGul.s 			page 14


 742              	.LVL44:
 743              	.L73:
 744              		.align	2
 745              	.L72:
 746 0034 00000000 		.word	__stack_chk_guard
 747 0038 00000000 		.word	.LANCHOR0
 748              		.cfi_endproc
 749              	.LFE228:
 750              		.size	thread3LL, .-thread3LL
 751              		.section	.text.thread2M,"ax",%progbits
 752              		.align	1
 753              		.p2align 4,,15
 754              		.syntax unified
 755              		.thumb
 756              		.thumb_func
 757              		.fpu fpv4-sp-d16
 758              		.type	thread2M, %function
 759              	thread2M:
 760              	.LFB224:
 761              		.loc 1 167 0
 762              		.cfi_startproc
 763              		@ args = 0, pretend = 0, frame = 8
 764              		@ frame_needed = 0, uses_anonymous_args = 0
 765              	.LVL45:
 766 0000 10B5     		push	{r4, lr}
 767              		.cfi_def_cfa_offset 8
 768              		.cfi_offset 4, -8
 769              		.cfi_offset 14, -4
 770 0002 0B4C     		ldr	r4, .L79
 771 0004 82B0     		sub	sp, sp, #8
 772              		.cfi_def_cfa_offset 16
 773              		.loc 1 167 0
 774 0006 2368     		ldr	r3, [r4]
 775 0008 0193     		str	r3, [sp, #4]
 776              		.loc 1 170 0
 777 000a 1420     		movs	r0, #20
 778              	.LVL46:
 779 000c FFF7FEFF 		bl	chThdSleep
 780              	.LVL47:
 781              		.loc 1 171 0
 782 0010 2820     		movs	r0, #40
 783 0012 FFF7FEFF 		bl	test_cpu_pulse
 784              	.LVL48:
 785              		.loc 1 172 0
 786 0016 019A     		ldr	r2, [sp, #4]
 787 0018 2368     		ldr	r3, [r4]
 788 001a 9A42     		cmp	r2, r3
 789 001c 05D1     		bne	.L78
 790 001e 4220     		movs	r0, #66
 791              		.loc 1 173 0
 792 0020 02B0     		add	sp, sp, #8
 793              		.cfi_remember_state
 794              		.cfi_def_cfa_offset 8
 795              		@ sp needed
 796 0022 BDE81040 		pop	{r4, lr}
 797              		.cfi_restore 14
 798              		.cfi_restore 4
ARM GAS  /var/folders/d2/nstgp4h54kz7g1l847x_b8wc0000gn/T//ccSYBGul.s 			page 15


 799              		.cfi_def_cfa_offset 0
 800              		.loc 1 172 0
 801 0026 FFF7FEBF 		b	test_emit_token
 802              	.LVL49:
 803              	.L78:
 804              		.cfi_restore_state
 805 002a FFF7FEFF 		bl	__stack_chk_fail
 806              	.LVL50:
 807              	.L80:
 808 002e 00BF     		.align	2
 809              	.L79:
 810 0030 00000000 		.word	__stack_chk_guard
 811              		.cfi_endproc
 812              	.LFE224:
 813              		.size	thread2M, .-thread2M
 814              		.section	.text.thread2H,"ax",%progbits
 815              		.align	1
 816              		.p2align 4,,15
 817              		.syntax unified
 818              		.thumb
 819              		.thumb_func
 820              		.fpu fpv4-sp-d16
 821              		.type	thread2H, %function
 822              	thread2H:
 823              	.LFB225:
 824              		.loc 1 176 0
 825              		.cfi_startproc
 826              		@ args = 0, pretend = 0, frame = 8
 827              		@ frame_needed = 0, uses_anonymous_args = 0
 828              	.LVL51:
 829 0000 10B5     		push	{r4, lr}
 830              		.cfi_def_cfa_offset 8
 831              		.cfi_offset 4, -8
 832              		.cfi_offset 14, -4
 833 0002 0E4C     		ldr	r4, .L86
 834 0004 82B0     		sub	sp, sp, #8
 835              		.cfi_def_cfa_offset 16
 836              		.loc 1 176 0
 837 0006 2368     		ldr	r3, [r4]
 838 0008 0193     		str	r3, [sp, #4]
 839              		.loc 1 179 0
 840 000a 2820     		movs	r0, #40
 841              	.LVL52:
 842 000c FFF7FEFF 		bl	chThdSleep
 843              	.LVL53:
 844              		.loc 1 180 0
 845 0010 0B48     		ldr	r0, .L86+4
 846 0012 FFF7FEFF 		bl	chMtxLock
 847              	.LVL54:
 848              		.loc 1 181 0
 849 0016 0A20     		movs	r0, #10
 850 0018 FFF7FEFF 		bl	test_cpu_pulse
 851              	.LVL55:
 852              		.loc 1 182 0
 853 001c 0848     		ldr	r0, .L86+4
 854 001e FFF7FEFF 		bl	chMtxUnlock
 855              	.LVL56:
ARM GAS  /var/folders/d2/nstgp4h54kz7g1l847x_b8wc0000gn/T//ccSYBGul.s 			page 16


 856              		.loc 1 183 0
 857 0022 019A     		ldr	r2, [sp, #4]
 858 0024 2368     		ldr	r3, [r4]
 859 0026 9A42     		cmp	r2, r3
 860 0028 05D1     		bne	.L85
 861 002a 4120     		movs	r0, #65
 862              		.loc 1 184 0
 863 002c 02B0     		add	sp, sp, #8
 864              		.cfi_remember_state
 865              		.cfi_def_cfa_offset 8
 866              		@ sp needed
 867 002e BDE81040 		pop	{r4, lr}
 868              		.cfi_restore 14
 869              		.cfi_restore 4
 870              		.cfi_def_cfa_offset 0
 871              		.loc 1 183 0
 872 0032 FFF7FEBF 		b	test_emit_token
 873              	.LVL57:
 874              	.L85:
 875              		.cfi_restore_state
 876 0036 FFF7FEFF 		bl	__stack_chk_fail
 877              	.LVL58:
 878              	.L87:
 879 003a 00BF     		.align	2
 880              	.L86:
 881 003c 00000000 		.word	__stack_chk_guard
 882 0040 00000000 		.word	.LANCHOR0
 883              		.cfi_endproc
 884              	.LFE225:
 885              		.size	thread2H, .-thread2H
 886              		.section	.text.thread3HH,"ax",%progbits
 887              		.align	1
 888              		.p2align 4,,15
 889              		.syntax unified
 890              		.thumb
 891              		.thumb_func
 892              		.fpu fpv4-sp-d16
 893              		.type	thread3HH, %function
 894              	thread3HH:
 895              	.LFB232:
 896              		.loc 1 289 0
 897              		.cfi_startproc
 898              		@ args = 0, pretend = 0, frame = 8
 899              		@ frame_needed = 0, uses_anonymous_args = 0
 900              	.LVL59:
 901 0000 10B5     		push	{r4, lr}
 902              		.cfi_def_cfa_offset 8
 903              		.cfi_offset 4, -8
 904              		.cfi_offset 14, -4
 905 0002 0E4C     		ldr	r4, .L93
 906 0004 82B0     		sub	sp, sp, #8
 907              		.cfi_def_cfa_offset 16
 908              		.loc 1 289 0
 909 0006 2368     		ldr	r3, [r4]
 910 0008 0193     		str	r3, [sp, #4]
 911              		.loc 1 292 0
 912 000a 3220     		movs	r0, #50
ARM GAS  /var/folders/d2/nstgp4h54kz7g1l847x_b8wc0000gn/T//ccSYBGul.s 			page 17


 913              	.LVL60:
 914 000c FFF7FEFF 		bl	chThdSleep
 915              	.LVL61:
 916              		.loc 1 293 0
 917 0010 0B48     		ldr	r0, .L93+4
 918 0012 FFF7FEFF 		bl	chMtxLock
 919              	.LVL62:
 920              		.loc 1 294 0
 921 0016 0A20     		movs	r0, #10
 922 0018 FFF7FEFF 		bl	test_cpu_pulse
 923              	.LVL63:
 924              		.loc 1 295 0
 925 001c 0848     		ldr	r0, .L93+4
 926 001e FFF7FEFF 		bl	chMtxUnlock
 927              	.LVL64:
 928              		.loc 1 296 0
 929 0022 019A     		ldr	r2, [sp, #4]
 930 0024 2368     		ldr	r3, [r4]
 931 0026 9A42     		cmp	r2, r3
 932 0028 05D1     		bne	.L92
 933 002a 4120     		movs	r0, #65
 934              		.loc 1 297 0
 935 002c 02B0     		add	sp, sp, #8
 936              		.cfi_remember_state
 937              		.cfi_def_cfa_offset 8
 938              		@ sp needed
 939 002e BDE81040 		pop	{r4, lr}
 940              		.cfi_restore 14
 941              		.cfi_restore 4
 942              		.cfi_def_cfa_offset 0
 943              		.loc 1 296 0
 944 0032 FFF7FEBF 		b	test_emit_token
 945              	.LVL65:
 946              	.L92:
 947              		.cfi_restore_state
 948 0036 FFF7FEFF 		bl	__stack_chk_fail
 949              	.LVL66:
 950              	.L94:
 951 003a 00BF     		.align	2
 952              	.L93:
 953 003c 00000000 		.word	__stack_chk_guard
 954 0040 00000000 		.word	.LANCHOR1
 955              		.cfi_endproc
 956              	.LFE232:
 957              		.size	thread3HH, .-thread3HH
 958              		.section	.text.thread3H,"ax",%progbits
 959              		.align	1
 960              		.p2align 4,,15
 961              		.syntax unified
 962              		.thumb
 963              		.thumb_func
 964              		.fpu fpv4-sp-d16
 965              		.type	thread3H, %function
 966              	thread3H:
 967              	.LFB231:
 968              		.loc 1 280 0
 969              		.cfi_startproc
ARM GAS  /var/folders/d2/nstgp4h54kz7g1l847x_b8wc0000gn/T//ccSYBGul.s 			page 18


 970              		@ args = 0, pretend = 0, frame = 8
 971              		@ frame_needed = 0, uses_anonymous_args = 0
 972              	.LVL67:
 973 0000 10B5     		push	{r4, lr}
 974              		.cfi_def_cfa_offset 8
 975              		.cfi_offset 4, -8
 976              		.cfi_offset 14, -4
 977 0002 0B4C     		ldr	r4, .L100
 978 0004 82B0     		sub	sp, sp, #8
 979              		.cfi_def_cfa_offset 16
 980              		.loc 1 280 0
 981 0006 2368     		ldr	r3, [r4]
 982 0008 0193     		str	r3, [sp, #4]
 983              		.loc 1 283 0
 984 000a 2820     		movs	r0, #40
 985              	.LVL68:
 986 000c FFF7FEFF 		bl	chThdSleep
 987              	.LVL69:
 988              		.loc 1 284 0
 989 0010 1420     		movs	r0, #20
 990 0012 FFF7FEFF 		bl	test_cpu_pulse
 991              	.LVL70:
 992              		.loc 1 285 0
 993 0016 019A     		ldr	r2, [sp, #4]
 994 0018 2368     		ldr	r3, [r4]
 995 001a 9A42     		cmp	r2, r3
 996 001c 05D1     		bne	.L99
 997 001e 4220     		movs	r0, #66
 998              		.loc 1 286 0
 999 0020 02B0     		add	sp, sp, #8
 1000              		.cfi_remember_state
 1001              		.cfi_def_cfa_offset 8
 1002              		@ sp needed
 1003 0022 BDE81040 		pop	{r4, lr}
 1004              		.cfi_restore 14
 1005              		.cfi_restore 4
 1006              		.cfi_def_cfa_offset 0
 1007              		.loc 1 285 0
 1008 0026 FFF7FEBF 		b	test_emit_token
 1009              	.LVL71:
 1010              	.L99:
 1011              		.cfi_restore_state
 1012 002a FFF7FEFF 		bl	__stack_chk_fail
 1013              	.LVL72:
 1014              	.L101:
 1015 002e 00BF     		.align	2
 1016              	.L100:
 1017 0030 00000000 		.word	__stack_chk_guard
 1018              		.cfi_endproc
 1019              	.LFE231:
 1020              		.size	thread3H, .-thread3H
 1021              		.section	.text.thread3M,"ax",%progbits
 1022              		.align	1
 1023              		.p2align 4,,15
 1024              		.syntax unified
 1025              		.thumb
 1026              		.thumb_func
ARM GAS  /var/folders/d2/nstgp4h54kz7g1l847x_b8wc0000gn/T//ccSYBGul.s 			page 19


 1027              		.fpu fpv4-sp-d16
 1028              		.type	thread3M, %function
 1029              	thread3M:
 1030              	.LFB230:
 1031              		.loc 1 269 0
 1032              		.cfi_startproc
 1033              		@ args = 0, pretend = 0, frame = 8
 1034              		@ frame_needed = 0, uses_anonymous_args = 0
 1035              	.LVL73:
 1036 0000 10B5     		push	{r4, lr}
 1037              		.cfi_def_cfa_offset 8
 1038              		.cfi_offset 4, -8
 1039              		.cfi_offset 14, -4
 1040 0002 0E4C     		ldr	r4, .L107
 1041 0004 82B0     		sub	sp, sp, #8
 1042              		.cfi_def_cfa_offset 16
 1043              		.loc 1 269 0
 1044 0006 2368     		ldr	r3, [r4]
 1045 0008 0193     		str	r3, [sp, #4]
 1046              		.loc 1 272 0
 1047 000a 1420     		movs	r0, #20
 1048              	.LVL74:
 1049 000c FFF7FEFF 		bl	chThdSleep
 1050              	.LVL75:
 1051              		.loc 1 273 0
 1052 0010 0B48     		ldr	r0, .L107+4
 1053 0012 FFF7FEFF 		bl	chMtxLock
 1054              	.LVL76:
 1055              		.loc 1 274 0
 1056 0016 0A20     		movs	r0, #10
 1057 0018 FFF7FEFF 		bl	test_cpu_pulse
 1058              	.LVL77:
 1059              		.loc 1 275 0
 1060 001c 0848     		ldr	r0, .L107+4
 1061 001e FFF7FEFF 		bl	chMtxUnlock
 1062              	.LVL78:
 1063              		.loc 1 276 0
 1064 0022 019A     		ldr	r2, [sp, #4]
 1065 0024 2368     		ldr	r3, [r4]
 1066 0026 9A42     		cmp	r2, r3
 1067 0028 05D1     		bne	.L106
 1068 002a 4320     		movs	r0, #67
 1069              		.loc 1 277 0
 1070 002c 02B0     		add	sp, sp, #8
 1071              		.cfi_remember_state
 1072              		.cfi_def_cfa_offset 8
 1073              		@ sp needed
 1074 002e BDE81040 		pop	{r4, lr}
 1075              		.cfi_restore 14
 1076              		.cfi_restore 4
 1077              		.cfi_def_cfa_offset 0
 1078              		.loc 1 276 0
 1079 0032 FFF7FEBF 		b	test_emit_token
 1080              	.LVL79:
 1081              	.L106:
 1082              		.cfi_restore_state
 1083 0036 FFF7FEFF 		bl	__stack_chk_fail
ARM GAS  /var/folders/d2/nstgp4h54kz7g1l847x_b8wc0000gn/T//ccSYBGul.s 			page 20


 1084              	.LVL80:
 1085              	.L108:
 1086 003a 00BF     		.align	2
 1087              	.L107:
 1088 003c 00000000 		.word	__stack_chk_guard
 1089 0040 00000000 		.word	.LANCHOR1
 1090              		.cfi_endproc
 1091              	.LFE230:
 1092              		.size	thread3M, .-thread3M
 1093              		.section	.text.thread3L,"ax",%progbits
 1094              		.align	1
 1095              		.p2align 4,,15
 1096              		.syntax unified
 1097              		.thumb
 1098              		.thumb_func
 1099              		.fpu fpv4-sp-d16
 1100              		.type	thread3L, %function
 1101              	thread3L:
 1102              	.LFB229:
 1103              		.loc 1 254 0
 1104              		.cfi_startproc
 1105              		@ args = 0, pretend = 0, frame = 8
 1106              		@ frame_needed = 0, uses_anonymous_args = 0
 1107              	.LVL81:
 1108 0000 10B5     		push	{r4, lr}
 1109              		.cfi_def_cfa_offset 8
 1110              		.cfi_offset 4, -8
 1111              		.cfi_offset 14, -4
 1112 0002 144C     		ldr	r4, .L114
 1113 0004 82B0     		sub	sp, sp, #8
 1114              		.cfi_def_cfa_offset 16
 1115              		.loc 1 254 0
 1116 0006 2368     		ldr	r3, [r4]
 1117 0008 0193     		str	r3, [sp, #4]
 1118              		.loc 1 257 0
 1119 000a 0A20     		movs	r0, #10
 1120              	.LVL82:
 1121 000c FFF7FEFF 		bl	chThdSleep
 1122              	.LVL83:
 1123              		.loc 1 258 0
 1124 0010 1148     		ldr	r0, .L114+4
 1125 0012 FFF7FEFF 		bl	chMtxLock
 1126              	.LVL84:
 1127              		.loc 1 259 0
 1128 0016 1420     		movs	r0, #20
 1129 0018 FFF7FEFF 		bl	test_cpu_pulse
 1130              	.LVL85:
 1131              		.loc 1 260 0
 1132 001c 0F48     		ldr	r0, .L114+8
 1133 001e FFF7FEFF 		bl	chMtxLock
 1134              	.LVL86:
 1135              		.loc 1 261 0
 1136 0022 0A20     		movs	r0, #10
 1137 0024 FFF7FEFF 		bl	test_cpu_pulse
 1138              	.LVL87:
 1139              		.loc 1 262 0
 1140 0028 0C48     		ldr	r0, .L114+8
ARM GAS  /var/folders/d2/nstgp4h54kz7g1l847x_b8wc0000gn/T//ccSYBGul.s 			page 21


 1141 002a FFF7FEFF 		bl	chMtxUnlock
 1142              	.LVL88:
 1143              		.loc 1 263 0
 1144 002e 0A20     		movs	r0, #10
 1145 0030 FFF7FEFF 		bl	test_cpu_pulse
 1146              	.LVL89:
 1147              		.loc 1 264 0
 1148 0034 0848     		ldr	r0, .L114+4
 1149 0036 FFF7FEFF 		bl	chMtxUnlock
 1150              	.LVL90:
 1151              		.loc 1 265 0
 1152 003a 019A     		ldr	r2, [sp, #4]
 1153 003c 2368     		ldr	r3, [r4]
 1154 003e 9A42     		cmp	r2, r3
 1155 0040 05D1     		bne	.L113
 1156 0042 4420     		movs	r0, #68
 1157              		.loc 1 266 0
 1158 0044 02B0     		add	sp, sp, #8
 1159              		.cfi_remember_state
 1160              		.cfi_def_cfa_offset 8
 1161              		@ sp needed
 1162 0046 BDE81040 		pop	{r4, lr}
 1163              		.cfi_restore 14
 1164              		.cfi_restore 4
 1165              		.cfi_def_cfa_offset 0
 1166              		.loc 1 265 0
 1167 004a FFF7FEBF 		b	test_emit_token
 1168              	.LVL91:
 1169              	.L113:
 1170              		.cfi_restore_state
 1171 004e FFF7FEFF 		bl	__stack_chk_fail
 1172              	.LVL92:
 1173              	.L115:
 1174 0052 00BF     		.align	2
 1175              	.L114:
 1176 0054 00000000 		.word	__stack_chk_guard
 1177 0058 00000000 		.word	.LANCHOR1
 1178 005c 00000000 		.word	.LANCHOR0
 1179              		.cfi_endproc
 1180              	.LFE229:
 1181              		.size	thread3L, .-thread3L
 1182              		.section	.text.thread4b,"ax",%progbits
 1183              		.align	1
 1184              		.p2align 4,,15
 1185              		.syntax unified
 1186              		.thumb
 1187              		.thumb_func
 1188              		.fpu fpv4-sp-d16
 1189              		.type	thread4b, %function
 1190              	thread4b:
 1191              	.LFB236:
 1192              		.loc 1 346 0
 1193              		.cfi_startproc
 1194              		@ args = 0, pretend = 0, frame = 8
 1195              		@ frame_needed = 0, uses_anonymous_args = 0
 1196              	.LVL93:
 1197 0000 10B5     		push	{r4, lr}
ARM GAS  /var/folders/d2/nstgp4h54kz7g1l847x_b8wc0000gn/T//ccSYBGul.s 			page 22


 1198              		.cfi_def_cfa_offset 8
 1199              		.cfi_offset 4, -8
 1200              		.cfi_offset 14, -4
 1201 0002 0B4C     		ldr	r4, .L121
 1202 0004 82B0     		sub	sp, sp, #8
 1203              		.cfi_def_cfa_offset 16
 1204              		.loc 1 346 0
 1205 0006 2368     		ldr	r3, [r4]
 1206 0008 0193     		str	r3, [sp, #4]
 1207              		.loc 1 349 0
 1208 000a 9620     		movs	r0, #150
 1209              	.LVL94:
 1210 000c FFF7FEFF 		bl	chThdSleep
 1211              	.LVL95:
 1212              		.loc 1 350 0
 1213 0010 0848     		ldr	r0, .L121+4
 1214 0012 FFF7FEFF 		bl	chMtxLock
 1215              	.LVL96:
 1216              		.loc 1 351 0
 1217 0016 019A     		ldr	r2, [sp, #4]
 1218 0018 2368     		ldr	r3, [r4]
 1219 001a 9A42     		cmp	r2, r3
 1220 001c 05D1     		bne	.L120
 1221 001e 0548     		ldr	r0, .L121+4
 1222              		.loc 1 352 0
 1223 0020 02B0     		add	sp, sp, #8
 1224              		.cfi_remember_state
 1225              		.cfi_def_cfa_offset 8
 1226              		@ sp needed
 1227 0022 BDE81040 		pop	{r4, lr}
 1228              		.cfi_restore 14
 1229              		.cfi_restore 4
 1230              		.cfi_def_cfa_offset 0
 1231              		.loc 1 351 0
 1232 0026 FFF7FEBF 		b	chMtxUnlock
 1233              	.LVL97:
 1234              	.L120:
 1235              		.cfi_restore_state
 1236 002a FFF7FEFF 		bl	__stack_chk_fail
 1237              	.LVL98:
 1238              	.L122:
 1239 002e 00BF     		.align	2
 1240              	.L121:
 1241 0030 00000000 		.word	__stack_chk_guard
 1242 0034 00000000 		.word	.LANCHOR0
 1243              		.cfi_endproc
 1244              	.LFE236:
 1245              		.size	thread4b, .-thread4b
 1246              		.section	.text.thread4a,"ax",%progbits
 1247              		.align	1
 1248              		.p2align 4,,15
 1249              		.syntax unified
 1250              		.thumb
 1251              		.thumb_func
 1252              		.fpu fpv4-sp-d16
 1253              		.type	thread4a, %function
 1254              	thread4a:
ARM GAS  /var/folders/d2/nstgp4h54kz7g1l847x_b8wc0000gn/T//ccSYBGul.s 			page 23


 1255              	.LFB235:
 1256              		.loc 1 338 0
 1257              		.cfi_startproc
 1258              		@ args = 0, pretend = 0, frame = 8
 1259              		@ frame_needed = 0, uses_anonymous_args = 0
 1260              	.LVL99:
 1261 0000 10B5     		push	{r4, lr}
 1262              		.cfi_def_cfa_offset 8
 1263              		.cfi_offset 4, -8
 1264              		.cfi_offset 14, -4
 1265 0002 0B4C     		ldr	r4, .L128
 1266 0004 82B0     		sub	sp, sp, #8
 1267              		.cfi_def_cfa_offset 16
 1268              		.loc 1 338 0
 1269 0006 2368     		ldr	r3, [r4]
 1270 0008 0193     		str	r3, [sp, #4]
 1271              		.loc 1 341 0
 1272 000a 3220     		movs	r0, #50
 1273              	.LVL100:
 1274 000c FFF7FEFF 		bl	chThdSleep
 1275              	.LVL101:
 1276              		.loc 1 342 0
 1277 0010 0848     		ldr	r0, .L128+4
 1278 0012 FFF7FEFF 		bl	chMtxLock
 1279              	.LVL102:
 1280              		.loc 1 343 0
 1281 0016 019A     		ldr	r2, [sp, #4]
 1282 0018 2368     		ldr	r3, [r4]
 1283 001a 9A42     		cmp	r2, r3
 1284 001c 05D1     		bne	.L127
 1285 001e 0548     		ldr	r0, .L128+4
 1286              		.loc 1 344 0
 1287 0020 02B0     		add	sp, sp, #8
 1288              		.cfi_remember_state
 1289              		.cfi_def_cfa_offset 8
 1290              		@ sp needed
 1291 0022 BDE81040 		pop	{r4, lr}
 1292              		.cfi_restore 14
 1293              		.cfi_restore 4
 1294              		.cfi_def_cfa_offset 0
 1295              		.loc 1 343 0
 1296 0026 FFF7FEBF 		b	chMtxUnlock
 1297              	.LVL103:
 1298              	.L127:
 1299              		.cfi_restore_state
 1300 002a FFF7FEFF 		bl	__stack_chk_fail
 1301              	.LVL104:
 1302              	.L129:
 1303 002e 00BF     		.align	2
 1304              	.L128:
 1305 0030 00000000 		.word	__stack_chk_guard
 1306 0034 00000000 		.word	.LANCHOR1
 1307              		.cfi_endproc
 1308              	.LFE235:
 1309              		.size	thread4a, .-thread4a
 1310              		.section	.text.mtx4_execute,"ax",%progbits
 1311              		.align	1
ARM GAS  /var/folders/d2/nstgp4h54kz7g1l847x_b8wc0000gn/T//ccSYBGul.s 			page 24


 1312              		.p2align 4,,15
 1313              		.syntax unified
 1314              		.thumb
 1315              		.thumb_func
 1316              		.fpu fpv4-sp-d16
 1317              		.type	mtx4_execute, %function
 1318              	mtx4_execute:
 1319              	.LFB237:
 1320              		.loc 1 354 0
 1321              		.cfi_startproc
 1322              		@ args = 0, pretend = 0, frame = 16
 1323              		@ frame_needed = 0, uses_anonymous_args = 0
 1324 0000 2DE9F04D 		push	{r4, r5, r6, r7, r8, r10, fp, lr}
 1325              		.cfi_def_cfa_offset 32
 1326              		.cfi_offset 4, -32
 1327              		.cfi_offset 5, -28
 1328              		.cfi_offset 6, -24
 1329              		.cfi_offset 7, -20
 1330              		.cfi_offset 8, -16
 1331              		.cfi_offset 10, -12
 1332              		.cfi_offset 11, -8
 1333              		.cfi_offset 14, -4
 1334              	.LBB247:
 1335              	.LBB248:
 1336              	.LBB249:
 1337              	.LBB250:
 1338              		.loc 2 176 0
 1339 0004 9E4D     		ldr	r5, .L140
 1340              	.LBE250:
 1341              	.LBE249:
 1342              	.LBE248:
 1343              	.LBE247:
 1344              		.loc 1 354 0
 1345 0006 9F4F     		ldr	r7, .L140+4
 1346              	.LBB253:
 1347              	.LBB251:
 1348              		.loc 2 189 0
 1349 0008 AB69     		ldr	r3, [r5, #24]
 1350              	.LBE251:
 1351              	.LBE253:
 1352              		.loc 1 360 0
 1353 000a 9F4E     		ldr	r6, .L140+8
 1354              	.LBB254:
 1355              	.LBB252:
 1356              		.loc 2 189 0
 1357 000c 9C68     		ldr	r4, [r3, #8]
 1358              	.LBE252:
 1359              	.LBE254:
 1360              		.loc 1 354 0
 1361 000e 3968     		ldr	r1, [r7]
 1362              		.loc 1 360 0
 1363 0010 9E4B     		ldr	r3, .L140+12
 1364 0012 3068     		ldr	r0, [r6]
 1365 0014 DFF89882 		ldr	r8, .L140+48
 1366              		.loc 1 354 0
 1367 0018 86B0     		sub	sp, sp, #24
 1368              		.cfi_def_cfa_offset 56
ARM GAS  /var/folders/d2/nstgp4h54kz7g1l847x_b8wc0000gn/T//ccSYBGul.s 			page 25


 1369              		.loc 1 358 0
 1370 001a 04F1010A 		add	r10, r4, #1
 1371              	.LVL105:
 1372              		.loc 1 360 0
 1373 001e 0093     		str	r3, [sp]
 1374 0020 5246     		mov	r2, r10
 1375 0022 9B4B     		ldr	r3, .L140+16
 1376              		.loc 1 354 0
 1377 0024 0591     		str	r1, [sp, #20]
 1378              		.loc 1 360 0
 1379 0026 4FF4FC71 		mov	r1, #504
 1380 002a 0390     		str	r0, [sp, #12]
 1381 002c FFF7FEFF 		bl	chThdCreateStatic
 1382              	.LVL106:
 1383              		.loc 1 361 0
 1384 0030 7668     		ldr	r6, [r6, #4]
 1385 0032 984B     		ldr	r3, .L140+20
 1386              		.loc 1 360 0
 1387 0034 C8F80000 		str	r0, [r8]
 1388              		.loc 1 359 0
 1389 0038 04F1020B 		add	fp, r4, #2
 1390              	.LVL107:
 1391              		.loc 1 361 0
 1392 003c 4FF4FC71 		mov	r1, #504
 1393 0040 5A46     		mov	r2, fp
 1394 0042 0093     		str	r3, [sp]
 1395 0044 3046     		mov	r0, r6
 1396 0046 944B     		ldr	r3, .L140+24
 1397 0048 FFF7FEFF 		bl	chThdCreateStatic
 1398              	.LVL108:
 1399 004c C8F80400 		str	r0, [r8, #4]
 1400              		.loc 1 362 0
 1401 0050 9248     		ldr	r0, .L140+28
 1402 0052 FFF7FEFF 		bl	chMtxLock
 1403              	.LVL109:
 1404              	.LBB255:
 1405              	.LBB256:
 1406              		.loc 2 189 0
 1407 0056 AB69     		ldr	r3, [r5, #24]
 1408              	.LBE256:
 1409              	.LBE255:
 1410              		.loc 1 363 0
 1411 0058 9968     		ldr	r1, [r3, #8]
 1412 005a 091B     		subs	r1, r1, r4
 1413 005c B1FA81F1 		clz	r1, r1
 1414 0060 0120     		movs	r0, #1
 1415 0062 4909     		lsrs	r1, r1, #5
 1416 0064 FFF7FEFF 		bl	_test_assert
 1417              	.LVL110:
 1418 0068 38B1     		cbz	r0, .L139
 1419              	.L130:
 1420              		.loc 1 399 0
 1421 006a 059A     		ldr	r2, [sp, #20]
 1422 006c 3B68     		ldr	r3, [r7]
 1423 006e 9A42     		cmp	r2, r3
 1424 0070 40F00381 		bne	.L138
 1425 0074 06B0     		add	sp, sp, #24
ARM GAS  /var/folders/d2/nstgp4h54kz7g1l847x_b8wc0000gn/T//ccSYBGul.s 			page 26


 1426              		.cfi_remember_state
 1427              		.cfi_def_cfa_offset 32
 1428              		@ sp needed
 1429 0076 BDE8F08D 		pop	{r4, r5, r6, r7, r8, r10, fp, pc}
 1430              	.LVL111:
 1431              	.L139:
 1432              		.cfi_restore_state
 1433              		.loc 1 364 0
 1434 007a 6420     		movs	r0, #100
 1435 007c FFF7FEFF 		bl	chThdSleep
 1436              	.LVL112:
 1437              	.LBB257:
 1438              	.LBB258:
 1439              		.loc 2 189 0
 1440 0080 AB69     		ldr	r3, [r5, #24]
 1441              	.LBE258:
 1442              	.LBE257:
 1443              		.loc 1 365 0
 1444 0082 9968     		ldr	r1, [r3, #8]
 1445 0084 A1EB0A01 		sub	r1, r1, r10
 1446 0088 B1FA81F1 		clz	r1, r1
 1447 008c 0220     		movs	r0, #2
 1448 008e 4909     		lsrs	r1, r1, #5
 1449 0090 FFF7FEFF 		bl	_test_assert
 1450              	.LVL113:
 1451 0094 0028     		cmp	r0, #0
 1452 0096 E8D1     		bne	.L130
 1453              		.loc 1 366 0
 1454 0098 8148     		ldr	r0, .L140+32
 1455 009a FFF7FEFF 		bl	chMtxLock
 1456              	.LVL114:
 1457              	.LBB259:
 1458              	.LBB260:
 1459              		.loc 2 189 0
 1460 009e AB69     		ldr	r3, [r5, #24]
 1461              	.LBE260:
 1462              	.LBE259:
 1463              		.loc 1 367 0
 1464 00a0 9968     		ldr	r1, [r3, #8]
 1465 00a2 A1EB0A01 		sub	r1, r1, r10
 1466 00a6 B1FA81F1 		clz	r1, r1
 1467 00aa 0320     		movs	r0, #3
 1468 00ac 4909     		lsrs	r1, r1, #5
 1469 00ae FFF7FEFF 		bl	_test_assert
 1470              	.LVL115:
 1471 00b2 0028     		cmp	r0, #0
 1472 00b4 D9D1     		bne	.L130
 1473              		.loc 1 368 0
 1474 00b6 6420     		movs	r0, #100
 1475 00b8 FFF7FEFF 		bl	chThdSleep
 1476              	.LVL116:
 1477              	.LBB261:
 1478              	.LBB262:
 1479              		.loc 2 189 0
 1480 00bc AB69     		ldr	r3, [r5, #24]
 1481              	.LBE262:
 1482              	.LBE261:
ARM GAS  /var/folders/d2/nstgp4h54kz7g1l847x_b8wc0000gn/T//ccSYBGul.s 			page 27


 1483              		.loc 1 369 0
 1484 00be 9968     		ldr	r1, [r3, #8]
 1485 00c0 A1EB0B01 		sub	r1, r1, fp
 1486 00c4 B1FA81F1 		clz	r1, r1
 1487 00c8 0420     		movs	r0, #4
 1488 00ca 4909     		lsrs	r1, r1, #5
 1489 00cc FFF7FEFF 		bl	_test_assert
 1490              	.LVL117:
 1491 00d0 0028     		cmp	r0, #0
 1492 00d2 CAD1     		bne	.L130
 1493              		.loc 1 370 0
 1494 00d4 7248     		ldr	r0, .L140+32
 1495 00d6 FFF7FEFF 		bl	chMtxUnlock
 1496              	.LVL118:
 1497              	.LBB263:
 1498              	.LBB264:
 1499              		.loc 2 189 0
 1500 00da AB69     		ldr	r3, [r5, #24]
 1501              	.LBE264:
 1502              	.LBE263:
 1503              		.loc 1 371 0
 1504 00dc 9968     		ldr	r1, [r3, #8]
 1505 00de A1EB0A01 		sub	r1, r1, r10
 1506 00e2 B1FA81F1 		clz	r1, r1
 1507 00e6 0520     		movs	r0, #5
 1508 00e8 4909     		lsrs	r1, r1, #5
 1509 00ea FFF7FEFF 		bl	_test_assert
 1510              	.LVL119:
 1511 00ee 0028     		cmp	r0, #0
 1512 00f0 BBD1     		bne	.L130
 1513              		.loc 1 372 0
 1514 00f2 6420     		movs	r0, #100
 1515 00f4 FFF7FEFF 		bl	chThdSleep
 1516              	.LVL120:
 1517              	.LBB265:
 1518              	.LBB266:
 1519              		.loc 2 189 0
 1520 00f8 AB69     		ldr	r3, [r5, #24]
 1521              	.LBE266:
 1522              	.LBE265:
 1523              		.loc 1 373 0
 1524 00fa 9968     		ldr	r1, [r3, #8]
 1525 00fc A1EB0A01 		sub	r1, r1, r10
 1526 0100 B1FA81F1 		clz	r1, r1
 1527 0104 0620     		movs	r0, #6
 1528 0106 4909     		lsrs	r1, r1, #5
 1529 0108 FFF7FEFF 		bl	_test_assert
 1530              	.LVL121:
 1531 010c 0028     		cmp	r0, #0
 1532 010e ACD1     		bne	.L130
 1533              		.loc 1 374 0
 1534 0110 FFF7FEFF 		bl	chMtxUnlockAll
 1535              	.LVL122:
 1536              	.LBB267:
 1537              	.LBB268:
 1538              		.loc 2 189 0
 1539 0114 AB69     		ldr	r3, [r5, #24]
ARM GAS  /var/folders/d2/nstgp4h54kz7g1l847x_b8wc0000gn/T//ccSYBGul.s 			page 28


 1540              	.LBE268:
 1541              	.LBE267:
 1542              		.loc 1 375 0
 1543 0116 9968     		ldr	r1, [r3, #8]
 1544 0118 091B     		subs	r1, r1, r4
 1545 011a B1FA81F1 		clz	r1, r1
 1546 011e 0720     		movs	r0, #7
 1547 0120 4909     		lsrs	r1, r1, #5
 1548 0122 FFF7FEFF 		bl	_test_assert
 1549              	.LVL123:
 1550 0126 0028     		cmp	r0, #0
 1551 0128 9FD1     		bne	.L130
 1552              		.loc 1 376 0
 1553 012a FFF7FEFF 		bl	test_wait_threads
 1554              	.LVL124:
 1555              		.loc 1 379 0
 1556 012e 5D4B     		ldr	r3, .L140+36
 1557 0130 0093     		str	r3, [sp]
 1558 0132 5246     		mov	r2, r10
 1559 0134 564B     		ldr	r3, .L140+16
 1560 0136 0398     		ldr	r0, [sp, #12]
 1561 0138 4FF4FC71 		mov	r1, #504
 1562 013c FFF7FEFF 		bl	chThdCreateStatic
 1563              	.LVL125:
 1564              		.loc 1 380 0
 1565 0140 594B     		ldr	r3, .L140+40
 1566              		.loc 1 379 0
 1567 0142 C8F80000 		str	r0, [r8]
 1568              		.loc 1 380 0
 1569 0146 4FF4FC71 		mov	r1, #504
 1570 014a 0093     		str	r3, [sp]
 1571 014c 5A46     		mov	r2, fp
 1572 014e 524B     		ldr	r3, .L140+24
 1573 0150 3046     		mov	r0, r6
 1574 0152 FFF7FEFF 		bl	chThdCreateStatic
 1575              	.LVL126:
 1576 0156 C8F80400 		str	r0, [r8, #4]
 1577              		.loc 1 381 0
 1578 015a 5048     		ldr	r0, .L140+28
 1579 015c FFF7FEFF 		bl	chMtxLock
 1580              	.LVL127:
 1581              	.LBB269:
 1582              	.LBB270:
 1583              		.loc 2 189 0
 1584 0160 AB69     		ldr	r3, [r5, #24]
 1585              	.LBE270:
 1586              	.LBE269:
 1587              		.loc 1 382 0
 1588 0162 9968     		ldr	r1, [r3, #8]
 1589 0164 0B1B     		subs	r3, r1, r4
 1590 0166 5942     		rsbs	r1, r3, #0
 1591 0168 5941     		adcs	r1, r1, r3
 1592 016a 0820     		movs	r0, #8
 1593 016c FFF7FEFF 		bl	_test_assert
 1594              	.LVL128:
 1595 0170 0028     		cmp	r0, #0
 1596 0172 7FF47AAF 		bne	.L130
ARM GAS  /var/folders/d2/nstgp4h54kz7g1l847x_b8wc0000gn/T//ccSYBGul.s 			page 29


 1597              		.loc 1 383 0
 1598 0176 6420     		movs	r0, #100
 1599 0178 FFF7FEFF 		bl	chThdSleep
 1600              	.LVL129:
 1601              	.LBB271:
 1602              	.LBB272:
 1603              		.loc 2 189 0
 1604 017c AB69     		ldr	r3, [r5, #24]
 1605              	.LBE272:
 1606              	.LBE271:
 1607              		.loc 1 384 0
 1608 017e 9968     		ldr	r1, [r3, #8]
 1609 0180 A1EB0A08 		sub	r8, r1, r10
 1610 0184 D8F10001 		rsbs	r1, r8, #0
 1611 0188 41EB0801 		adc	r1, r1, r8
 1612 018c 0920     		movs	r0, #9
 1613 018e FFF7FEFF 		bl	_test_assert
 1614              	.LVL130:
 1615 0192 0028     		cmp	r0, #0
 1616 0194 7FF469AF 		bne	.L130
 1617              		.loc 1 385 0
 1618 0198 4148     		ldr	r0, .L140+32
 1619 019a FFF7FEFF 		bl	chMtxLock
 1620              	.LVL131:
 1621              	.LBB273:
 1622              	.LBB274:
 1623              		.loc 2 189 0
 1624 019e AB69     		ldr	r3, [r5, #24]
 1625              	.LBE274:
 1626              	.LBE273:
 1627              		.loc 1 386 0
 1628 01a0 9968     		ldr	r1, [r3, #8]
 1629 01a2 A1EB0A0E 		sub	lr, r1, r10
 1630 01a6 DEF10001 		rsbs	r1, lr, #0
 1631 01aa 41EB0E01 		adc	r1, r1, lr
 1632 01ae 0A20     		movs	r0, #10
 1633 01b0 FFF7FEFF 		bl	_test_assert
 1634              	.LVL132:
 1635 01b4 0028     		cmp	r0, #0
 1636 01b6 7FF458AF 		bne	.L130
 1637              		.loc 1 387 0
 1638 01ba 6420     		movs	r0, #100
 1639 01bc FFF7FEFF 		bl	chThdSleep
 1640              	.LVL133:
 1641              	.LBB275:
 1642              	.LBB276:
 1643              		.loc 2 189 0
 1644 01c0 AB69     		ldr	r3, [r5, #24]
 1645              	.LBE276:
 1646              	.LBE275:
 1647              		.loc 1 388 0
 1648 01c2 9968     		ldr	r1, [r3, #8]
 1649 01c4 A1EB0B0C 		sub	ip, r1, fp
 1650 01c8 DCF10001 		rsbs	r1, ip, #0
 1651 01cc 41EB0C01 		adc	r1, r1, ip
 1652 01d0 0B20     		movs	r0, #11
 1653 01d2 FFF7FEFF 		bl	_test_assert
ARM GAS  /var/folders/d2/nstgp4h54kz7g1l847x_b8wc0000gn/T//ccSYBGul.s 			page 30


 1654              	.LVL134:
 1655 01d6 0028     		cmp	r0, #0
 1656 01d8 7FF447AF 		bne	.L130
 1657              	.LVL135:
 1658              	.LBB277:
 1659              	.LBB278:
 1660              	.LBB279:
 1661              	.LBB280:
 1662              	.LBB281:
 1663              		.file 3 "../e-puck2_main-processor/ChibiOS//os/ext/CMSIS/include/core_cmFunc.h"
 1664              		.loc 3 546 0
 1665 01dc 2023     		movs	r3, #32
 1666              		.syntax unified
 1667              	@ 546 "../e-puck2_main-processor/ChibiOS//os/ext/CMSIS/include/core_cmFunc.h" 1
 1668 01de 83F31188 		MSR basepri, r3
 1669              	@ 0 "" 2
 1670              	.LVL136:
 1671              		.thumb
 1672              		.syntax unified
 1673              	.LBE281:
 1674              	.LBE280:
 1675              	.LBE279:
 1676              		.file 4 "../e-puck2_main-processor/ChibiOS//os/rt/include/chsys.h"
 1677              		.loc 4 349 0
 1678 01e2 FFF7FEFF 		bl	_stats_start_measure_crit_thd
 1679              	.LVL137:
 1680              		.loc 4 350 0
 1681 01e6 FFF7FEFF 		bl	_dbg_check_lock
 1682              	.LVL138:
 1683              	.LBE278:
 1684              	.LBE277:
 1685              		.loc 1 390 0
 1686 01ea 2D48     		ldr	r0, .L140+32
 1687 01ec FFF7FEFF 		bl	chMtxUnlockS
 1688              	.LVL139:
 1689              		.loc 1 391 0
 1690 01f0 FFF7FEFF 		bl	chSchRescheduleS
 1691              	.LVL140:
 1692              	.LBB282:
 1693              	.LBB283:
 1694              		.loc 4 360 0
 1695 01f4 FFF7FEFF 		bl	_dbg_check_unlock
 1696              	.LVL141:
 1697              		.loc 4 361 0
 1698 01f8 FFF7FEFF 		bl	_stats_stop_measure_crit_thd
 1699              	.LVL142:
 1700              		.loc 4 367 0
 1701 01fc 2B68     		ldr	r3, [r5]
 1702 01fe AB42     		cmp	r3, r5
 1703 0200 07D0     		beq	.L134
 1704 0202 AA69     		ldr	r2, [r5, #24]
 1705 0204 9B68     		ldr	r3, [r3, #8]
 1706 0206 9268     		ldr	r2, [r2, #8]
 1707 0208 9A42     		cmp	r2, r3
 1708 020a 02D2     		bcs	.L134
 1709 020c 2748     		ldr	r0, .L140+44
 1710 020e FFF7FEFF 		bl	chSysHalt
ARM GAS  /var/folders/d2/nstgp4h54kz7g1l847x_b8wc0000gn/T//ccSYBGul.s 			page 31


 1711              	.LVL143:
 1712              	.L134:
 1713              	.LBB284:
 1714              	.LBB285:
 1715              	.LBB286:
 1716              		.loc 3 546 0
 1717 0212 0023     		movs	r3, #0
 1718              		.syntax unified
 1719              	@ 546 "../e-puck2_main-processor/ChibiOS//os/ext/CMSIS/include/core_cmFunc.h" 1
 1720 0214 83F31188 		MSR basepri, r3
 1721              	@ 0 "" 2
 1722              	.LVL144:
 1723              		.thumb
 1724              		.syntax unified
 1725              	.LBE286:
 1726              	.LBE285:
 1727              	.LBE284:
 1728              	.LBE283:
 1729              	.LBE282:
 1730              	.LBB287:
 1731              	.LBB288:
 1732              		.loc 2 189 0
 1733 0218 AB69     		ldr	r3, [r5, #24]
 1734              	.LBE288:
 1735              	.LBE287:
 1736              		.loc 1 393 0
 1737 021a 9968     		ldr	r1, [r3, #8]
 1738 021c A1EB0A06 		sub	r6, r1, r10
 1739 0220 7142     		rsbs	r1, r6, #0
 1740 0222 7141     		adcs	r1, r1, r6
 1741 0224 0C20     		movs	r0, #12
 1742 0226 FFF7FEFF 		bl	_test_assert
 1743              	.LVL145:
 1744 022a 0028     		cmp	r0, #0
 1745 022c 7FF41DAF 		bne	.L130
 1746              		.loc 1 394 0
 1747 0230 6420     		movs	r0, #100
 1748 0232 FFF7FEFF 		bl	chThdSleep
 1749              	.LVL146:
 1750              	.LBB289:
 1751              	.LBB290:
 1752              		.loc 2 189 0
 1753 0236 AB69     		ldr	r3, [r5, #24]
 1754              	.LBE290:
 1755              	.LBE289:
 1756              		.loc 1 395 0
 1757 0238 9968     		ldr	r1, [r3, #8]
 1758 023a A1EB0A02 		sub	r2, r1, r10
 1759 023e 5142     		rsbs	r1, r2, #0
 1760 0240 5141     		adcs	r1, r1, r2
 1761 0242 0D20     		movs	r0, #13
 1762 0244 FFF7FEFF 		bl	_test_assert
 1763              	.LVL147:
 1764 0248 0028     		cmp	r0, #0
 1765 024a 7FF40EAF 		bne	.L130
 1766              		.loc 1 396 0
 1767 024e FFF7FEFF 		bl	chMtxUnlockAll
ARM GAS  /var/folders/d2/nstgp4h54kz7g1l847x_b8wc0000gn/T//ccSYBGul.s 			page 32


 1768              	.LVL148:
 1769              	.LBB291:
 1770              	.LBB292:
 1771              		.loc 2 189 0
 1772 0252 AB69     		ldr	r3, [r5, #24]
 1773              	.LBE292:
 1774              	.LBE291:
 1775              		.loc 1 397 0
 1776 0254 9968     		ldr	r1, [r3, #8]
 1777 0256 0B1B     		subs	r3, r1, r4
 1778 0258 5942     		rsbs	r1, r3, #0
 1779 025a 5941     		adcs	r1, r1, r3
 1780 025c 0E20     		movs	r0, #14
 1781 025e FFF7FEFF 		bl	_test_assert
 1782              	.LVL149:
 1783 0262 0028     		cmp	r0, #0
 1784 0264 7FF401AF 		bne	.L130
 1785              		.loc 1 398 0
 1786 0268 059A     		ldr	r2, [sp, #20]
 1787 026a 3B68     		ldr	r3, [r7]
 1788 026c 9A42     		cmp	r2, r3
 1789 026e 04D1     		bne	.L138
 1790              		.loc 1 399 0
 1791 0270 06B0     		add	sp, sp, #24
 1792              		.cfi_remember_state
 1793              		.cfi_def_cfa_offset 32
 1794              		@ sp needed
 1795 0272 BDE8F04D 		pop	{r4, r5, r6, r7, r8, r10, fp, lr}
 1796              		.cfi_restore 14
 1797              		.cfi_restore 11
 1798              		.cfi_restore 10
 1799              		.cfi_restore 8
 1800              		.cfi_restore 7
 1801              		.cfi_restore 6
 1802              		.cfi_restore 5
 1803              		.cfi_restore 4
 1804              		.cfi_def_cfa_offset 0
 1805              	.LVL150:
 1806              		.loc 1 398 0
 1807 0276 FFF7FEBF 		b	test_wait_threads
 1808              	.LVL151:
 1809              	.L138:
 1810              		.cfi_restore_state
 1811              		.loc 1 399 0
 1812 027a FFF7FEFF 		bl	__stack_chk_fail
 1813              	.LVL152:
 1814              	.L141:
 1815 027e 00BF     		.align	2
 1816              	.L140:
 1817 0280 00000000 		.word	ch
 1818 0284 00000000 		.word	__stack_chk_guard
 1819 0288 00000000 		.word	wa
 1820 028c 0C000000 		.word	.LC3
 1821 0290 00000000 		.word	thread4a
 1822 0294 10000000 		.word	.LC4
 1823 0298 00000000 		.word	thread4b
 1824 029c 00000000 		.word	.LANCHOR1
ARM GAS  /var/folders/d2/nstgp4h54kz7g1l847x_b8wc0000gn/T//ccSYBGul.s 			page 33


 1825 02a0 00000000 		.word	.LANCHOR0
 1826 02a4 04000000 		.word	.LC1
 1827 02a8 08000000 		.word	.LC2
 1828 02ac 00000000 		.word	.LANCHOR2
 1829 02b0 00000000 		.word	threads
 1830              		.cfi_endproc
 1831              	.LFE237:
 1832              		.size	mtx4_execute, .-mtx4_execute
 1833              		.section	.text.thread10,"ax",%progbits
 1834              		.align	1
 1835              		.p2align 4,,15
 1836              		.syntax unified
 1837              		.thumb
 1838              		.thumb_func
 1839              		.fpu fpv4-sp-d16
 1840              		.type	thread10, %function
 1841              	thread10:
 1842              	.LFB241:
 1843              		.loc 1 475 0
 1844              		.cfi_startproc
 1845              		@ args = 0, pretend = 0, frame = 8
 1846              		@ frame_needed = 0, uses_anonymous_args = 0
 1847              	.LVL153:
 1848 0000 30B5     		push	{r4, r5, lr}
 1849              		.cfi_def_cfa_offset 12
 1850              		.cfi_offset 4, -12
 1851              		.cfi_offset 5, -8
 1852              		.cfi_offset 14, -4
 1853 0002 0D4C     		ldr	r4, .L147
 1854 0004 83B0     		sub	sp, sp, #12
 1855              		.cfi_def_cfa_offset 24
 1856              		.loc 1 475 0
 1857 0006 2368     		ldr	r3, [r4]
 1858 0008 0193     		str	r3, [sp, #4]
 1859 000a 0546     		mov	r5, r0
 1860              		.loc 1 477 0
 1861 000c 0B48     		ldr	r0, .L147+4
 1862              	.LVL154:
 1863 000e FFF7FEFF 		bl	chMtxLock
 1864              	.LVL155:
 1865              		.loc 1 478 0
 1866 0012 0B48     		ldr	r0, .L147+8
 1867 0014 FFF7FEFF 		bl	chCondWait
 1868              	.LVL156:
 1869              		.loc 1 479 0
 1870 0018 2878     		ldrb	r0, [r5]	@ zero_extendqisi2
 1871 001a FFF7FEFF 		bl	test_emit_token
 1872              	.LVL157:
 1873              		.loc 1 480 0
 1874 001e 019A     		ldr	r2, [sp, #4]
 1875 0020 2368     		ldr	r3, [r4]
 1876 0022 9A42     		cmp	r2, r3
 1877 0024 05D1     		bne	.L146
 1878 0026 0548     		ldr	r0, .L147+4
 1879              		.loc 1 481 0
 1880 0028 03B0     		add	sp, sp, #12
 1881              		.cfi_remember_state
ARM GAS  /var/folders/d2/nstgp4h54kz7g1l847x_b8wc0000gn/T//ccSYBGul.s 			page 34


 1882              		.cfi_def_cfa_offset 12
 1883              		@ sp needed
 1884 002a BDE83040 		pop	{r4, r5, lr}
 1885              		.cfi_restore 14
 1886              		.cfi_restore 5
 1887              		.cfi_restore 4
 1888              		.cfi_def_cfa_offset 0
 1889              	.LVL158:
 1890              		.loc 1 480 0
 1891 002e FFF7FEBF 		b	chMtxUnlock
 1892              	.LVL159:
 1893              	.L146:
 1894              		.cfi_restore_state
 1895 0032 FFF7FEFF 		bl	__stack_chk_fail
 1896              	.LVL160:
 1897              	.L148:
 1898 0036 00BF     		.align	2
 1899              	.L147:
 1900 0038 00000000 		.word	__stack_chk_guard
 1901 003c 00000000 		.word	.LANCHOR0
 1902 0040 00000000 		.word	.LANCHOR3
 1903              		.cfi_endproc
 1904              	.LFE241:
 1905              		.size	thread10, .-thread10
 1906              		.section	.text.mtx6_setup,"ax",%progbits
 1907              		.align	1
 1908              		.p2align 4,,15
 1909              		.syntax unified
 1910              		.thumb
 1911              		.thumb_func
 1912              		.fpu fpv4-sp-d16
 1913              		.type	mtx6_setup, %function
 1914              	mtx6_setup:
 1915              	.LFB240:
 1916              		.loc 1 469 0
 1917              		.cfi_startproc
 1918              		@ args = 0, pretend = 0, frame = 8
 1919              		@ frame_needed = 0, uses_anonymous_args = 0
 1920 0000 10B5     		push	{r4, lr}
 1921              		.cfi_def_cfa_offset 8
 1922              		.cfi_offset 4, -8
 1923              		.cfi_offset 14, -4
 1924 0002 094C     		ldr	r4, .L154
 1925              		.loc 1 471 0
 1926 0004 0948     		ldr	r0, .L154+4
 1927              		.loc 1 469 0
 1928 0006 2368     		ldr	r3, [r4]
 1929 0008 82B0     		sub	sp, sp, #8
 1930              		.cfi_def_cfa_offset 16
 1931              		.loc 1 469 0
 1932 000a 0193     		str	r3, [sp, #4]
 1933              		.loc 1 471 0
 1934 000c FFF7FEFF 		bl	chCondObjectInit
 1935              	.LVL161:
 1936              		.loc 1 472 0
 1937 0010 019A     		ldr	r2, [sp, #4]
 1938 0012 2368     		ldr	r3, [r4]
ARM GAS  /var/folders/d2/nstgp4h54kz7g1l847x_b8wc0000gn/T//ccSYBGul.s 			page 35


 1939 0014 9A42     		cmp	r2, r3
 1940 0016 05D1     		bne	.L153
 1941 0018 0548     		ldr	r0, .L154+8
 1942              		.loc 1 473 0
 1943 001a 02B0     		add	sp, sp, #8
 1944              		.cfi_remember_state
 1945              		.cfi_def_cfa_offset 8
 1946              		@ sp needed
 1947 001c BDE81040 		pop	{r4, lr}
 1948              		.cfi_restore 14
 1949              		.cfi_restore 4
 1950              		.cfi_def_cfa_offset 0
 1951              		.loc 1 472 0
 1952 0020 FFF7FEBF 		b	chMtxObjectInit
 1953              	.LVL162:
 1954              	.L153:
 1955              		.cfi_restore_state
 1956 0024 FFF7FEFF 		bl	__stack_chk_fail
 1957              	.LVL163:
 1958              	.L155:
 1959              		.align	2
 1960              	.L154:
 1961 0028 00000000 		.word	__stack_chk_guard
 1962 002c 00000000 		.word	.LANCHOR3
 1963 0030 00000000 		.word	.LANCHOR0
 1964              		.cfi_endproc
 1965              	.LFE240:
 1966              		.size	mtx6_setup, .-mtx6_setup
 1967              		.section	.text.mtx7_setup,"ax",%progbits
 1968              		.align	1
 1969              		.p2align 4,,15
 1970              		.syntax unified
 1971              		.thumb
 1972              		.thumb_func
 1973              		.fpu fpv4-sp-d16
 1974              		.type	mtx7_setup, %function
 1975              	mtx7_setup:
 1976              	.LFB257:
 1977              		.cfi_startproc
 1978              		@ args = 0, pretend = 0, frame = 8
 1979              		@ frame_needed = 0, uses_anonymous_args = 0
 1980 0000 00B5     		push	{lr}
 1981              		.cfi_def_cfa_offset 4
 1982              		.cfi_offset 14, -4
 1983 0002 074B     		ldr	r3, .L161
 1984 0004 83B0     		sub	sp, sp, #12
 1985              		.cfi_def_cfa_offset 16
 1986 0006 1A68     		ldr	r2, [r3]
 1987 0008 0192     		str	r2, [sp, #4]
 1988 000a 019A     		ldr	r2, [sp, #4]
 1989 000c 1B68     		ldr	r3, [r3]
 1990 000e 9A42     		cmp	r2, r3
 1991 0010 04D1     		bne	.L160
 1992 0012 03B0     		add	sp, sp, #12
 1993              		.cfi_remember_state
 1994              		.cfi_def_cfa_offset 4
 1995              		@ sp needed
ARM GAS  /var/folders/d2/nstgp4h54kz7g1l847x_b8wc0000gn/T//ccSYBGul.s 			page 36


 1996 0014 5DF804EB 		ldr	lr, [sp], #4
 1997              		.cfi_restore 14
 1998              		.cfi_def_cfa_offset 0
 1999 0018 FFF7FEBF 		b	mtx6_setup
 2000              	.L160:
 2001              		.cfi_restore_state
 2002 001c FFF7FEFF 		bl	__stack_chk_fail
 2003              	.L162:
 2004              		.align	2
 2005              	.L161:
 2006 0020 00000000 		.word	__stack_chk_guard
 2007              		.cfi_endproc
 2008              	.LFE257:
 2009              		.size	mtx7_setup, .-mtx7_setup
 2010              		.section	.text.mtx8_setup,"ax",%progbits
 2011              		.align	1
 2012              		.p2align 4,,15
 2013              		.syntax unified
 2014              		.thumb
 2015              		.thumb_func
 2016              		.fpu fpv4-sp-d16
 2017              		.type	mtx8_setup, %function
 2018              	mtx8_setup:
 2019              	.LFB245:
 2020              		.loc 1 555 0
 2021              		.cfi_startproc
 2022              		@ args = 0, pretend = 0, frame = 8
 2023              		@ frame_needed = 0, uses_anonymous_args = 0
 2024              		.loc 1 555 0
 2025 0000 10B5     		push	{r4, lr}
 2026              		.cfi_def_cfa_offset 8
 2027              		.cfi_offset 4, -8
 2028              		.cfi_offset 14, -4
 2029 0002 0B4C     		ldr	r4, .L168
 2030              		.loc 1 557 0
 2031 0004 0B48     		ldr	r0, .L168+4
 2032              		.loc 1 555 0
 2033 0006 2368     		ldr	r3, [r4]
 2034 0008 82B0     		sub	sp, sp, #8
 2035              		.cfi_def_cfa_offset 16
 2036              		.loc 1 555 0
 2037 000a 0193     		str	r3, [sp, #4]
 2038              		.loc 1 557 0
 2039 000c FFF7FEFF 		bl	chCondObjectInit
 2040              	.LVL164:
 2041              		.loc 1 558 0
 2042 0010 0948     		ldr	r0, .L168+8
 2043 0012 FFF7FEFF 		bl	chMtxObjectInit
 2044              	.LVL165:
 2045              		.loc 1 559 0
 2046 0016 019A     		ldr	r2, [sp, #4]
 2047 0018 2368     		ldr	r3, [r4]
 2048 001a 9A42     		cmp	r2, r3
 2049 001c 05D1     		bne	.L167
 2050 001e 0748     		ldr	r0, .L168+12
 2051              		.loc 1 560 0
 2052 0020 02B0     		add	sp, sp, #8
ARM GAS  /var/folders/d2/nstgp4h54kz7g1l847x_b8wc0000gn/T//ccSYBGul.s 			page 37


 2053              		.cfi_remember_state
 2054              		.cfi_def_cfa_offset 8
 2055              		@ sp needed
 2056 0022 BDE81040 		pop	{r4, lr}
 2057              		.cfi_restore 14
 2058              		.cfi_restore 4
 2059              		.cfi_def_cfa_offset 0
 2060              		.loc 1 559 0
 2061 0026 FFF7FEBF 		b	chMtxObjectInit
 2062              	.LVL166:
 2063              	.L167:
 2064              		.cfi_restore_state
 2065 002a FFF7FEFF 		bl	__stack_chk_fail
 2066              	.LVL167:
 2067              	.L169:
 2068 002e 00BF     		.align	2
 2069              	.L168:
 2070 0030 00000000 		.word	__stack_chk_guard
 2071 0034 00000000 		.word	.LANCHOR3
 2072 0038 00000000 		.word	.LANCHOR0
 2073 003c 00000000 		.word	.LANCHOR1
 2074              		.cfi_endproc
 2075              	.LFE245:
 2076              		.size	mtx8_setup, .-mtx8_setup
 2077              		.section	.text.mtx7_execute,"ax",%progbits
 2078              		.align	1
 2079              		.p2align 4,,15
 2080              		.syntax unified
 2081              		.thumb
 2082              		.thumb_func
 2083              		.fpu fpv4-sp-d16
 2084              		.type	mtx7_execute, %function
 2085              	mtx7_execute:
 2086              	.LFB244:
 2087              		.loc 1 526 0
 2088              		.cfi_startproc
 2089              		@ args = 0, pretend = 0, frame = 8
 2090              		@ frame_needed = 0, uses_anonymous_args = 0
 2091 0000 F0B5     		push	{r4, r5, r6, r7, lr}
 2092              		.cfi_def_cfa_offset 20
 2093              		.cfi_offset 4, -20
 2094              		.cfi_offset 5, -16
 2095              		.cfi_offset 6, -12
 2096              		.cfi_offset 7, -8
 2097              		.cfi_offset 14, -4
 2098              	.LBB293:
 2099              	.LBB294:
 2100              	.LBB295:
 2101              	.LBB296:
 2102              		.loc 2 176 0
 2103 0002 284B     		ldr	r3, .L175
 2104              	.LBE296:
 2105              	.LBE295:
 2106              	.LBE294:
 2107              	.LBE293:
 2108              		.loc 1 526 0
 2109 0004 284F     		ldr	r7, .L175+4
ARM GAS  /var/folders/d2/nstgp4h54kz7g1l847x_b8wc0000gn/T//ccSYBGul.s 			page 38


 2110              	.LBB299:
 2111              	.LBB297:
 2112              		.loc 2 189 0
 2113 0006 9B69     		ldr	r3, [r3, #24]
 2114              	.LBE297:
 2115              	.LBE299:
 2116              		.loc 1 529 0
 2117 0008 284E     		ldr	r6, .L175+8
 2118              	.LBB300:
 2119              	.LBB298:
 2120              		.loc 2 189 0
 2121 000a 9D68     		ldr	r5, [r3, #8]
 2122              	.LBE298:
 2123              	.LBE300:
 2124              		.loc 1 526 0
 2125 000c 3968     		ldr	r1, [r7]
 2126              		.loc 1 529 0
 2127 000e 284B     		ldr	r3, .L175+12
 2128 0010 3068     		ldr	r0, [r6]
 2129 0012 284C     		ldr	r4, .L175+16
 2130              		.loc 1 526 0
 2131 0014 85B0     		sub	sp, sp, #20
 2132              		.cfi_def_cfa_offset 40
 2133              		.loc 1 529 0
 2134 0016 6A1C     		adds	r2, r5, #1
 2135 0018 0093     		str	r3, [sp]
 2136              		.loc 1 526 0
 2137 001a 0391     		str	r1, [sp, #12]
 2138              		.loc 1 529 0
 2139 001c 264B     		ldr	r3, .L175+20
 2140 001e 4FF4FC71 		mov	r1, #504
 2141 0022 FFF7FEFF 		bl	chThdCreateStatic
 2142              	.LVL168:
 2143              		.loc 1 530 0
 2144 0026 7168     		ldr	r1, [r6, #4]
 2145 0028 244B     		ldr	r3, .L175+24
 2146              		.loc 1 529 0
 2147 002a 2060     		str	r0, [r4]
 2148              		.loc 1 530 0
 2149 002c AA1C     		adds	r2, r5, #2
 2150 002e 0846     		mov	r0, r1
 2151 0030 0093     		str	r3, [sp]
 2152 0032 4FF4FC71 		mov	r1, #504
 2153 0036 204B     		ldr	r3, .L175+20
 2154 0038 FFF7FEFF 		bl	chThdCreateStatic
 2155              	.LVL169:
 2156              		.loc 1 531 0
 2157 003c B168     		ldr	r1, [r6, #8]
 2158 003e 204B     		ldr	r3, .L175+28
 2159              		.loc 1 530 0
 2160 0040 6060     		str	r0, [r4, #4]
 2161              		.loc 1 531 0
 2162 0042 EA1C     		adds	r2, r5, #3
 2163 0044 0846     		mov	r0, r1
 2164 0046 0093     		str	r3, [sp]
 2165 0048 4FF4FC71 		mov	r1, #504
 2166 004c 1A4B     		ldr	r3, .L175+20
ARM GAS  /var/folders/d2/nstgp4h54kz7g1l847x_b8wc0000gn/T//ccSYBGul.s 			page 39


 2167 004e FFF7FEFF 		bl	chThdCreateStatic
 2168              	.LVL170:
 2169              		.loc 1 532 0
 2170 0052 F168     		ldr	r1, [r6, #12]
 2171 0054 1B4B     		ldr	r3, .L175+32
 2172              		.loc 1 531 0
 2173 0056 A060     		str	r0, [r4, #8]
 2174              		.loc 1 532 0
 2175 0058 2A1D     		adds	r2, r5, #4
 2176 005a 0846     		mov	r0, r1
 2177 005c 0093     		str	r3, [sp]
 2178 005e 4FF4FC71 		mov	r1, #504
 2179 0062 154B     		ldr	r3, .L175+20
 2180 0064 FFF7FEFF 		bl	chThdCreateStatic
 2181              	.LVL171:
 2182              		.loc 1 533 0
 2183 0068 3169     		ldr	r1, [r6, #16]
 2184 006a 174B     		ldr	r3, .L175+36
 2185              		.loc 1 532 0
 2186 006c E060     		str	r0, [r4, #12]
 2187              		.loc 1 533 0
 2188 006e 6A1D     		adds	r2, r5, #5
 2189 0070 0846     		mov	r0, r1
 2190 0072 0093     		str	r3, [sp]
 2191 0074 4FF4FC71 		mov	r1, #504
 2192 0078 0F4B     		ldr	r3, .L175+20
 2193 007a FFF7FEFF 		bl	chThdCreateStatic
 2194              	.LVL172:
 2195 007e 2061     		str	r0, [r4, #16]
 2196              		.loc 1 534 0
 2197 0080 1248     		ldr	r0, .L175+40
 2198 0082 FFF7FEFF 		bl	chCondBroadcast
 2199              	.LVL173:
 2200              		.loc 1 535 0
 2201 0086 FFF7FEFF 		bl	test_wait_threads
 2202              	.LVL174:
 2203              		.loc 1 536 0
 2204 008a 039A     		ldr	r2, [sp, #12]
 2205 008c 3B68     		ldr	r3, [r7]
 2206 008e 9A42     		cmp	r2, r3
 2207 0090 06D1     		bne	.L174
 2208 0092 0F49     		ldr	r1, .L175+44
 2209 0094 0120     		movs	r0, #1
 2210              		.loc 1 537 0
 2211 0096 05B0     		add	sp, sp, #20
 2212              		.cfi_remember_state
 2213              		.cfi_def_cfa_offset 20
 2214              		@ sp needed
 2215 0098 BDE8F040 		pop	{r4, r5, r6, r7, lr}
 2216              		.cfi_restore 14
 2217              		.cfi_restore 7
 2218              		.cfi_restore 6
 2219              		.cfi_restore 5
 2220              		.cfi_restore 4
 2221              		.cfi_def_cfa_offset 0
 2222              		.loc 1 536 0
 2223 009c FFF7FEBF 		b	_test_assert_sequence
ARM GAS  /var/folders/d2/nstgp4h54kz7g1l847x_b8wc0000gn/T//ccSYBGul.s 			page 40


 2224              	.LVL175:
 2225              	.L174:
 2226              		.cfi_restore_state
 2227 00a0 FFF7FEFF 		bl	__stack_chk_fail
 2228              	.LVL176:
 2229              	.L176:
 2230              		.align	2
 2231              	.L175:
 2232 00a4 00000000 		.word	ch
 2233 00a8 00000000 		.word	__stack_chk_guard
 2234 00ac 00000000 		.word	wa
 2235 00b0 00000000 		.word	.LC0
 2236 00b4 00000000 		.word	threads
 2237 00b8 00000000 		.word	thread10
 2238 00bc 04000000 		.word	.LC1
 2239 00c0 08000000 		.word	.LC2
 2240 00c4 0C000000 		.word	.LC3
 2241 00c8 10000000 		.word	.LC4
 2242 00cc 00000000 		.word	.LANCHOR3
 2243 00d0 14000000 		.word	.LC5
 2244              		.cfi_endproc
 2245              	.LFE244:
 2246              		.size	mtx7_execute, .-mtx7_execute
 2247              		.section	.text.mtx8_execute,"ax",%progbits
 2248              		.align	1
 2249              		.p2align 4,,15
 2250              		.syntax unified
 2251              		.thumb
 2252              		.thumb_func
 2253              		.fpu fpv4-sp-d16
 2254              		.type	mtx8_execute, %function
 2255              	mtx8_execute:
 2256              	.LFB248:
 2257              		.loc 1 583 0
 2258              		.cfi_startproc
 2259              		@ args = 0, pretend = 0, frame = 8
 2260              		@ frame_needed = 0, uses_anonymous_args = 0
 2261 0000 F0B5     		push	{r4, r5, r6, r7, lr}
 2262              		.cfi_def_cfa_offset 20
 2263              		.cfi_offset 4, -20
 2264              		.cfi_offset 5, -16
 2265              		.cfi_offset 6, -12
 2266              		.cfi_offset 7, -8
 2267              		.cfi_offset 14, -4
 2268              	.LBB301:
 2269              	.LBB302:
 2270              	.LBB303:
 2271              	.LBB304:
 2272              		.loc 2 176 0
 2273 0002 1F4B     		ldr	r3, .L182
 2274              	.LBE304:
 2275              	.LBE303:
 2276              	.LBE302:
 2277              	.LBE301:
 2278              		.loc 1 583 0
 2279 0004 1F4F     		ldr	r7, .L182+4
 2280              	.LBB307:
ARM GAS  /var/folders/d2/nstgp4h54kz7g1l847x_b8wc0000gn/T//ccSYBGul.s 			page 41


 2281              	.LBB305:
 2282              		.loc 2 189 0
 2283 0006 9B69     		ldr	r3, [r3, #24]
 2284              	.LBE305:
 2285              	.LBE307:
 2286              		.loc 1 586 0
 2287 0008 1F4E     		ldr	r6, .L182+8
 2288              	.LBB308:
 2289              	.LBB306:
 2290              		.loc 2 189 0
 2291 000a 9D68     		ldr	r5, [r3, #8]
 2292              	.LBE306:
 2293              	.LBE308:
 2294              		.loc 1 583 0
 2295 000c 3968     		ldr	r1, [r7]
 2296              		.loc 1 586 0
 2297 000e 1F4B     		ldr	r3, .L182+12
 2298 0010 3068     		ldr	r0, [r6]
 2299 0012 1F4C     		ldr	r4, .L182+16
 2300              		.loc 1 583 0
 2301 0014 85B0     		sub	sp, sp, #20
 2302              		.cfi_def_cfa_offset 40
 2303              		.loc 1 586 0
 2304 0016 6A1C     		adds	r2, r5, #1
 2305 0018 0093     		str	r3, [sp]
 2306              		.loc 1 583 0
 2307 001a 0391     		str	r1, [sp, #12]
 2308              		.loc 1 586 0
 2309 001c 1D4B     		ldr	r3, .L182+20
 2310 001e 4FF4FC71 		mov	r1, #504
 2311 0022 FFF7FEFF 		bl	chThdCreateStatic
 2312              	.LVL177:
 2313              		.loc 1 587 0
 2314 0026 7168     		ldr	r1, [r6, #4]
 2315 0028 1B4B     		ldr	r3, .L182+24
 2316              		.loc 1 586 0
 2317 002a 2060     		str	r0, [r4]
 2318              		.loc 1 587 0
 2319 002c AA1C     		adds	r2, r5, #2
 2320 002e 0846     		mov	r0, r1
 2321 0030 0093     		str	r3, [sp]
 2322 0032 4FF4FC71 		mov	r1, #504
 2323 0036 194B     		ldr	r3, .L182+28
 2324 0038 FFF7FEFF 		bl	chThdCreateStatic
 2325              	.LVL178:
 2326              		.loc 1 588 0
 2327 003c B168     		ldr	r1, [r6, #8]
 2328 003e 184B     		ldr	r3, .L182+32
 2329              		.loc 1 587 0
 2330 0040 6060     		str	r0, [r4, #4]
 2331              		.loc 1 588 0
 2332 0042 EA1C     		adds	r2, r5, #3
 2333 0044 0846     		mov	r0, r1
 2334 0046 0093     		str	r3, [sp]
 2335 0048 4FF4FC71 		mov	r1, #504
 2336 004c 154B     		ldr	r3, .L182+36
 2337 004e FFF7FEFF 		bl	chThdCreateStatic
ARM GAS  /var/folders/d2/nstgp4h54kz7g1l847x_b8wc0000gn/T//ccSYBGul.s 			page 42


 2338              	.LVL179:
 2339 0052 A060     		str	r0, [r4, #8]
 2340              		.loc 1 589 0
 2341 0054 1448     		ldr	r0, .L182+40
 2342 0056 FFF7FEFF 		bl	chCondSignal
 2343              	.LVL180:
 2344              		.loc 1 590 0
 2345 005a 1348     		ldr	r0, .L182+40
 2346 005c FFF7FEFF 		bl	chCondSignal
 2347              	.LVL181:
 2348              		.loc 1 591 0
 2349 0060 FFF7FEFF 		bl	test_wait_threads
 2350              	.LVL182:
 2351              		.loc 1 592 0
 2352 0064 039A     		ldr	r2, [sp, #12]
 2353 0066 3B68     		ldr	r3, [r7]
 2354 0068 9A42     		cmp	r2, r3
 2355 006a 06D1     		bne	.L181
 2356 006c 0F49     		ldr	r1, .L182+44
 2357 006e 0120     		movs	r0, #1
 2358              		.loc 1 593 0
 2359 0070 05B0     		add	sp, sp, #20
 2360              		.cfi_remember_state
 2361              		.cfi_def_cfa_offset 20
 2362              		@ sp needed
 2363 0072 BDE8F040 		pop	{r4, r5, r6, r7, lr}
 2364              		.cfi_restore 14
 2365              		.cfi_restore 7
 2366              		.cfi_restore 6
 2367              		.cfi_restore 5
 2368              		.cfi_restore 4
 2369              		.cfi_def_cfa_offset 0
 2370              		.loc 1 592 0
 2371 0076 FFF7FEBF 		b	_test_assert_sequence
 2372              	.LVL183:
 2373              	.L181:
 2374              		.cfi_restore_state
 2375 007a FFF7FEFF 		bl	__stack_chk_fail
 2376              	.LVL184:
 2377              	.L183:
 2378 007e 00BF     		.align	2
 2379              	.L182:
 2380 0080 00000000 		.word	ch
 2381 0084 00000000 		.word	__stack_chk_guard
 2382 0088 00000000 		.word	wa
 2383 008c 10000000 		.word	.LC4
 2384 0090 00000000 		.word	threads
 2385 0094 00000000 		.word	thread11
 2386 0098 08000000 		.word	.LC2
 2387 009c 00000000 		.word	thread10
 2388 00a0 0C000000 		.word	.LC3
 2389 00a4 00000000 		.word	thread12
 2390 00a8 00000000 		.word	.LANCHOR3
 2391 00ac 00000000 		.word	.LC6
 2392              		.cfi_endproc
 2393              	.LFE248:
 2394              		.size	mtx8_execute, .-mtx8_execute
ARM GAS  /var/folders/d2/nstgp4h54kz7g1l847x_b8wc0000gn/T//ccSYBGul.s 			page 43


 2395              		.section	.text.thread11,"ax",%progbits
 2396              		.align	1
 2397              		.p2align 4,,15
 2398              		.syntax unified
 2399              		.thumb
 2400              		.thumb_func
 2401              		.fpu fpv4-sp-d16
 2402              		.type	thread11, %function
 2403              	thread11:
 2404              	.LFB246:
 2405              		.loc 1 562 0
 2406              		.cfi_startproc
 2407              		@ args = 0, pretend = 0, frame = 8
 2408              		@ frame_needed = 0, uses_anonymous_args = 0
 2409              	.LVL185:
 2410 0000 30B5     		push	{r4, r5, lr}
 2411              		.cfi_def_cfa_offset 12
 2412              		.cfi_offset 4, -12
 2413              		.cfi_offset 5, -8
 2414              		.cfi_offset 14, -4
 2415 0002 114C     		ldr	r4, .L189
 2416 0004 83B0     		sub	sp, sp, #12
 2417              		.cfi_def_cfa_offset 24
 2418              		.loc 1 562 0
 2419 0006 2368     		ldr	r3, [r4]
 2420 0008 0193     		str	r3, [sp, #4]
 2421 000a 0546     		mov	r5, r0
 2422              		.loc 1 564 0
 2423 000c 0F48     		ldr	r0, .L189+4
 2424              	.LVL186:
 2425 000e FFF7FEFF 		bl	chMtxLock
 2426              	.LVL187:
 2427              		.loc 1 565 0
 2428 0012 0F48     		ldr	r0, .L189+8
 2429 0014 FFF7FEFF 		bl	chMtxLock
 2430              	.LVL188:
 2431              		.loc 1 567 0
 2432 0018 4FF0FF31 		mov	r1, #-1
 2433 001c 0D48     		ldr	r0, .L189+12
 2434 001e FFF7FEFF 		bl	chCondWaitTimeout
 2435              	.LVL189:
 2436              		.loc 1 571 0
 2437 0022 2878     		ldrb	r0, [r5]	@ zero_extendqisi2
 2438 0024 FFF7FEFF 		bl	test_emit_token
 2439              	.LVL190:
 2440              		.loc 1 572 0
 2441 0028 0948     		ldr	r0, .L189+8
 2442 002a FFF7FEFF 		bl	chMtxUnlock
 2443              	.LVL191:
 2444              		.loc 1 573 0
 2445 002e 019A     		ldr	r2, [sp, #4]
 2446 0030 2368     		ldr	r3, [r4]
 2447 0032 9A42     		cmp	r2, r3
 2448 0034 05D1     		bne	.L188
 2449 0036 0548     		ldr	r0, .L189+4
 2450              		.loc 1 574 0
 2451 0038 03B0     		add	sp, sp, #12
ARM GAS  /var/folders/d2/nstgp4h54kz7g1l847x_b8wc0000gn/T//ccSYBGul.s 			page 44


 2452              		.cfi_remember_state
 2453              		.cfi_def_cfa_offset 12
 2454              		@ sp needed
 2455 003a BDE83040 		pop	{r4, r5, lr}
 2456              		.cfi_restore 14
 2457              		.cfi_restore 5
 2458              		.cfi_restore 4
 2459              		.cfi_def_cfa_offset 0
 2460              	.LVL192:
 2461              		.loc 1 573 0
 2462 003e FFF7FEBF 		b	chMtxUnlock
 2463              	.LVL193:
 2464              	.L188:
 2465              		.cfi_restore_state
 2466 0042 FFF7FEFF 		bl	__stack_chk_fail
 2467              	.LVL194:
 2468              	.L190:
 2469 0046 00BF     		.align	2
 2470              	.L189:
 2471 0048 00000000 		.word	__stack_chk_guard
 2472 004c 00000000 		.word	.LANCHOR1
 2473 0050 00000000 		.word	.LANCHOR0
 2474 0054 00000000 		.word	.LANCHOR3
 2475              		.cfi_endproc
 2476              	.LFE246:
 2477              		.size	thread11, .-thread11
 2478              		.section	.text.mtx5_execute,"ax",%progbits
 2479              		.align	1
 2480              		.p2align 4,,15
 2481              		.syntax unified
 2482              		.thumb
 2483              		.thumb_func
 2484              		.fpu fpv4-sp-d16
 2485              		.type	mtx5_execute, %function
 2486              	mtx5_execute:
 2487              	.LFB239:
 2488              		.loc 1 423 0
 2489              		.cfi_startproc
 2490              		@ args = 0, pretend = 0, frame = 8
 2491              		@ frame_needed = 0, uses_anonymous_args = 0
 2492 0000 30B5     		push	{r4, r5, lr}
 2493              		.cfi_def_cfa_offset 12
 2494              		.cfi_offset 4, -12
 2495              		.cfi_offset 5, -8
 2496              		.cfi_offset 14, -4
 2497              		.loc 1 444 0
 2498 0002 134C     		ldr	r4, .L198
 2499              		.loc 1 423 0
 2500 0004 134D     		ldr	r5, .L198+4
 2501 0006 83B0     		sub	sp, sp, #12
 2502              		.cfi_def_cfa_offset 24
 2503              		.loc 1 423 0
 2504 0008 2B68     		ldr	r3, [r5]
 2505 000a 0193     		str	r3, [sp, #4]
 2506              		.loc 1 444 0
 2507 000c 2046     		mov	r0, r4
 2508 000e FFF7FEFF 		bl	chMtxLock
ARM GAS  /var/folders/d2/nstgp4h54kz7g1l847x_b8wc0000gn/T//ccSYBGul.s 			page 45


 2509              	.LVL195:
 2510              		.loc 1 445 0
 2511 0012 FFF7FEFF 		bl	chMtxUnlockAll
 2512              	.LVL196:
 2513              	.LBB315:
 2514              	.LBB316:
 2515              		.file 5 "../e-puck2_main-processor/ChibiOS//os/rt/include/chschd.h"
 2516              		.loc 5 618 0
 2517 0016 2168     		ldr	r1, [r4]
 2518              	.LBE316:
 2519              	.LBE315:
 2520              		.loc 1 446 0
 2521 0018 091B     		subs	r1, r1, r4
 2522 001a B1FA81F1 		clz	r1, r1
 2523 001e 0620     		movs	r0, #6
 2524 0020 4909     		lsrs	r1, r1, #5
 2525 0022 FFF7FEFF 		bl	_test_assert
 2526              	.LVL197:
 2527              		.loc 1 448 0
 2528 0026 019A     		ldr	r2, [sp, #4]
 2529 0028 2B68     		ldr	r3, [r5]
 2530              		.loc 1 446 0
 2531 002a 18B1     		cbz	r0, .L197
 2532              		.loc 1 448 0
 2533 002c 9A42     		cmp	r2, r3
 2534 002e 0DD1     		bne	.L196
 2535 0030 03B0     		add	sp, sp, #12
 2536              		.cfi_remember_state
 2537              		.cfi_def_cfa_offset 12
 2538              		@ sp needed
 2539 0032 30BD     		pop	{r4, r5, pc}
 2540              	.L197:
 2541              		.cfi_restore_state
 2542              	.LBB317:
 2543              	.LBB318:
 2544              		.loc 1 447 0
 2545 0034 9A42     		cmp	r2, r3
 2546 0036 09D1     		bne	.L196
 2547 0038 A168     		ldr	r1, [r4, #8]
 2548 003a B1FA81F1 		clz	r1, r1
 2549 003e 4909     		lsrs	r1, r1, #5
 2550 0040 0720     		movs	r0, #7
 2551              	.LBE318:
 2552              	.LBE317:
 2553              		.loc 1 448 0
 2554 0042 03B0     		add	sp, sp, #12
 2555              		.cfi_remember_state
 2556              		.cfi_def_cfa_offset 12
 2557              		@ sp needed
 2558 0044 BDE83040 		pop	{r4, r5, lr}
 2559              		.cfi_restore 14
 2560              		.cfi_restore 5
 2561              		.cfi_restore 4
 2562              		.cfi_def_cfa_offset 0
 2563              	.LBB320:
 2564              	.LBB319:
 2565              		.loc 1 447 0
ARM GAS  /var/folders/d2/nstgp4h54kz7g1l847x_b8wc0000gn/T//ccSYBGul.s 			page 46


 2566 0048 FFF7FEBF 		b	_test_assert
 2567              	.LVL198:
 2568              	.L196:
 2569              		.cfi_restore_state
 2570              	.LBE319:
 2571              	.LBE320:
 2572              		.loc 1 448 0
 2573 004c FFF7FEFF 		bl	__stack_chk_fail
 2574              	.LVL199:
 2575              	.L199:
 2576              		.align	2
 2577              	.L198:
 2578 0050 00000000 		.word	.LANCHOR0
 2579 0054 00000000 		.word	__stack_chk_guard
 2580              		.cfi_endproc
 2581              	.LFE239:
 2582              		.size	mtx5_execute, .-mtx5_execute
 2583              		.section	.text.mtx2_execute,"ax",%progbits
 2584              		.align	1
 2585              		.p2align 4,,15
 2586              		.syntax unified
 2587              		.thumb
 2588              		.thumb_func
 2589              		.fpu fpv4-sp-d16
 2590              		.type	mtx2_execute, %function
 2591              	mtx2_execute:
 2592              	.LFB226:
 2593              		.loc 1 186 0
 2594              		.cfi_startproc
 2595              		@ args = 0, pretend = 0, frame = 8
 2596              		@ frame_needed = 0, uses_anonymous_args = 0
 2597 0000 2DE9F043 		push	{r4, r5, r6, r7, r8, r9, lr}
 2598              		.cfi_def_cfa_offset 28
 2599              		.cfi_offset 4, -28
 2600              		.cfi_offset 5, -24
 2601              		.cfi_offset 6, -20
 2602              		.cfi_offset 7, -16
 2603              		.cfi_offset 8, -12
 2604              		.cfi_offset 9, -8
 2605              		.cfi_offset 14, -4
 2606 0004 DFF8E880 		ldr	r8, .L209+32
 2607 0008 85B0     		sub	sp, sp, #20
 2608              		.cfi_def_cfa_offset 48
 2609              		.loc 1 186 0
 2610 000a D8F80030 		ldr	r3, [r8]
 2611 000e 0393     		str	r3, [sp, #12]
 2612              		.loc 1 189 0
 2613 0010 FFF7FEFF 		bl	test_wait_tick
 2614              	.LVL200:
 2615              	.LBB347:
 2616              	.LBB348:
 2617              	.LBB349:
 2618              	.LBB350:
 2619              	.LBB351:
 2620              	.LBB352:
 2621              	.LBB353:
 2622              		.loc 3 546 0
ARM GAS  /var/folders/d2/nstgp4h54kz7g1l847x_b8wc0000gn/T//ccSYBGul.s 			page 47


 2623 0014 2023     		movs	r3, #32
 2624              		.syntax unified
 2625              	@ 546 "../e-puck2_main-processor/ChibiOS//os/ext/CMSIS/include/core_cmFunc.h" 1
 2626 0016 83F31188 		MSR basepri, r3
 2627              	@ 0 "" 2
 2628              	.LVL201:
 2629              		.thumb
 2630              		.syntax unified
 2631              	.LBE353:
 2632              	.LBE352:
 2633              	.LBE351:
 2634              	.LBE350:
 2635              	.LBE349:
 2636              	.LBB355:
 2637              	.LBB356:
 2638              		.file 6 "../e-puck2_main-processor/ChibiOS//os/rt/include/chvt.h"
 2639              		.loc 6 231 0
 2640 001a 2D4C     		ldr	r4, .L209
 2641              	.LBE356:
 2642              	.LBE355:
 2643              	.LBB358:
 2644              	.LBB354:
 2645              		.loc 4 349 0
 2646 001c FFF7FEFF 		bl	_stats_start_measure_crit_thd
 2647              	.LVL202:
 2648              		.loc 4 350 0
 2649 0020 FFF7FEFF 		bl	_dbg_check_lock
 2650              	.LVL203:
 2651              	.LBE354:
 2652              	.LBE358:
 2653              	.LBB359:
 2654              	.LBB357:
 2655              		.loc 6 231 0
 2656 0024 D4F82890 		ldr	r9, [r4, #40]
 2657              	.LBE357:
 2658              	.LBE359:
 2659              	.LBB360:
 2660              	.LBB361:
 2661              		.loc 4 360 0
 2662 0028 FFF7FEFF 		bl	_dbg_check_unlock
 2663              	.LVL204:
 2664              		.loc 4 361 0
 2665 002c FFF7FEFF 		bl	_stats_stop_measure_crit_thd
 2666              	.LVL205:
 2667              		.loc 4 367 0
 2668 0030 2368     		ldr	r3, [r4]
 2669 0032 A342     		cmp	r3, r4
 2670 0034 04D0     		beq	.L201
 2671 0036 A269     		ldr	r2, [r4, #24]
 2672 0038 9B68     		ldr	r3, [r3, #8]
 2673 003a 9268     		ldr	r2, [r2, #8]
 2674 003c 9A42     		cmp	r2, r3
 2675 003e 34D3     		bcc	.L207
 2676              	.L201:
 2677              	.LVL206:
 2678              	.LBB362:
 2679              	.LBB363:
ARM GAS  /var/folders/d2/nstgp4h54kz7g1l847x_b8wc0000gn/T//ccSYBGul.s 			page 48


 2680              	.LBB364:
 2681              		.loc 3 546 0
 2682 0040 0025     		movs	r5, #0
 2683              		.syntax unified
 2684              	@ 546 "../e-puck2_main-processor/ChibiOS//os/ext/CMSIS/include/core_cmFunc.h" 1
 2685 0042 85F31188 		MSR basepri, r5
 2686              	@ 0 "" 2
 2687              	.LVL207:
 2688              		.thumb
 2689              		.syntax unified
 2690              	.LBE364:
 2691              	.LBE363:
 2692              	.LBE362:
 2693              	.LBE361:
 2694              	.LBE360:
 2695              	.LBE348:
 2696              	.LBE347:
 2697              	.LBB368:
 2698              	.LBB369:
 2699              		.loc 2 189 0
 2700 0046 A369     		ldr	r3, [r4, #24]
 2701              	.LBE369:
 2702              	.LBE368:
 2703              		.loc 1 191 0
 2704 0048 224F     		ldr	r7, .L209+4
 2705 004a 9A68     		ldr	r2, [r3, #8]
 2706 004c 3868     		ldr	r0, [r7]
 2707 004e 224B     		ldr	r3, .L209+8
 2708 0050 0095     		str	r5, [sp]
 2709 0052 013A     		subs	r2, r2, #1
 2710 0054 4FF4FC71 		mov	r1, #504
 2711 0058 FFF7FEFF 		bl	chThdCreateStatic
 2712              	.LVL208:
 2713 005c 1F4E     		ldr	r6, .L209+12
 2714              	.LBB370:
 2715              	.LBB371:
 2716              		.loc 2 189 0
 2717 005e A369     		ldr	r3, [r4, #24]
 2718              	.LBE371:
 2719              	.LBE370:
 2720              		.loc 1 191 0
 2721 0060 3060     		str	r0, [r6]
 2722              		.loc 1 192 0
 2723 0062 9A68     		ldr	r2, [r3, #8]
 2724 0064 7868     		ldr	r0, [r7, #4]
 2725 0066 1E4B     		ldr	r3, .L209+16
 2726 0068 0095     		str	r5, [sp]
 2727 006a 023A     		subs	r2, r2, #2
 2728 006c 4FF4FC71 		mov	r1, #504
 2729 0070 FFF7FEFF 		bl	chThdCreateStatic
 2730              	.LVL209:
 2731              	.LBB372:
 2732              	.LBB373:
 2733              		.loc 2 189 0
 2734 0074 A369     		ldr	r3, [r4, #24]
 2735              	.LBE373:
 2736              	.LBE372:
ARM GAS  /var/folders/d2/nstgp4h54kz7g1l847x_b8wc0000gn/T//ccSYBGul.s 			page 49


 2737              		.loc 1 192 0
 2738 0076 7060     		str	r0, [r6, #4]
 2739              		.loc 1 193 0
 2740 0078 9A68     		ldr	r2, [r3, #8]
 2741 007a B868     		ldr	r0, [r7, #8]
 2742 007c 194B     		ldr	r3, .L209+20
 2743 007e 0095     		str	r5, [sp]
 2744 0080 033A     		subs	r2, r2, #3
 2745 0082 4FF4FC71 		mov	r1, #504
 2746 0086 FFF7FEFF 		bl	chThdCreateStatic
 2747              	.LVL210:
 2748 008a B060     		str	r0, [r6, #8]
 2749              		.loc 1 194 0
 2750 008c FFF7FEFF 		bl	test_wait_threads
 2751              	.LVL211:
 2752              		.loc 1 195 0
 2753 0090 1549     		ldr	r1, .L209+24
 2754 0092 0120     		movs	r0, #1
 2755 0094 FFF7FEFF 		bl	_test_assert_sequence
 2756              	.LVL212:
 2757              		.loc 1 197 0
 2758 0098 039A     		ldr	r2, [sp, #12]
 2759 009a D8F80030 		ldr	r3, [r8]
 2760              		.loc 1 195 0
 2761 009e 40B1     		cbz	r0, .L208
 2762              		.loc 1 197 0
 2763 00a0 9A42     		cmp	r2, r3
 2764 00a2 12D1     		bne	.L206
 2765 00a4 05B0     		add	sp, sp, #20
 2766              		.cfi_remember_state
 2767              		.cfi_def_cfa_offset 28
 2768              		@ sp needed
 2769 00a6 BDE8F083 		pop	{r4, r5, r6, r7, r8, r9, pc}
 2770              	.L207:
 2771              		.cfi_restore_state
 2772              	.LBB374:
 2773              	.LBB367:
 2774              	.LBB366:
 2775              	.LBB365:
 2776              		.loc 4 367 0
 2777 00aa 1048     		ldr	r0, .L209+28
 2778 00ac FFF7FEFF 		bl	chSysHalt
 2779              	.LVL213:
 2780 00b0 C6E7     		b	.L201
 2781              	.L208:
 2782              	.LBE365:
 2783              	.LBE366:
 2784              	.LBE367:
 2785              	.LBE374:
 2786              		.loc 1 196 0
 2787 00b2 9A42     		cmp	r2, r3
 2788 00b4 09D1     		bne	.L206
 2789 00b6 09F16902 		add	r2, r9, #105
 2790 00ba 09F16401 		add	r1, r9, #100
 2791 00be 0220     		movs	r0, #2
 2792              		.loc 1 197 0
 2793 00c0 05B0     		add	sp, sp, #20
ARM GAS  /var/folders/d2/nstgp4h54kz7g1l847x_b8wc0000gn/T//ccSYBGul.s 			page 50


 2794              		.cfi_remember_state
 2795              		.cfi_def_cfa_offset 28
 2796              		@ sp needed
 2797 00c2 BDE8F043 		pop	{r4, r5, r6, r7, r8, r9, lr}
 2798              		.cfi_restore 14
 2799              		.cfi_restore 9
 2800              		.cfi_restore 8
 2801              		.cfi_restore 7
 2802              		.cfi_restore 6
 2803              		.cfi_restore 5
 2804              		.cfi_restore 4
 2805              		.cfi_def_cfa_offset 0
 2806              		.loc 1 196 0
 2807 00c6 FFF7FEBF 		b	_test_assert_time_window
 2808              	.LVL214:
 2809              	.L206:
 2810              		.cfi_restore_state
 2811              		.loc 1 197 0
 2812 00ca FFF7FEFF 		bl	__stack_chk_fail
 2813              	.LVL215:
 2814              	.L210:
 2815 00ce 00BF     		.align	2
 2816              	.L209:
 2817 00d0 00000000 		.word	ch
 2818 00d4 00000000 		.word	wa
 2819 00d8 00000000 		.word	thread2H
 2820 00dc 00000000 		.word	threads
 2821 00e0 00000000 		.word	thread2M
 2822 00e4 00000000 		.word	thread2L
 2823 00e8 00000000 		.word	.LC6
 2824 00ec 00000000 		.word	.LANCHOR2
 2825 00f0 00000000 		.word	__stack_chk_guard
 2826              		.cfi_endproc
 2827              	.LFE226:
 2828              		.size	mtx2_execute, .-mtx2_execute
 2829              		.section	.text.mtx6_execute,"ax",%progbits
 2830              		.align	1
 2831              		.p2align 4,,15
 2832              		.syntax unified
 2833              		.thumb
 2834              		.thumb_func
 2835              		.fpu fpv4-sp-d16
 2836              		.type	mtx6_execute, %function
 2837              	mtx6_execute:
 2838              	.LFB242:
 2839              		.loc 1 483 0
 2840              		.cfi_startproc
 2841              		@ args = 0, pretend = 0, frame = 8
 2842              		@ frame_needed = 0, uses_anonymous_args = 0
 2843 0000 2DE9F041 		push	{r4, r5, r6, r7, r8, lr}
 2844              		.cfi_def_cfa_offset 24
 2845              		.cfi_offset 4, -24
 2846              		.cfi_offset 5, -20
 2847              		.cfi_offset 6, -16
 2848              		.cfi_offset 7, -12
 2849              		.cfi_offset 8, -8
 2850              		.cfi_offset 14, -4
ARM GAS  /var/folders/d2/nstgp4h54kz7g1l847x_b8wc0000gn/T//ccSYBGul.s 			page 51


 2851              	.LBB389:
 2852              	.LBB390:
 2853              	.LBB391:
 2854              	.LBB392:
 2855              		.loc 2 176 0
 2856 0004 3D4F     		ldr	r7, .L218
 2857              	.LBE392:
 2858              	.LBE391:
 2859              	.LBE390:
 2860              	.LBE389:
 2861              		.loc 1 483 0
 2862 0006 DFF82481 		ldr	r8, .L218+48
 2863              	.LBB395:
 2864              	.LBB393:
 2865              		.loc 2 189 0
 2866 000a BB69     		ldr	r3, [r7, #24]
 2867              	.LBE393:
 2868              	.LBE395:
 2869              		.loc 1 486 0
 2870 000c 3C4E     		ldr	r6, .L218+4
 2871              	.LBB396:
 2872              	.LBB394:
 2873              		.loc 2 189 0
 2874 000e 9D68     		ldr	r5, [r3, #8]
 2875              	.LBE394:
 2876              	.LBE396:
 2877              		.loc 1 483 0
 2878 0010 D8F80010 		ldr	r1, [r8]
 2879              		.loc 1 486 0
 2880 0014 3B4B     		ldr	r3, .L218+8
 2881 0016 3068     		ldr	r0, [r6]
 2882 0018 3B4C     		ldr	r4, .L218+12
 2883              		.loc 1 483 0
 2884 001a 84B0     		sub	sp, sp, #16
 2885              		.cfi_def_cfa_offset 40
 2886              		.loc 1 486 0
 2887 001c 6A1C     		adds	r2, r5, #1
 2888 001e 0093     		str	r3, [sp]
 2889              		.loc 1 483 0
 2890 0020 0391     		str	r1, [sp, #12]
 2891              		.loc 1 486 0
 2892 0022 3A4B     		ldr	r3, .L218+16
 2893 0024 4FF4FC71 		mov	r1, #504
 2894 0028 FFF7FEFF 		bl	chThdCreateStatic
 2895              	.LVL216:
 2896              		.loc 1 487 0
 2897 002c 7168     		ldr	r1, [r6, #4]
 2898 002e 384B     		ldr	r3, .L218+20
 2899              		.loc 1 486 0
 2900 0030 2060     		str	r0, [r4]
 2901              		.loc 1 487 0
 2902 0032 AA1C     		adds	r2, r5, #2
 2903 0034 0093     		str	r3, [sp]
 2904 0036 0846     		mov	r0, r1
 2905 0038 344B     		ldr	r3, .L218+16
 2906 003a 4FF4FC71 		mov	r1, #504
 2907 003e FFF7FEFF 		bl	chThdCreateStatic
ARM GAS  /var/folders/d2/nstgp4h54kz7g1l847x_b8wc0000gn/T//ccSYBGul.s 			page 52


 2908              	.LVL217:
 2909              		.loc 1 488 0
 2910 0042 B168     		ldr	r1, [r6, #8]
 2911 0044 334B     		ldr	r3, .L218+24
 2912              		.loc 1 487 0
 2913 0046 6060     		str	r0, [r4, #4]
 2914              		.loc 1 488 0
 2915 0048 EA1C     		adds	r2, r5, #3
 2916 004a 0093     		str	r3, [sp]
 2917 004c 0846     		mov	r0, r1
 2918 004e 2F4B     		ldr	r3, .L218+16
 2919 0050 4FF4FC71 		mov	r1, #504
 2920 0054 FFF7FEFF 		bl	chThdCreateStatic
 2921              	.LVL218:
 2922              		.loc 1 489 0
 2923 0058 F168     		ldr	r1, [r6, #12]
 2924 005a 2F4B     		ldr	r3, .L218+28
 2925              		.loc 1 488 0
 2926 005c A060     		str	r0, [r4, #8]
 2927              		.loc 1 489 0
 2928 005e 2A1D     		adds	r2, r5, #4
 2929 0060 0093     		str	r3, [sp]
 2930 0062 0846     		mov	r0, r1
 2931 0064 294B     		ldr	r3, .L218+16
 2932 0066 4FF4FC71 		mov	r1, #504
 2933 006a FFF7FEFF 		bl	chThdCreateStatic
 2934              	.LVL219:
 2935              		.loc 1 490 0
 2936 006e 3169     		ldr	r1, [r6, #16]
 2937 0070 2A4B     		ldr	r3, .L218+32
 2938              		.loc 1 489 0
 2939 0072 E060     		str	r0, [r4, #12]
 2940              		.loc 1 490 0
 2941 0074 0093     		str	r3, [sp]
 2942 0076 6A1D     		adds	r2, r5, #5
 2943 0078 0846     		mov	r0, r1
 2944 007a 244B     		ldr	r3, .L218+16
 2945 007c 4FF4FC71 		mov	r1, #504
 2946 0080 FFF7FEFF 		bl	chThdCreateStatic
 2947              	.LVL220:
 2948              	.LBB397:
 2949              	.LBB398:
 2950              	.LBB399:
 2951              	.LBB400:
 2952              	.LBB401:
 2953              		.loc 3 546 0
 2954 0084 2023     		movs	r3, #32
 2955              	.LBE401:
 2956              	.LBE400:
 2957              	.LBE399:
 2958              	.LBE398:
 2959              	.LBE397:
 2960              		.loc 1 490 0
 2961 0086 2061     		str	r0, [r4, #16]
 2962              	.LVL221:
 2963              	.LBB406:
 2964              	.LBB405:
ARM GAS  /var/folders/d2/nstgp4h54kz7g1l847x_b8wc0000gn/T//ccSYBGul.s 			page 53


 2965              	.LBB404:
 2966              	.LBB403:
 2967              	.LBB402:
 2968              		.loc 3 546 0
 2969              		.syntax unified
 2970              	@ 546 "../e-puck2_main-processor/ChibiOS//os/ext/CMSIS/include/core_cmFunc.h" 1
 2971 0088 83F31188 		MSR basepri, r3
 2972              	@ 0 "" 2
 2973              	.LVL222:
 2974              		.thumb
 2975              		.syntax unified
 2976              	.LBE402:
 2977              	.LBE403:
 2978              	.LBE404:
 2979              		.loc 4 349 0
 2980 008c FFF7FEFF 		bl	_stats_start_measure_crit_thd
 2981              	.LVL223:
 2982              		.loc 4 350 0
 2983 0090 FFF7FEFF 		bl	_dbg_check_lock
 2984              	.LVL224:
 2985              	.LBE405:
 2986              	.LBE406:
 2987              		.loc 1 492 0
 2988 0094 2248     		ldr	r0, .L218+36
 2989 0096 FFF7FEFF 		bl	chCondSignalI
 2990              	.LVL225:
 2991              		.loc 1 493 0
 2992 009a 2148     		ldr	r0, .L218+36
 2993 009c FFF7FEFF 		bl	chCondSignalI
 2994              	.LVL226:
 2995              		.loc 1 494 0
 2996 00a0 1F48     		ldr	r0, .L218+36
 2997 00a2 FFF7FEFF 		bl	chCondSignalI
 2998              	.LVL227:
 2999              		.loc 1 495 0
 3000 00a6 1E48     		ldr	r0, .L218+36
 3001 00a8 FFF7FEFF 		bl	chCondSignalI
 3002              	.LVL228:
 3003              		.loc 1 496 0
 3004 00ac 1C48     		ldr	r0, .L218+36
 3005 00ae FFF7FEFF 		bl	chCondSignalI
 3006              	.LVL229:
 3007              		.loc 1 497 0
 3008 00b2 FFF7FEFF 		bl	chSchRescheduleS
 3009              	.LVL230:
 3010              	.LBB407:
 3011              	.LBB408:
 3012              		.loc 4 360 0
 3013 00b6 FFF7FEFF 		bl	_dbg_check_unlock
 3014              	.LVL231:
 3015              		.loc 4 361 0
 3016 00ba FFF7FEFF 		bl	_stats_stop_measure_crit_thd
 3017              	.LVL232:
 3018              		.loc 4 367 0
 3019 00be 3B68     		ldr	r3, [r7]
 3020 00c0 BB42     		cmp	r3, r7
 3021 00c2 04D0     		beq	.L212
ARM GAS  /var/folders/d2/nstgp4h54kz7g1l847x_b8wc0000gn/T//ccSYBGul.s 			page 54


 3022 00c4 BA69     		ldr	r2, [r7, #24]
 3023 00c6 9B68     		ldr	r3, [r3, #8]
 3024 00c8 9268     		ldr	r2, [r2, #8]
 3025 00ca 9A42     		cmp	r2, r3
 3026 00cc 10D3     		bcc	.L216
 3027              	.L212:
 3028              	.LVL233:
 3029              	.LBB409:
 3030              	.LBB410:
 3031              	.LBB411:
 3032              		.loc 3 546 0
 3033 00ce 0023     		movs	r3, #0
 3034              		.syntax unified
 3035              	@ 546 "../e-puck2_main-processor/ChibiOS//os/ext/CMSIS/include/core_cmFunc.h" 1
 3036 00d0 83F31188 		MSR basepri, r3
 3037              	@ 0 "" 2
 3038              	.LVL234:
 3039              		.thumb
 3040              		.syntax unified
 3041              	.LBE411:
 3042              	.LBE410:
 3043              	.LBE409:
 3044              	.LBE408:
 3045              	.LBE407:
 3046              		.loc 1 499 0
 3047 00d4 FFF7FEFF 		bl	test_wait_threads
 3048              	.LVL235:
 3049              		.loc 1 500 0
 3050 00d8 039A     		ldr	r2, [sp, #12]
 3051 00da D8F80030 		ldr	r3, [r8]
 3052 00de 9A42     		cmp	r2, r3
 3053 00e0 0AD1     		bne	.L217
 3054 00e2 1049     		ldr	r1, .L218+40
 3055 00e4 0120     		movs	r0, #1
 3056              		.loc 1 501 0
 3057 00e6 04B0     		add	sp, sp, #16
 3058              		.cfi_remember_state
 3059              		.cfi_def_cfa_offset 24
 3060              		@ sp needed
 3061 00e8 BDE8F041 		pop	{r4, r5, r6, r7, r8, lr}
 3062              		.cfi_restore 14
 3063              		.cfi_restore 8
 3064              		.cfi_restore 7
 3065              		.cfi_restore 6
 3066              		.cfi_restore 5
 3067              		.cfi_restore 4
 3068              		.cfi_def_cfa_offset 0
 3069              		.loc 1 500 0
 3070 00ec FFF7FEBF 		b	_test_assert_sequence
 3071              	.LVL236:
 3072              	.L216:
 3073              		.cfi_restore_state
 3074              	.LBB413:
 3075              	.LBB412:
 3076              		.loc 4 367 0
 3077 00f0 0D48     		ldr	r0, .L218+44
 3078 00f2 FFF7FEFF 		bl	chSysHalt
ARM GAS  /var/folders/d2/nstgp4h54kz7g1l847x_b8wc0000gn/T//ccSYBGul.s 			page 55


 3079              	.LVL237:
 3080 00f6 EAE7     		b	.L212
 3081              	.L217:
 3082              	.LBE412:
 3083              	.LBE413:
 3084              		.loc 1 500 0
 3085 00f8 FFF7FEFF 		bl	__stack_chk_fail
 3086              	.LVL238:
 3087              	.L219:
 3088              		.align	2
 3089              	.L218:
 3090 00fc 00000000 		.word	ch
 3091 0100 00000000 		.word	wa
 3092 0104 00000000 		.word	.LC0
 3093 0108 00000000 		.word	threads
 3094 010c 00000000 		.word	thread10
 3095 0110 04000000 		.word	.LC1
 3096 0114 08000000 		.word	.LC2
 3097 0118 0C000000 		.word	.LC3
 3098 011c 10000000 		.word	.LC4
 3099 0120 00000000 		.word	.LANCHOR3
 3100 0124 14000000 		.word	.LC5
 3101 0128 00000000 		.word	.LANCHOR2
 3102 012c 00000000 		.word	__stack_chk_guard
 3103              		.cfi_endproc
 3104              	.LFE242:
 3105              		.size	mtx6_execute, .-mtx6_execute
 3106              		.section	.text.mtx3_execute,"ax",%progbits
 3107              		.align	1
 3108              		.p2align 4,,15
 3109              		.syntax unified
 3110              		.thumb
 3111              		.thumb_func
 3112              		.fpu fpv4-sp-d16
 3113              		.type	mtx3_execute, %function
 3114              	mtx3_execute:
 3115              	.LFB233:
 3116              		.loc 1 299 0
 3117              		.cfi_startproc
 3118              		@ args = 0, pretend = 0, frame = 8
 3119              		@ frame_needed = 0, uses_anonymous_args = 0
 3120 0000 2DE9F043 		push	{r4, r5, r6, r7, r8, r9, lr}
 3121              		.cfi_def_cfa_offset 28
 3122              		.cfi_offset 4, -28
 3123              		.cfi_offset 5, -24
 3124              		.cfi_offset 6, -20
 3125              		.cfi_offset 7, -16
 3126              		.cfi_offset 8, -12
 3127              		.cfi_offset 9, -8
 3128              		.cfi_offset 14, -4
 3129 0004 DFF81C81 		ldr	r8, .L229+40
 3130 0008 85B0     		sub	sp, sp, #20
 3131              		.cfi_def_cfa_offset 48
 3132              		.loc 1 299 0
 3133 000a D8F80030 		ldr	r3, [r8]
 3134 000e 0393     		str	r3, [sp, #12]
 3135              		.loc 1 302 0
ARM GAS  /var/folders/d2/nstgp4h54kz7g1l847x_b8wc0000gn/T//ccSYBGul.s 			page 56


 3136 0010 FFF7FEFF 		bl	test_wait_tick
 3137              	.LVL239:
 3138              	.LBB448:
 3139              	.LBB449:
 3140              	.LBB450:
 3141              	.LBB451:
 3142              	.LBB452:
 3143              	.LBB453:
 3144              	.LBB454:
 3145              		.loc 3 546 0
 3146 0014 2023     		movs	r3, #32
 3147              		.syntax unified
 3148              	@ 546 "../e-puck2_main-processor/ChibiOS//os/ext/CMSIS/include/core_cmFunc.h" 1
 3149 0016 83F31188 		MSR basepri, r3
 3150              	@ 0 "" 2
 3151              	.LVL240:
 3152              		.thumb
 3153              		.syntax unified
 3154              	.LBE454:
 3155              	.LBE453:
 3156              	.LBE452:
 3157              	.LBE451:
 3158              	.LBE450:
 3159              	.LBB456:
 3160              	.LBB457:
 3161              		.loc 6 231 0
 3162 001a 384C     		ldr	r4, .L229
 3163              	.LBE457:
 3164              	.LBE456:
 3165              	.LBB459:
 3166              	.LBB455:
 3167              		.loc 4 349 0
 3168 001c FFF7FEFF 		bl	_stats_start_measure_crit_thd
 3169              	.LVL241:
 3170              		.loc 4 350 0
 3171 0020 FFF7FEFF 		bl	_dbg_check_lock
 3172              	.LVL242:
 3173              	.LBE455:
 3174              	.LBE459:
 3175              	.LBB460:
 3176              	.LBB458:
 3177              		.loc 6 231 0
 3178 0024 D4F82890 		ldr	r9, [r4, #40]
 3179              	.LBE458:
 3180              	.LBE460:
 3181              	.LBB461:
 3182              	.LBB462:
 3183              		.loc 4 360 0
 3184 0028 FFF7FEFF 		bl	_dbg_check_unlock
 3185              	.LVL243:
 3186              		.loc 4 361 0
 3187 002c FFF7FEFF 		bl	_stats_stop_measure_crit_thd
 3188              	.LVL244:
 3189              		.loc 4 367 0
 3190 0030 2368     		ldr	r3, [r4]
 3191 0032 A342     		cmp	r3, r4
 3192 0034 04D0     		beq	.L221
ARM GAS  /var/folders/d2/nstgp4h54kz7g1l847x_b8wc0000gn/T//ccSYBGul.s 			page 57


 3193 0036 A269     		ldr	r2, [r4, #24]
 3194 0038 9B68     		ldr	r3, [r3, #8]
 3195 003a 9268     		ldr	r2, [r2, #8]
 3196 003c 9A42     		cmp	r2, r3
 3197 003e 4AD3     		bcc	.L227
 3198              	.L221:
 3199              	.LVL245:
 3200              	.LBB463:
 3201              	.LBB464:
 3202              	.LBB465:
 3203              		.loc 3 546 0
 3204 0040 0025     		movs	r5, #0
 3205              		.syntax unified
 3206              	@ 546 "../e-puck2_main-processor/ChibiOS//os/ext/CMSIS/include/core_cmFunc.h" 1
 3207 0042 85F31188 		MSR basepri, r5
 3208              	@ 0 "" 2
 3209              	.LVL246:
 3210              		.thumb
 3211              		.syntax unified
 3212              	.LBE465:
 3213              	.LBE464:
 3214              	.LBE463:
 3215              	.LBE462:
 3216              	.LBE461:
 3217              	.LBE449:
 3218              	.LBE448:
 3219              	.LBB469:
 3220              	.LBB470:
 3221              		.loc 2 189 0
 3222 0046 A369     		ldr	r3, [r4, #24]
 3223              	.LBE470:
 3224              	.LBE469:
 3225              		.loc 1 304 0
 3226 0048 2D4F     		ldr	r7, .L229+4
 3227 004a 9A68     		ldr	r2, [r3, #8]
 3228 004c 3868     		ldr	r0, [r7]
 3229 004e 2D4B     		ldr	r3, .L229+8
 3230 0050 0095     		str	r5, [sp]
 3231 0052 053A     		subs	r2, r2, #5
 3232 0054 4FF4FC71 		mov	r1, #504
 3233 0058 FFF7FEFF 		bl	chThdCreateStatic
 3234              	.LVL247:
 3235 005c 2A4E     		ldr	r6, .L229+12
 3236              	.LBB471:
 3237              	.LBB472:
 3238              		.loc 2 189 0
 3239 005e A369     		ldr	r3, [r4, #24]
 3240              	.LBE472:
 3241              	.LBE471:
 3242              		.loc 1 304 0
 3243 0060 3060     		str	r0, [r6]
 3244              		.loc 1 305 0
 3245 0062 9A68     		ldr	r2, [r3, #8]
 3246 0064 7868     		ldr	r0, [r7, #4]
 3247 0066 294B     		ldr	r3, .L229+16
 3248 0068 0095     		str	r5, [sp]
 3249 006a 043A     		subs	r2, r2, #4
ARM GAS  /var/folders/d2/nstgp4h54kz7g1l847x_b8wc0000gn/T//ccSYBGul.s 			page 58


 3250 006c 4FF4FC71 		mov	r1, #504
 3251 0070 FFF7FEFF 		bl	chThdCreateStatic
 3252              	.LVL248:
 3253              	.LBB473:
 3254              	.LBB474:
 3255              		.loc 2 189 0
 3256 0074 A369     		ldr	r3, [r4, #24]
 3257              	.LBE474:
 3258              	.LBE473:
 3259              		.loc 1 305 0
 3260 0076 7060     		str	r0, [r6, #4]
 3261              		.loc 1 306 0
 3262 0078 9A68     		ldr	r2, [r3, #8]
 3263 007a B868     		ldr	r0, [r7, #8]
 3264 007c 244B     		ldr	r3, .L229+20
 3265 007e 0095     		str	r5, [sp]
 3266 0080 033A     		subs	r2, r2, #3
 3267 0082 4FF4FC71 		mov	r1, #504
 3268 0086 FFF7FEFF 		bl	chThdCreateStatic
 3269              	.LVL249:
 3270              	.LBB475:
 3271              	.LBB476:
 3272              		.loc 2 189 0
 3273 008a A369     		ldr	r3, [r4, #24]
 3274              	.LBE476:
 3275              	.LBE475:
 3276              		.loc 1 306 0
 3277 008c B060     		str	r0, [r6, #8]
 3278              		.loc 1 307 0
 3279 008e 9A68     		ldr	r2, [r3, #8]
 3280 0090 F868     		ldr	r0, [r7, #12]
 3281 0092 204B     		ldr	r3, .L229+24
 3282 0094 0095     		str	r5, [sp]
 3283 0096 023A     		subs	r2, r2, #2
 3284 0098 4FF4FC71 		mov	r1, #504
 3285 009c FFF7FEFF 		bl	chThdCreateStatic
 3286              	.LVL250:
 3287              	.LBB477:
 3288              	.LBB478:
 3289              		.loc 2 189 0
 3290 00a0 A369     		ldr	r3, [r4, #24]
 3291              	.LBE478:
 3292              	.LBE477:
 3293              		.loc 1 307 0
 3294 00a2 F060     		str	r0, [r6, #12]
 3295              		.loc 1 308 0
 3296 00a4 9A68     		ldr	r2, [r3, #8]
 3297 00a6 3869     		ldr	r0, [r7, #16]
 3298 00a8 1B4B     		ldr	r3, .L229+28
 3299 00aa 0095     		str	r5, [sp]
 3300 00ac 013A     		subs	r2, r2, #1
 3301 00ae 4FF4FC71 		mov	r1, #504
 3302 00b2 FFF7FEFF 		bl	chThdCreateStatic
 3303              	.LVL251:
 3304 00b6 3061     		str	r0, [r6, #16]
 3305              		.loc 1 309 0
 3306 00b8 FFF7FEFF 		bl	test_wait_threads
ARM GAS  /var/folders/d2/nstgp4h54kz7g1l847x_b8wc0000gn/T//ccSYBGul.s 			page 59


 3307              	.LVL252:
 3308              		.loc 1 310 0
 3309 00bc 1749     		ldr	r1, .L229+32
 3310 00be 0120     		movs	r0, #1
 3311 00c0 FFF7FEFF 		bl	_test_assert_sequence
 3312              	.LVL253:
 3313              		.loc 1 312 0
 3314 00c4 039A     		ldr	r2, [sp, #12]
 3315 00c6 D8F80030 		ldr	r3, [r8]
 3316              		.loc 1 310 0
 3317 00ca 40B1     		cbz	r0, .L228
 3318              		.loc 1 312 0
 3319 00cc 9A42     		cmp	r2, r3
 3320 00ce 12D1     		bne	.L226
 3321 00d0 05B0     		add	sp, sp, #20
 3322              		.cfi_remember_state
 3323              		.cfi_def_cfa_offset 28
 3324              		@ sp needed
 3325 00d2 BDE8F083 		pop	{r4, r5, r6, r7, r8, r9, pc}
 3326              	.L227:
 3327              		.cfi_restore_state
 3328              	.LBB479:
 3329              	.LBB468:
 3330              	.LBB467:
 3331              	.LBB466:
 3332              		.loc 4 367 0
 3333 00d6 1248     		ldr	r0, .L229+36
 3334 00d8 FFF7FEFF 		bl	chSysHalt
 3335              	.LVL254:
 3336 00dc B0E7     		b	.L221
 3337              	.L228:
 3338              	.LBE466:
 3339              	.LBE467:
 3340              	.LBE468:
 3341              	.LBE479:
 3342              		.loc 1 311 0
 3343 00de 9A42     		cmp	r2, r3
 3344 00e0 09D1     		bne	.L226
 3345 00e2 09F17302 		add	r2, r9, #115
 3346 00e6 09F16E01 		add	r1, r9, #110
 3347 00ea 0220     		movs	r0, #2
 3348              		.loc 1 312 0
 3349 00ec 05B0     		add	sp, sp, #20
 3350              		.cfi_remember_state
 3351              		.cfi_def_cfa_offset 28
 3352              		@ sp needed
 3353 00ee BDE8F043 		pop	{r4, r5, r6, r7, r8, r9, lr}
 3354              		.cfi_restore 14
 3355              		.cfi_restore 9
 3356              		.cfi_restore 8
 3357              		.cfi_restore 7
 3358              		.cfi_restore 6
 3359              		.cfi_restore 5
 3360              		.cfi_restore 4
 3361              		.cfi_def_cfa_offset 0
 3362              		.loc 1 311 0
 3363 00f2 FFF7FEBF 		b	_test_assert_time_window
ARM GAS  /var/folders/d2/nstgp4h54kz7g1l847x_b8wc0000gn/T//ccSYBGul.s 			page 60


 3364              	.LVL255:
 3365              	.L226:
 3366              		.cfi_restore_state
 3367              		.loc 1 312 0
 3368 00f6 FFF7FEFF 		bl	__stack_chk_fail
 3369              	.LVL256:
 3370              	.L230:
 3371 00fa 00BF     		.align	2
 3372              	.L229:
 3373 00fc 00000000 		.word	ch
 3374 0100 00000000 		.word	wa
 3375 0104 00000000 		.word	thread3LL
 3376 0108 00000000 		.word	threads
 3377 010c 00000000 		.word	thread3L
 3378 0110 00000000 		.word	thread3M
 3379 0114 00000000 		.word	thread3H
 3380 0118 00000000 		.word	thread3HH
 3381 011c 14000000 		.word	.LC5
 3382 0120 00000000 		.word	.LANCHOR2
 3383 0124 00000000 		.word	__stack_chk_guard
 3384              		.cfi_endproc
 3385              	.LFE233:
 3386              		.size	mtx3_execute, .-mtx3_execute
 3387              		.global	patternmtx
 3388              		.global	testmtx8
 3389              		.global	testmtx7
 3390              		.global	testmtx6
 3391              		.global	testmtx5
 3392              		.global	testmtx4
 3393              		.global	testmtx3
 3394              		.global	testmtx2
 3395              		.global	testmtx1
 3396              		.section	.data.c1,"aw",%progbits
 3397              		.align	2
 3398              		.set	.LANCHOR3,. + 0
 3399              		.type	c1, %object
 3400              		.size	c1, 8
 3401              	c1:
 3402 0000 00000000 		.word	c1
 3403 0004 00000000 		.word	c1
 3404              		.section	.data.m1,"aw",%progbits
 3405              		.align	2
 3406              		.set	.LANCHOR0,. + 0
 3407              		.type	m1, %object
 3408              		.size	m1, 20
 3409              	m1:
 3410 0000 00000000 		.word	m1
 3411 0004 00000000 		.word	m1
 3412 0008 00000000 		.word	0
 3413 000c 00000000 		.word	0
 3414 0010 00000000 		.word	0
 3415              		.section	.data.m2,"aw",%progbits
 3416              		.align	2
 3417              		.set	.LANCHOR1,. + 0
 3418              		.type	m2, %object
 3419              		.size	m2, 20
 3420              	m2:
ARM GAS  /var/folders/d2/nstgp4h54kz7g1l847x_b8wc0000gn/T//ccSYBGul.s 			page 61


 3421 0000 00000000 		.word	m2
 3422 0004 00000000 		.word	m2
 3423 0008 00000000 		.word	0
 3424 000c 00000000 		.word	0
 3425 0010 00000000 		.word	0
 3426              		.section	.rodata.__func__.7153,"a",%progbits
 3427              		.align	2
 3428              		.set	.LANCHOR2,. + 0
 3429              		.type	__func__.7153, %object
 3430              		.size	__func__.7153, 12
 3431              	__func__.7153:
 3432 0000 63685379 		.ascii	"chSysUnlock\000"
 3432      73556E6C 
 3432      6F636B00 
 3433              		.section	.rodata.mtx1_execute.str1.4,"aMS",%progbits,1
 3434              		.align	2
 3435              	.LC0:
 3436 0000 4500     		.ascii	"E\000"
 3437 0002 0000     		.space	2
 3438              	.LC1:
 3439 0004 4400     		.ascii	"D\000"
 3440 0006 0000     		.space	2
 3441              	.LC2:
 3442 0008 4300     		.ascii	"C\000"
 3443 000a 0000     		.space	2
 3444              	.LC3:
 3445 000c 4200     		.ascii	"B\000"
 3446 000e 0000     		.space	2
 3447              	.LC4:
 3448 0010 4100     		.ascii	"A\000"
 3449 0012 0000     		.space	2
 3450              	.LC5:
 3451 0014 41424344 		.ascii	"ABCDE\000"
 3451      4500
 3452              		.section	.rodata.mtx8_execute.str1.4,"aMS",%progbits,1
 3453              		.align	2
 3454              	.LC6:
 3455 0000 41424300 		.ascii	"ABC\000"
 3456              		.section	.rodata.patternmtx,"a",%progbits
 3457              		.align	2
 3458              		.type	patternmtx, %object
 3459              		.size	patternmtx, 36
 3460              	patternmtx:
 3461 0000 00000000 		.word	testmtx1
 3462 0004 00000000 		.word	testmtx2
 3463 0008 00000000 		.word	testmtx3
 3464 000c 00000000 		.word	testmtx4
 3465 0010 00000000 		.word	testmtx5
 3466 0014 00000000 		.word	testmtx6
 3467 0018 00000000 		.word	testmtx7
 3468 001c 00000000 		.word	testmtx8
 3469 0020 00000000 		.word	0
 3470              		.section	.rodata.str1.4,"aMS",%progbits,1
 3471              		.align	2
 3472              	.LC7:
 3473 0000 436F6E64 		.ascii	"CondVar, boost test\000"
 3473      5661722C 
ARM GAS  /var/folders/d2/nstgp4h54kz7g1l847x_b8wc0000gn/T//ccSYBGul.s 			page 62


 3473      20626F6F 
 3473      73742074 
 3473      65737400 
 3474              	.LC8:
 3475 0014 436F6E64 		.ascii	"CondVar, broadcast test\000"
 3475      5661722C 
 3475      2062726F 
 3475      61646361 
 3475      73742074 
 3476              	.LC9:
 3477 002c 436F6E64 		.ascii	"CondVar, signal test\000"
 3477      5661722C 
 3477      20736967 
 3477      6E616C20 
 3477      74657374 
 3478 0041 000000   		.space	3
 3479              	.LC10:
 3480 0044 4D757465 		.ascii	"Mutexes, status\000"
 3480      7865732C 
 3480      20737461 
 3480      74757300 
 3481              	.LC11:
 3482 0054 4D757465 		.ascii	"Mutexes, priority return\000"
 3482      7865732C 
 3482      20707269 
 3482      6F726974 
 3482      79207265 
 3483 006d 000000   		.space	3
 3484              	.LC12:
 3485 0070 4D757465 		.ascii	"Mutexes, priority inheritance, complex case\000"
 3485      7865732C 
 3485      20707269 
 3485      6F726974 
 3485      7920696E 
 3486              	.LC13:
 3487 009c 4D757465 		.ascii	"Mutexes, priority inheritance, simple case\000"
 3487      7865732C 
 3487      20707269 
 3487      6F726974 
 3487      7920696E 
 3488 00c7 00       		.space	1
 3489              	.LC14:
 3490 00c8 4D757465 		.ascii	"Mutexes, priority enqueuing test\000"
 3490      7865732C 
 3490      20707269 
 3490      6F726974 
 3490      7920656E 
 3491              		.section	.rodata.testmtx1,"a",%progbits
 3492              		.align	2
 3493              		.type	testmtx1, %object
 3494              		.size	testmtx1, 16
 3495              	testmtx1:
 3496 0000 C8000000 		.word	.LC14
 3497 0004 00000000 		.word	mtx1_setup
 3498 0008 00000000 		.word	0
 3499 000c 00000000 		.word	mtx1_execute
 3500              		.section	.rodata.testmtx2,"a",%progbits
ARM GAS  /var/folders/d2/nstgp4h54kz7g1l847x_b8wc0000gn/T//ccSYBGul.s 			page 63


 3501              		.align	2
 3502              		.type	testmtx2, %object
 3503              		.size	testmtx2, 16
 3504              	testmtx2:
 3505 0000 9C000000 		.word	.LC13
 3506 0004 00000000 		.word	mtx2_setup
 3507 0008 00000000 		.word	0
 3508 000c 00000000 		.word	mtx2_execute
 3509              		.section	.rodata.testmtx3,"a",%progbits
 3510              		.align	2
 3511              		.type	testmtx3, %object
 3512              		.size	testmtx3, 16
 3513              	testmtx3:
 3514 0000 70000000 		.word	.LC12
 3515 0004 00000000 		.word	mtx3_setup
 3516 0008 00000000 		.word	0
 3517 000c 00000000 		.word	mtx3_execute
 3518              		.section	.rodata.testmtx4,"a",%progbits
 3519              		.align	2
 3520              		.type	testmtx4, %object
 3521              		.size	testmtx4, 16
 3522              	testmtx4:
 3523 0000 54000000 		.word	.LC11
 3524 0004 00000000 		.word	mtx4_setup
 3525 0008 00000000 		.word	0
 3526 000c 00000000 		.word	mtx4_execute
 3527              		.section	.rodata.testmtx5,"a",%progbits
 3528              		.align	2
 3529              		.type	testmtx5, %object
 3530              		.size	testmtx5, 16
 3531              	testmtx5:
 3532 0000 44000000 		.word	.LC10
 3533 0004 00000000 		.word	mtx5_setup
 3534 0008 00000000 		.word	0
 3535 000c 00000000 		.word	mtx5_execute
 3536              		.section	.rodata.testmtx6,"a",%progbits
 3537              		.align	2
 3538              		.type	testmtx6, %object
 3539              		.size	testmtx6, 16
 3540              	testmtx6:
 3541 0000 2C000000 		.word	.LC9
 3542 0004 00000000 		.word	mtx6_setup
 3543 0008 00000000 		.word	0
 3544 000c 00000000 		.word	mtx6_execute
 3545              		.section	.rodata.testmtx7,"a",%progbits
 3546              		.align	2
 3547              		.type	testmtx7, %object
 3548              		.size	testmtx7, 16
 3549              	testmtx7:
 3550 0000 14000000 		.word	.LC8
 3551 0004 00000000 		.word	mtx7_setup
 3552 0008 00000000 		.word	0
 3553 000c 00000000 		.word	mtx7_execute
 3554              		.section	.rodata.testmtx8,"a",%progbits
 3555              		.align	2
 3556              		.type	testmtx8, %object
 3557              		.size	testmtx8, 16
ARM GAS  /var/folders/d2/nstgp4h54kz7g1l847x_b8wc0000gn/T//ccSYBGul.s 			page 64


 3558              	testmtx8:
 3559 0000 00000000 		.word	.LC7
 3560 0004 00000000 		.word	mtx8_setup
 3561 0008 00000000 		.word	0
 3562 000c 00000000 		.word	mtx8_execute
 3563              		.text
 3564              	.Letext0:
 3565              		.file 7 "/Applications/Eclipse_e-puck2.app/Contents/Eclipse_e-puck2/Tools/gcc-arm-none-eabi-7-2017
 3566              		.file 8 "/Applications/Eclipse_e-puck2.app/Contents/Eclipse_e-puck2/Tools/gcc-arm-none-eabi-7-2017
 3567              		.file 9 "/Applications/Eclipse_e-puck2.app/Contents/Eclipse_e-puck2/Tools/gcc-arm-none-eabi-7-2017
 3568              		.file 10 "../e-puck2_main-processor/ChibiOS//os/rt/ports/ARMCMx/compilers/GCC/chtypes.h"
 3569              		.file 11 "../e-puck2_main-processor/ChibiOS//os/rt/include/chsystypes.h"
 3570              		.file 12 "../e-puck2_main-processor/ChibiOS//os/ext/CMSIS/include/core_cm4.h"
 3571              		.file 13 "../e-puck2_main-processor/ChibiOS//os/ext/CMSIS/ST/system_stm32f4xx.h"
 3572              		.file 14 "../e-puck2_main-processor/ChibiOS//os/rt/ports/ARMCMx/chcore.h"
 3573              		.file 15 "../e-puck2_main-processor/ChibiOS//os/rt/ports/ARMCMx/chcore_v7m.h"
 3574              		.file 16 "../e-puck2_main-processor/ChibiOS//os/rt/include/chdebug.h"
 3575              		.file 17 "../e-puck2_main-processor/ChibiOS//os/rt/include/chtm.h"
 3576              		.file 18 "../e-puck2_main-processor/ChibiOS//os/rt/include/chstats.h"
 3577              		.file 19 "../e-puck2_main-processor/ChibiOS//os/rt/include/chsem.h"
 3578              		.file 20 "../e-puck2_main-processor/ChibiOS//os/rt/include/chmtx.h"
 3579              		.file 21 "../e-puck2_main-processor/ChibiOS//os/rt/include/chregistry.h"
 3580              		.file 22 "../e-puck2_main-processor/ChibiOS//os/rt/include/chcond.h"
 3581              		.file 23 "../e-puck2_main-processor/ChibiOS//test/rt/test.h"
 3582              		.section	.debug_info,"",%progbits
 3583              	.Ldebug_info0:
 3584 0000 A4280000 		.4byte	0x28a4
 3585 0004 0400     		.2byte	0x4
 3586 0006 00000000 		.4byte	.Ldebug_abbrev0
 3587 000a 04       		.byte	0x4
 3588 000b 01       		.uleb128 0x1
 3589 000c 48000000 		.4byte	.LASF251
 3590 0010 0C       		.byte	0xc
 3591 0011 34060000 		.4byte	.LASF252
 3592 0015 C70A0000 		.4byte	.LASF253
 3593 0019 A8010000 		.4byte	.Ldebug_ranges0+0x1a8
 3594 001d 00000000 		.4byte	0
 3595 0021 00000000 		.4byte	.Ldebug_line0
 3596 0025 02       		.uleb128 0x2
 3597 0026 04       		.byte	0x4
 3598 0027 05       		.byte	0x5
 3599 0028 696E7400 		.ascii	"int\000"
 3600 002c 03       		.uleb128 0x3
 3601 002d 08000000 		.4byte	.LASF4
 3602 0031 07       		.byte	0x7
 3603 0032 D8       		.byte	0xd8
 3604 0033 37000000 		.4byte	0x37
 3605 0037 04       		.uleb128 0x4
 3606 0038 04       		.byte	0x4
 3607 0039 07       		.byte	0x7
 3608 003a E3070000 		.4byte	.LASF0
 3609 003e 04       		.uleb128 0x4
 3610 003f 08       		.byte	0x8
 3611 0040 05       		.byte	0x5
 3612 0041 15070000 		.4byte	.LASF1
 3613 0045 04       		.uleb128 0x4
 3614 0046 08       		.byte	0x8
ARM GAS  /var/folders/d2/nstgp4h54kz7g1l847x_b8wc0000gn/T//ccSYBGul.s 			page 65


 3615 0047 04       		.byte	0x4
 3616 0048 70080000 		.4byte	.LASF2
 3617 004c 04       		.uleb128 0x4
 3618 004d 01       		.byte	0x1
 3619 004e 06       		.byte	0x6
 3620 004f DE030000 		.4byte	.LASF3
 3621 0053 03       		.uleb128 0x3
 3622 0054 CB020000 		.4byte	.LASF5
 3623 0058 08       		.byte	0x8
 3624 0059 2B       		.byte	0x2b
 3625 005a 5E000000 		.4byte	0x5e
 3626 005e 04       		.uleb128 0x4
 3627 005f 01       		.byte	0x1
 3628 0060 08       		.byte	0x8
 3629 0061 28040000 		.4byte	.LASF6
 3630 0065 04       		.uleb128 0x4
 3631 0066 02       		.byte	0x2
 3632 0067 05       		.byte	0x5
 3633 0068 840A0000 		.4byte	.LASF7
 3634 006c 03       		.uleb128 0x3
 3635 006d 9E040000 		.4byte	.LASF8
 3636 0071 08       		.byte	0x8
 3637 0072 39       		.byte	0x39
 3638 0073 77000000 		.4byte	0x77
 3639 0077 04       		.uleb128 0x4
 3640 0078 02       		.byte	0x2
 3641 0079 07       		.byte	0x7
 3642 007a 2F0C0000 		.4byte	.LASF9
 3643 007e 03       		.uleb128 0x3
 3644 007f 6B0C0000 		.4byte	.LASF10
 3645 0083 08       		.byte	0x8
 3646 0084 4D       		.byte	0x4d
 3647 0085 89000000 		.4byte	0x89
 3648 0089 04       		.uleb128 0x4
 3649 008a 04       		.byte	0x4
 3650 008b 05       		.byte	0x5
 3651 008c 0C030000 		.4byte	.LASF11
 3652 0090 03       		.uleb128 0x3
 3653 0091 F9060000 		.4byte	.LASF12
 3654 0095 08       		.byte	0x8
 3655 0096 4F       		.byte	0x4f
 3656 0097 9B000000 		.4byte	0x9b
 3657 009b 04       		.uleb128 0x4
 3658 009c 04       		.byte	0x4
 3659 009d 07       		.byte	0x7
 3660 009e B1050000 		.4byte	.LASF13
 3661 00a2 03       		.uleb128 0x3
 3662 00a3 9A050000 		.4byte	.LASF14
 3663 00a7 08       		.byte	0x8
 3664 00a8 69       		.byte	0x69
 3665 00a9 AD000000 		.4byte	0xad
 3666 00ad 04       		.uleb128 0x4
 3667 00ae 08       		.byte	0x8
 3668 00af 07       		.byte	0x7
 3669 00b0 12090000 		.4byte	.LASF15
 3670 00b4 03       		.uleb128 0x3
 3671 00b5 F4030000 		.4byte	.LASF16
ARM GAS  /var/folders/d2/nstgp4h54kz7g1l847x_b8wc0000gn/T//ccSYBGul.s 			page 66


 3672 00b9 09       		.byte	0x9
 3673 00ba 18       		.byte	0x18
 3674 00bb 53000000 		.4byte	0x53
 3675 00bf 03       		.uleb128 0x3
 3676 00c0 31090000 		.4byte	.LASF17
 3677 00c4 09       		.byte	0x9
 3678 00c5 24       		.byte	0x24
 3679 00c6 6C000000 		.4byte	0x6c
 3680 00ca 03       		.uleb128 0x3
 3681 00cb BD010000 		.4byte	.LASF18
 3682 00cf 09       		.byte	0x9
 3683 00d0 2C       		.byte	0x2c
 3684 00d1 7E000000 		.4byte	0x7e
 3685 00d5 05       		.uleb128 0x5
 3686 00d6 CA000000 		.4byte	0xca
 3687 00da 03       		.uleb128 0x3
 3688 00db F10B0000 		.4byte	.LASF19
 3689 00df 09       		.byte	0x9
 3690 00e0 30       		.byte	0x30
 3691 00e1 90000000 		.4byte	0x90
 3692 00e5 03       		.uleb128 0x3
 3693 00e6 8E0A0000 		.4byte	.LASF20
 3694 00ea 09       		.byte	0x9
 3695 00eb 3C       		.byte	0x3c
 3696 00ec A2000000 		.4byte	0xa2
 3697 00f0 03       		.uleb128 0x3
 3698 00f1 F0070000 		.4byte	.LASF21
 3699 00f5 0A       		.byte	0xa
 3700 00f6 45       		.byte	0x45
 3701 00f7 DA000000 		.4byte	0xda
 3702 00fb 03       		.uleb128 0x3
 3703 00fc 6B030000 		.4byte	.LASF22
 3704 0100 0A       		.byte	0xa
 3705 0101 46       		.byte	0x46
 3706 0102 E5000000 		.4byte	0xe5
 3707 0106 03       		.uleb128 0x3
 3708 0107 360A0000 		.4byte	.LASF23
 3709 010b 0A       		.byte	0xa
 3710 010c 48       		.byte	0x48
 3711 010d B4000000 		.4byte	0xb4
 3712 0111 03       		.uleb128 0x3
 3713 0112 62030000 		.4byte	.LASF24
 3714 0116 0A       		.byte	0xa
 3715 0117 49       		.byte	0x49
 3716 0118 B4000000 		.4byte	0xb4
 3717 011c 03       		.uleb128 0x3
 3718 011d C00B0000 		.4byte	.LASF25
 3719 0121 0A       		.byte	0xa
 3720 0122 4A       		.byte	0x4a
 3721 0123 B4000000 		.4byte	0xb4
 3722 0127 03       		.uleb128 0x3
 3723 0128 77090000 		.4byte	.LASF26
 3724 012c 0A       		.byte	0xa
 3725 012d 4B       		.byte	0x4b
 3726 012e B4000000 		.4byte	0xb4
 3727 0132 03       		.uleb128 0x3
 3728 0133 40000000 		.4byte	.LASF27
ARM GAS  /var/folders/d2/nstgp4h54kz7g1l847x_b8wc0000gn/T//ccSYBGul.s 			page 67


 3729 0137 0A       		.byte	0xa
 3730 0138 4C       		.byte	0x4c
 3731 0139 DA000000 		.4byte	0xda
 3732 013d 03       		.uleb128 0x3
 3733 013e 4A090000 		.4byte	.LASF28
 3734 0142 0A       		.byte	0xa
 3735 0143 4D       		.byte	0x4d
 3736 0144 CA000000 		.4byte	0xca
 3737 0148 03       		.uleb128 0x3
 3738 0149 FC030000 		.4byte	.LASF29
 3739 014d 0A       		.byte	0xa
 3740 014e 4F       		.byte	0x4f
 3741 014f DA000000 		.4byte	0xda
 3742 0153 03       		.uleb128 0x3
 3743 0154 EE040000 		.4byte	.LASF30
 3744 0158 0A       		.byte	0xa
 3745 0159 51       		.byte	0x51
 3746 015a CA000000 		.4byte	0xca
 3747 015e 03       		.uleb128 0x3
 3748 015f 94060000 		.4byte	.LASF31
 3749 0163 0A       		.byte	0xa
 3750 0164 52       		.byte	0x52
 3751 0165 DA000000 		.4byte	0xda
 3752 0169 03       		.uleb128 0x3
 3753 016a 22000000 		.4byte	.LASF32
 3754 016e 0B       		.byte	0xb
 3755 016f 33       		.byte	0x33
 3756 0170 DA000000 		.4byte	0xda
 3757 0174 05       		.uleb128 0x5
 3758 0175 69010000 		.4byte	0x169
 3759 0179 03       		.uleb128 0x3
 3760 017a 5C080000 		.4byte	.LASF33
 3761 017e 0B       		.byte	0xb
 3762 017f 3F       		.byte	0x3f
 3763 0180 84010000 		.4byte	0x184
 3764 0184 06       		.uleb128 0x6
 3765 0185 14060000 		.4byte	.LASF57
 3766 0189 68       		.byte	0x68
 3767 018a 05       		.byte	0x5
 3768 018b C2       		.byte	0xc2
 3769 018c A2020000 		.4byte	0x2a2
 3770 0190 07       		.uleb128 0x7
 3771 0191 15030000 		.4byte	.LASF34
 3772 0195 05       		.byte	0x5
 3773 0196 C3       		.byte	0xc3
 3774 0197 AD020000 		.4byte	0x2ad
 3775 019b 00       		.byte	0
 3776 019c 07       		.uleb128 0x7
 3777 019d 41030000 		.4byte	.LASF35
 3778 01a1 05       		.byte	0x5
 3779 01a2 C5       		.byte	0xc5
 3780 01a3 AD020000 		.4byte	0x2ad
 3781 01a7 04       		.byte	0x4
 3782 01a8 07       		.uleb128 0x7
 3783 01a9 97040000 		.4byte	.LASF36
 3784 01ad 05       		.byte	0x5
 3785 01ae C7       		.byte	0xc7
ARM GAS  /var/folders/d2/nstgp4h54kz7g1l847x_b8wc0000gn/T//ccSYBGul.s 			page 68


 3786 01af 32010000 		.4byte	0x132
 3787 01b3 08       		.byte	0x8
 3788 01b4 07       		.uleb128 0x7
 3789 01b5 3A000000 		.4byte	.LASF37
 3790 01b9 05       		.byte	0x5
 3791 01ba C8       		.byte	0xc8
 3792 01bb 30050000 		.4byte	0x530
 3793 01bf 0C       		.byte	0xc
 3794 01c0 07       		.uleb128 0x7
 3795 01c1 FB020000 		.4byte	.LASF38
 3796 01c5 05       		.byte	0x5
 3797 01c6 CA       		.byte	0xca
 3798 01c7 AD020000 		.4byte	0x2ad
 3799 01cb 10       		.byte	0x10
 3800 01cc 07       		.uleb128 0x7
 3801 01cd 29090000 		.4byte	.LASF39
 3802 01d1 05       		.byte	0x5
 3803 01d2 CB       		.byte	0xcb
 3804 01d3 AD020000 		.4byte	0x2ad
 3805 01d7 14       		.byte	0x14
 3806 01d8 07       		.uleb128 0x7
 3807 01d9 9A0C0000 		.4byte	.LASF40
 3808 01dd 05       		.byte	0x5
 3809 01de D2       		.byte	0xd2
 3810 01df A6080000 		.4byte	0x8a6
 3811 01e3 18       		.byte	0x18
 3812 01e4 07       		.uleb128 0x7
 3813 01e5 600C0000 		.4byte	.LASF41
 3814 01e9 05       		.byte	0x5
 3815 01ea D8       		.byte	0xd8
 3816 01eb BD080000 		.4byte	0x8bd
 3817 01ef 1C       		.byte	0x1c
 3818 01f0 07       		.uleb128 0x7
 3819 01f1 C30C0000 		.4byte	.LASF42
 3820 01f5 05       		.byte	0x5
 3821 01f6 DD       		.byte	0xdd
 3822 01f7 11010000 		.4byte	0x111
 3823 01fb 20       		.byte	0x20
 3824 01fc 07       		.uleb128 0x7
 3825 01fd B0070000 		.4byte	.LASF43
 3826 0201 05       		.byte	0x5
 3827 0202 E1       		.byte	0xe1
 3828 0203 06010000 		.4byte	0x106
 3829 0207 21       		.byte	0x21
 3830 0208 07       		.uleb128 0x7
 3831 0209 00080000 		.4byte	.LASF44
 3832 020d 05       		.byte	0x5
 3833 020e E6       		.byte	0xe6
 3834 020f 1C010000 		.4byte	0x11c
 3835 0213 22       		.byte	0x22
 3836 0214 07       		.uleb128 0x7
 3837 0215 EA030000 		.4byte	.LASF45
 3838 0219 05       		.byte	0x5
 3839 021a EC       		.byte	0xec
 3840 021b 27010000 		.4byte	0x127
 3841 021f 23       		.byte	0x23
 3842 0220 07       		.uleb128 0x7
ARM GAS  /var/folders/d2/nstgp4h54kz7g1l847x_b8wc0000gn/T//ccSYBGul.s 			page 69


 3843 0221 3C080000 		.4byte	.LASF46
 3844 0225 05       		.byte	0x5
 3845 0226 F3       		.byte	0xf3
 3846 0227 74010000 		.4byte	0x174
 3847 022b 24       		.byte	0x24
 3848 022c 08       		.uleb128 0x8
 3849 022d 705F7500 		.ascii	"p_u\000"
 3850 0231 05       		.byte	0x5
 3851 0232 3101     		.2byte	0x131
 3852 0234 D5070000 		.4byte	0x7d5
 3853 0238 28       		.byte	0x28
 3854 0239 09       		.uleb128 0x9
 3855 023a 9C070000 		.4byte	.LASF47
 3856 023e 05       		.byte	0x5
 3857 023f 3601     		.2byte	0x136
 3858 0241 B3020000 		.4byte	0x2b3
 3859 0245 2C       		.byte	0x2c
 3860 0246 09       		.uleb128 0x9
 3861 0247 AC010000 		.4byte	.LASF48
 3862 024b 05       		.byte	0x5
 3863 024c 3C01     		.2byte	0x13c
 3864 024e D7020000 		.4byte	0x2d7
 3865 0252 30       		.byte	0x30
 3866 0253 09       		.uleb128 0x9
 3867 0254 BD0C0000 		.4byte	.LASF49
 3868 0258 05       		.byte	0x5
 3869 0259 4001     		.2byte	0x140
 3870 025b 3D010000 		.4byte	0x13d
 3871 025f 38       		.byte	0x38
 3872 0260 09       		.uleb128 0x9
 3873 0261 26050000 		.4byte	.LASF50
 3874 0265 05       		.byte	0x5
 3875 0266 4601     		.2byte	0x146
 3876 0268 48010000 		.4byte	0x148
 3877 026c 3C       		.byte	0x3c
 3878 026d 09       		.uleb128 0x9
 3879 026e 84030000 		.4byte	.LASF51
 3880 0272 05       		.byte	0x5
 3881 0273 4D01     		.2byte	0x14d
 3882 0275 A0080000 		.4byte	0x8a0
 3883 0279 40       		.byte	0x40
 3884 027a 09       		.uleb128 0x9
 3885 027b A2080000 		.4byte	.LASF52
 3886 027f 05       		.byte	0x5
 3887 0280 5101     		.2byte	0x151
 3888 0282 32010000 		.4byte	0x132
 3889 0286 44       		.byte	0x44
 3890 0287 09       		.uleb128 0x9
 3891 0288 F8070000 		.4byte	.LASF53
 3892 028c 05       		.byte	0x5
 3893 028d 5801     		.2byte	0x158
 3894 028f 8F030000 		.4byte	0x38f
 3895 0293 48       		.byte	0x48
 3896 0294 09       		.uleb128 0x9
 3897 0295 00000000 		.4byte	.LASF54
 3898 0299 05       		.byte	0x5
 3899 029a 5E01     		.2byte	0x15e
ARM GAS  /var/folders/d2/nstgp4h54kz7g1l847x_b8wc0000gn/T//ccSYBGul.s 			page 70


 3900 029c 86070000 		.4byte	0x786
 3901 02a0 50       		.byte	0x50
 3902 02a1 00       		.byte	0
 3903 02a2 03       		.uleb128 0x3
 3904 02a3 7C080000 		.4byte	.LASF55
 3905 02a7 0B       		.byte	0xb
 3906 02a8 44       		.byte	0x44
 3907 02a9 AD020000 		.4byte	0x2ad
 3908 02ad 0A       		.uleb128 0xa
 3909 02ae 04       		.byte	0x4
 3910 02af 79010000 		.4byte	0x179
 3911 02b3 03       		.uleb128 0x3
 3912 02b4 D80B0000 		.4byte	.LASF56
 3913 02b8 0B       		.byte	0xb
 3914 02b9 49       		.byte	0x49
 3915 02ba BE020000 		.4byte	0x2be
 3916 02be 06       		.uleb128 0x6
 3917 02bf 9B060000 		.4byte	.LASF58
 3918 02c3 04       		.byte	0x4
 3919 02c4 05       		.byte	0x5
 3920 02c5 B0       		.byte	0xb0
 3921 02c6 D7020000 		.4byte	0x2d7
 3922 02ca 07       		.uleb128 0x7
 3923 02cb 15030000 		.4byte	.LASF34
 3924 02cf 05       		.byte	0x5
 3925 02d0 B1       		.byte	0xb1
 3926 02d1 AD020000 		.4byte	0x2ad
 3927 02d5 00       		.byte	0
 3928 02d6 00       		.byte	0
 3929 02d7 03       		.uleb128 0x3
 3930 02d8 74030000 		.4byte	.LASF59
 3931 02dc 0B       		.byte	0xb
 3932 02dd 50       		.byte	0x50
 3933 02de E7020000 		.4byte	0x2e7
 3934 02e2 0B       		.uleb128 0xb
 3935 02e3 D7020000 		.4byte	0x2d7
 3936 02e7 06       		.uleb128 0x6
 3937 02e8 50090000 		.4byte	.LASF60
 3938 02ec 08       		.byte	0x8
 3939 02ed 05       		.byte	0x5
 3940 02ee B7       		.byte	0xb7
 3941 02ef 0C030000 		.4byte	0x30c
 3942 02f3 07       		.uleb128 0x7
 3943 02f4 15030000 		.4byte	.LASF34
 3944 02f8 05       		.byte	0x5
 3945 02f9 B8       		.byte	0xb8
 3946 02fa AD020000 		.4byte	0x2ad
 3947 02fe 00       		.byte	0
 3948 02ff 07       		.uleb128 0x7
 3949 0300 41030000 		.4byte	.LASF35
 3950 0304 05       		.byte	0x5
 3951 0305 B9       		.byte	0xb9
 3952 0306 AD020000 		.4byte	0x2ad
 3953 030a 04       		.byte	0x4
 3954 030b 00       		.byte	0
 3955 030c 03       		.uleb128 0x3
 3956 030d 79060000 		.4byte	.LASF61
ARM GAS  /var/folders/d2/nstgp4h54kz7g1l847x_b8wc0000gn/T//ccSYBGul.s 			page 71


 3957 0311 0B       		.byte	0xb
 3958 0312 57       		.byte	0x57
 3959 0313 17030000 		.4byte	0x317
 3960 0317 0C       		.uleb128 0xc
 3961 0318 38050000 		.4byte	.LASF62
 3962 031c 1C       		.byte	0x1c
 3963 031d 05       		.byte	0x5
 3964 031e 9001     		.2byte	0x190
 3965 0320 73030000 		.4byte	0x373
 3966 0324 09       		.uleb128 0x9
 3967 0325 050A0000 		.4byte	.LASF63
 3968 0329 05       		.byte	0x5
 3969 032a 9101     		.2byte	0x191
 3970 032c D7020000 		.4byte	0x2d7
 3971 0330 00       		.byte	0
 3972 0331 09       		.uleb128 0x9
 3973 0332 B70A0000 		.4byte	.LASF64
 3974 0336 05       		.byte	0x5
 3975 0337 9201     		.2byte	0x192
 3976 0339 32010000 		.4byte	0x132
 3977 033d 08       		.byte	0x8
 3978 033e 09       		.uleb128 0x9
 3979 033f B7010000 		.4byte	.LASF65
 3980 0343 05       		.byte	0x5
 3981 0344 9401     		.2byte	0x194
 3982 0346 30050000 		.4byte	0x530
 3983 034a 0C       		.byte	0xc
 3984 034b 09       		.uleb128 0x9
 3985 034c 4D040000 		.4byte	.LASF66
 3986 0350 05       		.byte	0x5
 3987 0351 9701     		.2byte	0x197
 3988 0353 AD020000 		.4byte	0x2ad
 3989 0357 10       		.byte	0x10
 3990 0358 09       		.uleb128 0x9
 3991 0359 540A0000 		.4byte	.LASF67
 3992 035d 05       		.byte	0x5
 3993 035e 9801     		.2byte	0x198
 3994 0360 AD020000 		.4byte	0x2ad
 3995 0364 14       		.byte	0x14
 3996 0365 09       		.uleb128 0x9
 3997 0366 81090000 		.4byte	.LASF68
 3998 036a 05       		.byte	0x5
 3999 036b 9B01     		.2byte	0x19b
 4000 036d AD020000 		.4byte	0x2ad
 4001 0371 18       		.byte	0x18
 4002 0372 00       		.byte	0
 4003 0373 03       		.uleb128 0x3
 4004 0374 D0010000 		.4byte	.LASF69
 4005 0378 0B       		.byte	0xb
 4006 0379 5C       		.byte	0x5c
 4007 037a 7E030000 		.4byte	0x37e
 4008 037e 0A       		.uleb128 0xa
 4009 037f 04       		.byte	0x4
 4010 0380 84030000 		.4byte	0x384
 4011 0384 0D       		.uleb128 0xd
 4012 0385 8F030000 		.4byte	0x38f
 4013 0389 0E       		.uleb128 0xe
ARM GAS  /var/folders/d2/nstgp4h54kz7g1l847x_b8wc0000gn/T//ccSYBGul.s 			page 72


 4014 038a 8F030000 		.4byte	0x38f
 4015 038e 00       		.byte	0
 4016 038f 0F       		.uleb128 0xf
 4017 0390 04       		.byte	0x4
 4018 0391 0B       		.uleb128 0xb
 4019 0392 8F030000 		.4byte	0x38f
 4020 0396 03       		.uleb128 0x3
 4021 0397 69060000 		.4byte	.LASF70
 4022 039b 0B       		.byte	0xb
 4023 039c 61       		.byte	0x61
 4024 039d A1030000 		.4byte	0x3a1
 4025 03a1 0C       		.uleb128 0xc
 4026 03a2 DB080000 		.4byte	.LASF71
 4027 03a6 14       		.byte	0x14
 4028 03a7 05       		.byte	0x5
 4029 03a8 6B01     		.2byte	0x16b
 4030 03aa F0030000 		.4byte	0x3f0
 4031 03ae 09       		.uleb128 0x9
 4032 03af 49070000 		.4byte	.LASF72
 4033 03b3 05       		.byte	0x5
 4034 03b4 6C01     		.2byte	0x16c
 4035 03b6 C3080000 		.4byte	0x8c3
 4036 03ba 00       		.byte	0
 4037 03bb 09       		.uleb128 0x9
 4038 03bc 63070000 		.4byte	.LASF73
 4039 03c0 05       		.byte	0x5
 4040 03c1 6D01     		.2byte	0x16d
 4041 03c3 C3080000 		.4byte	0x8c3
 4042 03c7 04       		.byte	0x4
 4043 03c8 09       		.uleb128 0x9
 4044 03c9 C5080000 		.4byte	.LASF74
 4045 03cd 05       		.byte	0x5
 4046 03ce 6E01     		.2byte	0x16e
 4047 03d0 69010000 		.4byte	0x169
 4048 03d4 08       		.byte	0x8
 4049 03d5 09       		.uleb128 0x9
 4050 03d6 FF040000 		.4byte	.LASF75
 4051 03da 05       		.byte	0x5
 4052 03db 6F01     		.2byte	0x16f
 4053 03dd 73030000 		.4byte	0x373
 4054 03e1 0C       		.byte	0xc
 4055 03e2 09       		.uleb128 0x9
 4056 03e3 BB020000 		.4byte	.LASF76
 4057 03e7 05       		.byte	0x5
 4058 03e8 7101     		.2byte	0x171
 4059 03ea 8F030000 		.4byte	0x38f
 4060 03ee 10       		.byte	0x10
 4061 03ef 00       		.byte	0
 4062 03f0 03       		.uleb128 0x3
 4063 03f1 1E060000 		.4byte	.LASF77
 4064 03f5 0B       		.byte	0xb
 4065 03f6 66       		.byte	0x66
 4066 03f7 FB030000 		.4byte	0x3fb
 4067 03fb 0C       		.uleb128 0xc
 4068 03fc D9010000 		.4byte	.LASF78
 4069 0400 10       		.byte	0x10
 4070 0401 05       		.byte	0x5
ARM GAS  /var/folders/d2/nstgp4h54kz7g1l847x_b8wc0000gn/T//ccSYBGul.s 			page 73


 4071 0402 7B01     		.2byte	0x17b
 4072 0404 3D040000 		.4byte	0x43d
 4073 0408 09       		.uleb128 0x9
 4074 0409 49070000 		.4byte	.LASF72
 4075 040d 05       		.byte	0x5
 4076 040e 7C01     		.2byte	0x17c
 4077 0410 C3080000 		.4byte	0x8c3
 4078 0414 00       		.byte	0
 4079 0415 09       		.uleb128 0x9
 4080 0416 63070000 		.4byte	.LASF73
 4081 041a 05       		.byte	0x5
 4082 041b 7E01     		.2byte	0x17e
 4083 041d C3080000 		.4byte	0x8c3
 4084 0421 04       		.byte	0x4
 4085 0422 09       		.uleb128 0x9
 4086 0423 C5080000 		.4byte	.LASF74
 4087 0427 05       		.byte	0x5
 4088 0428 8001     		.2byte	0x180
 4089 042a 69010000 		.4byte	0x169
 4090 042e 08       		.byte	0x8
 4091 042f 09       		.uleb128 0x9
 4092 0430 490A0000 		.4byte	.LASF79
 4093 0434 05       		.byte	0x5
 4094 0435 8201     		.2byte	0x182
 4095 0437 74010000 		.4byte	0x174
 4096 043b 0C       		.byte	0xc
 4097 043c 00       		.byte	0
 4098 043d 03       		.uleb128 0x3
 4099 043e 55040000 		.4byte	.LASF80
 4100 0442 0B       		.byte	0xb
 4101 0443 6B       		.byte	0x6b
 4102 0444 48040000 		.4byte	0x448
 4103 0448 10       		.uleb128 0x10
 4104 0449 1F0B0000 		.4byte	.LASF81
 4105 044d 1404     		.2byte	0x414
 4106 044f 05       		.byte	0x5
 4107 0450 A201     		.2byte	0x1a2
 4108 0452 8B040000 		.4byte	0x48b
 4109 0456 09       		.uleb128 0x9
 4110 0457 36040000 		.4byte	.LASF82
 4111 045b 05       		.byte	0x5
 4112 045c AA01     		.2byte	0x1aa
 4113 045e AC080000 		.4byte	0x8ac
 4114 0462 00       		.byte	0
 4115 0463 09       		.uleb128 0x9
 4116 0464 66050000 		.4byte	.LASF83
 4117 0468 05       		.byte	0x5
 4118 0469 AF01     		.2byte	0x1af
 4119 046b 53010000 		.4byte	0x153
 4120 046f 04       		.byte	0x4
 4121 0470 09       		.uleb128 0x9
 4122 0471 40020000 		.4byte	.LASF84
 4123 0475 05       		.byte	0x5
 4124 0476 B301     		.2byte	0x1b3
 4125 0478 53010000 		.4byte	0x153
 4126 047c 08       		.byte	0x8
 4127 047d 09       		.uleb128 0x9
ARM GAS  /var/folders/d2/nstgp4h54kz7g1l847x_b8wc0000gn/T//ccSYBGul.s 			page 74


 4128 047e 40040000 		.4byte	.LASF85
 4129 0482 05       		.byte	0x5
 4130 0483 B901     		.2byte	0x1b9
 4131 0485 18070000 		.4byte	0x718
 4132 0489 0C       		.byte	0xc
 4133 048a 00       		.byte	0
 4134 048b 03       		.uleb128 0x3
 4135 048c 420C0000 		.4byte	.LASF86
 4136 0490 0B       		.byte	0xb
 4137 0491 70       		.byte	0x70
 4138 0492 96040000 		.4byte	0x496
 4139 0496 10       		.uleb128 0x10
 4140 0497 E70B0000 		.4byte	.LASF87
 4141 049b 7006     		.2byte	0x670
 4142 049d 05       		.byte	0x5
 4143 049e C201     		.2byte	0x1c2
 4144 04a0 03050000 		.4byte	0x503
 4145 04a4 09       		.uleb128 0x9
 4146 04a5 300A0000 		.4byte	.LASF88
 4147 04a9 05       		.byte	0x5
 4148 04aa C601     		.2byte	0x1c6
 4149 04ac 0C030000 		.4byte	0x30c
 4150 04b0 00       		.byte	0
 4151 04b1 09       		.uleb128 0x9
 4152 04b2 A70B0000 		.4byte	.LASF89
 4153 04b6 05       		.byte	0x5
 4154 04b7 CA01     		.2byte	0x1ca
 4155 04b9 F0030000 		.4byte	0x3f0
 4156 04bd 1C       		.byte	0x1c
 4157 04be 08       		.uleb128 0x8
 4158 04bf 64626700 		.ascii	"dbg\000"
 4159 04c3 05       		.byte	0x5
 4160 04c4 CE01     		.2byte	0x1ce
 4161 04c6 3D040000 		.4byte	0x43d
 4162 04ca 2C       		.byte	0x2c
 4163 04cb 11       		.uleb128 0x11
 4164 04cc DA090000 		.4byte	.LASF90
 4165 04d0 05       		.byte	0x5
 4166 04d1 D201     		.2byte	0x1d2
 4167 04d3 79010000 		.4byte	0x179
 4168 04d7 4004     		.2byte	0x440
 4169 04d9 12       		.uleb128 0x12
 4170 04da 746D00   		.ascii	"tm\000"
 4171 04dd 05       		.byte	0x5
 4172 04de D701     		.2byte	0x1d7
 4173 04e0 38070000 		.4byte	0x738
 4174 04e4 A804     		.2byte	0x4a8
 4175 04e6 11       		.uleb128 0x11
 4176 04e7 FA080000 		.4byte	.LASF91
 4177 04eb 05       		.byte	0x5
 4178 04ec DD01     		.2byte	0x1dd
 4179 04ee CA070000 		.4byte	0x7ca
 4180 04f2 B004     		.2byte	0x4b0
 4181 04f4 11       		.uleb128 0x11
 4182 04f5 D4070000 		.4byte	.LASF92
 4183 04f9 05       		.byte	0x5
 4184 04fa E301     		.2byte	0x1e3
ARM GAS  /var/folders/d2/nstgp4h54kz7g1l847x_b8wc0000gn/T//ccSYBGul.s 			page 75


 4185 04fc C9080000 		.4byte	0x8c9
 4186 0500 E804     		.2byte	0x4e8
 4187 0502 00       		.byte	0
 4188 0503 13       		.uleb128 0x13
 4189 0504 8F070000 		.4byte	.LASF93
 4190 0508 0C       		.byte	0xc
 4191 0509 A706     		.2byte	0x6a7
 4192 050b D5000000 		.4byte	0xd5
 4193 050f 14       		.uleb128 0x14
 4194 0510 F7050000 		.4byte	.LASF94
 4195 0514 0D       		.byte	0xd
 4196 0515 4C       		.byte	0x4c
 4197 0516 DA000000 		.4byte	0xda
 4198 051a 03       		.uleb128 0x3
 4199 051b 8E030000 		.4byte	.LASF95
 4200 051f 0E       		.byte	0xe
 4201 0520 65       		.byte	0x65
 4202 0521 8F030000 		.4byte	0x38f
 4203 0525 03       		.uleb128 0x3
 4204 0526 C6040000 		.4byte	.LASF96
 4205 052a 0E       		.byte	0xe
 4206 052b 6D       		.byte	0x6d
 4207 052c E5000000 		.4byte	0xe5
 4208 0530 06       		.uleb128 0x6
 4209 0531 08040000 		.4byte	.LASF97
 4210 0535 04       		.byte	0x4
 4211 0536 0E       		.byte	0xe
 4212 0537 89       		.byte	0x89
 4213 0538 49050000 		.4byte	0x549
 4214 053c 15       		.uleb128 0x15
 4215 053d 72313300 		.ascii	"r13\000"
 4216 0541 0E       		.byte	0xe
 4217 0542 8A       		.byte	0x8a
 4218 0543 8A060000 		.4byte	0x68a
 4219 0547 00       		.byte	0
 4220 0548 00       		.byte	0
 4221 0549 06       		.uleb128 0x6
 4222 054a AD080000 		.4byte	.LASF98
 4223 054e 64       		.byte	0x64
 4224 054f 0F       		.byte	0xf
 4225 0550 F4       		.byte	0xf4
 4226 0551 8A060000 		.4byte	0x68a
 4227 0555 15       		.uleb128 0x15
 4228 0556 73313600 		.ascii	"s16\000"
 4229 055a 0F       		.byte	0xf
 4230 055b F6       		.byte	0xf6
 4231 055c 1A050000 		.4byte	0x51a
 4232 0560 00       		.byte	0
 4233 0561 15       		.uleb128 0x15
 4234 0562 73313700 		.ascii	"s17\000"
 4235 0566 0F       		.byte	0xf
 4236 0567 F7       		.byte	0xf7
 4237 0568 1A050000 		.4byte	0x51a
 4238 056c 04       		.byte	0x4
 4239 056d 15       		.uleb128 0x15
 4240 056e 73313800 		.ascii	"s18\000"
 4241 0572 0F       		.byte	0xf
ARM GAS  /var/folders/d2/nstgp4h54kz7g1l847x_b8wc0000gn/T//ccSYBGul.s 			page 76


 4242 0573 F8       		.byte	0xf8
 4243 0574 1A050000 		.4byte	0x51a
 4244 0578 08       		.byte	0x8
 4245 0579 15       		.uleb128 0x15
 4246 057a 73313900 		.ascii	"s19\000"
 4247 057e 0F       		.byte	0xf
 4248 057f F9       		.byte	0xf9
 4249 0580 1A050000 		.4byte	0x51a
 4250 0584 0C       		.byte	0xc
 4251 0585 15       		.uleb128 0x15
 4252 0586 73323000 		.ascii	"s20\000"
 4253 058a 0F       		.byte	0xf
 4254 058b FA       		.byte	0xfa
 4255 058c 1A050000 		.4byte	0x51a
 4256 0590 10       		.byte	0x10
 4257 0591 15       		.uleb128 0x15
 4258 0592 73323100 		.ascii	"s21\000"
 4259 0596 0F       		.byte	0xf
 4260 0597 FB       		.byte	0xfb
 4261 0598 1A050000 		.4byte	0x51a
 4262 059c 14       		.byte	0x14
 4263 059d 15       		.uleb128 0x15
 4264 059e 73323200 		.ascii	"s22\000"
 4265 05a2 0F       		.byte	0xf
 4266 05a3 FC       		.byte	0xfc
 4267 05a4 1A050000 		.4byte	0x51a
 4268 05a8 18       		.byte	0x18
 4269 05a9 15       		.uleb128 0x15
 4270 05aa 73323300 		.ascii	"s23\000"
 4271 05ae 0F       		.byte	0xf
 4272 05af FD       		.byte	0xfd
 4273 05b0 1A050000 		.4byte	0x51a
 4274 05b4 1C       		.byte	0x1c
 4275 05b5 15       		.uleb128 0x15
 4276 05b6 73323400 		.ascii	"s24\000"
 4277 05ba 0F       		.byte	0xf
 4278 05bb FE       		.byte	0xfe
 4279 05bc 1A050000 		.4byte	0x51a
 4280 05c0 20       		.byte	0x20
 4281 05c1 15       		.uleb128 0x15
 4282 05c2 73323500 		.ascii	"s25\000"
 4283 05c6 0F       		.byte	0xf
 4284 05c7 FF       		.byte	0xff
 4285 05c8 1A050000 		.4byte	0x51a
 4286 05cc 24       		.byte	0x24
 4287 05cd 08       		.uleb128 0x8
 4288 05ce 73323600 		.ascii	"s26\000"
 4289 05d2 0F       		.byte	0xf
 4290 05d3 0001     		.2byte	0x100
 4291 05d5 1A050000 		.4byte	0x51a
 4292 05d9 28       		.byte	0x28
 4293 05da 08       		.uleb128 0x8
 4294 05db 73323700 		.ascii	"s27\000"
 4295 05df 0F       		.byte	0xf
 4296 05e0 0101     		.2byte	0x101
 4297 05e2 1A050000 		.4byte	0x51a
 4298 05e6 2C       		.byte	0x2c
ARM GAS  /var/folders/d2/nstgp4h54kz7g1l847x_b8wc0000gn/T//ccSYBGul.s 			page 77


 4299 05e7 08       		.uleb128 0x8
 4300 05e8 73323800 		.ascii	"s28\000"
 4301 05ec 0F       		.byte	0xf
 4302 05ed 0201     		.2byte	0x102
 4303 05ef 1A050000 		.4byte	0x51a
 4304 05f3 30       		.byte	0x30
 4305 05f4 08       		.uleb128 0x8
 4306 05f5 73323900 		.ascii	"s29\000"
 4307 05f9 0F       		.byte	0xf
 4308 05fa 0301     		.2byte	0x103
 4309 05fc 1A050000 		.4byte	0x51a
 4310 0600 34       		.byte	0x34
 4311 0601 08       		.uleb128 0x8
 4312 0602 73333000 		.ascii	"s30\000"
 4313 0606 0F       		.byte	0xf
 4314 0607 0401     		.2byte	0x104
 4315 0609 1A050000 		.4byte	0x51a
 4316 060d 38       		.byte	0x38
 4317 060e 08       		.uleb128 0x8
 4318 060f 73333100 		.ascii	"s31\000"
 4319 0613 0F       		.byte	0xf
 4320 0614 0501     		.2byte	0x105
 4321 0616 1A050000 		.4byte	0x51a
 4322 061a 3C       		.byte	0x3c
 4323 061b 08       		.uleb128 0x8
 4324 061c 723400   		.ascii	"r4\000"
 4325 061f 0F       		.byte	0xf
 4326 0620 0701     		.2byte	0x107
 4327 0622 1A050000 		.4byte	0x51a
 4328 0626 40       		.byte	0x40
 4329 0627 08       		.uleb128 0x8
 4330 0628 723500   		.ascii	"r5\000"
 4331 062b 0F       		.byte	0xf
 4332 062c 0801     		.2byte	0x108
 4333 062e 1A050000 		.4byte	0x51a
 4334 0632 44       		.byte	0x44
 4335 0633 08       		.uleb128 0x8
 4336 0634 723600   		.ascii	"r6\000"
 4337 0637 0F       		.byte	0xf
 4338 0638 0901     		.2byte	0x109
 4339 063a 1A050000 		.4byte	0x51a
 4340 063e 48       		.byte	0x48
 4341 063f 08       		.uleb128 0x8
 4342 0640 723700   		.ascii	"r7\000"
 4343 0643 0F       		.byte	0xf
 4344 0644 0A01     		.2byte	0x10a
 4345 0646 1A050000 		.4byte	0x51a
 4346 064a 4C       		.byte	0x4c
 4347 064b 08       		.uleb128 0x8
 4348 064c 723800   		.ascii	"r8\000"
 4349 064f 0F       		.byte	0xf
 4350 0650 0B01     		.2byte	0x10b
 4351 0652 1A050000 		.4byte	0x51a
 4352 0656 50       		.byte	0x50
 4353 0657 08       		.uleb128 0x8
 4354 0658 723900   		.ascii	"r9\000"
 4355 065b 0F       		.byte	0xf
ARM GAS  /var/folders/d2/nstgp4h54kz7g1l847x_b8wc0000gn/T//ccSYBGul.s 			page 78


 4356 065c 0C01     		.2byte	0x10c
 4357 065e 1A050000 		.4byte	0x51a
 4358 0662 54       		.byte	0x54
 4359 0663 08       		.uleb128 0x8
 4360 0664 72313000 		.ascii	"r10\000"
 4361 0668 0F       		.byte	0xf
 4362 0669 0D01     		.2byte	0x10d
 4363 066b 1A050000 		.4byte	0x51a
 4364 066f 58       		.byte	0x58
 4365 0670 08       		.uleb128 0x8
 4366 0671 72313100 		.ascii	"r11\000"
 4367 0675 0F       		.byte	0xf
 4368 0676 0E01     		.2byte	0x10e
 4369 0678 1A050000 		.4byte	0x51a
 4370 067c 5C       		.byte	0x5c
 4371 067d 08       		.uleb128 0x8
 4372 067e 6C7200   		.ascii	"lr\000"
 4373 0681 0F       		.byte	0xf
 4374 0682 0F01     		.2byte	0x10f
 4375 0684 1A050000 		.4byte	0x51a
 4376 0688 60       		.byte	0x60
 4377 0689 00       		.byte	0
 4378 068a 0A       		.uleb128 0xa
 4379 068b 04       		.byte	0x4
 4380 068c 49050000 		.4byte	0x549
 4381 0690 16       		.uleb128 0x16
 4382 0691 10       		.byte	0x10
 4383 0692 10       		.byte	0x10
 4384 0693 51       		.byte	0x51
 4385 0694 C9060000 		.4byte	0x6c9
 4386 0698 07       		.uleb128 0x7
 4387 0699 920C0000 		.4byte	.LASF99
 4388 069d 10       		.byte	0x10
 4389 069e 55       		.byte	0x55
 4390 069f 69010000 		.4byte	0x169
 4391 06a3 00       		.byte	0
 4392 06a4 07       		.uleb128 0x7
 4393 06a5 54020000 		.4byte	.LASF100
 4394 06a9 10       		.byte	0x10
 4395 06aa 59       		.byte	0x59
 4396 06ab AD020000 		.4byte	0x2ad
 4397 06af 04       		.byte	0x4
 4398 06b0 07       		.uleb128 0x7
 4399 06b1 A6070000 		.4byte	.LASF101
 4400 06b5 10       		.byte	0x10
 4401 06b6 5D       		.byte	0x5d
 4402 06b7 8F030000 		.4byte	0x38f
 4403 06bb 08       		.byte	0x8
 4404 06bc 07       		.uleb128 0x7
 4405 06bd 79050000 		.4byte	.LASF102
 4406 06c1 10       		.byte	0x10
 4407 06c2 61       		.byte	0x61
 4408 06c3 B4000000 		.4byte	0xb4
 4409 06c7 0C       		.byte	0xc
 4410 06c8 00       		.byte	0
 4411 06c9 03       		.uleb128 0x3
 4412 06ca AB060000 		.4byte	.LASF103
ARM GAS  /var/folders/d2/nstgp4h54kz7g1l847x_b8wc0000gn/T//ccSYBGul.s 			page 79


 4413 06ce 10       		.byte	0x10
 4414 06cf 62       		.byte	0x62
 4415 06d0 90060000 		.4byte	0x690
 4416 06d4 17       		.uleb128 0x17
 4417 06d5 0804     		.2byte	0x408
 4418 06d7 10       		.byte	0x10
 4419 06d8 67       		.byte	0x67
 4420 06d9 02070000 		.4byte	0x702
 4421 06dd 07       		.uleb128 0x7
 4422 06de 6B070000 		.4byte	.LASF104
 4423 06e2 10       		.byte	0x10
 4424 06e3 6B       		.byte	0x6b
 4425 06e4 37000000 		.4byte	0x37
 4426 06e8 00       		.byte	0
 4427 06e9 07       		.uleb128 0x7
 4428 06ea A80C0000 		.4byte	.LASF105
 4429 06ee 10       		.byte	0x10
 4430 06ef 6F       		.byte	0x6f
 4431 06f0 02070000 		.4byte	0x702
 4432 06f4 04       		.byte	0x4
 4433 06f5 07       		.uleb128 0x7
 4434 06f6 32080000 		.4byte	.LASF106
 4435 06fa 10       		.byte	0x10
 4436 06fb 73       		.byte	0x73
 4437 06fc 08070000 		.4byte	0x708
 4438 0700 08       		.byte	0x8
 4439 0701 00       		.byte	0
 4440 0702 0A       		.uleb128 0xa
 4441 0703 04       		.byte	0x4
 4442 0704 C9060000 		.4byte	0x6c9
 4443 0708 18       		.uleb128 0x18
 4444 0709 C9060000 		.4byte	0x6c9
 4445 070d 18070000 		.4byte	0x718
 4446 0711 19       		.uleb128 0x19
 4447 0712 37000000 		.4byte	0x37
 4448 0716 3F       		.byte	0x3f
 4449 0717 00       		.byte	0
 4450 0718 03       		.uleb128 0x3
 4451 0719 14050000 		.4byte	.LASF107
 4452 071d 10       		.byte	0x10
 4453 071e 74       		.byte	0x74
 4454 071f D4060000 		.4byte	0x6d4
 4455 0723 16       		.uleb128 0x16
 4456 0724 04       		.byte	0x4
 4457 0725 11       		.byte	0x11
 4458 0726 38       		.byte	0x38
 4459 0727 38070000 		.4byte	0x738
 4460 072b 07       		.uleb128 0x7
 4461 072c 2B080000 		.4byte	.LASF108
 4462 0730 11       		.byte	0x11
 4463 0731 3C       		.byte	0x3c
 4464 0732 F0000000 		.4byte	0xf0
 4465 0736 00       		.byte	0
 4466 0737 00       		.byte	0
 4467 0738 03       		.uleb128 0x3
 4468 0739 5C0A0000 		.4byte	.LASF109
 4469 073d 11       		.byte	0x11
ARM GAS  /var/folders/d2/nstgp4h54kz7g1l847x_b8wc0000gn/T//ccSYBGul.s 			page 80


 4470 073e 3D       		.byte	0x3d
 4471 073f 23070000 		.4byte	0x723
 4472 0743 16       		.uleb128 0x16
 4473 0744 18       		.byte	0x18
 4474 0745 11       		.byte	0x11
 4475 0746 48       		.byte	0x48
 4476 0747 86070000 		.4byte	0x786
 4477 074b 07       		.uleb128 0x7
 4478 074c 000A0000 		.4byte	.LASF110
 4479 0750 11       		.byte	0x11
 4480 0751 49       		.byte	0x49
 4481 0752 F0000000 		.4byte	0xf0
 4482 0756 00       		.byte	0
 4483 0757 07       		.uleb128 0x7
 4484 0758 E8040000 		.4byte	.LASF111
 4485 075c 11       		.byte	0x11
 4486 075d 4A       		.byte	0x4a
 4487 075e F0000000 		.4byte	0xf0
 4488 0762 04       		.byte	0x4
 4489 0763 07       		.uleb128 0x7
 4490 0764 B80C0000 		.4byte	.LASF112
 4491 0768 11       		.byte	0x11
 4492 0769 4B       		.byte	0x4b
 4493 076a F0000000 		.4byte	0xf0
 4494 076e 08       		.byte	0x8
 4495 076f 15       		.uleb128 0x15
 4496 0770 6E00     		.ascii	"n\000"
 4497 0772 11       		.byte	0x11
 4498 0773 4C       		.byte	0x4c
 4499 0774 5E010000 		.4byte	0x15e
 4500 0778 0C       		.byte	0xc
 4501 0779 07       		.uleb128 0x7
 4502 077a D3030000 		.4byte	.LASF113
 4503 077e 11       		.byte	0x11
 4504 077f 4D       		.byte	0x4d
 4505 0780 FB000000 		.4byte	0xfb
 4506 0784 10       		.byte	0x10
 4507 0785 00       		.byte	0
 4508 0786 03       		.uleb128 0x3
 4509 0787 6C020000 		.4byte	.LASF114
 4510 078b 11       		.byte	0x11
 4511 078c 4E       		.byte	0x4e
 4512 078d 43070000 		.4byte	0x743
 4513 0791 16       		.uleb128 0x16
 4514 0792 38       		.byte	0x38
 4515 0793 12       		.byte	0x12
 4516 0794 38       		.byte	0x38
 4517 0795 CA070000 		.4byte	0x7ca
 4518 0799 07       		.uleb128 0x7
 4519 079a BA060000 		.4byte	.LASF115
 4520 079e 12       		.byte	0x12
 4521 079f 39       		.byte	0x39
 4522 07a0 5E010000 		.4byte	0x15e
 4523 07a4 00       		.byte	0
 4524 07a5 07       		.uleb128 0x7
 4525 07a6 B0040000 		.4byte	.LASF116
 4526 07aa 12       		.byte	0x12
ARM GAS  /var/folders/d2/nstgp4h54kz7g1l847x_b8wc0000gn/T//ccSYBGul.s 			page 81


 4527 07ab 3A       		.byte	0x3a
 4528 07ac 5E010000 		.4byte	0x15e
 4529 07b0 04       		.byte	0x4
 4530 07b1 07       		.uleb128 0x7
 4531 07b2 8F050000 		.4byte	.LASF117
 4532 07b6 12       		.byte	0x12
 4533 07b7 3B       		.byte	0x3b
 4534 07b8 86070000 		.4byte	0x786
 4535 07bc 08       		.byte	0x8
 4536 07bd 07       		.uleb128 0x7
 4537 07be 6E050000 		.4byte	.LASF118
 4538 07c2 12       		.byte	0x12
 4539 07c3 3D       		.byte	0x3d
 4540 07c4 86070000 		.4byte	0x786
 4541 07c8 20       		.byte	0x20
 4542 07c9 00       		.byte	0
 4543 07ca 03       		.uleb128 0x3
 4544 07cb 13080000 		.4byte	.LASF119
 4545 07cf 12       		.byte	0x12
 4546 07d0 3F       		.byte	0x3f
 4547 07d1 91070000 		.4byte	0x791
 4548 07d5 1A       		.uleb128 0x1a
 4549 07d6 04       		.byte	0x4
 4550 07d7 05       		.byte	0x5
 4551 07d8 FA       		.byte	0xfa
 4552 07d9 32080000 		.4byte	0x832
 4553 07dd 1B       		.uleb128 0x1b
 4554 07de 280C0000 		.4byte	.LASF120
 4555 07e2 05       		.byte	0x5
 4556 07e3 0101     		.2byte	0x101
 4557 07e5 3D010000 		.4byte	0x13d
 4558 07e9 1B       		.uleb128 0x1b
 4559 07ea C2020000 		.4byte	.LASF121
 4560 07ee 05       		.byte	0x5
 4561 07ef 0801     		.2byte	0x108
 4562 07f1 3D010000 		.4byte	0x13d
 4563 07f5 1B       		.uleb128 0x1b
 4564 07f6 A9040000 		.4byte	.LASF122
 4565 07fa 05       		.byte	0x5
 4566 07fb 0F01     		.2byte	0x10f
 4567 07fd 8F030000 		.4byte	0x38f
 4568 0801 1B       		.uleb128 0x1b
 4569 0802 22040000 		.4byte	.LASF123
 4570 0806 05       		.byte	0x5
 4571 0807 1601     		.2byte	0x116
 4572 0809 32080000 		.4byte	0x832
 4573 080d 1B       		.uleb128 0x1b
 4574 080e 0F000000 		.4byte	.LASF124
 4575 0812 05       		.byte	0x5
 4576 0813 1E01     		.2byte	0x11e
 4577 0815 5D080000 		.4byte	0x85d
 4578 0819 1B       		.uleb128 0x1b
 4579 081a 31050000 		.4byte	.LASF125
 4580 081e 05       		.byte	0x5
 4581 081f 2701     		.2byte	0x127
 4582 0821 A0080000 		.4byte	0x8a0
 4583 0825 1B       		.uleb128 0x1b
ARM GAS  /var/folders/d2/nstgp4h54kz7g1l847x_b8wc0000gn/T//ccSYBGul.s 			page 82


 4584 0826 D5020000 		.4byte	.LASF126
 4585 082a 05       		.byte	0x5
 4586 082b 2F01     		.2byte	0x12f
 4587 082d 48010000 		.4byte	0x148
 4588 0831 00       		.byte	0
 4589 0832 0A       		.uleb128 0xa
 4590 0833 04       		.byte	0x4
 4591 0834 A2020000 		.4byte	0x2a2
 4592 0838 06       		.uleb128 0x6
 4593 0839 07060000 		.4byte	.LASF127
 4594 083d 0C       		.byte	0xc
 4595 083e 13       		.byte	0x13
 4596 083f 34       		.byte	0x34
 4597 0840 5D080000 		.4byte	0x85d
 4598 0844 07       		.uleb128 0x7
 4599 0845 7C0A0000 		.4byte	.LASF128
 4600 0849 13       		.byte	0x13
 4601 084a 35       		.byte	0x35
 4602 084b D7020000 		.4byte	0x2d7
 4603 084f 00       		.byte	0
 4604 0850 07       		.uleb128 0x7
 4605 0851 EC080000 		.4byte	.LASF129
 4606 0855 13       		.byte	0x13
 4607 0856 37       		.byte	0x37
 4608 0857 53010000 		.4byte	0x153
 4609 085b 08       		.byte	0x8
 4610 085c 00       		.byte	0
 4611 085d 0A       		.uleb128 0xa
 4612 085e 04       		.byte	0x4
 4613 085f 38080000 		.4byte	0x838
 4614 0863 06       		.uleb128 0x6
 4615 0864 970A0000 		.4byte	.LASF130
 4616 0868 14       		.byte	0x14
 4617 0869 14       		.byte	0x14
 4618 086a 39       		.byte	0x39
 4619 086b A0080000 		.4byte	0x8a0
 4620 086f 07       		.uleb128 0x7
 4621 0870 2E070000 		.4byte	.LASF131
 4622 0874 14       		.byte	0x14
 4623 0875 3A       		.byte	0x3a
 4624 0876 D7020000 		.4byte	0x2d7
 4625 087a 00       		.byte	0
 4626 087b 07       		.uleb128 0x7
 4627 087c B3020000 		.4byte	.LASF132
 4628 0880 14       		.byte	0x14
 4629 0881 3C       		.byte	0x3c
 4630 0882 AD020000 		.4byte	0x2ad
 4631 0886 08       		.byte	0x8
 4632 0887 07       		.uleb128 0x7
 4633 0888 A10C0000 		.4byte	.LASF133
 4634 088c 14       		.byte	0x14
 4635 088d 3E       		.byte	0x3e
 4636 088e FB090000 		.4byte	0x9fb
 4637 0892 0C       		.byte	0xc
 4638 0893 07       		.uleb128 0x7
 4639 0894 80040000 		.4byte	.LASF134
 4640 0898 14       		.byte	0x14
ARM GAS  /var/folders/d2/nstgp4h54kz7g1l847x_b8wc0000gn/T//ccSYBGul.s 			page 83


 4641 0899 41       		.byte	0x41
 4642 089a 53010000 		.4byte	0x153
 4643 089e 10       		.byte	0x10
 4644 089f 00       		.byte	0
 4645 08a0 0A       		.uleb128 0xa
 4646 08a1 04       		.byte	0x4
 4647 08a2 63080000 		.4byte	0x863
 4648 08a6 0A       		.uleb128 0xa
 4649 08a7 04       		.byte	0x4
 4650 08a8 B8080000 		.4byte	0x8b8
 4651 08ac 05       		.uleb128 0x5
 4652 08ad A6080000 		.4byte	0x8a6
 4653 08b1 04       		.uleb128 0x4
 4654 08b2 01       		.byte	0x1
 4655 08b3 08       		.byte	0x8
 4656 08b4 7B040000 		.4byte	.LASF135
 4657 08b8 0B       		.uleb128 0xb
 4658 08b9 B1080000 		.4byte	0x8b1
 4659 08bd 0A       		.uleb128 0xa
 4660 08be 04       		.byte	0x4
 4661 08bf 25050000 		.4byte	0x525
 4662 08c3 0A       		.uleb128 0xa
 4663 08c4 04       		.byte	0x4
 4664 08c5 96030000 		.4byte	0x396
 4665 08c9 18       		.uleb128 0x18
 4666 08ca 25050000 		.4byte	0x525
 4667 08ce D9080000 		.4byte	0x8d9
 4668 08d2 19       		.uleb128 0x19
 4669 08d3 37000000 		.4byte	0x37
 4670 08d7 30       		.byte	0x30
 4671 08d8 00       		.byte	0
 4672 08d9 1C       		.uleb128 0x1c
 4673 08da 636800   		.ascii	"ch\000"
 4674 08dd 05       		.byte	0x5
 4675 08de 0902     		.2byte	0x209
 4676 08e0 8B040000 		.4byte	0x48b
 4677 08e4 16       		.uleb128 0x16
 4678 08e5 16       		.byte	0x16
 4679 08e6 15       		.byte	0x15
 4680 08e7 34       		.byte	0x34
 4681 08e8 C5090000 		.4byte	0x9c5
 4682 08ec 07       		.uleb128 0x7
 4683 08ed 2C000000 		.4byte	.LASF136
 4684 08f1 15       		.byte	0x15
 4685 08f2 35       		.byte	0x35
 4686 08f3 C5090000 		.4byte	0x9c5
 4687 08f7 00       		.byte	0
 4688 08f8 07       		.uleb128 0x7
 4689 08f9 C3050000 		.4byte	.LASF137
 4690 08fd 15       		.byte	0x15
 4691 08fe 36       		.byte	0x36
 4692 08ff B4000000 		.4byte	0xb4
 4693 0903 04       		.byte	0x4
 4694 0904 07       		.uleb128 0x7
 4695 0905 580C0000 		.4byte	.LASF138
 4696 0909 15       		.byte	0x15
 4697 090a 37       		.byte	0x37
ARM GAS  /var/folders/d2/nstgp4h54kz7g1l847x_b8wc0000gn/T//ccSYBGul.s 			page 84


 4698 090b B4000000 		.4byte	0xb4
 4699 090f 05       		.byte	0x5
 4700 0910 07       		.uleb128 0x7
 4701 0911 23070000 		.4byte	.LASF139
 4702 0915 15       		.byte	0x15
 4703 0916 38       		.byte	0x38
 4704 0917 BF000000 		.4byte	0xbf
 4705 091b 06       		.byte	0x6
 4706 091c 07       		.uleb128 0x7
 4707 091d 49020000 		.4byte	.LASF140
 4708 0921 15       		.byte	0x15
 4709 0922 39       		.byte	0x39
 4710 0923 B4000000 		.4byte	0xb4
 4711 0927 08       		.byte	0x8
 4712 0928 07       		.uleb128 0x7
 4713 0929 07080000 		.4byte	.LASF141
 4714 092d 15       		.byte	0x15
 4715 092e 3A       		.byte	0x3a
 4716 092f B4000000 		.4byte	0xb4
 4717 0933 09       		.byte	0x9
 4718 0934 07       		.uleb128 0x7
 4719 0935 DC020000 		.4byte	.LASF142
 4720 0939 15       		.byte	0x15
 4721 093a 3B       		.byte	0x3b
 4722 093b B4000000 		.4byte	0xb4
 4723 093f 0A       		.byte	0xa
 4724 0940 07       		.uleb128 0x7
 4725 0941 DC040000 		.4byte	.LASF143
 4726 0945 15       		.byte	0x15
 4727 0946 3C       		.byte	0x3c
 4728 0947 B4000000 		.4byte	0xb4
 4729 094b 0B       		.byte	0xb
 4730 094c 07       		.uleb128 0x7
 4731 094d C5010000 		.4byte	.LASF144
 4732 0951 15       		.byte	0x15
 4733 0952 3D       		.byte	0x3d
 4734 0953 B4000000 		.4byte	0xb4
 4735 0957 0C       		.byte	0xc
 4736 0958 07       		.uleb128 0x7
 4737 0959 B9040000 		.4byte	.LASF145
 4738 095d 15       		.byte	0x15
 4739 095e 3E       		.byte	0x3e
 4740 095f B4000000 		.4byte	0xb4
 4741 0963 0D       		.byte	0xd
 4742 0964 07       		.uleb128 0x7
 4743 0965 3C0B0000 		.4byte	.LASF146
 4744 0969 15       		.byte	0x15
 4745 096a 3F       		.byte	0x3f
 4746 096b B4000000 		.4byte	0xb4
 4747 096f 0E       		.byte	0xe
 4748 0970 07       		.uleb128 0x7
 4749 0971 16000000 		.4byte	.LASF147
 4750 0975 15       		.byte	0x15
 4751 0976 40       		.byte	0x40
 4752 0977 B4000000 		.4byte	0xb4
 4753 097b 0F       		.byte	0xf
 4754 097c 07       		.uleb128 0x7
ARM GAS  /var/folders/d2/nstgp4h54kz7g1l847x_b8wc0000gn/T//ccSYBGul.s 			page 85


 4755 097d C80B0000 		.4byte	.LASF148
 4756 0981 15       		.byte	0x15
 4757 0982 41       		.byte	0x41
 4758 0983 B4000000 		.4byte	0xb4
 4759 0987 10       		.byte	0x10
 4760 0988 07       		.uleb128 0x7
 4761 0989 34030000 		.4byte	.LASF149
 4762 098d 15       		.byte	0x15
 4763 098e 43       		.byte	0x43
 4764 098f B4000000 		.4byte	0xb4
 4765 0993 11       		.byte	0x11
 4766 0994 07       		.uleb128 0x7
 4767 0995 61090000 		.4byte	.LASF150
 4768 0999 15       		.byte	0x15
 4769 099a 44       		.byte	0x44
 4770 099b B4000000 		.4byte	0xb4
 4771 099f 12       		.byte	0x12
 4772 09a0 07       		.uleb128 0x7
 4773 09a1 43080000 		.4byte	.LASF151
 4774 09a5 15       		.byte	0x15
 4775 09a6 45       		.byte	0x45
 4776 09a7 B4000000 		.4byte	0xb4
 4777 09ab 13       		.byte	0x13
 4778 09ac 07       		.uleb128 0x7
 4779 09ad D9060000 		.4byte	.LASF152
 4780 09b1 15       		.byte	0x15
 4781 09b2 46       		.byte	0x46
 4782 09b3 B4000000 		.4byte	0xb4
 4783 09b7 14       		.byte	0x14
 4784 09b8 07       		.uleb128 0x7
 4785 09b9 B9080000 		.4byte	.LASF153
 4786 09bd 15       		.byte	0x15
 4787 09be 48       		.byte	0x48
 4788 09bf B4000000 		.4byte	0xb4
 4789 09c3 15       		.byte	0x15
 4790 09c4 00       		.byte	0
 4791 09c5 18       		.uleb128 0x18
 4792 09c6 B1080000 		.4byte	0x8b1
 4793 09ca D5090000 		.4byte	0x9d5
 4794 09ce 19       		.uleb128 0x19
 4795 09cf 37000000 		.4byte	0x37
 4796 09d3 03       		.byte	0x3
 4797 09d4 00       		.byte	0
 4798 09d5 03       		.uleb128 0x3
 4799 09d6 4E0C0000 		.4byte	.LASF154
 4800 09da 15       		.byte	0x15
 4801 09db 49       		.byte	0x49
 4802 09dc E4080000 		.4byte	0x8e4
 4803 09e0 0B       		.uleb128 0xb
 4804 09e1 D5090000 		.4byte	0x9d5
 4805 09e5 14       		.uleb128 0x14
 4806 09e6 8C010000 		.4byte	.LASF155
 4807 09ea 15       		.byte	0x15
 4808 09eb 6E       		.byte	0x6e
 4809 09ec E0090000 		.4byte	0x9e0
 4810 09f0 03       		.uleb128 0x3
 4811 09f1 B80B0000 		.4byte	.LASF156
ARM GAS  /var/folders/d2/nstgp4h54kz7g1l847x_b8wc0000gn/T//ccSYBGul.s 			page 86


 4812 09f5 14       		.byte	0x14
 4813 09f6 34       		.byte	0x34
 4814 09f7 63080000 		.4byte	0x863
 4815 09fb 0A       		.uleb128 0xa
 4816 09fc 04       		.byte	0x4
 4817 09fd F0090000 		.4byte	0x9f0
 4818 0a01 06       		.uleb128 0x6
 4819 0a02 36070000 		.4byte	.LASF157
 4820 0a06 08       		.byte	0x8
 4821 0a07 16       		.byte	0x16
 4822 0a08 3B       		.byte	0x3b
 4823 0a09 1A0A0000 		.4byte	0xa1a
 4824 0a0d 07       		.uleb128 0x7
 4825 0a0e F2080000 		.4byte	.LASF158
 4826 0a12 16       		.byte	0x16
 4827 0a13 3C       		.byte	0x3c
 4828 0a14 D7020000 		.4byte	0x2d7
 4829 0a18 00       		.byte	0
 4830 0a19 00       		.byte	0
 4831 0a1a 03       		.uleb128 0x3
 4832 0a1b D5050000 		.4byte	.LASF159
 4833 0a1f 16       		.byte	0x16
 4834 0a20 3E       		.byte	0x3e
 4835 0a21 010A0000 		.4byte	0xa01
 4836 0a25 06       		.uleb128 0x6
 4837 0a26 BE0A0000 		.4byte	.LASF160
 4838 0a2a 10       		.byte	0x10
 4839 0a2b 17       		.byte	0x17
 4840 0a2c 3B       		.byte	0x3b
 4841 0a2d 620A0000 		.4byte	0xa62
 4842 0a31 07       		.uleb128 0x7
 4843 0a32 6D0A0000 		.4byte	.LASF161
 4844 0a36 17       		.byte	0x17
 4845 0a37 3C       		.byte	0x3c
 4846 0a38 A6080000 		.4byte	0x8a6
 4847 0a3c 00       		.byte	0
 4848 0a3d 07       		.uleb128 0x7
 4849 0a3e 0E050000 		.4byte	.LASF162
 4850 0a42 17       		.byte	0x17
 4851 0a43 3D       		.byte	0x3d
 4852 0a44 680A0000 		.4byte	0xa68
 4853 0a48 04       		.byte	0x4
 4854 0a49 07       		.uleb128 0x7
 4855 0a4a 22080000 		.4byte	.LASF163
 4856 0a4e 17       		.byte	0x17
 4857 0a4f 3E       		.byte	0x3e
 4858 0a50 680A0000 		.4byte	0xa68
 4859 0a54 08       		.byte	0x8
 4860 0a55 07       		.uleb128 0x7
 4861 0a56 8B090000 		.4byte	.LASF164
 4862 0a5a 17       		.byte	0x17
 4863 0a5b 3F       		.byte	0x3f
 4864 0a5c 680A0000 		.4byte	0xa68
 4865 0a60 0C       		.byte	0xc
 4866 0a61 00       		.byte	0
 4867 0a62 0B       		.uleb128 0xb
 4868 0a63 250A0000 		.4byte	0xa25
ARM GAS  /var/folders/d2/nstgp4h54kz7g1l847x_b8wc0000gn/T//ccSYBGul.s 			page 87


 4869 0a67 1D       		.uleb128 0x1d
 4870 0a68 0A       		.uleb128 0xa
 4871 0a69 04       		.byte	0x4
 4872 0a6a 670A0000 		.4byte	0xa67
 4873 0a6e 17       		.uleb128 0x17
 4874 0a6f D809     		.2byte	0x9d8
 4875 0a71 17       		.byte	0x17
 4876 0a72 44       		.byte	0x44
 4877 0a73 B30A0000 		.4byte	0xab3
 4878 0a77 15       		.uleb128 0x15
 4879 0a78 543000   		.ascii	"T0\000"
 4880 0a7b 17       		.byte	0x17
 4881 0a7c 45       		.byte	0x45
 4882 0a7d B30A0000 		.4byte	0xab3
 4883 0a81 00       		.byte	0
 4884 0a82 1E       		.uleb128 0x1e
 4885 0a83 543100   		.ascii	"T1\000"
 4886 0a86 17       		.byte	0x17
 4887 0a87 46       		.byte	0x46
 4888 0a88 B30A0000 		.4byte	0xab3
 4889 0a8c F801     		.2byte	0x1f8
 4890 0a8e 1E       		.uleb128 0x1e
 4891 0a8f 543200   		.ascii	"T2\000"
 4892 0a92 17       		.byte	0x17
 4893 0a93 47       		.byte	0x47
 4894 0a94 B30A0000 		.4byte	0xab3
 4895 0a98 F003     		.2byte	0x3f0
 4896 0a9a 1E       		.uleb128 0x1e
 4897 0a9b 543300   		.ascii	"T3\000"
 4898 0a9e 17       		.byte	0x17
 4899 0a9f 48       		.byte	0x48
 4900 0aa0 B30A0000 		.4byte	0xab3
 4901 0aa4 E805     		.2byte	0x5e8
 4902 0aa6 1E       		.uleb128 0x1e
 4903 0aa7 543400   		.ascii	"T4\000"
 4904 0aaa 17       		.byte	0x17
 4905 0aab 49       		.byte	0x49
 4906 0aac B30A0000 		.4byte	0xab3
 4907 0ab0 E007     		.2byte	0x7e0
 4908 0ab2 00       		.byte	0
 4909 0ab3 18       		.uleb128 0x18
 4910 0ab4 25050000 		.4byte	0x525
 4911 0ab8 C30A0000 		.4byte	0xac3
 4912 0abc 19       		.uleb128 0x19
 4913 0abd 37000000 		.4byte	0x37
 4914 0ac1 3E       		.byte	0x3e
 4915 0ac2 00       		.byte	0
 4916 0ac3 1F       		.uleb128 0x1f
 4917 0ac4 9F010000 		.4byte	.LASF254
 4918 0ac8 D809     		.2byte	0x9d8
 4919 0aca 17       		.byte	0x17
 4920 0acb 43       		.byte	0x43
 4921 0acc E60A0000 		.4byte	0xae6
 4922 0ad0 20       		.uleb128 0x20
 4923 0ad1 776100   		.ascii	"wa\000"
 4924 0ad4 17       		.byte	0x17
 4925 0ad5 4A       		.byte	0x4a
ARM GAS  /var/folders/d2/nstgp4h54kz7g1l847x_b8wc0000gn/T//ccSYBGul.s 			page 88


 4926 0ad6 6E0A0000 		.4byte	0xa6e
 4927 0ada 21       		.uleb128 0x21
 4928 0adb 07050000 		.4byte	.LASF165
 4929 0adf 17       		.byte	0x17
 4930 0ae0 4B       		.byte	0x4b
 4931 0ae1 E60A0000 		.4byte	0xae6
 4932 0ae5 00       		.byte	0
 4933 0ae6 18       		.uleb128 0x18
 4934 0ae7 B4000000 		.4byte	0xb4
 4935 0aeb F70A0000 		.4byte	0xaf7
 4936 0aef 22       		.uleb128 0x22
 4937 0af0 37000000 		.4byte	0x37
 4938 0af4 D709     		.2byte	0x9d7
 4939 0af6 00       		.byte	0
 4940 0af7 14       		.uleb128 0x14
 4941 0af8 B1090000 		.4byte	.LASF166
 4942 0afc 17       		.byte	0x17
 4943 0afd 4F       		.byte	0x4f
 4944 0afe 020B0000 		.4byte	0xb02
 4945 0b02 04       		.uleb128 0x4
 4946 0b03 01       		.byte	0x1
 4947 0b04 02       		.byte	0x2
 4948 0b05 64040000 		.4byte	.LASF167
 4949 0b09 18       		.uleb128 0x18
 4950 0b0a AD020000 		.4byte	0x2ad
 4951 0b0e 190B0000 		.4byte	0xb19
 4952 0b12 19       		.uleb128 0x19
 4953 0b13 37000000 		.4byte	0x37
 4954 0b17 04       		.byte	0x4
 4955 0b18 00       		.byte	0
 4956 0b19 14       		.uleb128 0x14
 4957 0b1a 1D0A0000 		.4byte	.LASF168
 4958 0b1e 17       		.byte	0x17
 4959 0b1f A7       		.byte	0xa7
 4960 0b20 090B0000 		.4byte	0xb09
 4961 0b24 14       		.uleb128 0x14
 4962 0b25 52030000 		.4byte	.LASF169
 4963 0b29 17       		.byte	0x17
 4964 0b2a A8       		.byte	0xa8
 4965 0b2b C30A0000 		.4byte	0xac3
 4966 0b2f 18       		.uleb128 0x18
 4967 0b30 91030000 		.4byte	0x391
 4968 0b34 3A0B0000 		.4byte	0xb3a
 4969 0b38 23       		.uleb128 0x23
 4970 0b39 00       		.byte	0
 4971 0b3a 0B       		.uleb128 0xb
 4972 0b3b 2F0B0000 		.4byte	0xb2f
 4973 0b3f 24       		.uleb128 0x24
 4974 0b40 776100   		.ascii	"wa\000"
 4975 0b43 17       		.byte	0x17
 4976 0b44 A9       		.byte	0xa9
 4977 0b45 3A0B0000 		.4byte	0xb3a
 4978 0b49 14       		.uleb128 0x14
 4979 0b4a 46050000 		.4byte	.LASF170
 4980 0b4e 17       		.byte	0x17
 4981 0b4f AA       		.byte	0xaa
 4982 0b50 020B0000 		.4byte	0xb02
ARM GAS  /var/folders/d2/nstgp4h54kz7g1l847x_b8wc0000gn/T//ccSYBGul.s 			page 89


 4983 0b54 25       		.uleb128 0x25
 4984 0b55 6D3100   		.ascii	"m1\000"
 4985 0b58 01       		.byte	0x1
 4986 0b59 44       		.byte	0x44
 4987 0b5a F0090000 		.4byte	0x9f0
 4988 0b5e 05       		.uleb128 0x5
 4989 0b5f 03       		.byte	0x3
 4990 0b60 00000000 		.4byte	m1
 4991 0b64 25       		.uleb128 0x25
 4992 0b65 6D3200   		.ascii	"m2\000"
 4993 0b68 01       		.byte	0x1
 4994 0b69 45       		.byte	0x45
 4995 0b6a F0090000 		.4byte	0x9f0
 4996 0b6e 05       		.uleb128 0x5
 4997 0b6f 03       		.byte	0x3
 4998 0b70 00000000 		.4byte	m2
 4999 0b74 25       		.uleb128 0x25
 5000 0b75 633100   		.ascii	"c1\000"
 5001 0b78 01       		.byte	0x1
 5002 0b79 47       		.byte	0x47
 5003 0b7a 1A0A0000 		.4byte	0xa1a
 5004 0b7e 05       		.uleb128 0x5
 5005 0b7f 03       		.byte	0x3
 5006 0b80 00000000 		.4byte	c1
 5007 0b84 26       		.uleb128 0x26
 5008 0b85 490B0000 		.4byte	.LASF171
 5009 0b89 01       		.byte	0x1
 5010 0b8a 6F       		.byte	0x6f
 5011 0b8b 620A0000 		.4byte	0xa62
 5012 0b8f 05       		.uleb128 0x5
 5013 0b90 03       		.byte	0x3
 5014 0b91 00000000 		.4byte	testmtx1
 5015 0b95 26       		.uleb128 0x26
 5016 0b96 520B0000 		.4byte	.LASF172
 5017 0b9a 01       		.byte	0x1
 5018 0b9b C7       		.byte	0xc7
 5019 0b9c 620A0000 		.4byte	0xa62
 5020 0ba0 05       		.uleb128 0x5
 5021 0ba1 03       		.byte	0x3
 5022 0ba2 00000000 		.4byte	testmtx2
 5023 0ba6 27       		.uleb128 0x27
 5024 0ba7 5B0B0000 		.4byte	.LASF173
 5025 0bab 01       		.byte	0x1
 5026 0bac 3A01     		.2byte	0x13a
 5027 0bae 620A0000 		.4byte	0xa62
 5028 0bb2 05       		.uleb128 0x5
 5029 0bb3 03       		.byte	0x3
 5030 0bb4 00000000 		.4byte	testmtx3
 5031 0bb8 27       		.uleb128 0x27
 5032 0bb9 640B0000 		.4byte	.LASF174
 5033 0bbd 01       		.byte	0x1
 5034 0bbe 9101     		.2byte	0x191
 5035 0bc0 620A0000 		.4byte	0xa62
 5036 0bc4 05       		.uleb128 0x5
 5037 0bc5 03       		.byte	0x3
 5038 0bc6 00000000 		.4byte	testmtx4
 5039 0bca 27       		.uleb128 0x27
ARM GAS  /var/folders/d2/nstgp4h54kz7g1l847x_b8wc0000gn/T//ccSYBGul.s 			page 90


 5040 0bcb 6D0B0000 		.4byte	.LASF175
 5041 0bcf 01       		.byte	0x1
 5042 0bd0 C201     		.2byte	0x1c2
 5043 0bd2 620A0000 		.4byte	0xa62
 5044 0bd6 05       		.uleb128 0x5
 5045 0bd7 03       		.byte	0x3
 5046 0bd8 00000000 		.4byte	testmtx5
 5047 0bdc 27       		.uleb128 0x27
 5048 0bdd 760B0000 		.4byte	.LASF176
 5049 0be1 01       		.byte	0x1
 5050 0be2 F701     		.2byte	0x1f7
 5051 0be4 620A0000 		.4byte	0xa62
 5052 0be8 05       		.uleb128 0x5
 5053 0be9 03       		.byte	0x3
 5054 0bea 00000000 		.4byte	testmtx6
 5055 0bee 27       		.uleb128 0x27
 5056 0bef 7F0B0000 		.4byte	.LASF177
 5057 0bf3 01       		.byte	0x1
 5058 0bf4 1B02     		.2byte	0x21b
 5059 0bf6 620A0000 		.4byte	0xa62
 5060 0bfa 05       		.uleb128 0x5
 5061 0bfb 03       		.byte	0x3
 5062 0bfc 00000000 		.4byte	testmtx7
 5063 0c00 27       		.uleb128 0x27
 5064 0c01 880B0000 		.4byte	.LASF178
 5065 0c05 01       		.byte	0x1
 5066 0c06 5302     		.2byte	0x253
 5067 0c08 620A0000 		.4byte	0xa62
 5068 0c0c 05       		.uleb128 0x5
 5069 0c0d 03       		.byte	0x3
 5070 0c0e 00000000 		.4byte	testmtx8
 5071 0c12 18       		.uleb128 0x18
 5072 0c13 2D0C0000 		.4byte	0xc2d
 5073 0c17 220C0000 		.4byte	0xc22
 5074 0c1b 19       		.uleb128 0x19
 5075 0c1c 37000000 		.4byte	0x37
 5076 0c20 08       		.byte	0x8
 5077 0c21 00       		.byte	0
 5078 0c22 0B       		.uleb128 0xb
 5079 0c23 120C0000 		.4byte	0xc12
 5080 0c27 0A       		.uleb128 0xa
 5081 0c28 04       		.byte	0x4
 5082 0c29 620A0000 		.4byte	0xa62
 5083 0c2d 0B       		.uleb128 0xb
 5084 0c2e 270C0000 		.4byte	0xc27
 5085 0c32 27       		.uleb128 0x27
 5086 0c33 65080000 		.4byte	.LASF179
 5087 0c37 01       		.byte	0x1
 5088 0c38 5F02     		.2byte	0x25f
 5089 0c3a 220C0000 		.4byte	0xc22
 5090 0c3e 05       		.uleb128 0x5
 5091 0c3f 03       		.byte	0x3
 5092 0c40 00000000 		.4byte	patternmtx
 5093 0c44 28       		.uleb128 0x28
 5094 0c45 EA050000 		.4byte	.LASF180
 5095 0c49 01       		.byte	0x1
 5096 0c4a 4702     		.2byte	0x247
ARM GAS  /var/folders/d2/nstgp4h54kz7g1l847x_b8wc0000gn/T//ccSYBGul.s 			page 91


 5097 0c4c 00000000 		.4byte	.LFB248
 5098 0c50 B0000000 		.4byte	.LFE248-.LFB248
 5099 0c54 01       		.uleb128 0x1
 5100 0c55 9C       		.byte	0x9c
 5101 0c56 860D0000 		.4byte	0xd86
 5102 0c5a 29       		.uleb128 0x29
 5103 0c5b 91020000 		.4byte	.LASF185
 5104 0c5f 01       		.byte	0x1
 5105 0c60 4902     		.2byte	0x249
 5106 0c62 32010000 		.4byte	0x132
 5107 0c66 2A       		.uleb128 0x2a
 5108 0c67 3B260000 		.4byte	0x263b
 5109 0c6b 02000000 		.4byte	.LBB301
 5110 0c6f 60000000 		.4byte	.Ldebug_ranges0+0x60
 5111 0c73 01       		.byte	0x1
 5112 0c74 4902     		.2byte	0x249
 5113 0c76 8A0C0000 		.4byte	0xc8a
 5114 0c7a 2B       		.uleb128 0x2b
 5115 0c7b 47260000 		.4byte	0x2647
 5116 0c7f 02000000 		.4byte	.LBB303
 5117 0c83 02000000 		.4byte	.LBE303-.LBB303
 5118 0c87 02       		.byte	0x2
 5119 0c88 BD       		.byte	0xbd
 5120 0c89 00       		.byte	0
 5121 0c8a 2C       		.uleb128 0x2c
 5122 0c8b 26000000 		.4byte	.LVL177
 5123 0c8f 7E270000 		.4byte	0x277e
 5124 0c93 BF0C0000 		.4byte	0xcbf
 5125 0c97 2D       		.uleb128 0x2d
 5126 0c98 01       		.uleb128 0x1
 5127 0c99 50       		.byte	0x50
 5128 0c9a 03       		.uleb128 0x3
 5129 0c9b 76       		.byte	0x76
 5130 0c9c 00       		.sleb128 0
 5131 0c9d 06       		.byte	0x6
 5132 0c9e 2D       		.uleb128 0x2d
 5133 0c9f 01       		.uleb128 0x1
 5134 0ca0 51       		.byte	0x51
 5135 0ca1 03       		.uleb128 0x3
 5136 0ca2 0A       		.byte	0xa
 5137 0ca3 F801     		.2byte	0x1f8
 5138 0ca5 2D       		.uleb128 0x2d
 5139 0ca6 01       		.uleb128 0x1
 5140 0ca7 52       		.byte	0x52
 5141 0ca8 02       		.uleb128 0x2
 5142 0ca9 75       		.byte	0x75
 5143 0caa 01       		.sleb128 1
 5144 0cab 2D       		.uleb128 0x2d
 5145 0cac 01       		.uleb128 0x1
 5146 0cad 53       		.byte	0x53
 5147 0cae 05       		.uleb128 0x5
 5148 0caf 03       		.byte	0x3
 5149 0cb0 00000000 		.4byte	thread11
 5150 0cb4 2D       		.uleb128 0x2d
 5151 0cb5 02       		.uleb128 0x2
 5152 0cb6 7D       		.byte	0x7d
 5153 0cb7 00       		.sleb128 0
ARM GAS  /var/folders/d2/nstgp4h54kz7g1l847x_b8wc0000gn/T//ccSYBGul.s 			page 92


 5154 0cb8 05       		.uleb128 0x5
 5155 0cb9 03       		.byte	0x3
 5156 0cba 10000000 		.4byte	.LC4
 5157 0cbe 00       		.byte	0
 5158 0cbf 2C       		.uleb128 0x2c
 5159 0cc0 3C000000 		.4byte	.LVL178
 5160 0cc4 7E270000 		.4byte	0x277e
 5161 0cc8 F40C0000 		.4byte	0xcf4
 5162 0ccc 2D       		.uleb128 0x2d
 5163 0ccd 01       		.uleb128 0x1
 5164 0cce 50       		.byte	0x50
 5165 0ccf 03       		.uleb128 0x3
 5166 0cd0 76       		.byte	0x76
 5167 0cd1 04       		.sleb128 4
 5168 0cd2 06       		.byte	0x6
 5169 0cd3 2D       		.uleb128 0x2d
 5170 0cd4 01       		.uleb128 0x1
 5171 0cd5 51       		.byte	0x51
 5172 0cd6 03       		.uleb128 0x3
 5173 0cd7 0A       		.byte	0xa
 5174 0cd8 F801     		.2byte	0x1f8
 5175 0cda 2D       		.uleb128 0x2d
 5176 0cdb 01       		.uleb128 0x1
 5177 0cdc 52       		.byte	0x52
 5178 0cdd 02       		.uleb128 0x2
 5179 0cde 75       		.byte	0x75
 5180 0cdf 02       		.sleb128 2
 5181 0ce0 2D       		.uleb128 0x2d
 5182 0ce1 01       		.uleb128 0x1
 5183 0ce2 53       		.byte	0x53
 5184 0ce3 05       		.uleb128 0x5
 5185 0ce4 03       		.byte	0x3
 5186 0ce5 00000000 		.4byte	thread10
 5187 0ce9 2D       		.uleb128 0x2d
 5188 0cea 02       		.uleb128 0x2
 5189 0ceb 7D       		.byte	0x7d
 5190 0cec 00       		.sleb128 0
 5191 0ced 05       		.uleb128 0x5
 5192 0cee 03       		.byte	0x3
 5193 0cef 08000000 		.4byte	.LC2
 5194 0cf3 00       		.byte	0
 5195 0cf4 2C       		.uleb128 0x2c
 5196 0cf5 52000000 		.4byte	.LVL179
 5197 0cf9 7E270000 		.4byte	0x277e
 5198 0cfd 290D0000 		.4byte	0xd29
 5199 0d01 2D       		.uleb128 0x2d
 5200 0d02 01       		.uleb128 0x1
 5201 0d03 50       		.byte	0x50
 5202 0d04 03       		.uleb128 0x3
 5203 0d05 76       		.byte	0x76
 5204 0d06 08       		.sleb128 8
 5205 0d07 06       		.byte	0x6
 5206 0d08 2D       		.uleb128 0x2d
 5207 0d09 01       		.uleb128 0x1
 5208 0d0a 51       		.byte	0x51
 5209 0d0b 03       		.uleb128 0x3
 5210 0d0c 0A       		.byte	0xa
ARM GAS  /var/folders/d2/nstgp4h54kz7g1l847x_b8wc0000gn/T//ccSYBGul.s 			page 93


 5211 0d0d F801     		.2byte	0x1f8
 5212 0d0f 2D       		.uleb128 0x2d
 5213 0d10 01       		.uleb128 0x1
 5214 0d11 52       		.byte	0x52
 5215 0d12 02       		.uleb128 0x2
 5216 0d13 75       		.byte	0x75
 5217 0d14 03       		.sleb128 3
 5218 0d15 2D       		.uleb128 0x2d
 5219 0d16 01       		.uleb128 0x1
 5220 0d17 53       		.byte	0x53
 5221 0d18 05       		.uleb128 0x5
 5222 0d19 03       		.byte	0x3
 5223 0d1a 00000000 		.4byte	thread12
 5224 0d1e 2D       		.uleb128 0x2d
 5225 0d1f 02       		.uleb128 0x2
 5226 0d20 7D       		.byte	0x7d
 5227 0d21 00       		.sleb128 0
 5228 0d22 05       		.uleb128 0x5
 5229 0d23 03       		.byte	0x3
 5230 0d24 0C000000 		.4byte	.LC3
 5231 0d28 00       		.byte	0
 5232 0d29 2C       		.uleb128 0x2c
 5233 0d2a 5A000000 		.4byte	.LVL180
 5234 0d2e 89270000 		.4byte	0x2789
 5235 0d32 400D0000 		.4byte	0xd40
 5236 0d36 2D       		.uleb128 0x2d
 5237 0d37 01       		.uleb128 0x1
 5238 0d38 50       		.byte	0x50
 5239 0d39 05       		.uleb128 0x5
 5240 0d3a 03       		.byte	0x3
 5241 0d3b 00000000 		.4byte	.LANCHOR3
 5242 0d3f 00       		.byte	0
 5243 0d40 2C       		.uleb128 0x2c
 5244 0d41 60000000 		.4byte	.LVL181
 5245 0d45 89270000 		.4byte	0x2789
 5246 0d49 570D0000 		.4byte	0xd57
 5247 0d4d 2D       		.uleb128 0x2d
 5248 0d4e 01       		.uleb128 0x1
 5249 0d4f 50       		.byte	0x50
 5250 0d50 05       		.uleb128 0x5
 5251 0d51 03       		.byte	0x3
 5252 0d52 00000000 		.4byte	.LANCHOR3
 5253 0d56 00       		.byte	0
 5254 0d57 2E       		.uleb128 0x2e
 5255 0d58 64000000 		.4byte	.LVL182
 5256 0d5c 94270000 		.4byte	0x2794
 5257 0d60 2F       		.uleb128 0x2f
 5258 0d61 7A000000 		.4byte	.LVL183
 5259 0d65 9F270000 		.4byte	0x279f
 5260 0d69 7C0D0000 		.4byte	0xd7c
 5261 0d6d 2D       		.uleb128 0x2d
 5262 0d6e 01       		.uleb128 0x1
 5263 0d6f 50       		.byte	0x50
 5264 0d70 01       		.uleb128 0x1
 5265 0d71 31       		.byte	0x31
 5266 0d72 2D       		.uleb128 0x2d
 5267 0d73 01       		.uleb128 0x1
ARM GAS  /var/folders/d2/nstgp4h54kz7g1l847x_b8wc0000gn/T//ccSYBGul.s 			page 94


 5268 0d74 51       		.byte	0x51
 5269 0d75 05       		.uleb128 0x5
 5270 0d76 03       		.byte	0x3
 5271 0d77 00000000 		.4byte	.LC6
 5272 0d7b 00       		.byte	0
 5273 0d7c 2E       		.uleb128 0x2e
 5274 0d7d 7E000000 		.4byte	.LVL184
 5275 0d81 AA270000 		.4byte	0x27aa
 5276 0d85 00       		.byte	0
 5277 0d86 28       		.uleb128 0x28
 5278 0d87 63020000 		.4byte	.LASF181
 5279 0d8b 01       		.byte	0x1
 5280 0d8c 4002     		.2byte	0x240
 5281 0d8e 00000000 		.4byte	.LFB247
 5282 0d92 38000000 		.4byte	.LFE247-.LFB247
 5283 0d96 01       		.uleb128 0x1
 5284 0d97 9C       		.byte	0x9c
 5285 0d98 EB0D0000 		.4byte	0xdeb
 5286 0d9c 30       		.uleb128 0x30
 5287 0d9d 7000     		.ascii	"p\000"
 5288 0d9f 01       		.byte	0x1
 5289 0da0 4002     		.2byte	0x240
 5290 0da2 8F030000 		.4byte	0x38f
 5291 0da6 00000000 		.4byte	.LLST1
 5292 0daa 2C       		.uleb128 0x2c
 5293 0dab 12000000 		.4byte	.LVL20
 5294 0daf B3270000 		.4byte	0x27b3
 5295 0db3 C10D0000 		.4byte	0xdc1
 5296 0db7 2D       		.uleb128 0x2d
 5297 0db8 01       		.uleb128 0x1
 5298 0db9 50       		.byte	0x50
 5299 0dba 05       		.uleb128 0x5
 5300 0dbb 03       		.byte	0x3
 5301 0dbc 00000000 		.4byte	.LANCHOR1
 5302 0dc0 00       		.byte	0
 5303 0dc1 2E       		.uleb128 0x2e
 5304 0dc2 18000000 		.4byte	.LVL21
 5305 0dc6 BE270000 		.4byte	0x27be
 5306 0dca 2F       		.uleb128 0x2f
 5307 0dcb 2C000000 		.4byte	.LVL23
 5308 0dcf C9270000 		.4byte	0x27c9
 5309 0dd3 E10D0000 		.4byte	0xde1
 5310 0dd7 2D       		.uleb128 0x2d
 5311 0dd8 01       		.uleb128 0x1
 5312 0dd9 50       		.byte	0x50
 5313 0dda 05       		.uleb128 0x5
 5314 0ddb 03       		.byte	0x3
 5315 0ddc 00000000 		.4byte	.LANCHOR1
 5316 0de0 00       		.byte	0
 5317 0de1 2E       		.uleb128 0x2e
 5318 0de2 30000000 		.4byte	.LVL24
 5319 0de6 AA270000 		.4byte	0x27aa
 5320 0dea 00       		.byte	0
 5321 0deb 28       		.uleb128 0x28
 5322 0dec 5A020000 		.4byte	.LASF182
 5323 0df0 01       		.byte	0x1
 5324 0df1 3202     		.2byte	0x232
ARM GAS  /var/folders/d2/nstgp4h54kz7g1l847x_b8wc0000gn/T//ccSYBGul.s 			page 95


 5325 0df3 00000000 		.4byte	.LFB246
 5326 0df7 58000000 		.4byte	.LFE246-.LFB246
 5327 0dfb 01       		.uleb128 0x1
 5328 0dfc 9C       		.byte	0x9c
 5329 0dfd 9B0E0000 		.4byte	0xe9b
 5330 0e01 30       		.uleb128 0x30
 5331 0e02 7000     		.ascii	"p\000"
 5332 0e04 01       		.byte	0x1
 5333 0e05 3202     		.2byte	0x232
 5334 0e07 8F030000 		.4byte	0x38f
 5335 0e0b 37000000 		.4byte	.LLST17
 5336 0e0f 2C       		.uleb128 0x2c
 5337 0e10 12000000 		.4byte	.LVL187
 5338 0e14 B3270000 		.4byte	0x27b3
 5339 0e18 260E0000 		.4byte	0xe26
 5340 0e1c 2D       		.uleb128 0x2d
 5341 0e1d 01       		.uleb128 0x1
 5342 0e1e 50       		.byte	0x50
 5343 0e1f 05       		.uleb128 0x5
 5344 0e20 03       		.byte	0x3
 5345 0e21 00000000 		.4byte	.LANCHOR1
 5346 0e25 00       		.byte	0
 5347 0e26 2C       		.uleb128 0x2c
 5348 0e27 18000000 		.4byte	.LVL188
 5349 0e2b B3270000 		.4byte	0x27b3
 5350 0e2f 3D0E0000 		.4byte	0xe3d
 5351 0e33 2D       		.uleb128 0x2d
 5352 0e34 01       		.uleb128 0x1
 5353 0e35 50       		.byte	0x50
 5354 0e36 05       		.uleb128 0x5
 5355 0e37 03       		.byte	0x3
 5356 0e38 00000000 		.4byte	.LANCHOR0
 5357 0e3c 00       		.byte	0
 5358 0e3d 2C       		.uleb128 0x2c
 5359 0e3e 22000000 		.4byte	.LVL189
 5360 0e42 D4270000 		.4byte	0x27d4
 5361 0e46 5A0E0000 		.4byte	0xe5a
 5362 0e4a 2D       		.uleb128 0x2d
 5363 0e4b 01       		.uleb128 0x1
 5364 0e4c 50       		.byte	0x50
 5365 0e4d 05       		.uleb128 0x5
 5366 0e4e 03       		.byte	0x3
 5367 0e4f 00000000 		.4byte	.LANCHOR3
 5368 0e53 2D       		.uleb128 0x2d
 5369 0e54 01       		.uleb128 0x1
 5370 0e55 51       		.byte	0x51
 5371 0e56 02       		.uleb128 0x2
 5372 0e57 09       		.byte	0x9
 5373 0e58 FF       		.byte	0xff
 5374 0e59 00       		.byte	0
 5375 0e5a 2E       		.uleb128 0x2e
 5376 0e5b 28000000 		.4byte	.LVL190
 5377 0e5f BE270000 		.4byte	0x27be
 5378 0e63 2C       		.uleb128 0x2c
 5379 0e64 2E000000 		.4byte	.LVL191
 5380 0e68 C9270000 		.4byte	0x27c9
 5381 0e6c 7A0E0000 		.4byte	0xe7a
ARM GAS  /var/folders/d2/nstgp4h54kz7g1l847x_b8wc0000gn/T//ccSYBGul.s 			page 96


 5382 0e70 2D       		.uleb128 0x2d
 5383 0e71 01       		.uleb128 0x1
 5384 0e72 50       		.byte	0x50
 5385 0e73 05       		.uleb128 0x5
 5386 0e74 03       		.byte	0x3
 5387 0e75 00000000 		.4byte	.LANCHOR0
 5388 0e79 00       		.byte	0
 5389 0e7a 2F       		.uleb128 0x2f
 5390 0e7b 42000000 		.4byte	.LVL193
 5391 0e7f C9270000 		.4byte	0x27c9
 5392 0e83 910E0000 		.4byte	0xe91
 5393 0e87 2D       		.uleb128 0x2d
 5394 0e88 01       		.uleb128 0x1
 5395 0e89 50       		.byte	0x50
 5396 0e8a 05       		.uleb128 0x5
 5397 0e8b 03       		.byte	0x3
 5398 0e8c 00000000 		.4byte	.LANCHOR1
 5399 0e90 00       		.byte	0
 5400 0e91 2E       		.uleb128 0x2e
 5401 0e92 46000000 		.4byte	.LVL194
 5402 0e96 AA270000 		.4byte	0x27aa
 5403 0e9a 00       		.byte	0
 5404 0e9b 28       		.uleb128 0x28
 5405 0e9c 07090000 		.4byte	.LASF183
 5406 0ea0 01       		.byte	0x1
 5407 0ea1 2B02     		.2byte	0x22b
 5408 0ea3 00000000 		.4byte	.LFB245
 5409 0ea7 40000000 		.4byte	.LFE245-.LFB245
 5410 0eab 01       		.uleb128 0x1
 5411 0eac 9C       		.byte	0x9c
 5412 0ead 000F0000 		.4byte	0xf00
 5413 0eb1 2C       		.uleb128 0x2c
 5414 0eb2 10000000 		.4byte	.LVL164
 5415 0eb6 DF270000 		.4byte	0x27df
 5416 0eba C80E0000 		.4byte	0xec8
 5417 0ebe 2D       		.uleb128 0x2d
 5418 0ebf 01       		.uleb128 0x1
 5419 0ec0 50       		.byte	0x50
 5420 0ec1 05       		.uleb128 0x5
 5421 0ec2 03       		.byte	0x3
 5422 0ec3 00000000 		.4byte	.LANCHOR3
 5423 0ec7 00       		.byte	0
 5424 0ec8 2C       		.uleb128 0x2c
 5425 0ec9 16000000 		.4byte	.LVL165
 5426 0ecd EA270000 		.4byte	0x27ea
 5427 0ed1 DF0E0000 		.4byte	0xedf
 5428 0ed5 2D       		.uleb128 0x2d
 5429 0ed6 01       		.uleb128 0x1
 5430 0ed7 50       		.byte	0x50
 5431 0ed8 05       		.uleb128 0x5
 5432 0ed9 03       		.byte	0x3
 5433 0eda 00000000 		.4byte	.LANCHOR0
 5434 0ede 00       		.byte	0
 5435 0edf 2F       		.uleb128 0x2f
 5436 0ee0 2A000000 		.4byte	.LVL166
 5437 0ee4 EA270000 		.4byte	0x27ea
 5438 0ee8 F60E0000 		.4byte	0xef6
ARM GAS  /var/folders/d2/nstgp4h54kz7g1l847x_b8wc0000gn/T//ccSYBGul.s 			page 97


 5439 0eec 2D       		.uleb128 0x2d
 5440 0eed 01       		.uleb128 0x1
 5441 0eee 50       		.byte	0x50
 5442 0eef 05       		.uleb128 0x5
 5443 0ef0 03       		.byte	0x3
 5444 0ef1 00000000 		.4byte	.LANCHOR1
 5445 0ef5 00       		.byte	0
 5446 0ef6 2E       		.uleb128 0x2e
 5447 0ef7 2E000000 		.4byte	.LVL167
 5448 0efb AA270000 		.4byte	0x27aa
 5449 0eff 00       		.byte	0
 5450 0f00 28       		.uleb128 0x28
 5451 0f01 28020000 		.4byte	.LASF184
 5452 0f05 01       		.byte	0x1
 5453 0f06 0E02     		.2byte	0x20e
 5454 0f08 00000000 		.4byte	.LFB244
 5455 0f0c D4000000 		.4byte	.LFE244-.LFB244
 5456 0f10 01       		.uleb128 0x1
 5457 0f11 9C       		.byte	0x9c
 5458 0f12 95100000 		.4byte	0x1095
 5459 0f16 29       		.uleb128 0x29
 5460 0f17 91020000 		.4byte	.LASF185
 5461 0f1b 01       		.byte	0x1
 5462 0f1c 1002     		.2byte	0x210
 5463 0f1e 32010000 		.4byte	0x132
 5464 0f22 2A       		.uleb128 0x2a
 5465 0f23 3B260000 		.4byte	0x263b
 5466 0f27 02000000 		.4byte	.LBB293
 5467 0f2b 40000000 		.4byte	.Ldebug_ranges0+0x40
 5468 0f2f 01       		.byte	0x1
 5469 0f30 1002     		.2byte	0x210
 5470 0f32 460F0000 		.4byte	0xf46
 5471 0f36 2B       		.uleb128 0x2b
 5472 0f37 47260000 		.4byte	0x2647
 5473 0f3b 02000000 		.4byte	.LBB295
 5474 0f3f 02000000 		.4byte	.LBE295-.LBB295
 5475 0f43 02       		.byte	0x2
 5476 0f44 BD       		.byte	0xbd
 5477 0f45 00       		.byte	0
 5478 0f46 2C       		.uleb128 0x2c
 5479 0f47 26000000 		.4byte	.LVL168
 5480 0f4b 7E270000 		.4byte	0x277e
 5481 0f4f 7B0F0000 		.4byte	0xf7b
 5482 0f53 2D       		.uleb128 0x2d
 5483 0f54 01       		.uleb128 0x1
 5484 0f55 50       		.byte	0x50
 5485 0f56 03       		.uleb128 0x3
 5486 0f57 76       		.byte	0x76
 5487 0f58 00       		.sleb128 0
 5488 0f59 06       		.byte	0x6
 5489 0f5a 2D       		.uleb128 0x2d
 5490 0f5b 01       		.uleb128 0x1
 5491 0f5c 51       		.byte	0x51
 5492 0f5d 03       		.uleb128 0x3
 5493 0f5e 0A       		.byte	0xa
 5494 0f5f F801     		.2byte	0x1f8
 5495 0f61 2D       		.uleb128 0x2d
ARM GAS  /var/folders/d2/nstgp4h54kz7g1l847x_b8wc0000gn/T//ccSYBGul.s 			page 98


 5496 0f62 01       		.uleb128 0x1
 5497 0f63 52       		.byte	0x52
 5498 0f64 02       		.uleb128 0x2
 5499 0f65 75       		.byte	0x75
 5500 0f66 01       		.sleb128 1
 5501 0f67 2D       		.uleb128 0x2d
 5502 0f68 01       		.uleb128 0x1
 5503 0f69 53       		.byte	0x53
 5504 0f6a 05       		.uleb128 0x5
 5505 0f6b 03       		.byte	0x3
 5506 0f6c 00000000 		.4byte	thread10
 5507 0f70 2D       		.uleb128 0x2d
 5508 0f71 02       		.uleb128 0x2
 5509 0f72 7D       		.byte	0x7d
 5510 0f73 00       		.sleb128 0
 5511 0f74 05       		.uleb128 0x5
 5512 0f75 03       		.byte	0x3
 5513 0f76 00000000 		.4byte	.LC0
 5514 0f7a 00       		.byte	0
 5515 0f7b 2C       		.uleb128 0x2c
 5516 0f7c 3C000000 		.4byte	.LVL169
 5517 0f80 7E270000 		.4byte	0x277e
 5518 0f84 B00F0000 		.4byte	0xfb0
 5519 0f88 2D       		.uleb128 0x2d
 5520 0f89 01       		.uleb128 0x1
 5521 0f8a 50       		.byte	0x50
 5522 0f8b 03       		.uleb128 0x3
 5523 0f8c 76       		.byte	0x76
 5524 0f8d 04       		.sleb128 4
 5525 0f8e 06       		.byte	0x6
 5526 0f8f 2D       		.uleb128 0x2d
 5527 0f90 01       		.uleb128 0x1
 5528 0f91 51       		.byte	0x51
 5529 0f92 03       		.uleb128 0x3
 5530 0f93 0A       		.byte	0xa
 5531 0f94 F801     		.2byte	0x1f8
 5532 0f96 2D       		.uleb128 0x2d
 5533 0f97 01       		.uleb128 0x1
 5534 0f98 52       		.byte	0x52
 5535 0f99 02       		.uleb128 0x2
 5536 0f9a 75       		.byte	0x75
 5537 0f9b 02       		.sleb128 2
 5538 0f9c 2D       		.uleb128 0x2d
 5539 0f9d 01       		.uleb128 0x1
 5540 0f9e 53       		.byte	0x53
 5541 0f9f 05       		.uleb128 0x5
 5542 0fa0 03       		.byte	0x3
 5543 0fa1 00000000 		.4byte	thread10
 5544 0fa5 2D       		.uleb128 0x2d
 5545 0fa6 02       		.uleb128 0x2
 5546 0fa7 7D       		.byte	0x7d
 5547 0fa8 00       		.sleb128 0
 5548 0fa9 05       		.uleb128 0x5
 5549 0faa 03       		.byte	0x3
 5550 0fab 04000000 		.4byte	.LC1
 5551 0faf 00       		.byte	0
 5552 0fb0 2C       		.uleb128 0x2c
ARM GAS  /var/folders/d2/nstgp4h54kz7g1l847x_b8wc0000gn/T//ccSYBGul.s 			page 99


 5553 0fb1 52000000 		.4byte	.LVL170
 5554 0fb5 7E270000 		.4byte	0x277e
 5555 0fb9 E50F0000 		.4byte	0xfe5
 5556 0fbd 2D       		.uleb128 0x2d
 5557 0fbe 01       		.uleb128 0x1
 5558 0fbf 50       		.byte	0x50
 5559 0fc0 03       		.uleb128 0x3
 5560 0fc1 76       		.byte	0x76
 5561 0fc2 08       		.sleb128 8
 5562 0fc3 06       		.byte	0x6
 5563 0fc4 2D       		.uleb128 0x2d
 5564 0fc5 01       		.uleb128 0x1
 5565 0fc6 51       		.byte	0x51
 5566 0fc7 03       		.uleb128 0x3
 5567 0fc8 0A       		.byte	0xa
 5568 0fc9 F801     		.2byte	0x1f8
 5569 0fcb 2D       		.uleb128 0x2d
 5570 0fcc 01       		.uleb128 0x1
 5571 0fcd 52       		.byte	0x52
 5572 0fce 02       		.uleb128 0x2
 5573 0fcf 75       		.byte	0x75
 5574 0fd0 03       		.sleb128 3
 5575 0fd1 2D       		.uleb128 0x2d
 5576 0fd2 01       		.uleb128 0x1
 5577 0fd3 53       		.byte	0x53
 5578 0fd4 05       		.uleb128 0x5
 5579 0fd5 03       		.byte	0x3
 5580 0fd6 00000000 		.4byte	thread10
 5581 0fda 2D       		.uleb128 0x2d
 5582 0fdb 02       		.uleb128 0x2
 5583 0fdc 7D       		.byte	0x7d
 5584 0fdd 00       		.sleb128 0
 5585 0fde 05       		.uleb128 0x5
 5586 0fdf 03       		.byte	0x3
 5587 0fe0 08000000 		.4byte	.LC2
 5588 0fe4 00       		.byte	0
 5589 0fe5 2C       		.uleb128 0x2c
 5590 0fe6 68000000 		.4byte	.LVL171
 5591 0fea 7E270000 		.4byte	0x277e
 5592 0fee 1A100000 		.4byte	0x101a
 5593 0ff2 2D       		.uleb128 0x2d
 5594 0ff3 01       		.uleb128 0x1
 5595 0ff4 50       		.byte	0x50
 5596 0ff5 03       		.uleb128 0x3
 5597 0ff6 76       		.byte	0x76
 5598 0ff7 0C       		.sleb128 12
 5599 0ff8 06       		.byte	0x6
 5600 0ff9 2D       		.uleb128 0x2d
 5601 0ffa 01       		.uleb128 0x1
 5602 0ffb 51       		.byte	0x51
 5603 0ffc 03       		.uleb128 0x3
 5604 0ffd 0A       		.byte	0xa
 5605 0ffe F801     		.2byte	0x1f8
 5606 1000 2D       		.uleb128 0x2d
 5607 1001 01       		.uleb128 0x1
 5608 1002 52       		.byte	0x52
 5609 1003 02       		.uleb128 0x2
ARM GAS  /var/folders/d2/nstgp4h54kz7g1l847x_b8wc0000gn/T//ccSYBGul.s 			page 100


 5610 1004 75       		.byte	0x75
 5611 1005 04       		.sleb128 4
 5612 1006 2D       		.uleb128 0x2d
 5613 1007 01       		.uleb128 0x1
 5614 1008 53       		.byte	0x53
 5615 1009 05       		.uleb128 0x5
 5616 100a 03       		.byte	0x3
 5617 100b 00000000 		.4byte	thread10
 5618 100f 2D       		.uleb128 0x2d
 5619 1010 02       		.uleb128 0x2
 5620 1011 7D       		.byte	0x7d
 5621 1012 00       		.sleb128 0
 5622 1013 05       		.uleb128 0x5
 5623 1014 03       		.byte	0x3
 5624 1015 0C000000 		.4byte	.LC3
 5625 1019 00       		.byte	0
 5626 101a 2C       		.uleb128 0x2c
 5627 101b 7E000000 		.4byte	.LVL172
 5628 101f 7E270000 		.4byte	0x277e
 5629 1023 4F100000 		.4byte	0x104f
 5630 1027 2D       		.uleb128 0x2d
 5631 1028 01       		.uleb128 0x1
 5632 1029 50       		.byte	0x50
 5633 102a 03       		.uleb128 0x3
 5634 102b 76       		.byte	0x76
 5635 102c 10       		.sleb128 16
 5636 102d 06       		.byte	0x6
 5637 102e 2D       		.uleb128 0x2d
 5638 102f 01       		.uleb128 0x1
 5639 1030 51       		.byte	0x51
 5640 1031 03       		.uleb128 0x3
 5641 1032 0A       		.byte	0xa
 5642 1033 F801     		.2byte	0x1f8
 5643 1035 2D       		.uleb128 0x2d
 5644 1036 01       		.uleb128 0x1
 5645 1037 52       		.byte	0x52
 5646 1038 02       		.uleb128 0x2
 5647 1039 75       		.byte	0x75
 5648 103a 05       		.sleb128 5
 5649 103b 2D       		.uleb128 0x2d
 5650 103c 01       		.uleb128 0x1
 5651 103d 53       		.byte	0x53
 5652 103e 05       		.uleb128 0x5
 5653 103f 03       		.byte	0x3
 5654 1040 00000000 		.4byte	thread10
 5655 1044 2D       		.uleb128 0x2d
 5656 1045 02       		.uleb128 0x2
 5657 1046 7D       		.byte	0x7d
 5658 1047 00       		.sleb128 0
 5659 1048 05       		.uleb128 0x5
 5660 1049 03       		.byte	0x3
 5661 104a 10000000 		.4byte	.LC4
 5662 104e 00       		.byte	0
 5663 104f 2C       		.uleb128 0x2c
 5664 1050 86000000 		.4byte	.LVL173
 5665 1054 F5270000 		.4byte	0x27f5
 5666 1058 66100000 		.4byte	0x1066
ARM GAS  /var/folders/d2/nstgp4h54kz7g1l847x_b8wc0000gn/T//ccSYBGul.s 			page 101


 5667 105c 2D       		.uleb128 0x2d
 5668 105d 01       		.uleb128 0x1
 5669 105e 50       		.byte	0x50
 5670 105f 05       		.uleb128 0x5
 5671 1060 03       		.byte	0x3
 5672 1061 00000000 		.4byte	.LANCHOR3
 5673 1065 00       		.byte	0
 5674 1066 2E       		.uleb128 0x2e
 5675 1067 8A000000 		.4byte	.LVL174
 5676 106b 94270000 		.4byte	0x2794
 5677 106f 2F       		.uleb128 0x2f
 5678 1070 A0000000 		.4byte	.LVL175
 5679 1074 9F270000 		.4byte	0x279f
 5680 1078 8B100000 		.4byte	0x108b
 5681 107c 2D       		.uleb128 0x2d
 5682 107d 01       		.uleb128 0x1
 5683 107e 50       		.byte	0x50
 5684 107f 01       		.uleb128 0x1
 5685 1080 31       		.byte	0x31
 5686 1081 2D       		.uleb128 0x2d
 5687 1082 01       		.uleb128 0x1
 5688 1083 51       		.byte	0x51
 5689 1084 05       		.uleb128 0x5
 5690 1085 03       		.byte	0x3
 5691 1086 14000000 		.4byte	.LC5
 5692 108a 00       		.byte	0
 5693 108b 2E       		.uleb128 0x2e
 5694 108c A4000000 		.4byte	.LVL176
 5695 1090 AA270000 		.4byte	0x27aa
 5696 1094 00       		.byte	0
 5697 1095 31       		.uleb128 0x31
 5698 1096 D1040000 		.4byte	.LASF189
 5699 109a 01       		.byte	0x1
 5700 109b 0802     		.2byte	0x208
 5701 109d 28       		.uleb128 0x28
 5702 109e 2F0B0000 		.4byte	.LASF186
 5703 10a2 01       		.byte	0x1
 5704 10a3 E301     		.2byte	0x1e3
 5705 10a5 00000000 		.4byte	.LFB242
 5706 10a9 30010000 		.4byte	.LFE242-.LFB242
 5707 10ad 01       		.uleb128 0x1
 5708 10ae 9C       		.byte	0x9c
 5709 10af 61130000 		.4byte	0x1361
 5710 10b3 29       		.uleb128 0x29
 5711 10b4 91020000 		.4byte	.LASF185
 5712 10b8 01       		.byte	0x1
 5713 10b9 E501     		.2byte	0x1e5
 5714 10bb 32010000 		.4byte	0x132
 5715 10bf 2A       		.uleb128 0x2a
 5716 10c0 3B260000 		.4byte	0x263b
 5717 10c4 04000000 		.4byte	.LBB389
 5718 10c8 E0000000 		.4byte	.Ldebug_ranges0+0xe0
 5719 10cc 01       		.byte	0x1
 5720 10cd E501     		.2byte	0x1e5
 5721 10cf E3100000 		.4byte	0x10e3
 5722 10d3 2B       		.uleb128 0x2b
 5723 10d4 47260000 		.4byte	0x2647
ARM GAS  /var/folders/d2/nstgp4h54kz7g1l847x_b8wc0000gn/T//ccSYBGul.s 			page 102


 5724 10d8 04000000 		.4byte	.LBB391
 5725 10dc 02000000 		.4byte	.LBE391-.LBB391
 5726 10e0 02       		.byte	0x2
 5727 10e1 BD       		.byte	0xbd
 5728 10e2 00       		.byte	0
 5729 10e3 2A       		.uleb128 0x2a
 5730 10e4 AB260000 		.4byte	0x26ab
 5731 10e8 84000000 		.4byte	.LBB397
 5732 10ec 00010000 		.4byte	.Ldebug_ranges0+0x100
 5733 10f0 01       		.byte	0x1
 5734 10f1 EB01     		.2byte	0x1eb
 5735 10f3 39110000 		.4byte	0x1139
 5736 10f7 2A       		.uleb128 0x2a
 5737 10f8 E1260000 		.4byte	0x26e1
 5738 10fc 84000000 		.4byte	.LBB399
 5739 1100 18010000 		.4byte	.Ldebug_ranges0+0x118
 5740 1104 04       		.byte	0x4
 5741 1105 5C01     		.2byte	0x15c
 5742 1107 26110000 		.4byte	0x1126
 5743 110b 32       		.uleb128 0x32
 5744 110c EA260000 		.4byte	0x26ea
 5745 1110 84000000 		.4byte	.LBB400
 5746 1114 18010000 		.4byte	.Ldebug_ranges0+0x118
 5747 1118 0F       		.byte	0xf
 5748 1119 BF01     		.2byte	0x1bf
 5749 111b 33       		.uleb128 0x33
 5750 111c F7260000 		.4byte	0x26f7
 5751 1120 6E000000 		.4byte	.LLST20
 5752 1124 00       		.byte	0
 5753 1125 00       		.byte	0
 5754 1126 2E       		.uleb128 0x2e
 5755 1127 90000000 		.4byte	.LVL223
 5756 112b 00280000 		.4byte	0x2800
 5757 112f 2E       		.uleb128 0x2e
 5758 1130 94000000 		.4byte	.LVL224
 5759 1134 0B280000 		.4byte	0x280b
 5760 1138 00       		.byte	0
 5761 1139 2A       		.uleb128 0x2a
 5762 113a 7B260000 		.4byte	0x267b
 5763 113e B6000000 		.4byte	.LBB407
 5764 1142 30010000 		.4byte	.Ldebug_ranges0+0x130
 5765 1146 01       		.byte	0x1
 5766 1147 F201     		.2byte	0x1f2
 5767 1149 AD110000 		.4byte	0x11ad
 5768 114d 34       		.uleb128 0x34
 5769 114e 30010000 		.4byte	.Ldebug_ranges0+0x130
 5770 1152 35       		.uleb128 0x35
 5771 1153 88260000 		.4byte	0x2688
 5772 1157 36       		.uleb128 0x36
 5773 1158 D8260000 		.4byte	0x26d8
 5774 115c CE000000 		.4byte	.LBB409
 5775 1160 06000000 		.4byte	.LBE409-.LBB409
 5776 1164 04       		.byte	0x4
 5777 1165 7301     		.2byte	0x173
 5778 1167 86110000 		.4byte	0x1186
 5779 116b 37       		.uleb128 0x37
 5780 116c EA260000 		.4byte	0x26ea
ARM GAS  /var/folders/d2/nstgp4h54kz7g1l847x_b8wc0000gn/T//ccSYBGul.s 			page 103


 5781 1170 CE000000 		.4byte	.LBB410
 5782 1174 06000000 		.4byte	.LBE410-.LBB410
 5783 1178 0F       		.byte	0xf
 5784 1179 CD01     		.2byte	0x1cd
 5785 117b 33       		.uleb128 0x33
 5786 117c F7260000 		.4byte	0x26f7
 5787 1180 83000000 		.4byte	.LLST21
 5788 1184 00       		.byte	0
 5789 1185 00       		.byte	0
 5790 1186 2E       		.uleb128 0x2e
 5791 1187 BA000000 		.4byte	.LVL231
 5792 118b 16280000 		.4byte	0x2816
 5793 118f 2E       		.uleb128 0x2e
 5794 1190 BE000000 		.4byte	.LVL232
 5795 1194 21280000 		.4byte	0x2821
 5796 1198 38       		.uleb128 0x38
 5797 1199 F6000000 		.4byte	.LVL237
 5798 119d 2C280000 		.4byte	0x282c
 5799 11a1 2D       		.uleb128 0x2d
 5800 11a2 01       		.uleb128 0x1
 5801 11a3 50       		.byte	0x50
 5802 11a4 05       		.uleb128 0x5
 5803 11a5 03       		.byte	0x3
 5804 11a6 00000000 		.4byte	.LANCHOR2
 5805 11aa 00       		.byte	0
 5806 11ab 00       		.byte	0
 5807 11ac 00       		.byte	0
 5808 11ad 2C       		.uleb128 0x2c
 5809 11ae 2C000000 		.4byte	.LVL216
 5810 11b2 7E270000 		.4byte	0x277e
 5811 11b6 E2110000 		.4byte	0x11e2
 5812 11ba 2D       		.uleb128 0x2d
 5813 11bb 01       		.uleb128 0x1
 5814 11bc 50       		.byte	0x50
 5815 11bd 03       		.uleb128 0x3
 5816 11be 76       		.byte	0x76
 5817 11bf 00       		.sleb128 0
 5818 11c0 06       		.byte	0x6
 5819 11c1 2D       		.uleb128 0x2d
 5820 11c2 01       		.uleb128 0x1
 5821 11c3 51       		.byte	0x51
 5822 11c4 03       		.uleb128 0x3
 5823 11c5 0A       		.byte	0xa
 5824 11c6 F801     		.2byte	0x1f8
 5825 11c8 2D       		.uleb128 0x2d
 5826 11c9 01       		.uleb128 0x1
 5827 11ca 52       		.byte	0x52
 5828 11cb 02       		.uleb128 0x2
 5829 11cc 75       		.byte	0x75
 5830 11cd 01       		.sleb128 1
 5831 11ce 2D       		.uleb128 0x2d
 5832 11cf 01       		.uleb128 0x1
 5833 11d0 53       		.byte	0x53
 5834 11d1 05       		.uleb128 0x5
 5835 11d2 03       		.byte	0x3
 5836 11d3 00000000 		.4byte	thread10
 5837 11d7 2D       		.uleb128 0x2d
ARM GAS  /var/folders/d2/nstgp4h54kz7g1l847x_b8wc0000gn/T//ccSYBGul.s 			page 104


 5838 11d8 02       		.uleb128 0x2
 5839 11d9 7D       		.byte	0x7d
 5840 11da 00       		.sleb128 0
 5841 11db 05       		.uleb128 0x5
 5842 11dc 03       		.byte	0x3
 5843 11dd 00000000 		.4byte	.LC0
 5844 11e1 00       		.byte	0
 5845 11e2 2C       		.uleb128 0x2c
 5846 11e3 42000000 		.4byte	.LVL217
 5847 11e7 7E270000 		.4byte	0x277e
 5848 11eb 17120000 		.4byte	0x1217
 5849 11ef 2D       		.uleb128 0x2d
 5850 11f0 01       		.uleb128 0x1
 5851 11f1 50       		.byte	0x50
 5852 11f2 03       		.uleb128 0x3
 5853 11f3 76       		.byte	0x76
 5854 11f4 04       		.sleb128 4
 5855 11f5 06       		.byte	0x6
 5856 11f6 2D       		.uleb128 0x2d
 5857 11f7 01       		.uleb128 0x1
 5858 11f8 51       		.byte	0x51
 5859 11f9 03       		.uleb128 0x3
 5860 11fa 0A       		.byte	0xa
 5861 11fb F801     		.2byte	0x1f8
 5862 11fd 2D       		.uleb128 0x2d
 5863 11fe 01       		.uleb128 0x1
 5864 11ff 52       		.byte	0x52
 5865 1200 02       		.uleb128 0x2
 5866 1201 75       		.byte	0x75
 5867 1202 02       		.sleb128 2
 5868 1203 2D       		.uleb128 0x2d
 5869 1204 01       		.uleb128 0x1
 5870 1205 53       		.byte	0x53
 5871 1206 05       		.uleb128 0x5
 5872 1207 03       		.byte	0x3
 5873 1208 00000000 		.4byte	thread10
 5874 120c 2D       		.uleb128 0x2d
 5875 120d 02       		.uleb128 0x2
 5876 120e 7D       		.byte	0x7d
 5877 120f 00       		.sleb128 0
 5878 1210 05       		.uleb128 0x5
 5879 1211 03       		.byte	0x3
 5880 1212 04000000 		.4byte	.LC1
 5881 1216 00       		.byte	0
 5882 1217 2C       		.uleb128 0x2c
 5883 1218 58000000 		.4byte	.LVL218
 5884 121c 7E270000 		.4byte	0x277e
 5885 1220 4C120000 		.4byte	0x124c
 5886 1224 2D       		.uleb128 0x2d
 5887 1225 01       		.uleb128 0x1
 5888 1226 50       		.byte	0x50
 5889 1227 03       		.uleb128 0x3
 5890 1228 76       		.byte	0x76
 5891 1229 08       		.sleb128 8
 5892 122a 06       		.byte	0x6
 5893 122b 2D       		.uleb128 0x2d
 5894 122c 01       		.uleb128 0x1
ARM GAS  /var/folders/d2/nstgp4h54kz7g1l847x_b8wc0000gn/T//ccSYBGul.s 			page 105


 5895 122d 51       		.byte	0x51
 5896 122e 03       		.uleb128 0x3
 5897 122f 0A       		.byte	0xa
 5898 1230 F801     		.2byte	0x1f8
 5899 1232 2D       		.uleb128 0x2d
 5900 1233 01       		.uleb128 0x1
 5901 1234 52       		.byte	0x52
 5902 1235 02       		.uleb128 0x2
 5903 1236 75       		.byte	0x75
 5904 1237 03       		.sleb128 3
 5905 1238 2D       		.uleb128 0x2d
 5906 1239 01       		.uleb128 0x1
 5907 123a 53       		.byte	0x53
 5908 123b 05       		.uleb128 0x5
 5909 123c 03       		.byte	0x3
 5910 123d 00000000 		.4byte	thread10
 5911 1241 2D       		.uleb128 0x2d
 5912 1242 02       		.uleb128 0x2
 5913 1243 7D       		.byte	0x7d
 5914 1244 00       		.sleb128 0
 5915 1245 05       		.uleb128 0x5
 5916 1246 03       		.byte	0x3
 5917 1247 08000000 		.4byte	.LC2
 5918 124b 00       		.byte	0
 5919 124c 2C       		.uleb128 0x2c
 5920 124d 6E000000 		.4byte	.LVL219
 5921 1251 7E270000 		.4byte	0x277e
 5922 1255 81120000 		.4byte	0x1281
 5923 1259 2D       		.uleb128 0x2d
 5924 125a 01       		.uleb128 0x1
 5925 125b 50       		.byte	0x50
 5926 125c 03       		.uleb128 0x3
 5927 125d 76       		.byte	0x76
 5928 125e 0C       		.sleb128 12
 5929 125f 06       		.byte	0x6
 5930 1260 2D       		.uleb128 0x2d
 5931 1261 01       		.uleb128 0x1
 5932 1262 51       		.byte	0x51
 5933 1263 03       		.uleb128 0x3
 5934 1264 0A       		.byte	0xa
 5935 1265 F801     		.2byte	0x1f8
 5936 1267 2D       		.uleb128 0x2d
 5937 1268 01       		.uleb128 0x1
 5938 1269 52       		.byte	0x52
 5939 126a 02       		.uleb128 0x2
 5940 126b 75       		.byte	0x75
 5941 126c 04       		.sleb128 4
 5942 126d 2D       		.uleb128 0x2d
 5943 126e 01       		.uleb128 0x1
 5944 126f 53       		.byte	0x53
 5945 1270 05       		.uleb128 0x5
 5946 1271 03       		.byte	0x3
 5947 1272 00000000 		.4byte	thread10
 5948 1276 2D       		.uleb128 0x2d
 5949 1277 02       		.uleb128 0x2
 5950 1278 7D       		.byte	0x7d
 5951 1279 00       		.sleb128 0
ARM GAS  /var/folders/d2/nstgp4h54kz7g1l847x_b8wc0000gn/T//ccSYBGul.s 			page 106


 5952 127a 05       		.uleb128 0x5
 5953 127b 03       		.byte	0x3
 5954 127c 0C000000 		.4byte	.LC3
 5955 1280 00       		.byte	0
 5956 1281 2C       		.uleb128 0x2c
 5957 1282 84000000 		.4byte	.LVL220
 5958 1286 7E270000 		.4byte	0x277e
 5959 128a B6120000 		.4byte	0x12b6
 5960 128e 2D       		.uleb128 0x2d
 5961 128f 01       		.uleb128 0x1
 5962 1290 50       		.byte	0x50
 5963 1291 03       		.uleb128 0x3
 5964 1292 76       		.byte	0x76
 5965 1293 10       		.sleb128 16
 5966 1294 06       		.byte	0x6
 5967 1295 2D       		.uleb128 0x2d
 5968 1296 01       		.uleb128 0x1
 5969 1297 51       		.byte	0x51
 5970 1298 03       		.uleb128 0x3
 5971 1299 0A       		.byte	0xa
 5972 129a F801     		.2byte	0x1f8
 5973 129c 2D       		.uleb128 0x2d
 5974 129d 01       		.uleb128 0x1
 5975 129e 52       		.byte	0x52
 5976 129f 02       		.uleb128 0x2
 5977 12a0 75       		.byte	0x75
 5978 12a1 05       		.sleb128 5
 5979 12a2 2D       		.uleb128 0x2d
 5980 12a3 01       		.uleb128 0x1
 5981 12a4 53       		.byte	0x53
 5982 12a5 05       		.uleb128 0x5
 5983 12a6 03       		.byte	0x3
 5984 12a7 00000000 		.4byte	thread10
 5985 12ab 2D       		.uleb128 0x2d
 5986 12ac 02       		.uleb128 0x2
 5987 12ad 7D       		.byte	0x7d
 5988 12ae 00       		.sleb128 0
 5989 12af 05       		.uleb128 0x5
 5990 12b0 03       		.byte	0x3
 5991 12b1 10000000 		.4byte	.LC4
 5992 12b5 00       		.byte	0
 5993 12b6 2C       		.uleb128 0x2c
 5994 12b7 9A000000 		.4byte	.LVL225
 5995 12bb 38280000 		.4byte	0x2838
 5996 12bf CD120000 		.4byte	0x12cd
 5997 12c3 2D       		.uleb128 0x2d
 5998 12c4 01       		.uleb128 0x1
 5999 12c5 50       		.byte	0x50
 6000 12c6 05       		.uleb128 0x5
 6001 12c7 03       		.byte	0x3
 6002 12c8 00000000 		.4byte	.LANCHOR3
 6003 12cc 00       		.byte	0
 6004 12cd 2C       		.uleb128 0x2c
 6005 12ce A0000000 		.4byte	.LVL226
 6006 12d2 38280000 		.4byte	0x2838
 6007 12d6 E4120000 		.4byte	0x12e4
 6008 12da 2D       		.uleb128 0x2d
ARM GAS  /var/folders/d2/nstgp4h54kz7g1l847x_b8wc0000gn/T//ccSYBGul.s 			page 107


 6009 12db 01       		.uleb128 0x1
 6010 12dc 50       		.byte	0x50
 6011 12dd 05       		.uleb128 0x5
 6012 12de 03       		.byte	0x3
 6013 12df 00000000 		.4byte	.LANCHOR3
 6014 12e3 00       		.byte	0
 6015 12e4 2C       		.uleb128 0x2c
 6016 12e5 A6000000 		.4byte	.LVL227
 6017 12e9 38280000 		.4byte	0x2838
 6018 12ed FB120000 		.4byte	0x12fb
 6019 12f1 2D       		.uleb128 0x2d
 6020 12f2 01       		.uleb128 0x1
 6021 12f3 50       		.byte	0x50
 6022 12f4 05       		.uleb128 0x5
 6023 12f5 03       		.byte	0x3
 6024 12f6 00000000 		.4byte	.LANCHOR3
 6025 12fa 00       		.byte	0
 6026 12fb 2C       		.uleb128 0x2c
 6027 12fc AC000000 		.4byte	.LVL228
 6028 1300 38280000 		.4byte	0x2838
 6029 1304 12130000 		.4byte	0x1312
 6030 1308 2D       		.uleb128 0x2d
 6031 1309 01       		.uleb128 0x1
 6032 130a 50       		.byte	0x50
 6033 130b 05       		.uleb128 0x5
 6034 130c 03       		.byte	0x3
 6035 130d 00000000 		.4byte	.LANCHOR3
 6036 1311 00       		.byte	0
 6037 1312 2C       		.uleb128 0x2c
 6038 1313 B2000000 		.4byte	.LVL229
 6039 1317 38280000 		.4byte	0x2838
 6040 131b 29130000 		.4byte	0x1329
 6041 131f 2D       		.uleb128 0x2d
 6042 1320 01       		.uleb128 0x1
 6043 1321 50       		.byte	0x50
 6044 1322 05       		.uleb128 0x5
 6045 1323 03       		.byte	0x3
 6046 1324 00000000 		.4byte	.LANCHOR3
 6047 1328 00       		.byte	0
 6048 1329 2E       		.uleb128 0x2e
 6049 132a B6000000 		.4byte	.LVL230
 6050 132e 43280000 		.4byte	0x2843
 6051 1332 2E       		.uleb128 0x2e
 6052 1333 D8000000 		.4byte	.LVL235
 6053 1337 94270000 		.4byte	0x2794
 6054 133b 2F       		.uleb128 0x2f
 6055 133c F0000000 		.4byte	.LVL236
 6056 1340 9F270000 		.4byte	0x279f
 6057 1344 57130000 		.4byte	0x1357
 6058 1348 2D       		.uleb128 0x2d
 6059 1349 01       		.uleb128 0x1
 6060 134a 50       		.byte	0x50
 6061 134b 01       		.uleb128 0x1
 6062 134c 31       		.byte	0x31
 6063 134d 2D       		.uleb128 0x2d
 6064 134e 01       		.uleb128 0x1
 6065 134f 51       		.byte	0x51
ARM GAS  /var/folders/d2/nstgp4h54kz7g1l847x_b8wc0000gn/T//ccSYBGul.s 			page 108


 6066 1350 05       		.uleb128 0x5
 6067 1351 03       		.byte	0x3
 6068 1352 14000000 		.4byte	.LC5
 6069 1356 00       		.byte	0
 6070 1357 2E       		.uleb128 0x2e
 6071 1358 FC000000 		.4byte	.LVL238
 6072 135c AA270000 		.4byte	0x27aa
 6073 1360 00       		.byte	0
 6074 1361 28       		.uleb128 0x28
 6075 1362 AE0A0000 		.4byte	.LASF187
 6076 1366 01       		.byte	0x1
 6077 1367 DB01     		.2byte	0x1db
 6078 1369 00000000 		.4byte	.LFB241
 6079 136d 44000000 		.4byte	.LFE241-.LFB241
 6080 1371 01       		.uleb128 0x1
 6081 1372 9C       		.byte	0x9c
 6082 1373 DD130000 		.4byte	0x13dd
 6083 1377 30       		.uleb128 0x30
 6084 1378 7000     		.ascii	"p\000"
 6085 137a 01       		.byte	0x1
 6086 137b DB01     		.2byte	0x1db
 6087 137d 8F030000 		.4byte	0x38f
 6088 1381 97000000 		.4byte	.LLST16
 6089 1385 2C       		.uleb128 0x2c
 6090 1386 12000000 		.4byte	.LVL155
 6091 138a B3270000 		.4byte	0x27b3
 6092 138e 9C130000 		.4byte	0x139c
 6093 1392 2D       		.uleb128 0x2d
 6094 1393 01       		.uleb128 0x1
 6095 1394 50       		.byte	0x50
 6096 1395 05       		.uleb128 0x5
 6097 1396 03       		.byte	0x3
 6098 1397 00000000 		.4byte	.LANCHOR0
 6099 139b 00       		.byte	0
 6100 139c 2C       		.uleb128 0x2c
 6101 139d 18000000 		.4byte	.LVL156
 6102 13a1 4F280000 		.4byte	0x284f
 6103 13a5 B3130000 		.4byte	0x13b3
 6104 13a9 2D       		.uleb128 0x2d
 6105 13aa 01       		.uleb128 0x1
 6106 13ab 50       		.byte	0x50
 6107 13ac 05       		.uleb128 0x5
 6108 13ad 03       		.byte	0x3
 6109 13ae 00000000 		.4byte	.LANCHOR3
 6110 13b2 00       		.byte	0
 6111 13b3 2E       		.uleb128 0x2e
 6112 13b4 1E000000 		.4byte	.LVL157
 6113 13b8 BE270000 		.4byte	0x27be
 6114 13bc 2F       		.uleb128 0x2f
 6115 13bd 32000000 		.4byte	.LVL159
 6116 13c1 C9270000 		.4byte	0x27c9
 6117 13c5 D3130000 		.4byte	0x13d3
 6118 13c9 2D       		.uleb128 0x2d
 6119 13ca 01       		.uleb128 0x1
 6120 13cb 50       		.byte	0x50
 6121 13cc 05       		.uleb128 0x5
 6122 13cd 03       		.byte	0x3
ARM GAS  /var/folders/d2/nstgp4h54kz7g1l847x_b8wc0000gn/T//ccSYBGul.s 			page 109


 6123 13ce 00000000 		.4byte	.LANCHOR0
 6124 13d2 00       		.byte	0
 6125 13d3 2E       		.uleb128 0x2e
 6126 13d4 36000000 		.4byte	.LVL160
 6127 13d8 AA270000 		.4byte	0x27aa
 6128 13dc 00       		.byte	0
 6129 13dd 28       		.uleb128 0x28
 6130 13de 70040000 		.4byte	.LASF188
 6131 13e2 01       		.byte	0x1
 6132 13e3 D501     		.2byte	0x1d5
 6133 13e5 00000000 		.4byte	.LFB240
 6134 13e9 34000000 		.4byte	.LFE240-.LFB240
 6135 13ed 01       		.uleb128 0x1
 6136 13ee 9C       		.byte	0x9c
 6137 13ef 2B140000 		.4byte	0x142b
 6138 13f3 2C       		.uleb128 0x2c
 6139 13f4 10000000 		.4byte	.LVL161
 6140 13f8 DF270000 		.4byte	0x27df
 6141 13fc 0A140000 		.4byte	0x140a
 6142 1400 2D       		.uleb128 0x2d
 6143 1401 01       		.uleb128 0x1
 6144 1402 50       		.byte	0x50
 6145 1403 05       		.uleb128 0x5
 6146 1404 03       		.byte	0x3
 6147 1405 00000000 		.4byte	.LANCHOR3
 6148 1409 00       		.byte	0
 6149 140a 2F       		.uleb128 0x2f
 6150 140b 24000000 		.4byte	.LVL162
 6151 140f EA270000 		.4byte	0x27ea
 6152 1413 21140000 		.4byte	0x1421
 6153 1417 2D       		.uleb128 0x2d
 6154 1418 01       		.uleb128 0x1
 6155 1419 50       		.byte	0x50
 6156 141a 05       		.uleb128 0x5
 6157 141b 03       		.byte	0x3
 6158 141c 00000000 		.4byte	.LANCHOR0
 6159 1420 00       		.byte	0
 6160 1421 2E       		.uleb128 0x2e
 6161 1422 28000000 		.4byte	.LVL163
 6162 1426 AA270000 		.4byte	0x27aa
 6163 142a 00       		.byte	0
 6164 142b 39       		.uleb128 0x39
 6165 142c 4F080000 		.4byte	.LASF216
 6166 1430 01       		.byte	0x1
 6167 1431 A701     		.2byte	0x1a7
 6168 1433 01       		.byte	0x1
 6169 1434 31       		.uleb128 0x31
 6170 1435 3E0A0000 		.4byte	.LASF190
 6171 1439 01       		.byte	0x1
 6172 143a A201     		.2byte	0x1a2
 6173 143c 28       		.uleb128 0x28
 6174 143d 82050000 		.4byte	.LASF191
 6175 1441 01       		.byte	0x1
 6176 1442 6201     		.2byte	0x162
 6177 1444 00000000 		.4byte	.LFB237
 6178 1448 B4020000 		.4byte	.LFE237-.LFB237
 6179 144c 01       		.uleb128 0x1
ARM GAS  /var/folders/d2/nstgp4h54kz7g1l847x_b8wc0000gn/T//ccSYBGul.s 			page 110


 6180 144d 9C       		.byte	0x9c
 6181 144e 71190000 		.4byte	0x1971
 6182 1452 3A       		.uleb128 0x3a
 6183 1453 7000     		.ascii	"p\000"
 6184 1455 01       		.byte	0x1
 6185 1456 6301     		.2byte	0x163
 6186 1458 32010000 		.4byte	0x132
 6187 145c 3B       		.uleb128 0x3b
 6188 145d 703100   		.ascii	"p1\000"
 6189 1460 01       		.byte	0x1
 6190 1461 6301     		.2byte	0x163
 6191 1463 32010000 		.4byte	0x132
 6192 1467 CE000000 		.4byte	.LLST12
 6193 146b 3B       		.uleb128 0x3b
 6194 146c 703200   		.ascii	"p2\000"
 6195 146f 01       		.byte	0x1
 6196 1470 6301     		.2byte	0x163
 6197 1472 32010000 		.4byte	0x132
 6198 1476 EC000000 		.4byte	.LLST13
 6199 147a 2A       		.uleb128 0x2a
 6200 147b 3B260000 		.4byte	0x263b
 6201 147f 04000000 		.4byte	.LBB247
 6202 1483 20000000 		.4byte	.Ldebug_ranges0+0x20
 6203 1487 01       		.byte	0x1
 6204 1488 6501     		.2byte	0x165
 6205 148a 9E140000 		.4byte	0x149e
 6206 148e 2B       		.uleb128 0x2b
 6207 148f 47260000 		.4byte	0x2647
 6208 1493 04000000 		.4byte	.LBB249
 6209 1497 02000000 		.4byte	.LBE249-.LBB249
 6210 149b 02       		.byte	0x2
 6211 149c BD       		.byte	0xbd
 6212 149d 00       		.byte	0
 6213 149e 3C       		.uleb128 0x3c
 6214 149f 3B260000 		.4byte	0x263b
 6215 14a3 56000000 		.4byte	.LBB255
 6216 14a7 02000000 		.4byte	.LBE255-.LBB255
 6217 14ab 01       		.byte	0x1
 6218 14ac 6B01     		.2byte	0x16b
 6219 14ae 3C       		.uleb128 0x3c
 6220 14af 3B260000 		.4byte	0x263b
 6221 14b3 80000000 		.4byte	.LBB257
 6222 14b7 02000000 		.4byte	.LBE257-.LBB257
 6223 14bb 01       		.byte	0x1
 6224 14bc 6D01     		.2byte	0x16d
 6225 14be 3C       		.uleb128 0x3c
 6226 14bf 3B260000 		.4byte	0x263b
 6227 14c3 9E000000 		.4byte	.LBB259
 6228 14c7 02000000 		.4byte	.LBE259-.LBB259
 6229 14cb 01       		.byte	0x1
 6230 14cc 6F01     		.2byte	0x16f
 6231 14ce 3C       		.uleb128 0x3c
 6232 14cf 3B260000 		.4byte	0x263b
 6233 14d3 BC000000 		.4byte	.LBB261
 6234 14d7 02000000 		.4byte	.LBE261-.LBB261
 6235 14db 01       		.byte	0x1
 6236 14dc 7101     		.2byte	0x171
ARM GAS  /var/folders/d2/nstgp4h54kz7g1l847x_b8wc0000gn/T//ccSYBGul.s 			page 111


 6237 14de 3C       		.uleb128 0x3c
 6238 14df 3B260000 		.4byte	0x263b
 6239 14e3 DA000000 		.4byte	.LBB263
 6240 14e7 02000000 		.4byte	.LBE263-.LBB263
 6241 14eb 01       		.byte	0x1
 6242 14ec 7301     		.2byte	0x173
 6243 14ee 3C       		.uleb128 0x3c
 6244 14ef 3B260000 		.4byte	0x263b
 6245 14f3 F8000000 		.4byte	.LBB265
 6246 14f7 02000000 		.4byte	.LBE265-.LBB265
 6247 14fb 01       		.byte	0x1
 6248 14fc 7501     		.2byte	0x175
 6249 14fe 3C       		.uleb128 0x3c
 6250 14ff 3B260000 		.4byte	0x263b
 6251 1503 14010000 		.4byte	.LBB267
 6252 1507 02000000 		.4byte	.LBE267-.LBB267
 6253 150b 01       		.byte	0x1
 6254 150c 7701     		.2byte	0x177
 6255 150e 3C       		.uleb128 0x3c
 6256 150f 3B260000 		.4byte	0x263b
 6257 1513 60010000 		.4byte	.LBB269
 6258 1517 02000000 		.4byte	.LBE269-.LBB269
 6259 151b 01       		.byte	0x1
 6260 151c 7E01     		.2byte	0x17e
 6261 151e 3C       		.uleb128 0x3c
 6262 151f 3B260000 		.4byte	0x263b
 6263 1523 7C010000 		.4byte	.LBB271
 6264 1527 02000000 		.4byte	.LBE271-.LBB271
 6265 152b 01       		.byte	0x1
 6266 152c 8001     		.2byte	0x180
 6267 152e 3C       		.uleb128 0x3c
 6268 152f 3B260000 		.4byte	0x263b
 6269 1533 9E010000 		.4byte	.LBB273
 6270 1537 02000000 		.4byte	.LBE273-.LBB273
 6271 153b 01       		.byte	0x1
 6272 153c 8201     		.2byte	0x182
 6273 153e 3C       		.uleb128 0x3c
 6274 153f 3B260000 		.4byte	0x263b
 6275 1543 C0010000 		.4byte	.LBB275
 6276 1547 02000000 		.4byte	.LBE275-.LBB275
 6277 154b 01       		.byte	0x1
 6278 154c 8401     		.2byte	0x184
 6279 154e 36       		.uleb128 0x36
 6280 154f AB260000 		.4byte	0x26ab
 6281 1553 DC010000 		.4byte	.LBB277
 6282 1557 0E000000 		.4byte	.LBE277-.LBB277
 6283 155b 01       		.byte	0x1
 6284 155c 8501     		.2byte	0x185
 6285 155e A4150000 		.4byte	0x15a4
 6286 1562 36       		.uleb128 0x36
 6287 1563 E1260000 		.4byte	0x26e1
 6288 1567 DC010000 		.4byte	.LBB279
 6289 156b 06000000 		.4byte	.LBE279-.LBB279
 6290 156f 04       		.byte	0x4
 6291 1570 5C01     		.2byte	0x15c
 6292 1572 91150000 		.4byte	0x1591
 6293 1576 37       		.uleb128 0x37
ARM GAS  /var/folders/d2/nstgp4h54kz7g1l847x_b8wc0000gn/T//ccSYBGul.s 			page 112


 6294 1577 EA260000 		.4byte	0x26ea
 6295 157b DC010000 		.4byte	.LBB280
 6296 157f 06000000 		.4byte	.LBE280-.LBB280
 6297 1583 0F       		.byte	0xf
 6298 1584 BF01     		.2byte	0x1bf
 6299 1586 33       		.uleb128 0x33
 6300 1587 F7260000 		.4byte	0x26f7
 6301 158b 0A010000 		.4byte	.LLST14
 6302 158f 00       		.byte	0
 6303 1590 00       		.byte	0
 6304 1591 2E       		.uleb128 0x2e
 6305 1592 E6010000 		.4byte	.LVL137
 6306 1596 00280000 		.4byte	0x2800
 6307 159a 2E       		.uleb128 0x2e
 6308 159b EA010000 		.4byte	.LVL138
 6309 159f 0B280000 		.4byte	0x280b
 6310 15a3 00       		.byte	0
 6311 15a4 36       		.uleb128 0x36
 6312 15a5 7B260000 		.4byte	0x267b
 6313 15a9 F4010000 		.4byte	.LBB282
 6314 15ad 24000000 		.4byte	.LBE282-.LBB282
 6315 15b1 01       		.byte	0x1
 6316 15b2 8801     		.2byte	0x188
 6317 15b4 1C160000 		.4byte	0x161c
 6318 15b8 3D       		.uleb128 0x3d
 6319 15b9 F4010000 		.4byte	.LBB283
 6320 15bd 24000000 		.4byte	.LBE283-.LBB283
 6321 15c1 35       		.uleb128 0x35
 6322 15c2 88260000 		.4byte	0x2688
 6323 15c6 36       		.uleb128 0x36
 6324 15c7 D8260000 		.4byte	0x26d8
 6325 15cb 12020000 		.4byte	.LBB284
 6326 15cf 06000000 		.4byte	.LBE284-.LBB284
 6327 15d3 04       		.byte	0x4
 6328 15d4 7301     		.2byte	0x173
 6329 15d6 F5150000 		.4byte	0x15f5
 6330 15da 37       		.uleb128 0x37
 6331 15db EA260000 		.4byte	0x26ea
 6332 15df 12020000 		.4byte	.LBB285
 6333 15e3 06000000 		.4byte	.LBE285-.LBB285
 6334 15e7 0F       		.byte	0xf
 6335 15e8 CD01     		.2byte	0x1cd
 6336 15ea 33       		.uleb128 0x33
 6337 15eb F7260000 		.4byte	0x26f7
 6338 15ef 1F010000 		.4byte	.LLST15
 6339 15f3 00       		.byte	0
 6340 15f4 00       		.byte	0
 6341 15f5 2E       		.uleb128 0x2e
 6342 15f6 F8010000 		.4byte	.LVL141
 6343 15fa 16280000 		.4byte	0x2816
 6344 15fe 2E       		.uleb128 0x2e
 6345 15ff FC010000 		.4byte	.LVL142
 6346 1603 21280000 		.4byte	0x2821
 6347 1607 38       		.uleb128 0x38
 6348 1608 12020000 		.4byte	.LVL143
 6349 160c 2C280000 		.4byte	0x282c
 6350 1610 2D       		.uleb128 0x2d
ARM GAS  /var/folders/d2/nstgp4h54kz7g1l847x_b8wc0000gn/T//ccSYBGul.s 			page 113


 6351 1611 01       		.uleb128 0x1
 6352 1612 50       		.byte	0x50
 6353 1613 05       		.uleb128 0x5
 6354 1614 03       		.byte	0x3
 6355 1615 00000000 		.4byte	.LANCHOR2
 6356 1619 00       		.byte	0
 6357 161a 00       		.byte	0
 6358 161b 00       		.byte	0
 6359 161c 3C       		.uleb128 0x3c
 6360 161d 3B260000 		.4byte	0x263b
 6361 1621 18020000 		.4byte	.LBB287
 6362 1625 02000000 		.4byte	.LBE287-.LBB287
 6363 1629 01       		.byte	0x1
 6364 162a 8901     		.2byte	0x189
 6365 162c 3C       		.uleb128 0x3c
 6366 162d 3B260000 		.4byte	0x263b
 6367 1631 36020000 		.4byte	.LBB289
 6368 1635 02000000 		.4byte	.LBE289-.LBB289
 6369 1639 01       		.byte	0x1
 6370 163a 8B01     		.2byte	0x18b
 6371 163c 3C       		.uleb128 0x3c
 6372 163d 3B260000 		.4byte	0x263b
 6373 1641 52020000 		.4byte	.LBB291
 6374 1645 02000000 		.4byte	.LBE291-.LBB291
 6375 1649 01       		.byte	0x1
 6376 164a 8D01     		.2byte	0x18d
 6377 164c 2C       		.uleb128 0x2c
 6378 164d 30000000 		.4byte	.LVL106
 6379 1651 7E270000 		.4byte	0x277e
 6380 1655 81160000 		.4byte	0x1681
 6381 1659 2D       		.uleb128 0x2d
 6382 165a 01       		.uleb128 0x1
 6383 165b 50       		.byte	0x50
 6384 165c 03       		.uleb128 0x3
 6385 165d 76       		.byte	0x76
 6386 165e 00       		.sleb128 0
 6387 165f 06       		.byte	0x6
 6388 1660 2D       		.uleb128 0x2d
 6389 1661 01       		.uleb128 0x1
 6390 1662 51       		.byte	0x51
 6391 1663 03       		.uleb128 0x3
 6392 1664 0A       		.byte	0xa
 6393 1665 F801     		.2byte	0x1f8
 6394 1667 2D       		.uleb128 0x2d
 6395 1668 01       		.uleb128 0x1
 6396 1669 52       		.byte	0x52
 6397 166a 02       		.uleb128 0x2
 6398 166b 7A       		.byte	0x7a
 6399 166c 00       		.sleb128 0
 6400 166d 2D       		.uleb128 0x2d
 6401 166e 01       		.uleb128 0x1
 6402 166f 53       		.byte	0x53
 6403 1670 05       		.uleb128 0x5
 6404 1671 03       		.byte	0x3
 6405 1672 00000000 		.4byte	thread4a
 6406 1676 2D       		.uleb128 0x2d
 6407 1677 02       		.uleb128 0x2
ARM GAS  /var/folders/d2/nstgp4h54kz7g1l847x_b8wc0000gn/T//ccSYBGul.s 			page 114


 6408 1678 7D       		.byte	0x7d
 6409 1679 00       		.sleb128 0
 6410 167a 05       		.uleb128 0x5
 6411 167b 03       		.byte	0x3
 6412 167c 0C000000 		.4byte	.LC3
 6413 1680 00       		.byte	0
 6414 1681 2C       		.uleb128 0x2c
 6415 1682 4C000000 		.4byte	.LVL108
 6416 1686 7E270000 		.4byte	0x277e
 6417 168a B5160000 		.4byte	0x16b5
 6418 168e 2D       		.uleb128 0x2d
 6419 168f 01       		.uleb128 0x1
 6420 1690 50       		.byte	0x50
 6421 1691 02       		.uleb128 0x2
 6422 1692 76       		.byte	0x76
 6423 1693 00       		.sleb128 0
 6424 1694 2D       		.uleb128 0x2d
 6425 1695 01       		.uleb128 0x1
 6426 1696 51       		.byte	0x51
 6427 1697 03       		.uleb128 0x3
 6428 1698 0A       		.byte	0xa
 6429 1699 F801     		.2byte	0x1f8
 6430 169b 2D       		.uleb128 0x2d
 6431 169c 01       		.uleb128 0x1
 6432 169d 52       		.byte	0x52
 6433 169e 02       		.uleb128 0x2
 6434 169f 7B       		.byte	0x7b
 6435 16a0 00       		.sleb128 0
 6436 16a1 2D       		.uleb128 0x2d
 6437 16a2 01       		.uleb128 0x1
 6438 16a3 53       		.byte	0x53
 6439 16a4 05       		.uleb128 0x5
 6440 16a5 03       		.byte	0x3
 6441 16a6 00000000 		.4byte	thread4b
 6442 16aa 2D       		.uleb128 0x2d
 6443 16ab 02       		.uleb128 0x2
 6444 16ac 7D       		.byte	0x7d
 6445 16ad 00       		.sleb128 0
 6446 16ae 05       		.uleb128 0x5
 6447 16af 03       		.byte	0x3
 6448 16b0 10000000 		.4byte	.LC4
 6449 16b4 00       		.byte	0
 6450 16b5 2C       		.uleb128 0x2c
 6451 16b6 56000000 		.4byte	.LVL109
 6452 16ba B3270000 		.4byte	0x27b3
 6453 16be CC160000 		.4byte	0x16cc
 6454 16c2 2D       		.uleb128 0x2d
 6455 16c3 01       		.uleb128 0x1
 6456 16c4 50       		.byte	0x50
 6457 16c5 05       		.uleb128 0x5
 6458 16c6 03       		.byte	0x3
 6459 16c7 00000000 		.4byte	.LANCHOR1
 6460 16cb 00       		.byte	0
 6461 16cc 2C       		.uleb128 0x2c
 6462 16cd 68000000 		.4byte	.LVL110
 6463 16d1 5A280000 		.4byte	0x285a
 6464 16d5 DF160000 		.4byte	0x16df
ARM GAS  /var/folders/d2/nstgp4h54kz7g1l847x_b8wc0000gn/T//ccSYBGul.s 			page 115


 6465 16d9 2D       		.uleb128 0x2d
 6466 16da 01       		.uleb128 0x1
 6467 16db 50       		.byte	0x50
 6468 16dc 01       		.uleb128 0x1
 6469 16dd 31       		.byte	0x31
 6470 16de 00       		.byte	0
 6471 16df 2C       		.uleb128 0x2c
 6472 16e0 80000000 		.4byte	.LVL112
 6473 16e4 65280000 		.4byte	0x2865
 6474 16e8 F3160000 		.4byte	0x16f3
 6475 16ec 2D       		.uleb128 0x2d
 6476 16ed 01       		.uleb128 0x1
 6477 16ee 50       		.byte	0x50
 6478 16ef 02       		.uleb128 0x2
 6479 16f0 08       		.byte	0x8
 6480 16f1 64       		.byte	0x64
 6481 16f2 00       		.byte	0
 6482 16f3 2C       		.uleb128 0x2c
 6483 16f4 94000000 		.4byte	.LVL113
 6484 16f8 5A280000 		.4byte	0x285a
 6485 16fc 06170000 		.4byte	0x1706
 6486 1700 2D       		.uleb128 0x2d
 6487 1701 01       		.uleb128 0x1
 6488 1702 50       		.byte	0x50
 6489 1703 01       		.uleb128 0x1
 6490 1704 32       		.byte	0x32
 6491 1705 00       		.byte	0
 6492 1706 2C       		.uleb128 0x2c
 6493 1707 9E000000 		.4byte	.LVL114
 6494 170b B3270000 		.4byte	0x27b3
 6495 170f 1D170000 		.4byte	0x171d
 6496 1713 2D       		.uleb128 0x2d
 6497 1714 01       		.uleb128 0x1
 6498 1715 50       		.byte	0x50
 6499 1716 05       		.uleb128 0x5
 6500 1717 03       		.byte	0x3
 6501 1718 00000000 		.4byte	.LANCHOR0
 6502 171c 00       		.byte	0
 6503 171d 2C       		.uleb128 0x2c
 6504 171e B2000000 		.4byte	.LVL115
 6505 1722 5A280000 		.4byte	0x285a
 6506 1726 30170000 		.4byte	0x1730
 6507 172a 2D       		.uleb128 0x2d
 6508 172b 01       		.uleb128 0x1
 6509 172c 50       		.byte	0x50
 6510 172d 01       		.uleb128 0x1
 6511 172e 33       		.byte	0x33
 6512 172f 00       		.byte	0
 6513 1730 2C       		.uleb128 0x2c
 6514 1731 BC000000 		.4byte	.LVL116
 6515 1735 65280000 		.4byte	0x2865
 6516 1739 44170000 		.4byte	0x1744
 6517 173d 2D       		.uleb128 0x2d
 6518 173e 01       		.uleb128 0x1
 6519 173f 50       		.byte	0x50
 6520 1740 02       		.uleb128 0x2
 6521 1741 08       		.byte	0x8
ARM GAS  /var/folders/d2/nstgp4h54kz7g1l847x_b8wc0000gn/T//ccSYBGul.s 			page 116


 6522 1742 64       		.byte	0x64
 6523 1743 00       		.byte	0
 6524 1744 2C       		.uleb128 0x2c
 6525 1745 D0000000 		.4byte	.LVL117
 6526 1749 5A280000 		.4byte	0x285a
 6527 174d 57170000 		.4byte	0x1757
 6528 1751 2D       		.uleb128 0x2d
 6529 1752 01       		.uleb128 0x1
 6530 1753 50       		.byte	0x50
 6531 1754 01       		.uleb128 0x1
 6532 1755 34       		.byte	0x34
 6533 1756 00       		.byte	0
 6534 1757 2C       		.uleb128 0x2c
 6535 1758 DA000000 		.4byte	.LVL118
 6536 175c C9270000 		.4byte	0x27c9
 6537 1760 6E170000 		.4byte	0x176e
 6538 1764 2D       		.uleb128 0x2d
 6539 1765 01       		.uleb128 0x1
 6540 1766 50       		.byte	0x50
 6541 1767 05       		.uleb128 0x5
 6542 1768 03       		.byte	0x3
 6543 1769 00000000 		.4byte	.LANCHOR0
 6544 176d 00       		.byte	0
 6545 176e 2C       		.uleb128 0x2c
 6546 176f EE000000 		.4byte	.LVL119
 6547 1773 5A280000 		.4byte	0x285a
 6548 1777 81170000 		.4byte	0x1781
 6549 177b 2D       		.uleb128 0x2d
 6550 177c 01       		.uleb128 0x1
 6551 177d 50       		.byte	0x50
 6552 177e 01       		.uleb128 0x1
 6553 177f 35       		.byte	0x35
 6554 1780 00       		.byte	0
 6555 1781 2C       		.uleb128 0x2c
 6556 1782 F8000000 		.4byte	.LVL120
 6557 1786 65280000 		.4byte	0x2865
 6558 178a 95170000 		.4byte	0x1795
 6559 178e 2D       		.uleb128 0x2d
 6560 178f 01       		.uleb128 0x1
 6561 1790 50       		.byte	0x50
 6562 1791 02       		.uleb128 0x2
 6563 1792 08       		.byte	0x8
 6564 1793 64       		.byte	0x64
 6565 1794 00       		.byte	0
 6566 1795 2C       		.uleb128 0x2c
 6567 1796 0C010000 		.4byte	.LVL121
 6568 179a 5A280000 		.4byte	0x285a
 6569 179e A8170000 		.4byte	0x17a8
 6570 17a2 2D       		.uleb128 0x2d
 6571 17a3 01       		.uleb128 0x1
 6572 17a4 50       		.byte	0x50
 6573 17a5 01       		.uleb128 0x1
 6574 17a6 36       		.byte	0x36
 6575 17a7 00       		.byte	0
 6576 17a8 2E       		.uleb128 0x2e
 6577 17a9 14010000 		.4byte	.LVL122
 6578 17ad 70280000 		.4byte	0x2870
ARM GAS  /var/folders/d2/nstgp4h54kz7g1l847x_b8wc0000gn/T//ccSYBGul.s 			page 117


 6579 17b1 2C       		.uleb128 0x2c
 6580 17b2 26010000 		.4byte	.LVL123
 6581 17b6 5A280000 		.4byte	0x285a
 6582 17ba C4170000 		.4byte	0x17c4
 6583 17be 2D       		.uleb128 0x2d
 6584 17bf 01       		.uleb128 0x1
 6585 17c0 50       		.byte	0x50
 6586 17c1 01       		.uleb128 0x1
 6587 17c2 37       		.byte	0x37
 6588 17c3 00       		.byte	0
 6589 17c4 2E       		.uleb128 0x2e
 6590 17c5 2E010000 		.4byte	.LVL124
 6591 17c9 94270000 		.4byte	0x2794
 6592 17cd 2C       		.uleb128 0x2c
 6593 17ce 40010000 		.4byte	.LVL125
 6594 17d2 7E270000 		.4byte	0x277e
 6595 17d6 02180000 		.4byte	0x1802
 6596 17da 2D       		.uleb128 0x2d
 6597 17db 01       		.uleb128 0x1
 6598 17dc 50       		.byte	0x50
 6599 17dd 03       		.uleb128 0x3
 6600 17de 91       		.byte	0x91
 6601 17df 54       		.sleb128 -44
 6602 17e0 06       		.byte	0x6
 6603 17e1 2D       		.uleb128 0x2d
 6604 17e2 01       		.uleb128 0x1
 6605 17e3 51       		.byte	0x51
 6606 17e4 03       		.uleb128 0x3
 6607 17e5 0A       		.byte	0xa
 6608 17e6 F801     		.2byte	0x1f8
 6609 17e8 2D       		.uleb128 0x2d
 6610 17e9 01       		.uleb128 0x1
 6611 17ea 52       		.byte	0x52
 6612 17eb 02       		.uleb128 0x2
 6613 17ec 7A       		.byte	0x7a
 6614 17ed 00       		.sleb128 0
 6615 17ee 2D       		.uleb128 0x2d
 6616 17ef 01       		.uleb128 0x1
 6617 17f0 53       		.byte	0x53
 6618 17f1 05       		.uleb128 0x5
 6619 17f2 03       		.byte	0x3
 6620 17f3 00000000 		.4byte	thread4a
 6621 17f7 2D       		.uleb128 0x2d
 6622 17f8 02       		.uleb128 0x2
 6623 17f9 7D       		.byte	0x7d
 6624 17fa 00       		.sleb128 0
 6625 17fb 05       		.uleb128 0x5
 6626 17fc 03       		.byte	0x3
 6627 17fd 04000000 		.4byte	.LC1
 6628 1801 00       		.byte	0
 6629 1802 2C       		.uleb128 0x2c
 6630 1803 56010000 		.4byte	.LVL126
 6631 1807 7E270000 		.4byte	0x277e
 6632 180b 36180000 		.4byte	0x1836
 6633 180f 2D       		.uleb128 0x2d
 6634 1810 01       		.uleb128 0x1
 6635 1811 50       		.byte	0x50
ARM GAS  /var/folders/d2/nstgp4h54kz7g1l847x_b8wc0000gn/T//ccSYBGul.s 			page 118


 6636 1812 02       		.uleb128 0x2
 6637 1813 76       		.byte	0x76
 6638 1814 00       		.sleb128 0
 6639 1815 2D       		.uleb128 0x2d
 6640 1816 01       		.uleb128 0x1
 6641 1817 51       		.byte	0x51
 6642 1818 03       		.uleb128 0x3
 6643 1819 0A       		.byte	0xa
 6644 181a F801     		.2byte	0x1f8
 6645 181c 2D       		.uleb128 0x2d
 6646 181d 01       		.uleb128 0x1
 6647 181e 52       		.byte	0x52
 6648 181f 02       		.uleb128 0x2
 6649 1820 7B       		.byte	0x7b
 6650 1821 00       		.sleb128 0
 6651 1822 2D       		.uleb128 0x2d
 6652 1823 01       		.uleb128 0x1
 6653 1824 53       		.byte	0x53
 6654 1825 05       		.uleb128 0x5
 6655 1826 03       		.byte	0x3
 6656 1827 00000000 		.4byte	thread4b
 6657 182b 2D       		.uleb128 0x2d
 6658 182c 02       		.uleb128 0x2
 6659 182d 7D       		.byte	0x7d
 6660 182e 00       		.sleb128 0
 6661 182f 05       		.uleb128 0x5
 6662 1830 03       		.byte	0x3
 6663 1831 08000000 		.4byte	.LC2
 6664 1835 00       		.byte	0
 6665 1836 2C       		.uleb128 0x2c
 6666 1837 60010000 		.4byte	.LVL127
 6667 183b B3270000 		.4byte	0x27b3
 6668 183f 4D180000 		.4byte	0x184d
 6669 1843 2D       		.uleb128 0x2d
 6670 1844 01       		.uleb128 0x1
 6671 1845 50       		.byte	0x50
 6672 1846 05       		.uleb128 0x5
 6673 1847 03       		.byte	0x3
 6674 1848 00000000 		.4byte	.LANCHOR1
 6675 184c 00       		.byte	0
 6676 184d 2C       		.uleb128 0x2c
 6677 184e 70010000 		.4byte	.LVL128
 6678 1852 5A280000 		.4byte	0x285a
 6679 1856 60180000 		.4byte	0x1860
 6680 185a 2D       		.uleb128 0x2d
 6681 185b 01       		.uleb128 0x1
 6682 185c 50       		.byte	0x50
 6683 185d 01       		.uleb128 0x1
 6684 185e 38       		.byte	0x38
 6685 185f 00       		.byte	0
 6686 1860 2C       		.uleb128 0x2c
 6687 1861 7C010000 		.4byte	.LVL129
 6688 1865 65280000 		.4byte	0x2865
 6689 1869 74180000 		.4byte	0x1874
 6690 186d 2D       		.uleb128 0x2d
 6691 186e 01       		.uleb128 0x1
 6692 186f 50       		.byte	0x50
ARM GAS  /var/folders/d2/nstgp4h54kz7g1l847x_b8wc0000gn/T//ccSYBGul.s 			page 119


 6693 1870 02       		.uleb128 0x2
 6694 1871 08       		.byte	0x8
 6695 1872 64       		.byte	0x64
 6696 1873 00       		.byte	0
 6697 1874 2C       		.uleb128 0x2c
 6698 1875 92010000 		.4byte	.LVL130
 6699 1879 5A280000 		.4byte	0x285a
 6700 187d 8F180000 		.4byte	0x188f
 6701 1881 2D       		.uleb128 0x2d
 6702 1882 01       		.uleb128 0x1
 6703 1883 50       		.byte	0x50
 6704 1884 01       		.uleb128 0x1
 6705 1885 39       		.byte	0x39
 6706 1886 2D       		.uleb128 0x2d
 6707 1887 01       		.uleb128 0x1
 6708 1888 51       		.byte	0x51
 6709 1889 04       		.uleb128 0x4
 6710 188a 78       		.byte	0x78
 6711 188b 00       		.sleb128 0
 6712 188c 30       		.byte	0x30
 6713 188d 29       		.byte	0x29
 6714 188e 00       		.byte	0
 6715 188f 2C       		.uleb128 0x2c
 6716 1890 9E010000 		.4byte	.LVL131
 6717 1894 B3270000 		.4byte	0x27b3
 6718 1898 A6180000 		.4byte	0x18a6
 6719 189c 2D       		.uleb128 0x2d
 6720 189d 01       		.uleb128 0x1
 6721 189e 50       		.byte	0x50
 6722 189f 05       		.uleb128 0x5
 6723 18a0 03       		.byte	0x3
 6724 18a1 00000000 		.4byte	.LANCHOR0
 6725 18a5 00       		.byte	0
 6726 18a6 2C       		.uleb128 0x2c
 6727 18a7 B4010000 		.4byte	.LVL132
 6728 18ab 5A280000 		.4byte	0x285a
 6729 18af B9180000 		.4byte	0x18b9
 6730 18b3 2D       		.uleb128 0x2d
 6731 18b4 01       		.uleb128 0x1
 6732 18b5 50       		.byte	0x50
 6733 18b6 01       		.uleb128 0x1
 6734 18b7 3A       		.byte	0x3a
 6735 18b8 00       		.byte	0
 6736 18b9 2C       		.uleb128 0x2c
 6737 18ba C0010000 		.4byte	.LVL133
 6738 18be 65280000 		.4byte	0x2865
 6739 18c2 CD180000 		.4byte	0x18cd
 6740 18c6 2D       		.uleb128 0x2d
 6741 18c7 01       		.uleb128 0x1
 6742 18c8 50       		.byte	0x50
 6743 18c9 02       		.uleb128 0x2
 6744 18ca 08       		.byte	0x8
 6745 18cb 64       		.byte	0x64
 6746 18cc 00       		.byte	0
 6747 18cd 2C       		.uleb128 0x2c
 6748 18ce D6010000 		.4byte	.LVL134
 6749 18d2 5A280000 		.4byte	0x285a
ARM GAS  /var/folders/d2/nstgp4h54kz7g1l847x_b8wc0000gn/T//ccSYBGul.s 			page 120


 6750 18d6 E0180000 		.4byte	0x18e0
 6751 18da 2D       		.uleb128 0x2d
 6752 18db 01       		.uleb128 0x1
 6753 18dc 50       		.byte	0x50
 6754 18dd 01       		.uleb128 0x1
 6755 18de 3B       		.byte	0x3b
 6756 18df 00       		.byte	0
 6757 18e0 2C       		.uleb128 0x2c
 6758 18e1 F0010000 		.4byte	.LVL139
 6759 18e5 7B280000 		.4byte	0x287b
 6760 18e9 F7180000 		.4byte	0x18f7
 6761 18ed 2D       		.uleb128 0x2d
 6762 18ee 01       		.uleb128 0x1
 6763 18ef 50       		.byte	0x50
 6764 18f0 05       		.uleb128 0x5
 6765 18f1 03       		.byte	0x3
 6766 18f2 00000000 		.4byte	.LANCHOR0
 6767 18f6 00       		.byte	0
 6768 18f7 2E       		.uleb128 0x2e
 6769 18f8 F4010000 		.4byte	.LVL140
 6770 18fc 43280000 		.4byte	0x2843
 6771 1900 2C       		.uleb128 0x2c
 6772 1901 2A020000 		.4byte	.LVL145
 6773 1905 5A280000 		.4byte	0x285a
 6774 1909 1B190000 		.4byte	0x191b
 6775 190d 2D       		.uleb128 0x2d
 6776 190e 01       		.uleb128 0x1
 6777 190f 50       		.byte	0x50
 6778 1910 01       		.uleb128 0x1
 6779 1911 3C       		.byte	0x3c
 6780 1912 2D       		.uleb128 0x2d
 6781 1913 01       		.uleb128 0x1
 6782 1914 51       		.byte	0x51
 6783 1915 04       		.uleb128 0x4
 6784 1916 76       		.byte	0x76
 6785 1917 00       		.sleb128 0
 6786 1918 30       		.byte	0x30
 6787 1919 29       		.byte	0x29
 6788 191a 00       		.byte	0
 6789 191b 2C       		.uleb128 0x2c
 6790 191c 36020000 		.4byte	.LVL146
 6791 1920 65280000 		.4byte	0x2865
 6792 1924 2F190000 		.4byte	0x192f
 6793 1928 2D       		.uleb128 0x2d
 6794 1929 01       		.uleb128 0x1
 6795 192a 50       		.byte	0x50
 6796 192b 02       		.uleb128 0x2
 6797 192c 08       		.byte	0x8
 6798 192d 64       		.byte	0x64
 6799 192e 00       		.byte	0
 6800 192f 2C       		.uleb128 0x2c
 6801 1930 48020000 		.4byte	.LVL147
 6802 1934 5A280000 		.4byte	0x285a
 6803 1938 42190000 		.4byte	0x1942
 6804 193c 2D       		.uleb128 0x2d
 6805 193d 01       		.uleb128 0x1
 6806 193e 50       		.byte	0x50
ARM GAS  /var/folders/d2/nstgp4h54kz7g1l847x_b8wc0000gn/T//ccSYBGul.s 			page 121


 6807 193f 01       		.uleb128 0x1
 6808 1940 3D       		.byte	0x3d
 6809 1941 00       		.byte	0
 6810 1942 2E       		.uleb128 0x2e
 6811 1943 52020000 		.4byte	.LVL148
 6812 1947 70280000 		.4byte	0x2870
 6813 194b 2C       		.uleb128 0x2c
 6814 194c 62020000 		.4byte	.LVL149
 6815 1950 5A280000 		.4byte	0x285a
 6816 1954 5E190000 		.4byte	0x195e
 6817 1958 2D       		.uleb128 0x2d
 6818 1959 01       		.uleb128 0x1
 6819 195a 50       		.byte	0x50
 6820 195b 01       		.uleb128 0x1
 6821 195c 3E       		.byte	0x3e
 6822 195d 00       		.byte	0
 6823 195e 3E       		.uleb128 0x3e
 6824 195f 7A020000 		.4byte	.LVL151
 6825 1963 94270000 		.4byte	0x2794
 6826 1967 2E       		.uleb128 0x2e
 6827 1968 7E020000 		.4byte	.LVL152
 6828 196c AA270000 		.4byte	0x27aa
 6829 1970 00       		.byte	0
 6830 1971 28       		.uleb128 0x28
 6831 1972 19040000 		.4byte	.LASF192
 6832 1976 01       		.byte	0x1
 6833 1977 5A01     		.2byte	0x15a
 6834 1979 00000000 		.4byte	.LFB236
 6835 197d 38000000 		.4byte	.LFE236-.LFB236
 6836 1981 01       		.uleb128 0x1
 6837 1982 9C       		.byte	0x9c
 6838 1983 E1190000 		.4byte	0x19e1
 6839 1987 30       		.uleb128 0x30
 6840 1988 7000     		.ascii	"p\000"
 6841 198a 01       		.byte	0x1
 6842 198b 5A01     		.2byte	0x15a
 6843 198d 8F030000 		.4byte	0x38f
 6844 1991 33010000 		.4byte	.LLST10
 6845 1995 2C       		.uleb128 0x2c
 6846 1996 10000000 		.4byte	.LVL95
 6847 199a 65280000 		.4byte	0x2865
 6848 199e A9190000 		.4byte	0x19a9
 6849 19a2 2D       		.uleb128 0x2d
 6850 19a3 01       		.uleb128 0x1
 6851 19a4 50       		.byte	0x50
 6852 19a5 02       		.uleb128 0x2
 6853 19a6 08       		.byte	0x8
 6854 19a7 96       		.byte	0x96
 6855 19a8 00       		.byte	0
 6856 19a9 2C       		.uleb128 0x2c
 6857 19aa 16000000 		.4byte	.LVL96
 6858 19ae B3270000 		.4byte	0x27b3
 6859 19b2 C0190000 		.4byte	0x19c0
 6860 19b6 2D       		.uleb128 0x2d
 6861 19b7 01       		.uleb128 0x1
 6862 19b8 50       		.byte	0x50
 6863 19b9 05       		.uleb128 0x5
ARM GAS  /var/folders/d2/nstgp4h54kz7g1l847x_b8wc0000gn/T//ccSYBGul.s 			page 122


 6864 19ba 03       		.byte	0x3
 6865 19bb 00000000 		.4byte	.LANCHOR0
 6866 19bf 00       		.byte	0
 6867 19c0 2F       		.uleb128 0x2f
 6868 19c1 2A000000 		.4byte	.LVL97
 6869 19c5 C9270000 		.4byte	0x27c9
 6870 19c9 D7190000 		.4byte	0x19d7
 6871 19cd 2D       		.uleb128 0x2d
 6872 19ce 01       		.uleb128 0x1
 6873 19cf 50       		.byte	0x50
 6874 19d0 05       		.uleb128 0x5
 6875 19d1 03       		.byte	0x3
 6876 19d2 00000000 		.4byte	.LANCHOR0
 6877 19d6 00       		.byte	0
 6878 19d7 2E       		.uleb128 0x2e
 6879 19d8 2E000000 		.4byte	.LVL98
 6880 19dc AA270000 		.4byte	0x27aa
 6881 19e0 00       		.byte	0
 6882 19e1 28       		.uleb128 0x28
 6883 19e2 10040000 		.4byte	.LASF193
 6884 19e6 01       		.byte	0x1
 6885 19e7 5201     		.2byte	0x152
 6886 19e9 00000000 		.4byte	.LFB235
 6887 19ed 38000000 		.4byte	.LFE235-.LFB235
 6888 19f1 01       		.uleb128 0x1
 6889 19f2 9C       		.byte	0x9c
 6890 19f3 511A0000 		.4byte	0x1a51
 6891 19f7 30       		.uleb128 0x30
 6892 19f8 7000     		.ascii	"p\000"
 6893 19fa 01       		.byte	0x1
 6894 19fb 5201     		.2byte	0x152
 6895 19fd 8F030000 		.4byte	0x38f
 6896 1a01 54010000 		.4byte	.LLST11
 6897 1a05 2C       		.uleb128 0x2c
 6898 1a06 10000000 		.4byte	.LVL101
 6899 1a0a 65280000 		.4byte	0x2865
 6900 1a0e 191A0000 		.4byte	0x1a19
 6901 1a12 2D       		.uleb128 0x2d
 6902 1a13 01       		.uleb128 0x1
 6903 1a14 50       		.byte	0x50
 6904 1a15 02       		.uleb128 0x2
 6905 1a16 08       		.byte	0x8
 6906 1a17 32       		.byte	0x32
 6907 1a18 00       		.byte	0
 6908 1a19 2C       		.uleb128 0x2c
 6909 1a1a 16000000 		.4byte	.LVL102
 6910 1a1e B3270000 		.4byte	0x27b3
 6911 1a22 301A0000 		.4byte	0x1a30
 6912 1a26 2D       		.uleb128 0x2d
 6913 1a27 01       		.uleb128 0x1
 6914 1a28 50       		.byte	0x50
 6915 1a29 05       		.uleb128 0x5
 6916 1a2a 03       		.byte	0x3
 6917 1a2b 00000000 		.4byte	.LANCHOR1
 6918 1a2f 00       		.byte	0
 6919 1a30 2F       		.uleb128 0x2f
 6920 1a31 2A000000 		.4byte	.LVL103
ARM GAS  /var/folders/d2/nstgp4h54kz7g1l847x_b8wc0000gn/T//ccSYBGul.s 			page 123


 6921 1a35 C9270000 		.4byte	0x27c9
 6922 1a39 471A0000 		.4byte	0x1a47
 6923 1a3d 2D       		.uleb128 0x2d
 6924 1a3e 01       		.uleb128 0x1
 6925 1a3f 50       		.byte	0x50
 6926 1a40 05       		.uleb128 0x5
 6927 1a41 03       		.byte	0x3
 6928 1a42 00000000 		.4byte	.LANCHOR1
 6929 1a46 00       		.byte	0
 6930 1a47 2E       		.uleb128 0x2e
 6931 1a48 2E000000 		.4byte	.LVL104
 6932 1a4c AA270000 		.4byte	0x27aa
 6933 1a50 00       		.byte	0
 6934 1a51 31       		.uleb128 0x31
 6935 1a52 57030000 		.4byte	.LASF194
 6936 1a56 01       		.byte	0x1
 6937 1a57 4C01     		.2byte	0x14c
 6938 1a59 28       		.uleb128 0x28
 6939 1a5a A9030000 		.4byte	.LASF195
 6940 1a5e 01       		.byte	0x1
 6941 1a5f 2B01     		.2byte	0x12b
 6942 1a61 00000000 		.4byte	.LFB233
 6943 1a65 28010000 		.4byte	.LFE233-.LFB233
 6944 1a69 01       		.uleb128 0x1
 6945 1a6a 9C       		.byte	0x9c
 6946 1a6b E51C0000 		.4byte	0x1ce5
 6947 1a6f 29       		.uleb128 0x29
 6948 1a70 180A0000 		.4byte	.LASF196
 6949 1a74 01       		.byte	0x1
 6950 1a75 2C01     		.2byte	0x12c
 6951 1a77 69010000 		.4byte	0x169
 6952 1a7b 2A       		.uleb128 0x2a
 6953 1a7c 53260000 		.4byte	0x2653
 6954 1a80 14000000 		.4byte	.LBB448
 6955 1a84 48010000 		.4byte	.Ldebug_ranges0+0x148
 6956 1a88 01       		.byte	0x1
 6957 1a89 2F01     		.2byte	0x12f
 6958 1a8b 6E1B0000 		.4byte	0x1b6e
 6959 1a8f 34       		.uleb128 0x34
 6960 1a90 48010000 		.4byte	.Ldebug_ranges0+0x148
 6961 1a94 35       		.uleb128 0x35
 6962 1a95 63260000 		.4byte	0x2663
 6963 1a99 3F       		.uleb128 0x3f
 6964 1a9a AB260000 		.4byte	0x26ab
 6965 1a9e 14000000 		.4byte	.LBB450
 6966 1aa2 60010000 		.4byte	.Ldebug_ranges0+0x160
 6967 1aa6 06       		.byte	0x6
 6968 1aa7 FA       		.byte	0xfa
 6969 1aa8 EE1A0000 		.4byte	0x1aee
 6970 1aac 36       		.uleb128 0x36
 6971 1aad E1260000 		.4byte	0x26e1
 6972 1ab1 14000000 		.4byte	.LBB452
 6973 1ab5 06000000 		.4byte	.LBE452-.LBB452
 6974 1ab9 04       		.byte	0x4
 6975 1aba 5C01     		.2byte	0x15c
 6976 1abc DB1A0000 		.4byte	0x1adb
 6977 1ac0 37       		.uleb128 0x37
ARM GAS  /var/folders/d2/nstgp4h54kz7g1l847x_b8wc0000gn/T//ccSYBGul.s 			page 124


 6978 1ac1 EA260000 		.4byte	0x26ea
 6979 1ac5 14000000 		.4byte	.LBB453
 6980 1ac9 06000000 		.4byte	.LBE453-.LBB453
 6981 1acd 0F       		.byte	0xf
 6982 1ace BF01     		.2byte	0x1bf
 6983 1ad0 33       		.uleb128 0x33
 6984 1ad1 F7260000 		.4byte	0x26f7
 6985 1ad5 75010000 		.4byte	.LLST22
 6986 1ad9 00       		.byte	0
 6987 1ada 00       		.byte	0
 6988 1adb 2E       		.uleb128 0x2e
 6989 1adc 20000000 		.4byte	.LVL241
 6990 1ae0 00280000 		.4byte	0x2800
 6991 1ae4 2E       		.uleb128 0x2e
 6992 1ae5 24000000 		.4byte	.LVL242
 6993 1ae9 0B280000 		.4byte	0x280b
 6994 1aed 00       		.byte	0
 6995 1aee 40       		.uleb128 0x40
 6996 1aef 6F260000 		.4byte	0x266f
 6997 1af3 1A000000 		.4byte	.LBB456
 6998 1af7 78010000 		.4byte	.Ldebug_ranges0+0x178
 6999 1afb 06       		.byte	0x6
 7000 1afc FB       		.byte	0xfb
 7001 1afd 41       		.uleb128 0x41
 7002 1afe 7B260000 		.4byte	0x267b
 7003 1b02 28000000 		.4byte	.LBB461
 7004 1b06 90010000 		.4byte	.Ldebug_ranges0+0x190
 7005 1b0a 06       		.byte	0x6
 7006 1b0b FC       		.byte	0xfc
 7007 1b0c 34       		.uleb128 0x34
 7008 1b0d 90010000 		.4byte	.Ldebug_ranges0+0x190
 7009 1b11 35       		.uleb128 0x35
 7010 1b12 88260000 		.4byte	0x2688
 7011 1b16 36       		.uleb128 0x36
 7012 1b17 D8260000 		.4byte	0x26d8
 7013 1b1b 40000000 		.4byte	.LBB463
 7014 1b1f 06000000 		.4byte	.LBE463-.LBB463
 7015 1b23 04       		.byte	0x4
 7016 1b24 7301     		.2byte	0x173
 7017 1b26 451B0000 		.4byte	0x1b45
 7018 1b2a 37       		.uleb128 0x37
 7019 1b2b EA260000 		.4byte	0x26ea
 7020 1b2f 40000000 		.4byte	.LBB464
 7021 1b33 06000000 		.4byte	.LBE464-.LBB464
 7022 1b37 0F       		.byte	0xf
 7023 1b38 CD01     		.2byte	0x1cd
 7024 1b3a 33       		.uleb128 0x33
 7025 1b3b F7260000 		.4byte	0x26f7
 7026 1b3f 8A010000 		.4byte	.LLST23
 7027 1b43 00       		.byte	0
 7028 1b44 00       		.byte	0
 7029 1b45 2E       		.uleb128 0x2e
 7030 1b46 2C000000 		.4byte	.LVL243
 7031 1b4a 16280000 		.4byte	0x2816
 7032 1b4e 2E       		.uleb128 0x2e
 7033 1b4f 30000000 		.4byte	.LVL244
 7034 1b53 21280000 		.4byte	0x2821
ARM GAS  /var/folders/d2/nstgp4h54kz7g1l847x_b8wc0000gn/T//ccSYBGul.s 			page 125


 7035 1b57 38       		.uleb128 0x38
 7036 1b58 DC000000 		.4byte	.LVL254
 7037 1b5c 2C280000 		.4byte	0x282c
 7038 1b60 2D       		.uleb128 0x2d
 7039 1b61 01       		.uleb128 0x1
 7040 1b62 50       		.byte	0x50
 7041 1b63 05       		.uleb128 0x5
 7042 1b64 03       		.byte	0x3
 7043 1b65 00000000 		.4byte	.LANCHOR2
 7044 1b69 00       		.byte	0
 7045 1b6a 00       		.byte	0
 7046 1b6b 00       		.byte	0
 7047 1b6c 00       		.byte	0
 7048 1b6d 00       		.byte	0
 7049 1b6e 3C       		.uleb128 0x3c
 7050 1b6f 3B260000 		.4byte	0x263b
 7051 1b73 46000000 		.4byte	.LBB469
 7052 1b77 02000000 		.4byte	.LBE469-.LBB469
 7053 1b7b 01       		.byte	0x1
 7054 1b7c 3001     		.2byte	0x130
 7055 1b7e 3C       		.uleb128 0x3c
 7056 1b7f 3B260000 		.4byte	0x263b
 7057 1b83 5E000000 		.4byte	.LBB471
 7058 1b87 02000000 		.4byte	.LBE471-.LBB471
 7059 1b8b 01       		.byte	0x1
 7060 1b8c 3101     		.2byte	0x131
 7061 1b8e 3C       		.uleb128 0x3c
 7062 1b8f 3B260000 		.4byte	0x263b
 7063 1b93 74000000 		.4byte	.LBB473
 7064 1b97 02000000 		.4byte	.LBE473-.LBB473
 7065 1b9b 01       		.byte	0x1
 7066 1b9c 3201     		.2byte	0x132
 7067 1b9e 3C       		.uleb128 0x3c
 7068 1b9f 3B260000 		.4byte	0x263b
 7069 1ba3 8A000000 		.4byte	.LBB475
 7070 1ba7 02000000 		.4byte	.LBE475-.LBB475
 7071 1bab 01       		.byte	0x1
 7072 1bac 3301     		.2byte	0x133
 7073 1bae 3C       		.uleb128 0x3c
 7074 1baf 3B260000 		.4byte	0x263b
 7075 1bb3 A0000000 		.4byte	.LBB477
 7076 1bb7 02000000 		.4byte	.LBE477-.LBB477
 7077 1bbb 01       		.byte	0x1
 7078 1bbc 3401     		.2byte	0x134
 7079 1bbe 2E       		.uleb128 0x2e
 7080 1bbf 14000000 		.4byte	.LVL239
 7081 1bc3 86280000 		.4byte	0x2886
 7082 1bc7 2C       		.uleb128 0x2c
 7083 1bc8 5C000000 		.4byte	.LVL247
 7084 1bcc 7E270000 		.4byte	0x277e
 7085 1bd0 F31B0000 		.4byte	0x1bf3
 7086 1bd4 2D       		.uleb128 0x2d
 7087 1bd5 01       		.uleb128 0x1
 7088 1bd6 50       		.byte	0x50
 7089 1bd7 03       		.uleb128 0x3
 7090 1bd8 77       		.byte	0x77
 7091 1bd9 00       		.sleb128 0
ARM GAS  /var/folders/d2/nstgp4h54kz7g1l847x_b8wc0000gn/T//ccSYBGul.s 			page 126


 7092 1bda 06       		.byte	0x6
 7093 1bdb 2D       		.uleb128 0x2d
 7094 1bdc 01       		.uleb128 0x1
 7095 1bdd 51       		.byte	0x51
 7096 1bde 03       		.uleb128 0x3
 7097 1bdf 0A       		.byte	0xa
 7098 1be0 F801     		.2byte	0x1f8
 7099 1be2 2D       		.uleb128 0x2d
 7100 1be3 01       		.uleb128 0x1
 7101 1be4 53       		.byte	0x53
 7102 1be5 05       		.uleb128 0x5
 7103 1be6 03       		.byte	0x3
 7104 1be7 00000000 		.4byte	thread3LL
 7105 1beb 2D       		.uleb128 0x2d
 7106 1bec 02       		.uleb128 0x2
 7107 1bed 7D       		.byte	0x7d
 7108 1bee 00       		.sleb128 0
 7109 1bef 02       		.uleb128 0x2
 7110 1bf0 75       		.byte	0x75
 7111 1bf1 00       		.sleb128 0
 7112 1bf2 00       		.byte	0
 7113 1bf3 2C       		.uleb128 0x2c
 7114 1bf4 74000000 		.4byte	.LVL248
 7115 1bf8 7E270000 		.4byte	0x277e
 7116 1bfc 1F1C0000 		.4byte	0x1c1f
 7117 1c00 2D       		.uleb128 0x2d
 7118 1c01 01       		.uleb128 0x1
 7119 1c02 50       		.byte	0x50
 7120 1c03 03       		.uleb128 0x3
 7121 1c04 77       		.byte	0x77
 7122 1c05 04       		.sleb128 4
 7123 1c06 06       		.byte	0x6
 7124 1c07 2D       		.uleb128 0x2d
 7125 1c08 01       		.uleb128 0x1
 7126 1c09 51       		.byte	0x51
 7127 1c0a 03       		.uleb128 0x3
 7128 1c0b 0A       		.byte	0xa
 7129 1c0c F801     		.2byte	0x1f8
 7130 1c0e 2D       		.uleb128 0x2d
 7131 1c0f 01       		.uleb128 0x1
 7132 1c10 53       		.byte	0x53
 7133 1c11 05       		.uleb128 0x5
 7134 1c12 03       		.byte	0x3
 7135 1c13 00000000 		.4byte	thread3L
 7136 1c17 2D       		.uleb128 0x2d
 7137 1c18 02       		.uleb128 0x2
 7138 1c19 7D       		.byte	0x7d
 7139 1c1a 00       		.sleb128 0
 7140 1c1b 02       		.uleb128 0x2
 7141 1c1c 75       		.byte	0x75
 7142 1c1d 00       		.sleb128 0
 7143 1c1e 00       		.byte	0
 7144 1c1f 2C       		.uleb128 0x2c
 7145 1c20 8A000000 		.4byte	.LVL249
 7146 1c24 7E270000 		.4byte	0x277e
 7147 1c28 4B1C0000 		.4byte	0x1c4b
 7148 1c2c 2D       		.uleb128 0x2d
ARM GAS  /var/folders/d2/nstgp4h54kz7g1l847x_b8wc0000gn/T//ccSYBGul.s 			page 127


 7149 1c2d 01       		.uleb128 0x1
 7150 1c2e 50       		.byte	0x50
 7151 1c2f 03       		.uleb128 0x3
 7152 1c30 77       		.byte	0x77
 7153 1c31 08       		.sleb128 8
 7154 1c32 06       		.byte	0x6
 7155 1c33 2D       		.uleb128 0x2d
 7156 1c34 01       		.uleb128 0x1
 7157 1c35 51       		.byte	0x51
 7158 1c36 03       		.uleb128 0x3
 7159 1c37 0A       		.byte	0xa
 7160 1c38 F801     		.2byte	0x1f8
 7161 1c3a 2D       		.uleb128 0x2d
 7162 1c3b 01       		.uleb128 0x1
 7163 1c3c 53       		.byte	0x53
 7164 1c3d 05       		.uleb128 0x5
 7165 1c3e 03       		.byte	0x3
 7166 1c3f 00000000 		.4byte	thread3M
 7167 1c43 2D       		.uleb128 0x2d
 7168 1c44 02       		.uleb128 0x2
 7169 1c45 7D       		.byte	0x7d
 7170 1c46 00       		.sleb128 0
 7171 1c47 02       		.uleb128 0x2
 7172 1c48 75       		.byte	0x75
 7173 1c49 00       		.sleb128 0
 7174 1c4a 00       		.byte	0
 7175 1c4b 2C       		.uleb128 0x2c
 7176 1c4c A0000000 		.4byte	.LVL250
 7177 1c50 7E270000 		.4byte	0x277e
 7178 1c54 771C0000 		.4byte	0x1c77
 7179 1c58 2D       		.uleb128 0x2d
 7180 1c59 01       		.uleb128 0x1
 7181 1c5a 50       		.byte	0x50
 7182 1c5b 03       		.uleb128 0x3
 7183 1c5c 77       		.byte	0x77
 7184 1c5d 0C       		.sleb128 12
 7185 1c5e 06       		.byte	0x6
 7186 1c5f 2D       		.uleb128 0x2d
 7187 1c60 01       		.uleb128 0x1
 7188 1c61 51       		.byte	0x51
 7189 1c62 03       		.uleb128 0x3
 7190 1c63 0A       		.byte	0xa
 7191 1c64 F801     		.2byte	0x1f8
 7192 1c66 2D       		.uleb128 0x2d
 7193 1c67 01       		.uleb128 0x1
 7194 1c68 53       		.byte	0x53
 7195 1c69 05       		.uleb128 0x5
 7196 1c6a 03       		.byte	0x3
 7197 1c6b 00000000 		.4byte	thread3H
 7198 1c6f 2D       		.uleb128 0x2d
 7199 1c70 02       		.uleb128 0x2
 7200 1c71 7D       		.byte	0x7d
 7201 1c72 00       		.sleb128 0
 7202 1c73 02       		.uleb128 0x2
 7203 1c74 75       		.byte	0x75
 7204 1c75 00       		.sleb128 0
 7205 1c76 00       		.byte	0
ARM GAS  /var/folders/d2/nstgp4h54kz7g1l847x_b8wc0000gn/T//ccSYBGul.s 			page 128


 7206 1c77 2C       		.uleb128 0x2c
 7207 1c78 B6000000 		.4byte	.LVL251
 7208 1c7c 7E270000 		.4byte	0x277e
 7209 1c80 A31C0000 		.4byte	0x1ca3
 7210 1c84 2D       		.uleb128 0x2d
 7211 1c85 01       		.uleb128 0x1
 7212 1c86 50       		.byte	0x50
 7213 1c87 03       		.uleb128 0x3
 7214 1c88 77       		.byte	0x77
 7215 1c89 10       		.sleb128 16
 7216 1c8a 06       		.byte	0x6
 7217 1c8b 2D       		.uleb128 0x2d
 7218 1c8c 01       		.uleb128 0x1
 7219 1c8d 51       		.byte	0x51
 7220 1c8e 03       		.uleb128 0x3
 7221 1c8f 0A       		.byte	0xa
 7222 1c90 F801     		.2byte	0x1f8
 7223 1c92 2D       		.uleb128 0x2d
 7224 1c93 01       		.uleb128 0x1
 7225 1c94 53       		.byte	0x53
 7226 1c95 05       		.uleb128 0x5
 7227 1c96 03       		.byte	0x3
 7228 1c97 00000000 		.4byte	thread3HH
 7229 1c9b 2D       		.uleb128 0x2d
 7230 1c9c 02       		.uleb128 0x2
 7231 1c9d 7D       		.byte	0x7d
 7232 1c9e 00       		.sleb128 0
 7233 1c9f 02       		.uleb128 0x2
 7234 1ca0 75       		.byte	0x75
 7235 1ca1 00       		.sleb128 0
 7236 1ca2 00       		.byte	0
 7237 1ca3 2E       		.uleb128 0x2e
 7238 1ca4 BC000000 		.4byte	.LVL252
 7239 1ca8 94270000 		.4byte	0x2794
 7240 1cac 2C       		.uleb128 0x2c
 7241 1cad C4000000 		.4byte	.LVL253
 7242 1cb1 9F270000 		.4byte	0x279f
 7243 1cb5 C81C0000 		.4byte	0x1cc8
 7244 1cb9 2D       		.uleb128 0x2d
 7245 1cba 01       		.uleb128 0x1
 7246 1cbb 50       		.byte	0x50
 7247 1cbc 01       		.uleb128 0x1
 7248 1cbd 31       		.byte	0x31
 7249 1cbe 2D       		.uleb128 0x2d
 7250 1cbf 01       		.uleb128 0x1
 7251 1cc0 51       		.byte	0x51
 7252 1cc1 05       		.uleb128 0x5
 7253 1cc2 03       		.byte	0x3
 7254 1cc3 14000000 		.4byte	.LC5
 7255 1cc7 00       		.byte	0
 7256 1cc8 2F       		.uleb128 0x2f
 7257 1cc9 F6000000 		.4byte	.LVL255
 7258 1ccd 91280000 		.4byte	0x2891
 7259 1cd1 DB1C0000 		.4byte	0x1cdb
 7260 1cd5 2D       		.uleb128 0x2d
 7261 1cd6 01       		.uleb128 0x1
 7262 1cd7 50       		.byte	0x50
ARM GAS  /var/folders/d2/nstgp4h54kz7g1l847x_b8wc0000gn/T//ccSYBGul.s 			page 129


 7263 1cd8 01       		.uleb128 0x1
 7264 1cd9 32       		.byte	0x32
 7265 1cda 00       		.byte	0
 7266 1cdb 2E       		.uleb128 0x2e
 7267 1cdc FA000000 		.4byte	.LVL256
 7268 1ce0 AA270000 		.4byte	0x27aa
 7269 1ce4 00       		.byte	0
 7270 1ce5 28       		.uleb128 0x28
 7271 1ce6 95010000 		.4byte	.LASF197
 7272 1cea 01       		.byte	0x1
 7273 1ceb 2101     		.2byte	0x121
 7274 1ced 00000000 		.4byte	.LFB232
 7275 1cf1 44000000 		.4byte	.LFE232-.LFB232
 7276 1cf5 01       		.uleb128 0x1
 7277 1cf6 9C       		.byte	0x9c
 7278 1cf7 7C1D0000 		.4byte	0x1d7c
 7279 1cfb 30       		.uleb128 0x30
 7280 1cfc 7000     		.ascii	"p\000"
 7281 1cfe 01       		.byte	0x1
 7282 1cff 2101     		.2byte	0x121
 7283 1d01 8F030000 		.4byte	0x38f
 7284 1d05 9E010000 		.4byte	.LLST6
 7285 1d09 2C       		.uleb128 0x2c
 7286 1d0a 10000000 		.4byte	.LVL61
 7287 1d0e 65280000 		.4byte	0x2865
 7288 1d12 1D1D0000 		.4byte	0x1d1d
 7289 1d16 2D       		.uleb128 0x2d
 7290 1d17 01       		.uleb128 0x1
 7291 1d18 50       		.byte	0x50
 7292 1d19 02       		.uleb128 0x2
 7293 1d1a 08       		.byte	0x8
 7294 1d1b 32       		.byte	0x32
 7295 1d1c 00       		.byte	0
 7296 1d1d 2C       		.uleb128 0x2c
 7297 1d1e 16000000 		.4byte	.LVL62
 7298 1d22 B3270000 		.4byte	0x27b3
 7299 1d26 341D0000 		.4byte	0x1d34
 7300 1d2a 2D       		.uleb128 0x2d
 7301 1d2b 01       		.uleb128 0x1
 7302 1d2c 50       		.byte	0x50
 7303 1d2d 05       		.uleb128 0x5
 7304 1d2e 03       		.byte	0x3
 7305 1d2f 00000000 		.4byte	.LANCHOR1
 7306 1d33 00       		.byte	0
 7307 1d34 2C       		.uleb128 0x2c
 7308 1d35 1C000000 		.4byte	.LVL63
 7309 1d39 9C280000 		.4byte	0x289c
 7310 1d3d 471D0000 		.4byte	0x1d47
 7311 1d41 2D       		.uleb128 0x2d
 7312 1d42 01       		.uleb128 0x1
 7313 1d43 50       		.byte	0x50
 7314 1d44 01       		.uleb128 0x1
 7315 1d45 3A       		.byte	0x3a
 7316 1d46 00       		.byte	0
 7317 1d47 2C       		.uleb128 0x2c
 7318 1d48 22000000 		.4byte	.LVL64
 7319 1d4c C9270000 		.4byte	0x27c9
ARM GAS  /var/folders/d2/nstgp4h54kz7g1l847x_b8wc0000gn/T//ccSYBGul.s 			page 130


 7320 1d50 5E1D0000 		.4byte	0x1d5e
 7321 1d54 2D       		.uleb128 0x2d
 7322 1d55 01       		.uleb128 0x1
 7323 1d56 50       		.byte	0x50
 7324 1d57 05       		.uleb128 0x5
 7325 1d58 03       		.byte	0x3
 7326 1d59 00000000 		.4byte	.LANCHOR1
 7327 1d5d 00       		.byte	0
 7328 1d5e 2F       		.uleb128 0x2f
 7329 1d5f 36000000 		.4byte	.LVL65
 7330 1d63 BE270000 		.4byte	0x27be
 7331 1d67 721D0000 		.4byte	0x1d72
 7332 1d6b 2D       		.uleb128 0x2d
 7333 1d6c 01       		.uleb128 0x1
 7334 1d6d 50       		.byte	0x50
 7335 1d6e 02       		.uleb128 0x2
 7336 1d6f 08       		.byte	0x8
 7337 1d70 41       		.byte	0x41
 7338 1d71 00       		.byte	0
 7339 1d72 2E       		.uleb128 0x2e
 7340 1d73 3A000000 		.4byte	.LVL66
 7341 1d77 AA270000 		.4byte	0x27aa
 7342 1d7b 00       		.byte	0
 7343 1d7c 28       		.uleb128 0x28
 7344 1d7d 97030000 		.4byte	.LASF198
 7345 1d81 01       		.byte	0x1
 7346 1d82 1801     		.2byte	0x118
 7347 1d84 00000000 		.4byte	.LFB231
 7348 1d88 34000000 		.4byte	.LFE231-.LFB231
 7349 1d8c 01       		.uleb128 0x1
 7350 1d8d 9C       		.byte	0x9c
 7351 1d8e E51D0000 		.4byte	0x1de5
 7352 1d92 30       		.uleb128 0x30
 7353 1d93 7000     		.ascii	"p\000"
 7354 1d95 01       		.byte	0x1
 7355 1d96 1801     		.2byte	0x118
 7356 1d98 8F030000 		.4byte	0x38f
 7357 1d9c BF010000 		.4byte	.LLST7
 7358 1da0 2C       		.uleb128 0x2c
 7359 1da1 10000000 		.4byte	.LVL69
 7360 1da5 65280000 		.4byte	0x2865
 7361 1da9 B41D0000 		.4byte	0x1db4
 7362 1dad 2D       		.uleb128 0x2d
 7363 1dae 01       		.uleb128 0x1
 7364 1daf 50       		.byte	0x50
 7365 1db0 02       		.uleb128 0x2
 7366 1db1 08       		.byte	0x8
 7367 1db2 28       		.byte	0x28
 7368 1db3 00       		.byte	0
 7369 1db4 2C       		.uleb128 0x2c
 7370 1db5 16000000 		.4byte	.LVL70
 7371 1db9 9C280000 		.4byte	0x289c
 7372 1dbd C71D0000 		.4byte	0x1dc7
 7373 1dc1 2D       		.uleb128 0x2d
 7374 1dc2 01       		.uleb128 0x1
 7375 1dc3 50       		.byte	0x50
 7376 1dc4 01       		.uleb128 0x1
ARM GAS  /var/folders/d2/nstgp4h54kz7g1l847x_b8wc0000gn/T//ccSYBGul.s 			page 131


 7377 1dc5 44       		.byte	0x44
 7378 1dc6 00       		.byte	0
 7379 1dc7 2F       		.uleb128 0x2f
 7380 1dc8 2A000000 		.4byte	.LVL71
 7381 1dcc BE270000 		.4byte	0x27be
 7382 1dd0 DB1D0000 		.4byte	0x1ddb
 7383 1dd4 2D       		.uleb128 0x2d
 7384 1dd5 01       		.uleb128 0x1
 7385 1dd6 50       		.byte	0x50
 7386 1dd7 02       		.uleb128 0x2
 7387 1dd8 08       		.byte	0x8
 7388 1dd9 42       		.byte	0x42
 7389 1dda 00       		.byte	0
 7390 1ddb 2E       		.uleb128 0x2e
 7391 1ddc 2E000000 		.4byte	.LVL72
 7392 1de0 AA270000 		.4byte	0x27aa
 7393 1de4 00       		.byte	0
 7394 1de5 28       		.uleb128 0x28
 7395 1de6 A0030000 		.4byte	.LASF199
 7396 1dea 01       		.byte	0x1
 7397 1deb 0D01     		.2byte	0x10d
 7398 1ded 00000000 		.4byte	.LFB230
 7399 1df1 44000000 		.4byte	.LFE230-.LFB230
 7400 1df5 01       		.uleb128 0x1
 7401 1df6 9C       		.byte	0x9c
 7402 1df7 7B1E0000 		.4byte	0x1e7b
 7403 1dfb 30       		.uleb128 0x30
 7404 1dfc 7000     		.ascii	"p\000"
 7405 1dfe 01       		.byte	0x1
 7406 1dff 0D01     		.2byte	0x10d
 7407 1e01 8F030000 		.4byte	0x38f
 7408 1e05 E0010000 		.4byte	.LLST8
 7409 1e09 2C       		.uleb128 0x2c
 7410 1e0a 10000000 		.4byte	.LVL75
 7411 1e0e 65280000 		.4byte	0x2865
 7412 1e12 1C1E0000 		.4byte	0x1e1c
 7413 1e16 2D       		.uleb128 0x2d
 7414 1e17 01       		.uleb128 0x1
 7415 1e18 50       		.byte	0x50
 7416 1e19 01       		.uleb128 0x1
 7417 1e1a 44       		.byte	0x44
 7418 1e1b 00       		.byte	0
 7419 1e1c 2C       		.uleb128 0x2c
 7420 1e1d 16000000 		.4byte	.LVL76
 7421 1e21 B3270000 		.4byte	0x27b3
 7422 1e25 331E0000 		.4byte	0x1e33
 7423 1e29 2D       		.uleb128 0x2d
 7424 1e2a 01       		.uleb128 0x1
 7425 1e2b 50       		.byte	0x50
 7426 1e2c 05       		.uleb128 0x5
 7427 1e2d 03       		.byte	0x3
 7428 1e2e 00000000 		.4byte	.LANCHOR1
 7429 1e32 00       		.byte	0
 7430 1e33 2C       		.uleb128 0x2c
 7431 1e34 1C000000 		.4byte	.LVL77
 7432 1e38 9C280000 		.4byte	0x289c
 7433 1e3c 461E0000 		.4byte	0x1e46
ARM GAS  /var/folders/d2/nstgp4h54kz7g1l847x_b8wc0000gn/T//ccSYBGul.s 			page 132


 7434 1e40 2D       		.uleb128 0x2d
 7435 1e41 01       		.uleb128 0x1
 7436 1e42 50       		.byte	0x50
 7437 1e43 01       		.uleb128 0x1
 7438 1e44 3A       		.byte	0x3a
 7439 1e45 00       		.byte	0
 7440 1e46 2C       		.uleb128 0x2c
 7441 1e47 22000000 		.4byte	.LVL78
 7442 1e4b C9270000 		.4byte	0x27c9
 7443 1e4f 5D1E0000 		.4byte	0x1e5d
 7444 1e53 2D       		.uleb128 0x2d
 7445 1e54 01       		.uleb128 0x1
 7446 1e55 50       		.byte	0x50
 7447 1e56 05       		.uleb128 0x5
 7448 1e57 03       		.byte	0x3
 7449 1e58 00000000 		.4byte	.LANCHOR1
 7450 1e5c 00       		.byte	0
 7451 1e5d 2F       		.uleb128 0x2f
 7452 1e5e 36000000 		.4byte	.LVL79
 7453 1e62 BE270000 		.4byte	0x27be
 7454 1e66 711E0000 		.4byte	0x1e71
 7455 1e6a 2D       		.uleb128 0x2d
 7456 1e6b 01       		.uleb128 0x1
 7457 1e6c 50       		.byte	0x50
 7458 1e6d 02       		.uleb128 0x2
 7459 1e6e 08       		.byte	0x8
 7460 1e6f 43       		.byte	0x43
 7461 1e70 00       		.byte	0
 7462 1e71 2E       		.uleb128 0x2e
 7463 1e72 3A000000 		.4byte	.LVL80
 7464 1e76 AA270000 		.4byte	0x27aa
 7465 1e7a 00       		.byte	0
 7466 1e7b 42       		.uleb128 0x42
 7467 1e7c AF0C0000 		.4byte	.LASF200
 7468 1e80 01       		.byte	0x1
 7469 1e81 FE       		.byte	0xfe
 7470 1e82 00000000 		.4byte	.LFB229
 7471 1e86 60000000 		.4byte	.LFE229-.LFB229
 7472 1e8a 01       		.uleb128 0x1
 7473 1e8b 9C       		.byte	0x9c
 7474 1e8c 631F0000 		.4byte	0x1f63
 7475 1e90 43       		.uleb128 0x43
 7476 1e91 7000     		.ascii	"p\000"
 7477 1e93 01       		.byte	0x1
 7478 1e94 FE       		.byte	0xfe
 7479 1e95 8F030000 		.4byte	0x38f
 7480 1e99 01020000 		.4byte	.LLST9
 7481 1e9d 2C       		.uleb128 0x2c
 7482 1e9e 10000000 		.4byte	.LVL83
 7483 1ea2 65280000 		.4byte	0x2865
 7484 1ea6 B01E0000 		.4byte	0x1eb0
 7485 1eaa 2D       		.uleb128 0x2d
 7486 1eab 01       		.uleb128 0x1
 7487 1eac 50       		.byte	0x50
 7488 1ead 01       		.uleb128 0x1
 7489 1eae 3A       		.byte	0x3a
 7490 1eaf 00       		.byte	0
ARM GAS  /var/folders/d2/nstgp4h54kz7g1l847x_b8wc0000gn/T//ccSYBGul.s 			page 133


 7491 1eb0 2C       		.uleb128 0x2c
 7492 1eb1 16000000 		.4byte	.LVL84
 7493 1eb5 B3270000 		.4byte	0x27b3
 7494 1eb9 C71E0000 		.4byte	0x1ec7
 7495 1ebd 2D       		.uleb128 0x2d
 7496 1ebe 01       		.uleb128 0x1
 7497 1ebf 50       		.byte	0x50
 7498 1ec0 05       		.uleb128 0x5
 7499 1ec1 03       		.byte	0x3
 7500 1ec2 00000000 		.4byte	.LANCHOR1
 7501 1ec6 00       		.byte	0
 7502 1ec7 2C       		.uleb128 0x2c
 7503 1ec8 1C000000 		.4byte	.LVL85
 7504 1ecc 9C280000 		.4byte	0x289c
 7505 1ed0 DA1E0000 		.4byte	0x1eda
 7506 1ed4 2D       		.uleb128 0x2d
 7507 1ed5 01       		.uleb128 0x1
 7508 1ed6 50       		.byte	0x50
 7509 1ed7 01       		.uleb128 0x1
 7510 1ed8 44       		.byte	0x44
 7511 1ed9 00       		.byte	0
 7512 1eda 2C       		.uleb128 0x2c
 7513 1edb 22000000 		.4byte	.LVL86
 7514 1edf B3270000 		.4byte	0x27b3
 7515 1ee3 F11E0000 		.4byte	0x1ef1
 7516 1ee7 2D       		.uleb128 0x2d
 7517 1ee8 01       		.uleb128 0x1
 7518 1ee9 50       		.byte	0x50
 7519 1eea 05       		.uleb128 0x5
 7520 1eeb 03       		.byte	0x3
 7521 1eec 00000000 		.4byte	.LANCHOR0
 7522 1ef0 00       		.byte	0
 7523 1ef1 2C       		.uleb128 0x2c
 7524 1ef2 28000000 		.4byte	.LVL87
 7525 1ef6 9C280000 		.4byte	0x289c
 7526 1efa 041F0000 		.4byte	0x1f04
 7527 1efe 2D       		.uleb128 0x2d
 7528 1eff 01       		.uleb128 0x1
 7529 1f00 50       		.byte	0x50
 7530 1f01 01       		.uleb128 0x1
 7531 1f02 3A       		.byte	0x3a
 7532 1f03 00       		.byte	0
 7533 1f04 2C       		.uleb128 0x2c
 7534 1f05 2E000000 		.4byte	.LVL88
 7535 1f09 C9270000 		.4byte	0x27c9
 7536 1f0d 1B1F0000 		.4byte	0x1f1b
 7537 1f11 2D       		.uleb128 0x2d
 7538 1f12 01       		.uleb128 0x1
 7539 1f13 50       		.byte	0x50
 7540 1f14 05       		.uleb128 0x5
 7541 1f15 03       		.byte	0x3
 7542 1f16 00000000 		.4byte	.LANCHOR0
 7543 1f1a 00       		.byte	0
 7544 1f1b 2C       		.uleb128 0x2c
 7545 1f1c 34000000 		.4byte	.LVL89
 7546 1f20 9C280000 		.4byte	0x289c
 7547 1f24 2E1F0000 		.4byte	0x1f2e
ARM GAS  /var/folders/d2/nstgp4h54kz7g1l847x_b8wc0000gn/T//ccSYBGul.s 			page 134


 7548 1f28 2D       		.uleb128 0x2d
 7549 1f29 01       		.uleb128 0x1
 7550 1f2a 50       		.byte	0x50
 7551 1f2b 01       		.uleb128 0x1
 7552 1f2c 3A       		.byte	0x3a
 7553 1f2d 00       		.byte	0
 7554 1f2e 2C       		.uleb128 0x2c
 7555 1f2f 3A000000 		.4byte	.LVL90
 7556 1f33 C9270000 		.4byte	0x27c9
 7557 1f37 451F0000 		.4byte	0x1f45
 7558 1f3b 2D       		.uleb128 0x2d
 7559 1f3c 01       		.uleb128 0x1
 7560 1f3d 50       		.byte	0x50
 7561 1f3e 05       		.uleb128 0x5
 7562 1f3f 03       		.byte	0x3
 7563 1f40 00000000 		.4byte	.LANCHOR1
 7564 1f44 00       		.byte	0
 7565 1f45 2F       		.uleb128 0x2f
 7566 1f46 4E000000 		.4byte	.LVL91
 7567 1f4a BE270000 		.4byte	0x27be
 7568 1f4e 591F0000 		.4byte	0x1f59
 7569 1f52 2D       		.uleb128 0x2d
 7570 1f53 01       		.uleb128 0x1
 7571 1f54 50       		.byte	0x50
 7572 1f55 02       		.uleb128 0x2
 7573 1f56 08       		.byte	0x8
 7574 1f57 44       		.byte	0x44
 7575 1f58 00       		.byte	0
 7576 1f59 2E       		.uleb128 0x2e
 7577 1f5a 52000000 		.4byte	.LVL92
 7578 1f5e AA270000 		.4byte	0x27aa
 7579 1f62 00       		.byte	0
 7580 1f63 42       		.uleb128 0x42
 7581 1f64 48030000 		.4byte	.LASF201
 7582 1f68 01       		.byte	0x1
 7583 1f69 F4       		.byte	0xf4
 7584 1f6a 00000000 		.4byte	.LFB228
 7585 1f6e 3C000000 		.4byte	.LFE228-.LFB228
 7586 1f72 01       		.uleb128 0x1
 7587 1f73 9C       		.byte	0x9c
 7588 1f74 E41F0000 		.4byte	0x1fe4
 7589 1f78 43       		.uleb128 0x43
 7590 1f79 7000     		.ascii	"p\000"
 7591 1f7b 01       		.byte	0x1
 7592 1f7c F4       		.byte	0xf4
 7593 1f7d 8F030000 		.4byte	0x38f
 7594 1f81 22020000 		.4byte	.LLST3
 7595 1f85 2C       		.uleb128 0x2c
 7596 1f86 10000000 		.4byte	.LVL40
 7597 1f8a B3270000 		.4byte	0x27b3
 7598 1f8e 9C1F0000 		.4byte	0x1f9c
 7599 1f92 2D       		.uleb128 0x2d
 7600 1f93 01       		.uleb128 0x1
 7601 1f94 50       		.byte	0x50
 7602 1f95 05       		.uleb128 0x5
 7603 1f96 03       		.byte	0x3
 7604 1f97 00000000 		.4byte	.LANCHOR0
ARM GAS  /var/folders/d2/nstgp4h54kz7g1l847x_b8wc0000gn/T//ccSYBGul.s 			page 135


 7605 1f9b 00       		.byte	0
 7606 1f9c 2C       		.uleb128 0x2c
 7607 1f9d 16000000 		.4byte	.LVL41
 7608 1fa1 9C280000 		.4byte	0x289c
 7609 1fa5 AF1F0000 		.4byte	0x1faf
 7610 1fa9 2D       		.uleb128 0x2d
 7611 1faa 01       		.uleb128 0x1
 7612 1fab 50       		.byte	0x50
 7613 1fac 01       		.uleb128 0x1
 7614 1fad 4E       		.byte	0x4e
 7615 1fae 00       		.byte	0
 7616 1faf 2C       		.uleb128 0x2c
 7617 1fb0 1C000000 		.4byte	.LVL42
 7618 1fb4 C9270000 		.4byte	0x27c9
 7619 1fb8 C61F0000 		.4byte	0x1fc6
 7620 1fbc 2D       		.uleb128 0x2d
 7621 1fbd 01       		.uleb128 0x1
 7622 1fbe 50       		.byte	0x50
 7623 1fbf 05       		.uleb128 0x5
 7624 1fc0 03       		.byte	0x3
 7625 1fc1 00000000 		.4byte	.LANCHOR0
 7626 1fc5 00       		.byte	0
 7627 1fc6 2F       		.uleb128 0x2f
 7628 1fc7 30000000 		.4byte	.LVL43
 7629 1fcb BE270000 		.4byte	0x27be
 7630 1fcf DA1F0000 		.4byte	0x1fda
 7631 1fd3 2D       		.uleb128 0x2d
 7632 1fd4 01       		.uleb128 0x1
 7633 1fd5 50       		.byte	0x50
 7634 1fd6 02       		.uleb128 0x2
 7635 1fd7 08       		.byte	0x8
 7636 1fd8 45       		.byte	0x45
 7637 1fd9 00       		.byte	0
 7638 1fda 2E       		.uleb128 0x2e
 7639 1fdb 34000000 		.4byte	.LVL44
 7640 1fdf AA270000 		.4byte	0x27aa
 7641 1fe3 00       		.byte	0
 7642 1fe4 42       		.uleb128 0x42
 7643 1fe5 A8020000 		.4byte	.LASF202
 7644 1fe9 01       		.byte	0x1
 7645 1fea ED       		.byte	0xed
 7646 1feb 00000000 		.4byte	.LFB227
 7647 1fef 34000000 		.4byte	.LFE227-.LFB227
 7648 1ff3 01       		.uleb128 0x1
 7649 1ff4 9C       		.byte	0x9c
 7650 1ff5 31200000 		.4byte	0x2031
 7651 1ff9 2C       		.uleb128 0x2c
 7652 1ffa 10000000 		.4byte	.LVL27
 7653 1ffe EA270000 		.4byte	0x27ea
 7654 2002 10200000 		.4byte	0x2010
 7655 2006 2D       		.uleb128 0x2d
 7656 2007 01       		.uleb128 0x1
 7657 2008 50       		.byte	0x50
 7658 2009 05       		.uleb128 0x5
 7659 200a 03       		.byte	0x3
 7660 200b 00000000 		.4byte	.LANCHOR0
 7661 200f 00       		.byte	0
ARM GAS  /var/folders/d2/nstgp4h54kz7g1l847x_b8wc0000gn/T//ccSYBGul.s 			page 136


 7662 2010 2F       		.uleb128 0x2f
 7663 2011 24000000 		.4byte	.LVL28
 7664 2015 EA270000 		.4byte	0x27ea
 7665 2019 27200000 		.4byte	0x2027
 7666 201d 2D       		.uleb128 0x2d
 7667 201e 01       		.uleb128 0x1
 7668 201f 50       		.byte	0x50
 7669 2020 05       		.uleb128 0x5
 7670 2021 03       		.byte	0x3
 7671 2022 00000000 		.4byte	.LANCHOR1
 7672 2026 00       		.byte	0
 7673 2027 2E       		.uleb128 0x2e
 7674 2028 28000000 		.4byte	.LVL29
 7675 202c AA270000 		.4byte	0x27aa
 7676 2030 00       		.byte	0
 7677 2031 42       		.uleb128 0x42
 7678 2032 750C0000 		.4byte	.LASF203
 7679 2036 01       		.byte	0x1
 7680 2037 BA       		.byte	0xba
 7681 2038 00000000 		.4byte	.LFB226
 7682 203c F4000000 		.4byte	.LFE226-.LFB226
 7683 2040 01       		.uleb128 0x1
 7684 2041 9C       		.byte	0x9c
 7685 2042 3F220000 		.4byte	0x223f
 7686 2046 44       		.uleb128 0x44
 7687 2047 180A0000 		.4byte	.LASF196
 7688 204b 01       		.byte	0x1
 7689 204c BB       		.byte	0xbb
 7690 204d 69010000 		.4byte	0x169
 7691 2051 3F       		.uleb128 0x3f
 7692 2052 53260000 		.4byte	0x2653
 7693 2056 14000000 		.4byte	.LBB347
 7694 205a 80000000 		.4byte	.Ldebug_ranges0+0x80
 7695 205e 01       		.byte	0x1
 7696 205f BE       		.byte	0xbe
 7697 2060 43210000 		.4byte	0x2143
 7698 2064 34       		.uleb128 0x34
 7699 2065 80000000 		.4byte	.Ldebug_ranges0+0x80
 7700 2069 35       		.uleb128 0x35
 7701 206a 63260000 		.4byte	0x2663
 7702 206e 3F       		.uleb128 0x3f
 7703 206f AB260000 		.4byte	0x26ab
 7704 2073 14000000 		.4byte	.LBB349
 7705 2077 98000000 		.4byte	.Ldebug_ranges0+0x98
 7706 207b 06       		.byte	0x6
 7707 207c FA       		.byte	0xfa
 7708 207d C3200000 		.4byte	0x20c3
 7709 2081 36       		.uleb128 0x36
 7710 2082 E1260000 		.4byte	0x26e1
 7711 2086 14000000 		.4byte	.LBB351
 7712 208a 06000000 		.4byte	.LBE351-.LBB351
 7713 208e 04       		.byte	0x4
 7714 208f 5C01     		.2byte	0x15c
 7715 2091 B0200000 		.4byte	0x20b0
 7716 2095 37       		.uleb128 0x37
 7717 2096 EA260000 		.4byte	0x26ea
 7718 209a 14000000 		.4byte	.LBB352
ARM GAS  /var/folders/d2/nstgp4h54kz7g1l847x_b8wc0000gn/T//ccSYBGul.s 			page 137


 7719 209e 06000000 		.4byte	.LBE352-.LBB352
 7720 20a2 0F       		.byte	0xf
 7721 20a3 BF01     		.2byte	0x1bf
 7722 20a5 33       		.uleb128 0x33
 7723 20a6 F7260000 		.4byte	0x26f7
 7724 20aa 43020000 		.4byte	.LLST18
 7725 20ae 00       		.byte	0
 7726 20af 00       		.byte	0
 7727 20b0 2E       		.uleb128 0x2e
 7728 20b1 20000000 		.4byte	.LVL202
 7729 20b5 00280000 		.4byte	0x2800
 7730 20b9 2E       		.uleb128 0x2e
 7731 20ba 24000000 		.4byte	.LVL203
 7732 20be 0B280000 		.4byte	0x280b
 7733 20c2 00       		.byte	0
 7734 20c3 40       		.uleb128 0x40
 7735 20c4 6F260000 		.4byte	0x266f
 7736 20c8 1A000000 		.4byte	.LBB355
 7737 20cc B0000000 		.4byte	.Ldebug_ranges0+0xb0
 7738 20d0 06       		.byte	0x6
 7739 20d1 FB       		.byte	0xfb
 7740 20d2 41       		.uleb128 0x41
 7741 20d3 7B260000 		.4byte	0x267b
 7742 20d7 28000000 		.4byte	.LBB360
 7743 20db C8000000 		.4byte	.Ldebug_ranges0+0xc8
 7744 20df 06       		.byte	0x6
 7745 20e0 FC       		.byte	0xfc
 7746 20e1 34       		.uleb128 0x34
 7747 20e2 C8000000 		.4byte	.Ldebug_ranges0+0xc8
 7748 20e6 35       		.uleb128 0x35
 7749 20e7 88260000 		.4byte	0x2688
 7750 20eb 36       		.uleb128 0x36
 7751 20ec D8260000 		.4byte	0x26d8
 7752 20f0 40000000 		.4byte	.LBB362
 7753 20f4 06000000 		.4byte	.LBE362-.LBB362
 7754 20f8 04       		.byte	0x4
 7755 20f9 7301     		.2byte	0x173
 7756 20fb 1A210000 		.4byte	0x211a
 7757 20ff 37       		.uleb128 0x37
 7758 2100 EA260000 		.4byte	0x26ea
 7759 2104 40000000 		.4byte	.LBB363
 7760 2108 06000000 		.4byte	.LBE363-.LBB363
 7761 210c 0F       		.byte	0xf
 7762 210d CD01     		.2byte	0x1cd
 7763 210f 33       		.uleb128 0x33
 7764 2110 F7260000 		.4byte	0x26f7
 7765 2114 58020000 		.4byte	.LLST19
 7766 2118 00       		.byte	0
 7767 2119 00       		.byte	0
 7768 211a 2E       		.uleb128 0x2e
 7769 211b 2C000000 		.4byte	.LVL204
 7770 211f 16280000 		.4byte	0x2816
 7771 2123 2E       		.uleb128 0x2e
 7772 2124 30000000 		.4byte	.LVL205
 7773 2128 21280000 		.4byte	0x2821
 7774 212c 38       		.uleb128 0x38
 7775 212d B0000000 		.4byte	.LVL213
ARM GAS  /var/folders/d2/nstgp4h54kz7g1l847x_b8wc0000gn/T//ccSYBGul.s 			page 138


 7776 2131 2C280000 		.4byte	0x282c
 7777 2135 2D       		.uleb128 0x2d
 7778 2136 01       		.uleb128 0x1
 7779 2137 50       		.byte	0x50
 7780 2138 05       		.uleb128 0x5
 7781 2139 03       		.byte	0x3
 7782 213a 00000000 		.4byte	.LANCHOR2
 7783 213e 00       		.byte	0
 7784 213f 00       		.byte	0
 7785 2140 00       		.byte	0
 7786 2141 00       		.byte	0
 7787 2142 00       		.byte	0
 7788 2143 2B       		.uleb128 0x2b
 7789 2144 3B260000 		.4byte	0x263b
 7790 2148 46000000 		.4byte	.LBB368
 7791 214c 02000000 		.4byte	.LBE368-.LBB368
 7792 2150 01       		.byte	0x1
 7793 2151 BF       		.byte	0xbf
 7794 2152 2B       		.uleb128 0x2b
 7795 2153 3B260000 		.4byte	0x263b
 7796 2157 5E000000 		.4byte	.LBB370
 7797 215b 02000000 		.4byte	.LBE370-.LBB370
 7798 215f 01       		.byte	0x1
 7799 2160 C0       		.byte	0xc0
 7800 2161 2B       		.uleb128 0x2b
 7801 2162 3B260000 		.4byte	0x263b
 7802 2166 74000000 		.4byte	.LBB372
 7803 216a 02000000 		.4byte	.LBE372-.LBB372
 7804 216e 01       		.byte	0x1
 7805 216f C1       		.byte	0xc1
 7806 2170 2E       		.uleb128 0x2e
 7807 2171 14000000 		.4byte	.LVL200
 7808 2175 86280000 		.4byte	0x2886
 7809 2179 2C       		.uleb128 0x2c
 7810 217a 5C000000 		.4byte	.LVL208
 7811 217e 7E270000 		.4byte	0x277e
 7812 2182 A5210000 		.4byte	0x21a5
 7813 2186 2D       		.uleb128 0x2d
 7814 2187 01       		.uleb128 0x1
 7815 2188 50       		.byte	0x50
 7816 2189 03       		.uleb128 0x3
 7817 218a 77       		.byte	0x77
 7818 218b 00       		.sleb128 0
 7819 218c 06       		.byte	0x6
 7820 218d 2D       		.uleb128 0x2d
 7821 218e 01       		.uleb128 0x1
 7822 218f 51       		.byte	0x51
 7823 2190 03       		.uleb128 0x3
 7824 2191 0A       		.byte	0xa
 7825 2192 F801     		.2byte	0x1f8
 7826 2194 2D       		.uleb128 0x2d
 7827 2195 01       		.uleb128 0x1
 7828 2196 53       		.byte	0x53
 7829 2197 05       		.uleb128 0x5
 7830 2198 03       		.byte	0x3
 7831 2199 00000000 		.4byte	thread2H
 7832 219d 2D       		.uleb128 0x2d
ARM GAS  /var/folders/d2/nstgp4h54kz7g1l847x_b8wc0000gn/T//ccSYBGul.s 			page 139


 7833 219e 02       		.uleb128 0x2
 7834 219f 7D       		.byte	0x7d
 7835 21a0 00       		.sleb128 0
 7836 21a1 02       		.uleb128 0x2
 7837 21a2 75       		.byte	0x75
 7838 21a3 00       		.sleb128 0
 7839 21a4 00       		.byte	0
 7840 21a5 2C       		.uleb128 0x2c
 7841 21a6 74000000 		.4byte	.LVL209
 7842 21aa 7E270000 		.4byte	0x277e
 7843 21ae D1210000 		.4byte	0x21d1
 7844 21b2 2D       		.uleb128 0x2d
 7845 21b3 01       		.uleb128 0x1
 7846 21b4 50       		.byte	0x50
 7847 21b5 03       		.uleb128 0x3
 7848 21b6 77       		.byte	0x77
 7849 21b7 04       		.sleb128 4
 7850 21b8 06       		.byte	0x6
 7851 21b9 2D       		.uleb128 0x2d
 7852 21ba 01       		.uleb128 0x1
 7853 21bb 51       		.byte	0x51
 7854 21bc 03       		.uleb128 0x3
 7855 21bd 0A       		.byte	0xa
 7856 21be F801     		.2byte	0x1f8
 7857 21c0 2D       		.uleb128 0x2d
 7858 21c1 01       		.uleb128 0x1
 7859 21c2 53       		.byte	0x53
 7860 21c3 05       		.uleb128 0x5
 7861 21c4 03       		.byte	0x3
 7862 21c5 00000000 		.4byte	thread2M
 7863 21c9 2D       		.uleb128 0x2d
 7864 21ca 02       		.uleb128 0x2
 7865 21cb 7D       		.byte	0x7d
 7866 21cc 00       		.sleb128 0
 7867 21cd 02       		.uleb128 0x2
 7868 21ce 75       		.byte	0x75
 7869 21cf 00       		.sleb128 0
 7870 21d0 00       		.byte	0
 7871 21d1 2C       		.uleb128 0x2c
 7872 21d2 8A000000 		.4byte	.LVL210
 7873 21d6 7E270000 		.4byte	0x277e
 7874 21da FD210000 		.4byte	0x21fd
 7875 21de 2D       		.uleb128 0x2d
 7876 21df 01       		.uleb128 0x1
 7877 21e0 50       		.byte	0x50
 7878 21e1 03       		.uleb128 0x3
 7879 21e2 77       		.byte	0x77
 7880 21e3 08       		.sleb128 8
 7881 21e4 06       		.byte	0x6
 7882 21e5 2D       		.uleb128 0x2d
 7883 21e6 01       		.uleb128 0x1
 7884 21e7 51       		.byte	0x51
 7885 21e8 03       		.uleb128 0x3
 7886 21e9 0A       		.byte	0xa
 7887 21ea F801     		.2byte	0x1f8
 7888 21ec 2D       		.uleb128 0x2d
 7889 21ed 01       		.uleb128 0x1
ARM GAS  /var/folders/d2/nstgp4h54kz7g1l847x_b8wc0000gn/T//ccSYBGul.s 			page 140


 7890 21ee 53       		.byte	0x53
 7891 21ef 05       		.uleb128 0x5
 7892 21f0 03       		.byte	0x3
 7893 21f1 00000000 		.4byte	thread2L
 7894 21f5 2D       		.uleb128 0x2d
 7895 21f6 02       		.uleb128 0x2
 7896 21f7 7D       		.byte	0x7d
 7897 21f8 00       		.sleb128 0
 7898 21f9 02       		.uleb128 0x2
 7899 21fa 75       		.byte	0x75
 7900 21fb 00       		.sleb128 0
 7901 21fc 00       		.byte	0
 7902 21fd 2E       		.uleb128 0x2e
 7903 21fe 90000000 		.4byte	.LVL211
 7904 2202 94270000 		.4byte	0x2794
 7905 2206 2C       		.uleb128 0x2c
 7906 2207 98000000 		.4byte	.LVL212
 7907 220b 9F270000 		.4byte	0x279f
 7908 220f 22220000 		.4byte	0x2222
 7909 2213 2D       		.uleb128 0x2d
 7910 2214 01       		.uleb128 0x1
 7911 2215 50       		.byte	0x50
 7912 2216 01       		.uleb128 0x1
 7913 2217 31       		.byte	0x31
 7914 2218 2D       		.uleb128 0x2d
 7915 2219 01       		.uleb128 0x1
 7916 221a 51       		.byte	0x51
 7917 221b 05       		.uleb128 0x5
 7918 221c 03       		.byte	0x3
 7919 221d 00000000 		.4byte	.LC6
 7920 2221 00       		.byte	0
 7921 2222 2F       		.uleb128 0x2f
 7922 2223 CA000000 		.4byte	.LVL214
 7923 2227 91280000 		.4byte	0x2891
 7924 222b 35220000 		.4byte	0x2235
 7925 222f 2D       		.uleb128 0x2d
 7926 2230 01       		.uleb128 0x1
 7927 2231 50       		.byte	0x50
 7928 2232 01       		.uleb128 0x1
 7929 2233 32       		.byte	0x32
 7930 2234 00       		.byte	0
 7931 2235 2E       		.uleb128 0x2e
 7932 2236 CE000000 		.4byte	.LVL215
 7933 223a AA270000 		.4byte	0x27aa
 7934 223e 00       		.byte	0
 7935 223f 42       		.uleb128 0x42
 7936 2240 F2020000 		.4byte	.LASF204
 7937 2244 01       		.byte	0x1
 7938 2245 B0       		.byte	0xb0
 7939 2246 00000000 		.4byte	.LFB225
 7940 224a 44000000 		.4byte	.LFE225-.LFB225
 7941 224e 01       		.uleb128 0x1
 7942 224f 9C       		.byte	0x9c
 7943 2250 D4220000 		.4byte	0x22d4
 7944 2254 43       		.uleb128 0x43
 7945 2255 7000     		.ascii	"p\000"
 7946 2257 01       		.byte	0x1
ARM GAS  /var/folders/d2/nstgp4h54kz7g1l847x_b8wc0000gn/T//ccSYBGul.s 			page 141


 7947 2258 B0       		.byte	0xb0
 7948 2259 8F030000 		.4byte	0x38f
 7949 225d 6C020000 		.4byte	.LLST5
 7950 2261 2C       		.uleb128 0x2c
 7951 2262 10000000 		.4byte	.LVL53
 7952 2266 65280000 		.4byte	0x2865
 7953 226a 75220000 		.4byte	0x2275
 7954 226e 2D       		.uleb128 0x2d
 7955 226f 01       		.uleb128 0x1
 7956 2270 50       		.byte	0x50
 7957 2271 02       		.uleb128 0x2
 7958 2272 08       		.byte	0x8
 7959 2273 28       		.byte	0x28
 7960 2274 00       		.byte	0
 7961 2275 2C       		.uleb128 0x2c
 7962 2276 16000000 		.4byte	.LVL54
 7963 227a B3270000 		.4byte	0x27b3
 7964 227e 8C220000 		.4byte	0x228c
 7965 2282 2D       		.uleb128 0x2d
 7966 2283 01       		.uleb128 0x1
 7967 2284 50       		.byte	0x50
 7968 2285 05       		.uleb128 0x5
 7969 2286 03       		.byte	0x3
 7970 2287 00000000 		.4byte	.LANCHOR0
 7971 228b 00       		.byte	0
 7972 228c 2C       		.uleb128 0x2c
 7973 228d 1C000000 		.4byte	.LVL55
 7974 2291 9C280000 		.4byte	0x289c
 7975 2295 9F220000 		.4byte	0x229f
 7976 2299 2D       		.uleb128 0x2d
 7977 229a 01       		.uleb128 0x1
 7978 229b 50       		.byte	0x50
 7979 229c 01       		.uleb128 0x1
 7980 229d 3A       		.byte	0x3a
 7981 229e 00       		.byte	0
 7982 229f 2C       		.uleb128 0x2c
 7983 22a0 22000000 		.4byte	.LVL56
 7984 22a4 C9270000 		.4byte	0x27c9
 7985 22a8 B6220000 		.4byte	0x22b6
 7986 22ac 2D       		.uleb128 0x2d
 7987 22ad 01       		.uleb128 0x1
 7988 22ae 50       		.byte	0x50
 7989 22af 05       		.uleb128 0x5
 7990 22b0 03       		.byte	0x3
 7991 22b1 00000000 		.4byte	.LANCHOR0
 7992 22b5 00       		.byte	0
 7993 22b6 2F       		.uleb128 0x2f
 7994 22b7 36000000 		.4byte	.LVL57
 7995 22bb BE270000 		.4byte	0x27be
 7996 22bf CA220000 		.4byte	0x22ca
 7997 22c3 2D       		.uleb128 0x2d
 7998 22c4 01       		.uleb128 0x1
 7999 22c5 50       		.byte	0x50
 8000 22c6 02       		.uleb128 0x2
 8001 22c7 08       		.byte	0x8
 8002 22c8 41       		.byte	0x41
 8003 22c9 00       		.byte	0
ARM GAS  /var/folders/d2/nstgp4h54kz7g1l847x_b8wc0000gn/T//ccSYBGul.s 			page 142


 8004 22ca 2E       		.uleb128 0x2e
 8005 22cb 3A000000 		.4byte	.LVL58
 8006 22cf AA270000 		.4byte	0x27aa
 8007 22d3 00       		.byte	0
 8008 22d4 42       		.uleb128 0x42
 8009 22d5 03030000 		.4byte	.LASF205
 8010 22d9 01       		.byte	0x1
 8011 22da A7       		.byte	0xa7
 8012 22db 00000000 		.4byte	.LFB224
 8013 22df 34000000 		.4byte	.LFE224-.LFB224
 8014 22e3 01       		.uleb128 0x1
 8015 22e4 9C       		.byte	0x9c
 8016 22e5 3B230000 		.4byte	0x233b
 8017 22e9 43       		.uleb128 0x43
 8018 22ea 7000     		.ascii	"p\000"
 8019 22ec 01       		.byte	0x1
 8020 22ed A7       		.byte	0xa7
 8021 22ee 8F030000 		.4byte	0x38f
 8022 22f2 8D020000 		.4byte	.LLST4
 8023 22f6 2C       		.uleb128 0x2c
 8024 22f7 10000000 		.4byte	.LVL47
 8025 22fb 65280000 		.4byte	0x2865
 8026 22ff 09230000 		.4byte	0x2309
 8027 2303 2D       		.uleb128 0x2d
 8028 2304 01       		.uleb128 0x1
 8029 2305 50       		.byte	0x50
 8030 2306 01       		.uleb128 0x1
 8031 2307 44       		.byte	0x44
 8032 2308 00       		.byte	0
 8033 2309 2C       		.uleb128 0x2c
 8034 230a 16000000 		.4byte	.LVL48
 8035 230e 9C280000 		.4byte	0x289c
 8036 2312 1D230000 		.4byte	0x231d
 8037 2316 2D       		.uleb128 0x2d
 8038 2317 01       		.uleb128 0x1
 8039 2318 50       		.byte	0x50
 8040 2319 02       		.uleb128 0x2
 8041 231a 08       		.byte	0x8
 8042 231b 28       		.byte	0x28
 8043 231c 00       		.byte	0
 8044 231d 2F       		.uleb128 0x2f
 8045 231e 2A000000 		.4byte	.LVL49
 8046 2322 BE270000 		.4byte	0x27be
 8047 2326 31230000 		.4byte	0x2331
 8048 232a 2D       		.uleb128 0x2d
 8049 232b 01       		.uleb128 0x1
 8050 232c 50       		.byte	0x50
 8051 232d 02       		.uleb128 0x2
 8052 232e 08       		.byte	0x8
 8053 232f 42       		.byte	0x42
 8054 2330 00       		.byte	0
 8055 2331 2E       		.uleb128 0x2e
 8056 2332 2E000000 		.4byte	.LVL50
 8057 2336 AA270000 		.4byte	0x27aa
 8058 233a 00       		.byte	0
 8059 233b 42       		.uleb128 0x42
 8060 233c 6E090000 		.4byte	.LASF206
ARM GAS  /var/folders/d2/nstgp4h54kz7g1l847x_b8wc0000gn/T//ccSYBGul.s 			page 143


 8061 2340 01       		.byte	0x1
 8062 2341 9C       		.byte	0x9c
 8063 2342 00000000 		.4byte	.LFB223
 8064 2346 44000000 		.4byte	.LFE223-.LFB223
 8065 234a 01       		.uleb128 0x1
 8066 234b 9C       		.byte	0x9c
 8067 234c D0230000 		.4byte	0x23d0
 8068 2350 43       		.uleb128 0x43
 8069 2351 7000     		.ascii	"p\000"
 8070 2353 01       		.byte	0x1
 8071 2354 9C       		.byte	0x9c
 8072 2355 8F030000 		.4byte	0x38f
 8073 2359 AE020000 		.4byte	.LLST2
 8074 235d 2C       		.uleb128 0x2c
 8075 235e 10000000 		.4byte	.LVL32
 8076 2362 B3270000 		.4byte	0x27b3
 8077 2366 74230000 		.4byte	0x2374
 8078 236a 2D       		.uleb128 0x2d
 8079 236b 01       		.uleb128 0x1
 8080 236c 50       		.byte	0x50
 8081 236d 05       		.uleb128 0x5
 8082 236e 03       		.byte	0x3
 8083 236f 00000000 		.4byte	.LANCHOR0
 8084 2373 00       		.byte	0
 8085 2374 2C       		.uleb128 0x2c
 8086 2375 16000000 		.4byte	.LVL33
 8087 2379 9C280000 		.4byte	0x289c
 8088 237d 88230000 		.4byte	0x2388
 8089 2381 2D       		.uleb128 0x2d
 8090 2382 01       		.uleb128 0x1
 8091 2383 50       		.byte	0x50
 8092 2384 02       		.uleb128 0x2
 8093 2385 08       		.byte	0x8
 8094 2386 28       		.byte	0x28
 8095 2387 00       		.byte	0
 8096 2388 2C       		.uleb128 0x2c
 8097 2389 1C000000 		.4byte	.LVL34
 8098 238d C9270000 		.4byte	0x27c9
 8099 2391 9F230000 		.4byte	0x239f
 8100 2395 2D       		.uleb128 0x2d
 8101 2396 01       		.uleb128 0x1
 8102 2397 50       		.byte	0x50
 8103 2398 05       		.uleb128 0x5
 8104 2399 03       		.byte	0x3
 8105 239a 00000000 		.4byte	.LANCHOR0
 8106 239e 00       		.byte	0
 8107 239f 2C       		.uleb128 0x2c
 8108 23a0 22000000 		.4byte	.LVL35
 8109 23a4 9C280000 		.4byte	0x289c
 8110 23a8 B2230000 		.4byte	0x23b2
 8111 23ac 2D       		.uleb128 0x2d
 8112 23ad 01       		.uleb128 0x1
 8113 23ae 50       		.byte	0x50
 8114 23af 01       		.uleb128 0x1
 8115 23b0 3A       		.byte	0x3a
 8116 23b1 00       		.byte	0
 8117 23b2 2F       		.uleb128 0x2f
ARM GAS  /var/folders/d2/nstgp4h54kz7g1l847x_b8wc0000gn/T//ccSYBGul.s 			page 144


 8118 23b3 36000000 		.4byte	.LVL36
 8119 23b7 BE270000 		.4byte	0x27be
 8120 23bb C6230000 		.4byte	0x23c6
 8121 23bf 2D       		.uleb128 0x2d
 8122 23c0 01       		.uleb128 0x1
 8123 23c1 50       		.byte	0x50
 8124 23c2 02       		.uleb128 0x2
 8125 23c3 08       		.byte	0x8
 8126 23c4 43       		.byte	0x43
 8127 23c5 00       		.byte	0
 8128 23c6 2E       		.uleb128 0x2e
 8129 23c7 3A000000 		.4byte	.LVL37
 8130 23cb AA270000 		.4byte	0x27aa
 8131 23cf 00       		.byte	0
 8132 23d0 45       		.uleb128 0x45
 8133 23d1 35020000 		.4byte	.LASF207
 8134 23d5 01       		.byte	0x1
 8135 23d6 96       		.byte	0x96
 8136 23d7 42       		.uleb128 0x42
 8137 23d8 CE080000 		.4byte	.LASF208
 8138 23dc 01       		.byte	0x1
 8139 23dd 60       		.byte	0x60
 8140 23de 00000000 		.4byte	.LFB221
 8141 23e2 00010000 		.4byte	.LFE221-.LFB221
 8142 23e6 01       		.uleb128 0x1
 8143 23e7 9C       		.byte	0x9c
 8144 23e8 A2250000 		.4byte	0x25a2
 8145 23ec 44       		.uleb128 0x44
 8146 23ed 91020000 		.4byte	.LASF185
 8147 23f1 01       		.byte	0x1
 8148 23f2 62       		.byte	0x62
 8149 23f3 32010000 		.4byte	0x132
 8150 23f7 3F       		.uleb128 0x3f
 8151 23f8 3B260000 		.4byte	0x263b
 8152 23fc 04000000 		.4byte	.LBB167
 8153 2400 00000000 		.4byte	.Ldebug_ranges0+0
 8154 2404 01       		.byte	0x1
 8155 2405 62       		.byte	0x62
 8156 2406 1A240000 		.4byte	0x241a
 8157 240a 2B       		.uleb128 0x2b
 8158 240b 47260000 		.4byte	0x2647
 8159 240f 04000000 		.4byte	.LBB169
 8160 2413 02000000 		.4byte	.LBE169-.LBB169
 8161 2417 02       		.byte	0x2
 8162 2418 BD       		.byte	0xbd
 8163 2419 00       		.byte	0
 8164 241a 2B       		.uleb128 0x2b
 8165 241b 3B260000 		.4byte	0x263b
 8166 241f 96000000 		.4byte	.LBB175
 8167 2423 02000000 		.4byte	.LBE175-.LBB175
 8168 2427 01       		.byte	0x1
 8169 2428 6B       		.byte	0x6b
 8170 2429 2C       		.uleb128 0x2c
 8171 242a 20000000 		.4byte	.LVL0
 8172 242e B3270000 		.4byte	0x27b3
 8173 2432 40240000 		.4byte	0x2440
 8174 2436 2D       		.uleb128 0x2d
ARM GAS  /var/folders/d2/nstgp4h54kz7g1l847x_b8wc0000gn/T//ccSYBGul.s 			page 145


 8175 2437 01       		.uleb128 0x1
 8176 2438 50       		.byte	0x50
 8177 2439 05       		.uleb128 0x5
 8178 243a 03       		.byte	0x3
 8179 243b 00000000 		.4byte	.LANCHOR0
 8180 243f 00       		.byte	0
 8181 2440 2C       		.uleb128 0x2c
 8182 2441 32000000 		.4byte	.LVL1
 8183 2445 7E270000 		.4byte	0x277e
 8184 2449 75240000 		.4byte	0x2475
 8185 244d 2D       		.uleb128 0x2d
 8186 244e 01       		.uleb128 0x1
 8187 244f 50       		.byte	0x50
 8188 2450 03       		.uleb128 0x3
 8189 2451 76       		.byte	0x76
 8190 2452 00       		.sleb128 0
 8191 2453 06       		.byte	0x6
 8192 2454 2D       		.uleb128 0x2d
 8193 2455 01       		.uleb128 0x1
 8194 2456 51       		.byte	0x51
 8195 2457 03       		.uleb128 0x3
 8196 2458 0A       		.byte	0xa
 8197 2459 F801     		.2byte	0x1f8
 8198 245b 2D       		.uleb128 0x2d
 8199 245c 01       		.uleb128 0x1
 8200 245d 52       		.byte	0x52
 8201 245e 02       		.uleb128 0x2
 8202 245f 74       		.byte	0x74
 8203 2460 01       		.sleb128 1
 8204 2461 2D       		.uleb128 0x2d
 8205 2462 01       		.uleb128 0x1
 8206 2463 53       		.byte	0x53
 8207 2464 05       		.uleb128 0x5
 8208 2465 03       		.byte	0x3
 8209 2466 00000000 		.4byte	thread1
 8210 246a 2D       		.uleb128 0x2d
 8211 246b 02       		.uleb128 0x2
 8212 246c 7D       		.byte	0x7d
 8213 246d 00       		.sleb128 0
 8214 246e 05       		.uleb128 0x5
 8215 246f 03       		.byte	0x3
 8216 2470 00000000 		.4byte	.LC0
 8217 2474 00       		.byte	0
 8218 2475 2C       		.uleb128 0x2c
 8219 2476 48000000 		.4byte	.LVL2
 8220 247a 7E270000 		.4byte	0x277e
 8221 247e AA240000 		.4byte	0x24aa
 8222 2482 2D       		.uleb128 0x2d
 8223 2483 01       		.uleb128 0x1
 8224 2484 50       		.byte	0x50
 8225 2485 03       		.uleb128 0x3
 8226 2486 76       		.byte	0x76
 8227 2487 04       		.sleb128 4
 8228 2488 06       		.byte	0x6
 8229 2489 2D       		.uleb128 0x2d
 8230 248a 01       		.uleb128 0x1
 8231 248b 51       		.byte	0x51
ARM GAS  /var/folders/d2/nstgp4h54kz7g1l847x_b8wc0000gn/T//ccSYBGul.s 			page 146


 8232 248c 03       		.uleb128 0x3
 8233 248d 0A       		.byte	0xa
 8234 248e F801     		.2byte	0x1f8
 8235 2490 2D       		.uleb128 0x2d
 8236 2491 01       		.uleb128 0x1
 8237 2492 52       		.byte	0x52
 8238 2493 02       		.uleb128 0x2
 8239 2494 74       		.byte	0x74
 8240 2495 02       		.sleb128 2
 8241 2496 2D       		.uleb128 0x2d
 8242 2497 01       		.uleb128 0x1
 8243 2498 53       		.byte	0x53
 8244 2499 05       		.uleb128 0x5
 8245 249a 03       		.byte	0x3
 8246 249b 00000000 		.4byte	thread1
 8247 249f 2D       		.uleb128 0x2d
 8248 24a0 02       		.uleb128 0x2
 8249 24a1 7D       		.byte	0x7d
 8250 24a2 00       		.sleb128 0
 8251 24a3 05       		.uleb128 0x5
 8252 24a4 03       		.byte	0x3
 8253 24a5 04000000 		.4byte	.LC1
 8254 24a9 00       		.byte	0
 8255 24aa 2C       		.uleb128 0x2c
 8256 24ab 5E000000 		.4byte	.LVL3
 8257 24af 7E270000 		.4byte	0x277e
 8258 24b3 DF240000 		.4byte	0x24df
 8259 24b7 2D       		.uleb128 0x2d
 8260 24b8 01       		.uleb128 0x1
 8261 24b9 50       		.byte	0x50
 8262 24ba 03       		.uleb128 0x3
 8263 24bb 76       		.byte	0x76
 8264 24bc 08       		.sleb128 8
 8265 24bd 06       		.byte	0x6
 8266 24be 2D       		.uleb128 0x2d
 8267 24bf 01       		.uleb128 0x1
 8268 24c0 51       		.byte	0x51
 8269 24c1 03       		.uleb128 0x3
 8270 24c2 0A       		.byte	0xa
 8271 24c3 F801     		.2byte	0x1f8
 8272 24c5 2D       		.uleb128 0x2d
 8273 24c6 01       		.uleb128 0x1
 8274 24c7 52       		.byte	0x52
 8275 24c8 02       		.uleb128 0x2
 8276 24c9 74       		.byte	0x74
 8277 24ca 03       		.sleb128 3
 8278 24cb 2D       		.uleb128 0x2d
 8279 24cc 01       		.uleb128 0x1
 8280 24cd 53       		.byte	0x53
 8281 24ce 05       		.uleb128 0x5
 8282 24cf 03       		.byte	0x3
 8283 24d0 00000000 		.4byte	thread1
 8284 24d4 2D       		.uleb128 0x2d
 8285 24d5 02       		.uleb128 0x2
 8286 24d6 7D       		.byte	0x7d
 8287 24d7 00       		.sleb128 0
 8288 24d8 05       		.uleb128 0x5
ARM GAS  /var/folders/d2/nstgp4h54kz7g1l847x_b8wc0000gn/T//ccSYBGul.s 			page 147


 8289 24d9 03       		.byte	0x3
 8290 24da 08000000 		.4byte	.LC2
 8291 24de 00       		.byte	0
 8292 24df 2C       		.uleb128 0x2c
 8293 24e0 74000000 		.4byte	.LVL4
 8294 24e4 7E270000 		.4byte	0x277e
 8295 24e8 14250000 		.4byte	0x2514
 8296 24ec 2D       		.uleb128 0x2d
 8297 24ed 01       		.uleb128 0x1
 8298 24ee 50       		.byte	0x50
 8299 24ef 03       		.uleb128 0x3
 8300 24f0 76       		.byte	0x76
 8301 24f1 0C       		.sleb128 12
 8302 24f2 06       		.byte	0x6
 8303 24f3 2D       		.uleb128 0x2d
 8304 24f4 01       		.uleb128 0x1
 8305 24f5 51       		.byte	0x51
 8306 24f6 03       		.uleb128 0x3
 8307 24f7 0A       		.byte	0xa
 8308 24f8 F801     		.2byte	0x1f8
 8309 24fa 2D       		.uleb128 0x2d
 8310 24fb 01       		.uleb128 0x1
 8311 24fc 52       		.byte	0x52
 8312 24fd 02       		.uleb128 0x2
 8313 24fe 74       		.byte	0x74
 8314 24ff 04       		.sleb128 4
 8315 2500 2D       		.uleb128 0x2d
 8316 2501 01       		.uleb128 0x1
 8317 2502 53       		.byte	0x53
 8318 2503 05       		.uleb128 0x5
 8319 2504 03       		.byte	0x3
 8320 2505 00000000 		.4byte	thread1
 8321 2509 2D       		.uleb128 0x2d
 8322 250a 02       		.uleb128 0x2
 8323 250b 7D       		.byte	0x7d
 8324 250c 00       		.sleb128 0
 8325 250d 05       		.uleb128 0x5
 8326 250e 03       		.byte	0x3
 8327 250f 0C000000 		.4byte	.LC3
 8328 2513 00       		.byte	0
 8329 2514 2C       		.uleb128 0x2c
 8330 2515 8A000000 		.4byte	.LVL5
 8331 2519 7E270000 		.4byte	0x277e
 8332 251d 49250000 		.4byte	0x2549
 8333 2521 2D       		.uleb128 0x2d
 8334 2522 01       		.uleb128 0x1
 8335 2523 50       		.byte	0x50
 8336 2524 03       		.uleb128 0x3
 8337 2525 76       		.byte	0x76
 8338 2526 10       		.sleb128 16
 8339 2527 06       		.byte	0x6
 8340 2528 2D       		.uleb128 0x2d
 8341 2529 01       		.uleb128 0x1
 8342 252a 51       		.byte	0x51
 8343 252b 03       		.uleb128 0x3
 8344 252c 0A       		.byte	0xa
 8345 252d F801     		.2byte	0x1f8
ARM GAS  /var/folders/d2/nstgp4h54kz7g1l847x_b8wc0000gn/T//ccSYBGul.s 			page 148


 8346 252f 2D       		.uleb128 0x2d
 8347 2530 01       		.uleb128 0x1
 8348 2531 52       		.byte	0x52
 8349 2532 02       		.uleb128 0x2
 8350 2533 74       		.byte	0x74
 8351 2534 05       		.sleb128 5
 8352 2535 2D       		.uleb128 0x2d
 8353 2536 01       		.uleb128 0x1
 8354 2537 53       		.byte	0x53
 8355 2538 05       		.uleb128 0x5
 8356 2539 03       		.byte	0x3
 8357 253a 00000000 		.4byte	thread1
 8358 253e 2D       		.uleb128 0x2d
 8359 253f 02       		.uleb128 0x2
 8360 2540 7D       		.byte	0x7d
 8361 2541 00       		.sleb128 0
 8362 2542 05       		.uleb128 0x5
 8363 2543 03       		.byte	0x3
 8364 2544 10000000 		.4byte	.LC4
 8365 2548 00       		.byte	0
 8366 2549 2C       		.uleb128 0x2c
 8367 254a 92000000 		.4byte	.LVL6
 8368 254e C9270000 		.4byte	0x27c9
 8369 2552 60250000 		.4byte	0x2560
 8370 2556 2D       		.uleb128 0x2d
 8371 2557 01       		.uleb128 0x1
 8372 2558 50       		.byte	0x50
 8373 2559 05       		.uleb128 0x5
 8374 255a 03       		.byte	0x3
 8375 255b 00000000 		.4byte	.LANCHOR0
 8376 255f 00       		.byte	0
 8377 2560 2E       		.uleb128 0x2e
 8378 2561 96000000 		.4byte	.LVL7
 8379 2565 94270000 		.4byte	0x2794
 8380 2569 2C       		.uleb128 0x2c
 8381 256a A8000000 		.4byte	.LVL8
 8382 256e 5A280000 		.4byte	0x285a
 8383 2572 7C250000 		.4byte	0x257c
 8384 2576 2D       		.uleb128 0x2d
 8385 2577 01       		.uleb128 0x1
 8386 2578 50       		.byte	0x50
 8387 2579 01       		.uleb128 0x1
 8388 257a 31       		.byte	0x31
 8389 257b 00       		.byte	0
 8390 257c 2F       		.uleb128 0x2f
 8391 257d CC000000 		.4byte	.LVL9
 8392 2581 9F270000 		.4byte	0x279f
 8393 2585 98250000 		.4byte	0x2598
 8394 2589 2D       		.uleb128 0x2d
 8395 258a 01       		.uleb128 0x1
 8396 258b 50       		.byte	0x50
 8397 258c 01       		.uleb128 0x1
 8398 258d 32       		.byte	0x32
 8399 258e 2D       		.uleb128 0x2d
 8400 258f 01       		.uleb128 0x1
 8401 2590 51       		.byte	0x51
 8402 2591 05       		.uleb128 0x5
ARM GAS  /var/folders/d2/nstgp4h54kz7g1l847x_b8wc0000gn/T//ccSYBGul.s 			page 149


 8403 2592 03       		.byte	0x3
 8404 2593 14000000 		.4byte	.LC5
 8405 2597 00       		.byte	0
 8406 2598 2E       		.uleb128 0x2e
 8407 2599 D0000000 		.4byte	.LVL10
 8408 259d AA270000 		.4byte	0x27aa
 8409 25a1 00       		.byte	0
 8410 25a2 42       		.uleb128 0x42
 8411 25a3 D2090000 		.4byte	.LASF209
 8412 25a7 01       		.byte	0x1
 8413 25a8 59       		.byte	0x59
 8414 25a9 00000000 		.4byte	.LFB220
 8415 25ad 38000000 		.4byte	.LFE220-.LFB220
 8416 25b1 01       		.uleb128 0x1
 8417 25b2 9C       		.byte	0x9c
 8418 25b3 05260000 		.4byte	0x2605
 8419 25b7 43       		.uleb128 0x43
 8420 25b8 7000     		.ascii	"p\000"
 8421 25ba 01       		.byte	0x1
 8422 25bb 59       		.byte	0x59
 8423 25bc 8F030000 		.4byte	0x38f
 8424 25c0 CF020000 		.4byte	.LLST0
 8425 25c4 2C       		.uleb128 0x2c
 8426 25c5 12000000 		.4byte	.LVL13
 8427 25c9 B3270000 		.4byte	0x27b3
 8428 25cd DB250000 		.4byte	0x25db
 8429 25d1 2D       		.uleb128 0x2d
 8430 25d2 01       		.uleb128 0x1
 8431 25d3 50       		.byte	0x50
 8432 25d4 05       		.uleb128 0x5
 8433 25d5 03       		.byte	0x3
 8434 25d6 00000000 		.4byte	.LANCHOR0
 8435 25da 00       		.byte	0
 8436 25db 2E       		.uleb128 0x2e
 8437 25dc 18000000 		.4byte	.LVL14
 8438 25e0 BE270000 		.4byte	0x27be
 8439 25e4 2F       		.uleb128 0x2f
 8440 25e5 2C000000 		.4byte	.LVL16
 8441 25e9 C9270000 		.4byte	0x27c9
 8442 25ed FB250000 		.4byte	0x25fb
 8443 25f1 2D       		.uleb128 0x2d
 8444 25f2 01       		.uleb128 0x1
 8445 25f3 50       		.byte	0x50
 8446 25f4 05       		.uleb128 0x5
 8447 25f5 03       		.byte	0x3
 8448 25f6 00000000 		.4byte	.LANCHOR0
 8449 25fa 00       		.byte	0
 8450 25fb 2E       		.uleb128 0x2e
 8451 25fc 30000000 		.4byte	.LVL17
 8452 2600 AA270000 		.4byte	0x27aa
 8453 2604 00       		.byte	0
 8454 2605 42       		.uleb128 0x42
 8455 2606 0D0A0000 		.4byte	.LASF210
 8456 260a 01       		.byte	0x1
 8457 260b 54       		.byte	0x54
 8458 260c 00000000 		.4byte	.LFB219
 8459 2610 2C000000 		.4byte	.LFE219-.LFB219
ARM GAS  /var/folders/d2/nstgp4h54kz7g1l847x_b8wc0000gn/T//ccSYBGul.s 			page 150


 8460 2614 01       		.uleb128 0x1
 8461 2615 9C       		.byte	0x9c
 8462 2616 3B260000 		.4byte	0x263b
 8463 261a 2F       		.uleb128 0x2f
 8464 261b 1E000000 		.4byte	.LVL25
 8465 261f EA270000 		.4byte	0x27ea
 8466 2623 31260000 		.4byte	0x2631
 8467 2627 2D       		.uleb128 0x2d
 8468 2628 01       		.uleb128 0x1
 8469 2629 50       		.byte	0x50
 8470 262a 05       		.uleb128 0x5
 8471 262b 03       		.byte	0x3
 8472 262c 00000000 		.4byte	.LANCHOR0
 8473 2630 00       		.byte	0
 8474 2631 2E       		.uleb128 0x2e
 8475 2632 22000000 		.4byte	.LVL26
 8476 2636 AA270000 		.4byte	0x27aa
 8477 263a 00       		.byte	0
 8478 263b 46       		.uleb128 0x46
 8479 263c F0010000 		.4byte	.LASF211
 8480 2640 02       		.byte	0x2
 8481 2641 BB       		.byte	0xbb
 8482 2642 32010000 		.4byte	0x132
 8483 2646 03       		.byte	0x3
 8484 2647 46       		.uleb128 0x46
 8485 2648 A00A0000 		.4byte	.LASF212
 8486 264c 02       		.byte	0x2
 8487 264d AE       		.byte	0xae
 8488 264e AD020000 		.4byte	0x2ad
 8489 2652 03       		.byte	0x3
 8490 2653 47       		.uleb128 0x47
 8491 2654 7F020000 		.4byte	.LASF218
 8492 2658 06       		.byte	0x6
 8493 2659 F7       		.byte	0xf7
 8494 265a 69010000 		.4byte	0x169
 8495 265e 03       		.byte	0x3
 8496 265f 6F260000 		.4byte	0x266f
 8497 2663 44       		.uleb128 0x44
 8498 2664 EA020000 		.4byte	.LASF213
 8499 2668 06       		.byte	0x6
 8500 2669 F8       		.byte	0xf8
 8501 266a 69010000 		.4byte	0x169
 8502 266e 00       		.byte	0
 8503 266f 46       		.uleb128 0x46
 8504 2670 8F080000 		.4byte	.LASF214
 8505 2674 06       		.byte	0x6
 8506 2675 E4       		.byte	0xe4
 8507 2676 69010000 		.4byte	0x169
 8508 267a 03       		.byte	0x3
 8509 267b 48       		.uleb128 0x48
 8510 267c A5050000 		.4byte	.LASF222
 8511 2680 04       		.byte	0x4
 8512 2681 6601     		.2byte	0x166
 8513 2683 03       		.byte	0x3
 8514 2684 96260000 		.4byte	0x2696
 8515 2688 49       		.uleb128 0x49
 8516 2689 11020000 		.4byte	.LASF215
ARM GAS  /var/folders/d2/nstgp4h54kz7g1l847x_b8wc0000gn/T//ccSYBGul.s 			page 151


 8517 268d A6260000 		.4byte	0x26a6
 8518 2691 A5050000 		.4byte	.LASF222
 8519 2695 00       		.byte	0
 8520 2696 18       		.uleb128 0x18
 8521 2697 B8080000 		.4byte	0x8b8
 8522 269b A6260000 		.4byte	0x26a6
 8523 269f 19       		.uleb128 0x19
 8524 26a0 37000000 		.4byte	0x37
 8525 26a4 0B       		.byte	0xb
 8526 26a5 00       		.byte	0
 8527 26a6 0B       		.uleb128 0xb
 8528 26a7 96260000 		.4byte	0x2696
 8529 26ab 39       		.uleb128 0x39
 8530 26ac CB050000 		.4byte	.LASF217
 8531 26b0 04       		.byte	0x4
 8532 26b1 5A01     		.2byte	0x15a
 8533 26b3 03       		.byte	0x3
 8534 26b4 4A       		.uleb128 0x4a
 8535 26b5 86060000 		.4byte	.LASF219
 8536 26b9 05       		.byte	0x5
 8537 26ba 6802     		.2byte	0x268
 8538 26bc 020B0000 		.4byte	0xb02
 8539 26c0 03       		.byte	0x3
 8540 26c1 D2260000 		.4byte	0x26d2
 8541 26c5 4B       		.uleb128 0x4b
 8542 26c6 74717000 		.ascii	"tqp\000"
 8543 26ca 05       		.byte	0x5
 8544 26cb 6802     		.2byte	0x268
 8545 26cd D2260000 		.4byte	0x26d2
 8546 26d1 00       		.byte	0
 8547 26d2 0A       		.uleb128 0xa
 8548 26d3 04       		.byte	0x4
 8549 26d4 E2020000 		.4byte	0x2e2
 8550 26d8 39       		.uleb128 0x39
 8551 26d9 1C030000 		.4byte	.LASF220
 8552 26dd 0F       		.byte	0xf
 8553 26de CA01     		.2byte	0x1ca
 8554 26e0 03       		.byte	0x3
 8555 26e1 39       		.uleb128 0x39
 8556 26e2 720A0000 		.4byte	.LASF221
 8557 26e6 0F       		.byte	0xf
 8558 26e7 BC01     		.2byte	0x1bc
 8559 26e9 03       		.byte	0x3
 8560 26ea 48       		.uleb128 0x48
 8561 26eb F2090000 		.4byte	.LASF223
 8562 26ef 03       		.byte	0x3
 8563 26f0 2002     		.2byte	0x220
 8564 26f2 03       		.byte	0x3
 8565 26f3 04270000 		.4byte	0x2704
 8566 26f7 4C       		.uleb128 0x4c
 8567 26f8 6A040000 		.4byte	.LASF224
 8568 26fc 03       		.byte	0x3
 8569 26fd 2002     		.2byte	0x220
 8570 26ff DA000000 		.4byte	0xda
 8571 2703 00       		.byte	0
 8572 2704 4D       		.uleb128 0x4d
 8573 2705 2B140000 		.4byte	0x142b
ARM GAS  /var/folders/d2/nstgp4h54kz7g1l847x_b8wc0000gn/T//ccSYBGul.s 			page 152


 8574 2709 00000000 		.4byte	.LFB239
 8575 270d 58000000 		.4byte	.LFE239-.LFB239
 8576 2711 01       		.uleb128 0x1
 8577 2712 9C       		.byte	0x9c
 8578 2713 7E270000 		.4byte	0x277e
 8579 2717 36       		.uleb128 0x36
 8580 2718 B4260000 		.4byte	0x26b4
 8581 271c 16000000 		.4byte	.LBB315
 8582 2720 02000000 		.4byte	.LBE315-.LBB315
 8583 2724 01       		.byte	0x1
 8584 2725 BE01     		.2byte	0x1be
 8585 2727 31270000 		.4byte	0x2731
 8586 272b 4E       		.uleb128 0x4e
 8587 272c C5260000 		.4byte	0x26c5
 8588 2730 00       		.byte	0
 8589 2731 2C       		.uleb128 0x2c
 8590 2732 12000000 		.4byte	.LVL195
 8591 2736 B3270000 		.4byte	0x27b3
 8592 273a 45270000 		.4byte	0x2745
 8593 273e 2D       		.uleb128 0x2d
 8594 273f 01       		.uleb128 0x1
 8595 2740 50       		.byte	0x50
 8596 2741 02       		.uleb128 0x2
 8597 2742 74       		.byte	0x74
 8598 2743 00       		.sleb128 0
 8599 2744 00       		.byte	0
 8600 2745 2E       		.uleb128 0x2e
 8601 2746 16000000 		.4byte	.LVL196
 8602 274a 70280000 		.4byte	0x2870
 8603 274e 2C       		.uleb128 0x2c
 8604 274f 26000000 		.4byte	.LVL197
 8605 2753 5A280000 		.4byte	0x285a
 8606 2757 61270000 		.4byte	0x2761
 8607 275b 2D       		.uleb128 0x2d
 8608 275c 01       		.uleb128 0x1
 8609 275d 50       		.byte	0x50
 8610 275e 01       		.uleb128 0x1
 8611 275f 36       		.byte	0x36
 8612 2760 00       		.byte	0
 8613 2761 2F       		.uleb128 0x2f
 8614 2762 4C000000 		.4byte	.LVL198
 8615 2766 5A280000 		.4byte	0x285a
 8616 276a 74270000 		.4byte	0x2774
 8617 276e 2D       		.uleb128 0x2d
 8618 276f 01       		.uleb128 0x1
 8619 2770 50       		.byte	0x50
 8620 2771 01       		.uleb128 0x1
 8621 2772 37       		.byte	0x37
 8622 2773 00       		.byte	0
 8623 2774 2E       		.uleb128 0x2e
 8624 2775 50000000 		.4byte	.LVL199
 8625 2779 AA270000 		.4byte	0x27aa
 8626 277d 00       		.byte	0
 8627 277e 4F       		.uleb128 0x4f
 8628 277f 51070000 		.4byte	.LASF225
 8629 2783 51070000 		.4byte	.LASF225
 8630 2787 02       		.byte	0x2
ARM GAS  /var/folders/d2/nstgp4h54kz7g1l847x_b8wc0000gn/T//ccSYBGul.s 			page 153


 8631 2788 89       		.byte	0x89
 8632 2789 4F       		.uleb128 0x4f
 8633 278a E5090000 		.4byte	.LASF226
 8634 278e E5090000 		.4byte	.LASF226
 8635 2792 16       		.byte	0x16
 8636 2793 5E       		.byte	0x5e
 8637 2794 4F       		.uleb128 0x4f
 8638 2795 73070000 		.4byte	.LASF227
 8639 2799 73070000 		.4byte	.LASF227
 8640 279d 17       		.byte	0x17
 8641 279e 5E       		.byte	0x5e
 8642 279f 4F       		.uleb128 0x4f
 8643 27a0 910B0000 		.4byte	.LASF228
 8644 27a4 910B0000 		.4byte	.LASF228
 8645 27a8 17       		.byte	0x17
 8646 27a9 5B       		.byte	0x5b
 8647 27aa 50       		.uleb128 0x50
 8648 27ab 04070000 		.4byte	.LASF255
 8649 27af 04070000 		.4byte	.LASF255
 8650 27b3 4F       		.uleb128 0x4f
 8651 27b4 85070000 		.4byte	.LASF229
 8652 27b8 85070000 		.4byte	.LASF229
 8653 27bc 14       		.byte	0x14
 8654 27bd 68       		.byte	0x68
 8655 27be 4F       		.uleb128 0x4f
 8656 27bf 56050000 		.4byte	.LASF230
 8657 27c3 56050000 		.4byte	.LASF230
 8658 27c7 17       		.byte	0x17
 8659 27c8 58       		.byte	0x58
 8660 27c9 4F       		.uleb128 0x4f
 8661 27ca 28030000 		.4byte	.LASF231
 8662 27ce 28030000 		.4byte	.LASF231
 8663 27d2 14       		.byte	0x14
 8664 27d3 6C       		.byte	0x6c
 8665 27d4 4F       		.uleb128 0x4f
 8666 27d5 FA0B0000 		.4byte	.LASF232
 8667 27d9 FA0B0000 		.4byte	.LASF232
 8668 27dd 16       		.byte	0x16
 8669 27de 65       		.byte	0x65
 8670 27df 4F       		.uleb128 0x4f
 8671 27e0 86040000 		.4byte	.LASF233
 8672 27e4 86040000 		.4byte	.LASF233
 8673 27e8 16       		.byte	0x16
 8674 27e9 5D       		.byte	0x5d
 8675 27ea 4F       		.uleb128 0x4f
 8676 27eb 820C0000 		.4byte	.LASF234
 8677 27ef 820C0000 		.4byte	.LASF234
 8678 27f3 14       		.byte	0x14
 8679 27f4 67       		.byte	0x67
 8680 27f5 4F       		.uleb128 0x4f
 8681 27f6 3A090000 		.4byte	.LASF235
 8682 27fa 3A090000 		.4byte	.LASF235
 8683 27fe 16       		.byte	0x16
 8684 27ff 60       		.byte	0x60
 8685 2800 4F       		.uleb128 0x4f
 8686 2801 93090000 		.4byte	.LASF236
 8687 2805 93090000 		.4byte	.LASF236
ARM GAS  /var/folders/d2/nstgp4h54kz7g1l847x_b8wc0000gn/T//ccSYBGul.s 			page 154


 8688 2809 12       		.byte	0x12
 8689 280a 4F       		.byte	0x4f
 8690 280b 4F       		.uleb128 0x4f
 8691 280c C2090000 		.4byte	.LASF237
 8692 2810 C2090000 		.4byte	.LASF237
 8693 2814 10       		.byte	0x10
 8694 2815 D8       		.byte	0xd8
 8695 2816 4F       		.uleb128 0x4f
 8696 2817 96020000 		.4byte	.LASF238
 8697 281b 96020000 		.4byte	.LASF238
 8698 281f 10       		.byte	0x10
 8699 2820 D9       		.byte	0xd9
 8700 2821 4F       		.uleb128 0x4f
 8701 2822 B6030000 		.4byte	.LASF239
 8702 2826 B6030000 		.4byte	.LASF239
 8703 282a 12       		.byte	0x12
 8704 282b 50       		.byte	0x50
 8705 282c 51       		.uleb128 0x51
 8706 282d AE0B0000 		.4byte	.LASF240
 8707 2831 AE0B0000 		.4byte	.LASF240
 8708 2835 04       		.byte	0x4
 8709 2836 1601     		.2byte	0x116
 8710 2838 4F       		.uleb128 0x4f
 8711 2839 1A020000 		.4byte	.LASF241
 8712 283d 1A020000 		.4byte	.LASF241
 8713 2841 16       		.byte	0x16
 8714 2842 5F       		.byte	0x5f
 8715 2843 51       		.uleb128 0x51
 8716 2844 E8060000 		.4byte	.LASF242
 8717 2848 E8060000 		.4byte	.LASF242
 8718 284c 05       		.byte	0x5
 8719 284d 1702     		.2byte	0x217
 8720 284f 4F       		.uleb128 0x4f
 8721 2850 250A0000 		.4byte	.LASF243
 8722 2854 250A0000 		.4byte	.LASF243
 8723 2858 16       		.byte	0x16
 8724 2859 62       		.byte	0x62
 8725 285a 4F       		.uleb128 0x4f
 8726 285b 1B0C0000 		.4byte	.LASF244
 8727 285f 1B0C0000 		.4byte	.LASF244
 8728 2863 17       		.byte	0x17
 8729 2864 5A       		.byte	0x5a
 8730 2865 4F       		.uleb128 0x4f
 8731 2866 F4040000 		.4byte	.LASF245
 8732 286a F4040000 		.4byte	.LASF245
 8733 286e 02       		.byte	0x2
 8734 286f 96       		.byte	0x96
 8735 2870 4F       		.uleb128 0x4f
 8736 2871 0C0C0000 		.4byte	.LASF246
 8737 2875 0C0C0000 		.4byte	.LASF246
 8738 2879 14       		.byte	0x14
 8739 287a 6E       		.byte	0x6e
 8740 287b 4F       		.uleb128 0x4f
 8741 287c B8070000 		.4byte	.LASF247
 8742 2880 B8070000 		.4byte	.LASF247
 8743 2884 14       		.byte	0x14
 8744 2885 6D       		.byte	0x6d
ARM GAS  /var/folders/d2/nstgp4h54kz7g1l847x_b8wc0000gn/T//ccSYBGul.s 			page 155


 8745 2886 4F       		.uleb128 0x4f
 8746 2887 C5070000 		.4byte	.LASF248
 8747 288b C5070000 		.4byte	.LASF248
 8748 288f 17       		.byte	0x17
 8749 2890 5F       		.byte	0x5f
 8750 2891 4F       		.uleb128 0x4f
 8751 2892 C0060000 		.4byte	.LASF249
 8752 2896 C0060000 		.4byte	.LASF249
 8753 289a 17       		.byte	0x17
 8754 289b 5C       		.byte	0x5c
 8755 289c 4F       		.uleb128 0x4f
 8756 289d 02020000 		.4byte	.LASF250
 8757 28a1 02020000 		.4byte	.LASF250
 8758 28a5 17       		.byte	0x17
 8759 28a6 62       		.byte	0x62
 8760 28a7 00       		.byte	0
 8761              		.section	.debug_abbrev,"",%progbits
 8762              	.Ldebug_abbrev0:
 8763 0000 01       		.uleb128 0x1
 8764 0001 11       		.uleb128 0x11
 8765 0002 01       		.byte	0x1
 8766 0003 25       		.uleb128 0x25
 8767 0004 0E       		.uleb128 0xe
 8768 0005 13       		.uleb128 0x13
 8769 0006 0B       		.uleb128 0xb
 8770 0007 03       		.uleb128 0x3
 8771 0008 0E       		.uleb128 0xe
 8772 0009 1B       		.uleb128 0x1b
 8773 000a 0E       		.uleb128 0xe
 8774 000b 55       		.uleb128 0x55
 8775 000c 17       		.uleb128 0x17
 8776 000d 11       		.uleb128 0x11
 8777 000e 01       		.uleb128 0x1
 8778 000f 10       		.uleb128 0x10
 8779 0010 17       		.uleb128 0x17
 8780 0011 00       		.byte	0
 8781 0012 00       		.byte	0
 8782 0013 02       		.uleb128 0x2
 8783 0014 24       		.uleb128 0x24
 8784 0015 00       		.byte	0
 8785 0016 0B       		.uleb128 0xb
 8786 0017 0B       		.uleb128 0xb
 8787 0018 3E       		.uleb128 0x3e
 8788 0019 0B       		.uleb128 0xb
 8789 001a 03       		.uleb128 0x3
 8790 001b 08       		.uleb128 0x8
 8791 001c 00       		.byte	0
 8792 001d 00       		.byte	0
 8793 001e 03       		.uleb128 0x3
 8794 001f 16       		.uleb128 0x16
 8795 0020 00       		.byte	0
 8796 0021 03       		.uleb128 0x3
 8797 0022 0E       		.uleb128 0xe
 8798 0023 3A       		.uleb128 0x3a
 8799 0024 0B       		.uleb128 0xb
 8800 0025 3B       		.uleb128 0x3b
 8801 0026 0B       		.uleb128 0xb
ARM GAS  /var/folders/d2/nstgp4h54kz7g1l847x_b8wc0000gn/T//ccSYBGul.s 			page 156


 8802 0027 49       		.uleb128 0x49
 8803 0028 13       		.uleb128 0x13
 8804 0029 00       		.byte	0
 8805 002a 00       		.byte	0
 8806 002b 04       		.uleb128 0x4
 8807 002c 24       		.uleb128 0x24
 8808 002d 00       		.byte	0
 8809 002e 0B       		.uleb128 0xb
 8810 002f 0B       		.uleb128 0xb
 8811 0030 3E       		.uleb128 0x3e
 8812 0031 0B       		.uleb128 0xb
 8813 0032 03       		.uleb128 0x3
 8814 0033 0E       		.uleb128 0xe
 8815 0034 00       		.byte	0
 8816 0035 00       		.byte	0
 8817 0036 05       		.uleb128 0x5
 8818 0037 35       		.uleb128 0x35
 8819 0038 00       		.byte	0
 8820 0039 49       		.uleb128 0x49
 8821 003a 13       		.uleb128 0x13
 8822 003b 00       		.byte	0
 8823 003c 00       		.byte	0
 8824 003d 06       		.uleb128 0x6
 8825 003e 13       		.uleb128 0x13
 8826 003f 01       		.byte	0x1
 8827 0040 03       		.uleb128 0x3
 8828 0041 0E       		.uleb128 0xe
 8829 0042 0B       		.uleb128 0xb
 8830 0043 0B       		.uleb128 0xb
 8831 0044 3A       		.uleb128 0x3a
 8832 0045 0B       		.uleb128 0xb
 8833 0046 3B       		.uleb128 0x3b
 8834 0047 0B       		.uleb128 0xb
 8835 0048 01       		.uleb128 0x1
 8836 0049 13       		.uleb128 0x13
 8837 004a 00       		.byte	0
 8838 004b 00       		.byte	0
 8839 004c 07       		.uleb128 0x7
 8840 004d 0D       		.uleb128 0xd
 8841 004e 00       		.byte	0
 8842 004f 03       		.uleb128 0x3
 8843 0050 0E       		.uleb128 0xe
 8844 0051 3A       		.uleb128 0x3a
 8845 0052 0B       		.uleb128 0xb
 8846 0053 3B       		.uleb128 0x3b
 8847 0054 0B       		.uleb128 0xb
 8848 0055 49       		.uleb128 0x49
 8849 0056 13       		.uleb128 0x13
 8850 0057 38       		.uleb128 0x38
 8851 0058 0B       		.uleb128 0xb
 8852 0059 00       		.byte	0
 8853 005a 00       		.byte	0
 8854 005b 08       		.uleb128 0x8
 8855 005c 0D       		.uleb128 0xd
 8856 005d 00       		.byte	0
 8857 005e 03       		.uleb128 0x3
 8858 005f 08       		.uleb128 0x8
ARM GAS  /var/folders/d2/nstgp4h54kz7g1l847x_b8wc0000gn/T//ccSYBGul.s 			page 157


 8859 0060 3A       		.uleb128 0x3a
 8860 0061 0B       		.uleb128 0xb
 8861 0062 3B       		.uleb128 0x3b
 8862 0063 05       		.uleb128 0x5
 8863 0064 49       		.uleb128 0x49
 8864 0065 13       		.uleb128 0x13
 8865 0066 38       		.uleb128 0x38
 8866 0067 0B       		.uleb128 0xb
 8867 0068 00       		.byte	0
 8868 0069 00       		.byte	0
 8869 006a 09       		.uleb128 0x9
 8870 006b 0D       		.uleb128 0xd
 8871 006c 00       		.byte	0
 8872 006d 03       		.uleb128 0x3
 8873 006e 0E       		.uleb128 0xe
 8874 006f 3A       		.uleb128 0x3a
 8875 0070 0B       		.uleb128 0xb
 8876 0071 3B       		.uleb128 0x3b
 8877 0072 05       		.uleb128 0x5
 8878 0073 49       		.uleb128 0x49
 8879 0074 13       		.uleb128 0x13
 8880 0075 38       		.uleb128 0x38
 8881 0076 0B       		.uleb128 0xb
 8882 0077 00       		.byte	0
 8883 0078 00       		.byte	0
 8884 0079 0A       		.uleb128 0xa
 8885 007a 0F       		.uleb128 0xf
 8886 007b 00       		.byte	0
 8887 007c 0B       		.uleb128 0xb
 8888 007d 0B       		.uleb128 0xb
 8889 007e 49       		.uleb128 0x49
 8890 007f 13       		.uleb128 0x13
 8891 0080 00       		.byte	0
 8892 0081 00       		.byte	0
 8893 0082 0B       		.uleb128 0xb
 8894 0083 26       		.uleb128 0x26
 8895 0084 00       		.byte	0
 8896 0085 49       		.uleb128 0x49
 8897 0086 13       		.uleb128 0x13
 8898 0087 00       		.byte	0
 8899 0088 00       		.byte	0
 8900 0089 0C       		.uleb128 0xc
 8901 008a 13       		.uleb128 0x13
 8902 008b 01       		.byte	0x1
 8903 008c 03       		.uleb128 0x3
 8904 008d 0E       		.uleb128 0xe
 8905 008e 0B       		.uleb128 0xb
 8906 008f 0B       		.uleb128 0xb
 8907 0090 3A       		.uleb128 0x3a
 8908 0091 0B       		.uleb128 0xb
 8909 0092 3B       		.uleb128 0x3b
 8910 0093 05       		.uleb128 0x5
 8911 0094 01       		.uleb128 0x1
 8912 0095 13       		.uleb128 0x13
 8913 0096 00       		.byte	0
 8914 0097 00       		.byte	0
 8915 0098 0D       		.uleb128 0xd
ARM GAS  /var/folders/d2/nstgp4h54kz7g1l847x_b8wc0000gn/T//ccSYBGul.s 			page 158


 8916 0099 15       		.uleb128 0x15
 8917 009a 01       		.byte	0x1
 8918 009b 27       		.uleb128 0x27
 8919 009c 19       		.uleb128 0x19
 8920 009d 01       		.uleb128 0x1
 8921 009e 13       		.uleb128 0x13
 8922 009f 00       		.byte	0
 8923 00a0 00       		.byte	0
 8924 00a1 0E       		.uleb128 0xe
 8925 00a2 05       		.uleb128 0x5
 8926 00a3 00       		.byte	0
 8927 00a4 49       		.uleb128 0x49
 8928 00a5 13       		.uleb128 0x13
 8929 00a6 00       		.byte	0
 8930 00a7 00       		.byte	0
 8931 00a8 0F       		.uleb128 0xf
 8932 00a9 0F       		.uleb128 0xf
 8933 00aa 00       		.byte	0
 8934 00ab 0B       		.uleb128 0xb
 8935 00ac 0B       		.uleb128 0xb
 8936 00ad 00       		.byte	0
 8937 00ae 00       		.byte	0
 8938 00af 10       		.uleb128 0x10
 8939 00b0 13       		.uleb128 0x13
 8940 00b1 01       		.byte	0x1
 8941 00b2 03       		.uleb128 0x3
 8942 00b3 0E       		.uleb128 0xe
 8943 00b4 0B       		.uleb128 0xb
 8944 00b5 05       		.uleb128 0x5
 8945 00b6 3A       		.uleb128 0x3a
 8946 00b7 0B       		.uleb128 0xb
 8947 00b8 3B       		.uleb128 0x3b
 8948 00b9 05       		.uleb128 0x5
 8949 00ba 01       		.uleb128 0x1
 8950 00bb 13       		.uleb128 0x13
 8951 00bc 00       		.byte	0
 8952 00bd 00       		.byte	0
 8953 00be 11       		.uleb128 0x11
 8954 00bf 0D       		.uleb128 0xd
 8955 00c0 00       		.byte	0
 8956 00c1 03       		.uleb128 0x3
 8957 00c2 0E       		.uleb128 0xe
 8958 00c3 3A       		.uleb128 0x3a
 8959 00c4 0B       		.uleb128 0xb
 8960 00c5 3B       		.uleb128 0x3b
 8961 00c6 05       		.uleb128 0x5
 8962 00c7 49       		.uleb128 0x49
 8963 00c8 13       		.uleb128 0x13
 8964 00c9 38       		.uleb128 0x38
 8965 00ca 05       		.uleb128 0x5
 8966 00cb 00       		.byte	0
 8967 00cc 00       		.byte	0
 8968 00cd 12       		.uleb128 0x12
 8969 00ce 0D       		.uleb128 0xd
 8970 00cf 00       		.byte	0
 8971 00d0 03       		.uleb128 0x3
 8972 00d1 08       		.uleb128 0x8
ARM GAS  /var/folders/d2/nstgp4h54kz7g1l847x_b8wc0000gn/T//ccSYBGul.s 			page 159


 8973 00d2 3A       		.uleb128 0x3a
 8974 00d3 0B       		.uleb128 0xb
 8975 00d4 3B       		.uleb128 0x3b
 8976 00d5 05       		.uleb128 0x5
 8977 00d6 49       		.uleb128 0x49
 8978 00d7 13       		.uleb128 0x13
 8979 00d8 38       		.uleb128 0x38
 8980 00d9 05       		.uleb128 0x5
 8981 00da 00       		.byte	0
 8982 00db 00       		.byte	0
 8983 00dc 13       		.uleb128 0x13
 8984 00dd 34       		.uleb128 0x34
 8985 00de 00       		.byte	0
 8986 00df 03       		.uleb128 0x3
 8987 00e0 0E       		.uleb128 0xe
 8988 00e1 3A       		.uleb128 0x3a
 8989 00e2 0B       		.uleb128 0xb
 8990 00e3 3B       		.uleb128 0x3b
 8991 00e4 05       		.uleb128 0x5
 8992 00e5 49       		.uleb128 0x49
 8993 00e6 13       		.uleb128 0x13
 8994 00e7 3F       		.uleb128 0x3f
 8995 00e8 19       		.uleb128 0x19
 8996 00e9 3C       		.uleb128 0x3c
 8997 00ea 19       		.uleb128 0x19
 8998 00eb 00       		.byte	0
 8999 00ec 00       		.byte	0
 9000 00ed 14       		.uleb128 0x14
 9001 00ee 34       		.uleb128 0x34
 9002 00ef 00       		.byte	0
 9003 00f0 03       		.uleb128 0x3
 9004 00f1 0E       		.uleb128 0xe
 9005 00f2 3A       		.uleb128 0x3a
 9006 00f3 0B       		.uleb128 0xb
 9007 00f4 3B       		.uleb128 0x3b
 9008 00f5 0B       		.uleb128 0xb
 9009 00f6 49       		.uleb128 0x49
 9010 00f7 13       		.uleb128 0x13
 9011 00f8 3F       		.uleb128 0x3f
 9012 00f9 19       		.uleb128 0x19
 9013 00fa 3C       		.uleb128 0x3c
 9014 00fb 19       		.uleb128 0x19
 9015 00fc 00       		.byte	0
 9016 00fd 00       		.byte	0
 9017 00fe 15       		.uleb128 0x15
 9018 00ff 0D       		.uleb128 0xd
 9019 0100 00       		.byte	0
 9020 0101 03       		.uleb128 0x3
 9021 0102 08       		.uleb128 0x8
 9022 0103 3A       		.uleb128 0x3a
 9023 0104 0B       		.uleb128 0xb
 9024 0105 3B       		.uleb128 0x3b
 9025 0106 0B       		.uleb128 0xb
 9026 0107 49       		.uleb128 0x49
 9027 0108 13       		.uleb128 0x13
 9028 0109 38       		.uleb128 0x38
 9029 010a 0B       		.uleb128 0xb
ARM GAS  /var/folders/d2/nstgp4h54kz7g1l847x_b8wc0000gn/T//ccSYBGul.s 			page 160


 9030 010b 00       		.byte	0
 9031 010c 00       		.byte	0
 9032 010d 16       		.uleb128 0x16
 9033 010e 13       		.uleb128 0x13
 9034 010f 01       		.byte	0x1
 9035 0110 0B       		.uleb128 0xb
 9036 0111 0B       		.uleb128 0xb
 9037 0112 3A       		.uleb128 0x3a
 9038 0113 0B       		.uleb128 0xb
 9039 0114 3B       		.uleb128 0x3b
 9040 0115 0B       		.uleb128 0xb
 9041 0116 01       		.uleb128 0x1
 9042 0117 13       		.uleb128 0x13
 9043 0118 00       		.byte	0
 9044 0119 00       		.byte	0
 9045 011a 17       		.uleb128 0x17
 9046 011b 13       		.uleb128 0x13
 9047 011c 01       		.byte	0x1
 9048 011d 0B       		.uleb128 0xb
 9049 011e 05       		.uleb128 0x5
 9050 011f 3A       		.uleb128 0x3a
 9051 0120 0B       		.uleb128 0xb
 9052 0121 3B       		.uleb128 0x3b
 9053 0122 0B       		.uleb128 0xb
 9054 0123 01       		.uleb128 0x1
 9055 0124 13       		.uleb128 0x13
 9056 0125 00       		.byte	0
 9057 0126 00       		.byte	0
 9058 0127 18       		.uleb128 0x18
 9059 0128 01       		.uleb128 0x1
 9060 0129 01       		.byte	0x1
 9061 012a 49       		.uleb128 0x49
 9062 012b 13       		.uleb128 0x13
 9063 012c 01       		.uleb128 0x1
 9064 012d 13       		.uleb128 0x13
 9065 012e 00       		.byte	0
 9066 012f 00       		.byte	0
 9067 0130 19       		.uleb128 0x19
 9068 0131 21       		.uleb128 0x21
 9069 0132 00       		.byte	0
 9070 0133 49       		.uleb128 0x49
 9071 0134 13       		.uleb128 0x13
 9072 0135 2F       		.uleb128 0x2f
 9073 0136 0B       		.uleb128 0xb
 9074 0137 00       		.byte	0
 9075 0138 00       		.byte	0
 9076 0139 1A       		.uleb128 0x1a
 9077 013a 17       		.uleb128 0x17
 9078 013b 01       		.byte	0x1
 9079 013c 0B       		.uleb128 0xb
 9080 013d 0B       		.uleb128 0xb
 9081 013e 3A       		.uleb128 0x3a
 9082 013f 0B       		.uleb128 0xb
 9083 0140 3B       		.uleb128 0x3b
 9084 0141 0B       		.uleb128 0xb
 9085 0142 01       		.uleb128 0x1
 9086 0143 13       		.uleb128 0x13
ARM GAS  /var/folders/d2/nstgp4h54kz7g1l847x_b8wc0000gn/T//ccSYBGul.s 			page 161


 9087 0144 00       		.byte	0
 9088 0145 00       		.byte	0
 9089 0146 1B       		.uleb128 0x1b
 9090 0147 0D       		.uleb128 0xd
 9091 0148 00       		.byte	0
 9092 0149 03       		.uleb128 0x3
 9093 014a 0E       		.uleb128 0xe
 9094 014b 3A       		.uleb128 0x3a
 9095 014c 0B       		.uleb128 0xb
 9096 014d 3B       		.uleb128 0x3b
 9097 014e 05       		.uleb128 0x5
 9098 014f 49       		.uleb128 0x49
 9099 0150 13       		.uleb128 0x13
 9100 0151 00       		.byte	0
 9101 0152 00       		.byte	0
 9102 0153 1C       		.uleb128 0x1c
 9103 0154 34       		.uleb128 0x34
 9104 0155 00       		.byte	0
 9105 0156 03       		.uleb128 0x3
 9106 0157 08       		.uleb128 0x8
 9107 0158 3A       		.uleb128 0x3a
 9108 0159 0B       		.uleb128 0xb
 9109 015a 3B       		.uleb128 0x3b
 9110 015b 05       		.uleb128 0x5
 9111 015c 49       		.uleb128 0x49
 9112 015d 13       		.uleb128 0x13
 9113 015e 3F       		.uleb128 0x3f
 9114 015f 19       		.uleb128 0x19
 9115 0160 3C       		.uleb128 0x3c
 9116 0161 19       		.uleb128 0x19
 9117 0162 00       		.byte	0
 9118 0163 00       		.byte	0
 9119 0164 1D       		.uleb128 0x1d
 9120 0165 15       		.uleb128 0x15
 9121 0166 00       		.byte	0
 9122 0167 27       		.uleb128 0x27
 9123 0168 19       		.uleb128 0x19
 9124 0169 00       		.byte	0
 9125 016a 00       		.byte	0
 9126 016b 1E       		.uleb128 0x1e
 9127 016c 0D       		.uleb128 0xd
 9128 016d 00       		.byte	0
 9129 016e 03       		.uleb128 0x3
 9130 016f 08       		.uleb128 0x8
 9131 0170 3A       		.uleb128 0x3a
 9132 0171 0B       		.uleb128 0xb
 9133 0172 3B       		.uleb128 0x3b
 9134 0173 0B       		.uleb128 0xb
 9135 0174 49       		.uleb128 0x49
 9136 0175 13       		.uleb128 0x13
 9137 0176 38       		.uleb128 0x38
 9138 0177 05       		.uleb128 0x5
 9139 0178 00       		.byte	0
 9140 0179 00       		.byte	0
 9141 017a 1F       		.uleb128 0x1f
 9142 017b 17       		.uleb128 0x17
 9143 017c 01       		.byte	0x1
ARM GAS  /var/folders/d2/nstgp4h54kz7g1l847x_b8wc0000gn/T//ccSYBGul.s 			page 162


 9144 017d 03       		.uleb128 0x3
 9145 017e 0E       		.uleb128 0xe
 9146 017f 0B       		.uleb128 0xb
 9147 0180 05       		.uleb128 0x5
 9148 0181 3A       		.uleb128 0x3a
 9149 0182 0B       		.uleb128 0xb
 9150 0183 3B       		.uleb128 0x3b
 9151 0184 0B       		.uleb128 0xb
 9152 0185 01       		.uleb128 0x1
 9153 0186 13       		.uleb128 0x13
 9154 0187 00       		.byte	0
 9155 0188 00       		.byte	0
 9156 0189 20       		.uleb128 0x20
 9157 018a 0D       		.uleb128 0xd
 9158 018b 00       		.byte	0
 9159 018c 03       		.uleb128 0x3
 9160 018d 08       		.uleb128 0x8
 9161 018e 3A       		.uleb128 0x3a
 9162 018f 0B       		.uleb128 0xb
 9163 0190 3B       		.uleb128 0x3b
 9164 0191 0B       		.uleb128 0xb
 9165 0192 49       		.uleb128 0x49
 9166 0193 13       		.uleb128 0x13
 9167 0194 00       		.byte	0
 9168 0195 00       		.byte	0
 9169 0196 21       		.uleb128 0x21
 9170 0197 0D       		.uleb128 0xd
 9171 0198 00       		.byte	0
 9172 0199 03       		.uleb128 0x3
 9173 019a 0E       		.uleb128 0xe
 9174 019b 3A       		.uleb128 0x3a
 9175 019c 0B       		.uleb128 0xb
 9176 019d 3B       		.uleb128 0x3b
 9177 019e 0B       		.uleb128 0xb
 9178 019f 49       		.uleb128 0x49
 9179 01a0 13       		.uleb128 0x13
 9180 01a1 00       		.byte	0
 9181 01a2 00       		.byte	0
 9182 01a3 22       		.uleb128 0x22
 9183 01a4 21       		.uleb128 0x21
 9184 01a5 00       		.byte	0
 9185 01a6 49       		.uleb128 0x49
 9186 01a7 13       		.uleb128 0x13
 9187 01a8 2F       		.uleb128 0x2f
 9188 01a9 05       		.uleb128 0x5
 9189 01aa 00       		.byte	0
 9190 01ab 00       		.byte	0
 9191 01ac 23       		.uleb128 0x23
 9192 01ad 21       		.uleb128 0x21
 9193 01ae 00       		.byte	0
 9194 01af 00       		.byte	0
 9195 01b0 00       		.byte	0
 9196 01b1 24       		.uleb128 0x24
 9197 01b2 34       		.uleb128 0x34
 9198 01b3 00       		.byte	0
 9199 01b4 03       		.uleb128 0x3
 9200 01b5 08       		.uleb128 0x8
ARM GAS  /var/folders/d2/nstgp4h54kz7g1l847x_b8wc0000gn/T//ccSYBGul.s 			page 163


 9201 01b6 3A       		.uleb128 0x3a
 9202 01b7 0B       		.uleb128 0xb
 9203 01b8 3B       		.uleb128 0x3b
 9204 01b9 0B       		.uleb128 0xb
 9205 01ba 49       		.uleb128 0x49
 9206 01bb 13       		.uleb128 0x13
 9207 01bc 3F       		.uleb128 0x3f
 9208 01bd 19       		.uleb128 0x19
 9209 01be 3C       		.uleb128 0x3c
 9210 01bf 19       		.uleb128 0x19
 9211 01c0 00       		.byte	0
 9212 01c1 00       		.byte	0
 9213 01c2 25       		.uleb128 0x25
 9214 01c3 34       		.uleb128 0x34
 9215 01c4 00       		.byte	0
 9216 01c5 03       		.uleb128 0x3
 9217 01c6 08       		.uleb128 0x8
 9218 01c7 3A       		.uleb128 0x3a
 9219 01c8 0B       		.uleb128 0xb
 9220 01c9 3B       		.uleb128 0x3b
 9221 01ca 0B       		.uleb128 0xb
 9222 01cb 49       		.uleb128 0x49
 9223 01cc 13       		.uleb128 0x13
 9224 01cd 02       		.uleb128 0x2
 9225 01ce 18       		.uleb128 0x18
 9226 01cf 00       		.byte	0
 9227 01d0 00       		.byte	0
 9228 01d1 26       		.uleb128 0x26
 9229 01d2 34       		.uleb128 0x34
 9230 01d3 00       		.byte	0
 9231 01d4 03       		.uleb128 0x3
 9232 01d5 0E       		.uleb128 0xe
 9233 01d6 3A       		.uleb128 0x3a
 9234 01d7 0B       		.uleb128 0xb
 9235 01d8 3B       		.uleb128 0x3b
 9236 01d9 0B       		.uleb128 0xb
 9237 01da 49       		.uleb128 0x49
 9238 01db 13       		.uleb128 0x13
 9239 01dc 3F       		.uleb128 0x3f
 9240 01dd 19       		.uleb128 0x19
 9241 01de 02       		.uleb128 0x2
 9242 01df 18       		.uleb128 0x18
 9243 01e0 00       		.byte	0
 9244 01e1 00       		.byte	0
 9245 01e2 27       		.uleb128 0x27
 9246 01e3 34       		.uleb128 0x34
 9247 01e4 00       		.byte	0
 9248 01e5 03       		.uleb128 0x3
 9249 01e6 0E       		.uleb128 0xe
 9250 01e7 3A       		.uleb128 0x3a
 9251 01e8 0B       		.uleb128 0xb
 9252 01e9 3B       		.uleb128 0x3b
 9253 01ea 05       		.uleb128 0x5
 9254 01eb 49       		.uleb128 0x49
 9255 01ec 13       		.uleb128 0x13
 9256 01ed 3F       		.uleb128 0x3f
 9257 01ee 19       		.uleb128 0x19
ARM GAS  /var/folders/d2/nstgp4h54kz7g1l847x_b8wc0000gn/T//ccSYBGul.s 			page 164


 9258 01ef 02       		.uleb128 0x2
 9259 01f0 18       		.uleb128 0x18
 9260 01f1 00       		.byte	0
 9261 01f2 00       		.byte	0
 9262 01f3 28       		.uleb128 0x28
 9263 01f4 2E       		.uleb128 0x2e
 9264 01f5 01       		.byte	0x1
 9265 01f6 03       		.uleb128 0x3
 9266 01f7 0E       		.uleb128 0xe
 9267 01f8 3A       		.uleb128 0x3a
 9268 01f9 0B       		.uleb128 0xb
 9269 01fa 3B       		.uleb128 0x3b
 9270 01fb 05       		.uleb128 0x5
 9271 01fc 27       		.uleb128 0x27
 9272 01fd 19       		.uleb128 0x19
 9273 01fe 11       		.uleb128 0x11
 9274 01ff 01       		.uleb128 0x1
 9275 0200 12       		.uleb128 0x12
 9276 0201 06       		.uleb128 0x6
 9277 0202 40       		.uleb128 0x40
 9278 0203 18       		.uleb128 0x18
 9279 0204 9742     		.uleb128 0x2117
 9280 0206 19       		.uleb128 0x19
 9281 0207 01       		.uleb128 0x1
 9282 0208 13       		.uleb128 0x13
 9283 0209 00       		.byte	0
 9284 020a 00       		.byte	0
 9285 020b 29       		.uleb128 0x29
 9286 020c 34       		.uleb128 0x34
 9287 020d 00       		.byte	0
 9288 020e 03       		.uleb128 0x3
 9289 020f 0E       		.uleb128 0xe
 9290 0210 3A       		.uleb128 0x3a
 9291 0211 0B       		.uleb128 0xb
 9292 0212 3B       		.uleb128 0x3b
 9293 0213 05       		.uleb128 0x5
 9294 0214 49       		.uleb128 0x49
 9295 0215 13       		.uleb128 0x13
 9296 0216 00       		.byte	0
 9297 0217 00       		.byte	0
 9298 0218 2A       		.uleb128 0x2a
 9299 0219 1D       		.uleb128 0x1d
 9300 021a 01       		.byte	0x1
 9301 021b 31       		.uleb128 0x31
 9302 021c 13       		.uleb128 0x13
 9303 021d 52       		.uleb128 0x52
 9304 021e 01       		.uleb128 0x1
 9305 021f 55       		.uleb128 0x55
 9306 0220 17       		.uleb128 0x17
 9307 0221 58       		.uleb128 0x58
 9308 0222 0B       		.uleb128 0xb
 9309 0223 59       		.uleb128 0x59
 9310 0224 05       		.uleb128 0x5
 9311 0225 01       		.uleb128 0x1
 9312 0226 13       		.uleb128 0x13
 9313 0227 00       		.byte	0
 9314 0228 00       		.byte	0
ARM GAS  /var/folders/d2/nstgp4h54kz7g1l847x_b8wc0000gn/T//ccSYBGul.s 			page 165


 9315 0229 2B       		.uleb128 0x2b
 9316 022a 1D       		.uleb128 0x1d
 9317 022b 00       		.byte	0
 9318 022c 31       		.uleb128 0x31
 9319 022d 13       		.uleb128 0x13
 9320 022e 11       		.uleb128 0x11
 9321 022f 01       		.uleb128 0x1
 9322 0230 12       		.uleb128 0x12
 9323 0231 06       		.uleb128 0x6
 9324 0232 58       		.uleb128 0x58
 9325 0233 0B       		.uleb128 0xb
 9326 0234 59       		.uleb128 0x59
 9327 0235 0B       		.uleb128 0xb
 9328 0236 00       		.byte	0
 9329 0237 00       		.byte	0
 9330 0238 2C       		.uleb128 0x2c
 9331 0239 898201   		.uleb128 0x4109
 9332 023c 01       		.byte	0x1
 9333 023d 11       		.uleb128 0x11
 9334 023e 01       		.uleb128 0x1
 9335 023f 31       		.uleb128 0x31
 9336 0240 13       		.uleb128 0x13
 9337 0241 01       		.uleb128 0x1
 9338 0242 13       		.uleb128 0x13
 9339 0243 00       		.byte	0
 9340 0244 00       		.byte	0
 9341 0245 2D       		.uleb128 0x2d
 9342 0246 8A8201   		.uleb128 0x410a
 9343 0249 00       		.byte	0
 9344 024a 02       		.uleb128 0x2
 9345 024b 18       		.uleb128 0x18
 9346 024c 9142     		.uleb128 0x2111
 9347 024e 18       		.uleb128 0x18
 9348 024f 00       		.byte	0
 9349 0250 00       		.byte	0
 9350 0251 2E       		.uleb128 0x2e
 9351 0252 898201   		.uleb128 0x4109
 9352 0255 00       		.byte	0
 9353 0256 11       		.uleb128 0x11
 9354 0257 01       		.uleb128 0x1
 9355 0258 31       		.uleb128 0x31
 9356 0259 13       		.uleb128 0x13
 9357 025a 00       		.byte	0
 9358 025b 00       		.byte	0
 9359 025c 2F       		.uleb128 0x2f
 9360 025d 898201   		.uleb128 0x4109
 9361 0260 01       		.byte	0x1
 9362 0261 11       		.uleb128 0x11
 9363 0262 01       		.uleb128 0x1
 9364 0263 9542     		.uleb128 0x2115
 9365 0265 19       		.uleb128 0x19
 9366 0266 31       		.uleb128 0x31
 9367 0267 13       		.uleb128 0x13
 9368 0268 01       		.uleb128 0x1
 9369 0269 13       		.uleb128 0x13
 9370 026a 00       		.byte	0
 9371 026b 00       		.byte	0
ARM GAS  /var/folders/d2/nstgp4h54kz7g1l847x_b8wc0000gn/T//ccSYBGul.s 			page 166


 9372 026c 30       		.uleb128 0x30
 9373 026d 05       		.uleb128 0x5
 9374 026e 00       		.byte	0
 9375 026f 03       		.uleb128 0x3
 9376 0270 08       		.uleb128 0x8
 9377 0271 3A       		.uleb128 0x3a
 9378 0272 0B       		.uleb128 0xb
 9379 0273 3B       		.uleb128 0x3b
 9380 0274 05       		.uleb128 0x5
 9381 0275 49       		.uleb128 0x49
 9382 0276 13       		.uleb128 0x13
 9383 0277 02       		.uleb128 0x2
 9384 0278 17       		.uleb128 0x17
 9385 0279 00       		.byte	0
 9386 027a 00       		.byte	0
 9387 027b 31       		.uleb128 0x31
 9388 027c 2E       		.uleb128 0x2e
 9389 027d 00       		.byte	0
 9390 027e 03       		.uleb128 0x3
 9391 027f 0E       		.uleb128 0xe
 9392 0280 3A       		.uleb128 0x3a
 9393 0281 0B       		.uleb128 0xb
 9394 0282 3B       		.uleb128 0x3b
 9395 0283 05       		.uleb128 0x5
 9396 0284 27       		.uleb128 0x27
 9397 0285 19       		.uleb128 0x19
 9398 0286 00       		.byte	0
 9399 0287 00       		.byte	0
 9400 0288 32       		.uleb128 0x32
 9401 0289 1D       		.uleb128 0x1d
 9402 028a 01       		.byte	0x1
 9403 028b 31       		.uleb128 0x31
 9404 028c 13       		.uleb128 0x13
 9405 028d 52       		.uleb128 0x52
 9406 028e 01       		.uleb128 0x1
 9407 028f 55       		.uleb128 0x55
 9408 0290 17       		.uleb128 0x17
 9409 0291 58       		.uleb128 0x58
 9410 0292 0B       		.uleb128 0xb
 9411 0293 59       		.uleb128 0x59
 9412 0294 05       		.uleb128 0x5
 9413 0295 00       		.byte	0
 9414 0296 00       		.byte	0
 9415 0297 33       		.uleb128 0x33
 9416 0298 05       		.uleb128 0x5
 9417 0299 00       		.byte	0
 9418 029a 31       		.uleb128 0x31
 9419 029b 13       		.uleb128 0x13
 9420 029c 02       		.uleb128 0x2
 9421 029d 17       		.uleb128 0x17
 9422 029e 00       		.byte	0
 9423 029f 00       		.byte	0
 9424 02a0 34       		.uleb128 0x34
 9425 02a1 0B       		.uleb128 0xb
 9426 02a2 01       		.byte	0x1
 9427 02a3 55       		.uleb128 0x55
 9428 02a4 17       		.uleb128 0x17
ARM GAS  /var/folders/d2/nstgp4h54kz7g1l847x_b8wc0000gn/T//ccSYBGul.s 			page 167


 9429 02a5 00       		.byte	0
 9430 02a6 00       		.byte	0
 9431 02a7 35       		.uleb128 0x35
 9432 02a8 34       		.uleb128 0x34
 9433 02a9 00       		.byte	0
 9434 02aa 31       		.uleb128 0x31
 9435 02ab 13       		.uleb128 0x13
 9436 02ac 00       		.byte	0
 9437 02ad 00       		.byte	0
 9438 02ae 36       		.uleb128 0x36
 9439 02af 1D       		.uleb128 0x1d
 9440 02b0 01       		.byte	0x1
 9441 02b1 31       		.uleb128 0x31
 9442 02b2 13       		.uleb128 0x13
 9443 02b3 11       		.uleb128 0x11
 9444 02b4 01       		.uleb128 0x1
 9445 02b5 12       		.uleb128 0x12
 9446 02b6 06       		.uleb128 0x6
 9447 02b7 58       		.uleb128 0x58
 9448 02b8 0B       		.uleb128 0xb
 9449 02b9 59       		.uleb128 0x59
 9450 02ba 05       		.uleb128 0x5
 9451 02bb 01       		.uleb128 0x1
 9452 02bc 13       		.uleb128 0x13
 9453 02bd 00       		.byte	0
 9454 02be 00       		.byte	0
 9455 02bf 37       		.uleb128 0x37
 9456 02c0 1D       		.uleb128 0x1d
 9457 02c1 01       		.byte	0x1
 9458 02c2 31       		.uleb128 0x31
 9459 02c3 13       		.uleb128 0x13
 9460 02c4 11       		.uleb128 0x11
 9461 02c5 01       		.uleb128 0x1
 9462 02c6 12       		.uleb128 0x12
 9463 02c7 06       		.uleb128 0x6
 9464 02c8 58       		.uleb128 0x58
 9465 02c9 0B       		.uleb128 0xb
 9466 02ca 59       		.uleb128 0x59
 9467 02cb 05       		.uleb128 0x5
 9468 02cc 00       		.byte	0
 9469 02cd 00       		.byte	0
 9470 02ce 38       		.uleb128 0x38
 9471 02cf 898201   		.uleb128 0x4109
 9472 02d2 01       		.byte	0x1
 9473 02d3 11       		.uleb128 0x11
 9474 02d4 01       		.uleb128 0x1
 9475 02d5 31       		.uleb128 0x31
 9476 02d6 13       		.uleb128 0x13
 9477 02d7 00       		.byte	0
 9478 02d8 00       		.byte	0
 9479 02d9 39       		.uleb128 0x39
 9480 02da 2E       		.uleb128 0x2e
 9481 02db 00       		.byte	0
 9482 02dc 03       		.uleb128 0x3
 9483 02dd 0E       		.uleb128 0xe
 9484 02de 3A       		.uleb128 0x3a
 9485 02df 0B       		.uleb128 0xb
ARM GAS  /var/folders/d2/nstgp4h54kz7g1l847x_b8wc0000gn/T//ccSYBGul.s 			page 168


 9486 02e0 3B       		.uleb128 0x3b
 9487 02e1 05       		.uleb128 0x5
 9488 02e2 27       		.uleb128 0x27
 9489 02e3 19       		.uleb128 0x19
 9490 02e4 20       		.uleb128 0x20
 9491 02e5 0B       		.uleb128 0xb
 9492 02e6 00       		.byte	0
 9493 02e7 00       		.byte	0
 9494 02e8 3A       		.uleb128 0x3a
 9495 02e9 34       		.uleb128 0x34
 9496 02ea 00       		.byte	0
 9497 02eb 03       		.uleb128 0x3
 9498 02ec 08       		.uleb128 0x8
 9499 02ed 3A       		.uleb128 0x3a
 9500 02ee 0B       		.uleb128 0xb
 9501 02ef 3B       		.uleb128 0x3b
 9502 02f0 05       		.uleb128 0x5
 9503 02f1 49       		.uleb128 0x49
 9504 02f2 13       		.uleb128 0x13
 9505 02f3 00       		.byte	0
 9506 02f4 00       		.byte	0
 9507 02f5 3B       		.uleb128 0x3b
 9508 02f6 34       		.uleb128 0x34
 9509 02f7 00       		.byte	0
 9510 02f8 03       		.uleb128 0x3
 9511 02f9 08       		.uleb128 0x8
 9512 02fa 3A       		.uleb128 0x3a
 9513 02fb 0B       		.uleb128 0xb
 9514 02fc 3B       		.uleb128 0x3b
 9515 02fd 05       		.uleb128 0x5
 9516 02fe 49       		.uleb128 0x49
 9517 02ff 13       		.uleb128 0x13
 9518 0300 02       		.uleb128 0x2
 9519 0301 17       		.uleb128 0x17
 9520 0302 00       		.byte	0
 9521 0303 00       		.byte	0
 9522 0304 3C       		.uleb128 0x3c
 9523 0305 1D       		.uleb128 0x1d
 9524 0306 00       		.byte	0
 9525 0307 31       		.uleb128 0x31
 9526 0308 13       		.uleb128 0x13
 9527 0309 11       		.uleb128 0x11
 9528 030a 01       		.uleb128 0x1
 9529 030b 12       		.uleb128 0x12
 9530 030c 06       		.uleb128 0x6
 9531 030d 58       		.uleb128 0x58
 9532 030e 0B       		.uleb128 0xb
 9533 030f 59       		.uleb128 0x59
 9534 0310 05       		.uleb128 0x5
 9535 0311 00       		.byte	0
 9536 0312 00       		.byte	0
 9537 0313 3D       		.uleb128 0x3d
 9538 0314 0B       		.uleb128 0xb
 9539 0315 01       		.byte	0x1
 9540 0316 11       		.uleb128 0x11
 9541 0317 01       		.uleb128 0x1
 9542 0318 12       		.uleb128 0x12
ARM GAS  /var/folders/d2/nstgp4h54kz7g1l847x_b8wc0000gn/T//ccSYBGul.s 			page 169


 9543 0319 06       		.uleb128 0x6
 9544 031a 00       		.byte	0
 9545 031b 00       		.byte	0
 9546 031c 3E       		.uleb128 0x3e
 9547 031d 898201   		.uleb128 0x4109
 9548 0320 00       		.byte	0
 9549 0321 11       		.uleb128 0x11
 9550 0322 01       		.uleb128 0x1
 9551 0323 9542     		.uleb128 0x2115
 9552 0325 19       		.uleb128 0x19
 9553 0326 31       		.uleb128 0x31
 9554 0327 13       		.uleb128 0x13
 9555 0328 00       		.byte	0
 9556 0329 00       		.byte	0
 9557 032a 3F       		.uleb128 0x3f
 9558 032b 1D       		.uleb128 0x1d
 9559 032c 01       		.byte	0x1
 9560 032d 31       		.uleb128 0x31
 9561 032e 13       		.uleb128 0x13
 9562 032f 52       		.uleb128 0x52
 9563 0330 01       		.uleb128 0x1
 9564 0331 55       		.uleb128 0x55
 9565 0332 17       		.uleb128 0x17
 9566 0333 58       		.uleb128 0x58
 9567 0334 0B       		.uleb128 0xb
 9568 0335 59       		.uleb128 0x59
 9569 0336 0B       		.uleb128 0xb
 9570 0337 01       		.uleb128 0x1
 9571 0338 13       		.uleb128 0x13
 9572 0339 00       		.byte	0
 9573 033a 00       		.byte	0
 9574 033b 40       		.uleb128 0x40
 9575 033c 1D       		.uleb128 0x1d
 9576 033d 00       		.byte	0
 9577 033e 31       		.uleb128 0x31
 9578 033f 13       		.uleb128 0x13
 9579 0340 52       		.uleb128 0x52
 9580 0341 01       		.uleb128 0x1
 9581 0342 55       		.uleb128 0x55
 9582 0343 17       		.uleb128 0x17
 9583 0344 58       		.uleb128 0x58
 9584 0345 0B       		.uleb128 0xb
 9585 0346 59       		.uleb128 0x59
 9586 0347 0B       		.uleb128 0xb
 9587 0348 00       		.byte	0
 9588 0349 00       		.byte	0
 9589 034a 41       		.uleb128 0x41
 9590 034b 1D       		.uleb128 0x1d
 9591 034c 01       		.byte	0x1
 9592 034d 31       		.uleb128 0x31
 9593 034e 13       		.uleb128 0x13
 9594 034f 52       		.uleb128 0x52
 9595 0350 01       		.uleb128 0x1
 9596 0351 55       		.uleb128 0x55
 9597 0352 17       		.uleb128 0x17
 9598 0353 58       		.uleb128 0x58
 9599 0354 0B       		.uleb128 0xb
ARM GAS  /var/folders/d2/nstgp4h54kz7g1l847x_b8wc0000gn/T//ccSYBGul.s 			page 170


 9600 0355 59       		.uleb128 0x59
 9601 0356 0B       		.uleb128 0xb
 9602 0357 00       		.byte	0
 9603 0358 00       		.byte	0
 9604 0359 42       		.uleb128 0x42
 9605 035a 2E       		.uleb128 0x2e
 9606 035b 01       		.byte	0x1
 9607 035c 03       		.uleb128 0x3
 9608 035d 0E       		.uleb128 0xe
 9609 035e 3A       		.uleb128 0x3a
 9610 035f 0B       		.uleb128 0xb
 9611 0360 3B       		.uleb128 0x3b
 9612 0361 0B       		.uleb128 0xb
 9613 0362 27       		.uleb128 0x27
 9614 0363 19       		.uleb128 0x19
 9615 0364 11       		.uleb128 0x11
 9616 0365 01       		.uleb128 0x1
 9617 0366 12       		.uleb128 0x12
 9618 0367 06       		.uleb128 0x6
 9619 0368 40       		.uleb128 0x40
 9620 0369 18       		.uleb128 0x18
 9621 036a 9742     		.uleb128 0x2117
 9622 036c 19       		.uleb128 0x19
 9623 036d 01       		.uleb128 0x1
 9624 036e 13       		.uleb128 0x13
 9625 036f 00       		.byte	0
 9626 0370 00       		.byte	0
 9627 0371 43       		.uleb128 0x43
 9628 0372 05       		.uleb128 0x5
 9629 0373 00       		.byte	0
 9630 0374 03       		.uleb128 0x3
 9631 0375 08       		.uleb128 0x8
 9632 0376 3A       		.uleb128 0x3a
 9633 0377 0B       		.uleb128 0xb
 9634 0378 3B       		.uleb128 0x3b
 9635 0379 0B       		.uleb128 0xb
 9636 037a 49       		.uleb128 0x49
 9637 037b 13       		.uleb128 0x13
 9638 037c 02       		.uleb128 0x2
 9639 037d 17       		.uleb128 0x17
 9640 037e 00       		.byte	0
 9641 037f 00       		.byte	0
 9642 0380 44       		.uleb128 0x44
 9643 0381 34       		.uleb128 0x34
 9644 0382 00       		.byte	0
 9645 0383 03       		.uleb128 0x3
 9646 0384 0E       		.uleb128 0xe
 9647 0385 3A       		.uleb128 0x3a
 9648 0386 0B       		.uleb128 0xb
 9649 0387 3B       		.uleb128 0x3b
 9650 0388 0B       		.uleb128 0xb
 9651 0389 49       		.uleb128 0x49
 9652 038a 13       		.uleb128 0x13
 9653 038b 00       		.byte	0
 9654 038c 00       		.byte	0
 9655 038d 45       		.uleb128 0x45
 9656 038e 2E       		.uleb128 0x2e
ARM GAS  /var/folders/d2/nstgp4h54kz7g1l847x_b8wc0000gn/T//ccSYBGul.s 			page 171


 9657 038f 00       		.byte	0
 9658 0390 03       		.uleb128 0x3
 9659 0391 0E       		.uleb128 0xe
 9660 0392 3A       		.uleb128 0x3a
 9661 0393 0B       		.uleb128 0xb
 9662 0394 3B       		.uleb128 0x3b
 9663 0395 0B       		.uleb128 0xb
 9664 0396 27       		.uleb128 0x27
 9665 0397 19       		.uleb128 0x19
 9666 0398 00       		.byte	0
 9667 0399 00       		.byte	0
 9668 039a 46       		.uleb128 0x46
 9669 039b 2E       		.uleb128 0x2e
 9670 039c 00       		.byte	0
 9671 039d 03       		.uleb128 0x3
 9672 039e 0E       		.uleb128 0xe
 9673 039f 3A       		.uleb128 0x3a
 9674 03a0 0B       		.uleb128 0xb
 9675 03a1 3B       		.uleb128 0x3b
 9676 03a2 0B       		.uleb128 0xb
 9677 03a3 27       		.uleb128 0x27
 9678 03a4 19       		.uleb128 0x19
 9679 03a5 49       		.uleb128 0x49
 9680 03a6 13       		.uleb128 0x13
 9681 03a7 20       		.uleb128 0x20
 9682 03a8 0B       		.uleb128 0xb
 9683 03a9 00       		.byte	0
 9684 03aa 00       		.byte	0
 9685 03ab 47       		.uleb128 0x47
 9686 03ac 2E       		.uleb128 0x2e
 9687 03ad 01       		.byte	0x1
 9688 03ae 03       		.uleb128 0x3
 9689 03af 0E       		.uleb128 0xe
 9690 03b0 3A       		.uleb128 0x3a
 9691 03b1 0B       		.uleb128 0xb
 9692 03b2 3B       		.uleb128 0x3b
 9693 03b3 0B       		.uleb128 0xb
 9694 03b4 27       		.uleb128 0x27
 9695 03b5 19       		.uleb128 0x19
 9696 03b6 49       		.uleb128 0x49
 9697 03b7 13       		.uleb128 0x13
 9698 03b8 20       		.uleb128 0x20
 9699 03b9 0B       		.uleb128 0xb
 9700 03ba 01       		.uleb128 0x1
 9701 03bb 13       		.uleb128 0x13
 9702 03bc 00       		.byte	0
 9703 03bd 00       		.byte	0
 9704 03be 48       		.uleb128 0x48
 9705 03bf 2E       		.uleb128 0x2e
 9706 03c0 01       		.byte	0x1
 9707 03c1 03       		.uleb128 0x3
 9708 03c2 0E       		.uleb128 0xe
 9709 03c3 3A       		.uleb128 0x3a
 9710 03c4 0B       		.uleb128 0xb
 9711 03c5 3B       		.uleb128 0x3b
 9712 03c6 05       		.uleb128 0x5
 9713 03c7 27       		.uleb128 0x27
ARM GAS  /var/folders/d2/nstgp4h54kz7g1l847x_b8wc0000gn/T//ccSYBGul.s 			page 172


 9714 03c8 19       		.uleb128 0x19
 9715 03c9 20       		.uleb128 0x20
 9716 03ca 0B       		.uleb128 0xb
 9717 03cb 01       		.uleb128 0x1
 9718 03cc 13       		.uleb128 0x13
 9719 03cd 00       		.byte	0
 9720 03ce 00       		.byte	0
 9721 03cf 49       		.uleb128 0x49
 9722 03d0 34       		.uleb128 0x34
 9723 03d1 00       		.byte	0
 9724 03d2 03       		.uleb128 0x3
 9725 03d3 0E       		.uleb128 0xe
 9726 03d4 49       		.uleb128 0x49
 9727 03d5 13       		.uleb128 0x13
 9728 03d6 34       		.uleb128 0x34
 9729 03d7 19       		.uleb128 0x19
 9730 03d8 1C       		.uleb128 0x1c
 9731 03d9 0E       		.uleb128 0xe
 9732 03da 00       		.byte	0
 9733 03db 00       		.byte	0
 9734 03dc 4A       		.uleb128 0x4a
 9735 03dd 2E       		.uleb128 0x2e
 9736 03de 01       		.byte	0x1
 9737 03df 03       		.uleb128 0x3
 9738 03e0 0E       		.uleb128 0xe
 9739 03e1 3A       		.uleb128 0x3a
 9740 03e2 0B       		.uleb128 0xb
 9741 03e3 3B       		.uleb128 0x3b
 9742 03e4 05       		.uleb128 0x5
 9743 03e5 27       		.uleb128 0x27
 9744 03e6 19       		.uleb128 0x19
 9745 03e7 49       		.uleb128 0x49
 9746 03e8 13       		.uleb128 0x13
 9747 03e9 20       		.uleb128 0x20
 9748 03ea 0B       		.uleb128 0xb
 9749 03eb 01       		.uleb128 0x1
 9750 03ec 13       		.uleb128 0x13
 9751 03ed 00       		.byte	0
 9752 03ee 00       		.byte	0
 9753 03ef 4B       		.uleb128 0x4b
 9754 03f0 05       		.uleb128 0x5
 9755 03f1 00       		.byte	0
 9756 03f2 03       		.uleb128 0x3
 9757 03f3 08       		.uleb128 0x8
 9758 03f4 3A       		.uleb128 0x3a
 9759 03f5 0B       		.uleb128 0xb
 9760 03f6 3B       		.uleb128 0x3b
 9761 03f7 05       		.uleb128 0x5
 9762 03f8 49       		.uleb128 0x49
 9763 03f9 13       		.uleb128 0x13
 9764 03fa 00       		.byte	0
 9765 03fb 00       		.byte	0
 9766 03fc 4C       		.uleb128 0x4c
 9767 03fd 05       		.uleb128 0x5
 9768 03fe 00       		.byte	0
 9769 03ff 03       		.uleb128 0x3
 9770 0400 0E       		.uleb128 0xe
ARM GAS  /var/folders/d2/nstgp4h54kz7g1l847x_b8wc0000gn/T//ccSYBGul.s 			page 173


 9771 0401 3A       		.uleb128 0x3a
 9772 0402 0B       		.uleb128 0xb
 9773 0403 3B       		.uleb128 0x3b
 9774 0404 05       		.uleb128 0x5
 9775 0405 49       		.uleb128 0x49
 9776 0406 13       		.uleb128 0x13
 9777 0407 00       		.byte	0
 9778 0408 00       		.byte	0
 9779 0409 4D       		.uleb128 0x4d
 9780 040a 2E       		.uleb128 0x2e
 9781 040b 01       		.byte	0x1
 9782 040c 31       		.uleb128 0x31
 9783 040d 13       		.uleb128 0x13
 9784 040e 11       		.uleb128 0x11
 9785 040f 01       		.uleb128 0x1
 9786 0410 12       		.uleb128 0x12
 9787 0411 06       		.uleb128 0x6
 9788 0412 40       		.uleb128 0x40
 9789 0413 18       		.uleb128 0x18
 9790 0414 9742     		.uleb128 0x2117
 9791 0416 19       		.uleb128 0x19
 9792 0417 01       		.uleb128 0x1
 9793 0418 13       		.uleb128 0x13
 9794 0419 00       		.byte	0
 9795 041a 00       		.byte	0
 9796 041b 4E       		.uleb128 0x4e
 9797 041c 05       		.uleb128 0x5
 9798 041d 00       		.byte	0
 9799 041e 31       		.uleb128 0x31
 9800 041f 13       		.uleb128 0x13
 9801 0420 00       		.byte	0
 9802 0421 00       		.byte	0
 9803 0422 4F       		.uleb128 0x4f
 9804 0423 2E       		.uleb128 0x2e
 9805 0424 00       		.byte	0
 9806 0425 3F       		.uleb128 0x3f
 9807 0426 19       		.uleb128 0x19
 9808 0427 3C       		.uleb128 0x3c
 9809 0428 19       		.uleb128 0x19
 9810 0429 6E       		.uleb128 0x6e
 9811 042a 0E       		.uleb128 0xe
 9812 042b 03       		.uleb128 0x3
 9813 042c 0E       		.uleb128 0xe
 9814 042d 3A       		.uleb128 0x3a
 9815 042e 0B       		.uleb128 0xb
 9816 042f 3B       		.uleb128 0x3b
 9817 0430 0B       		.uleb128 0xb
 9818 0431 00       		.byte	0
 9819 0432 00       		.byte	0
 9820 0433 50       		.uleb128 0x50
 9821 0434 2E       		.uleb128 0x2e
 9822 0435 00       		.byte	0
 9823 0436 3F       		.uleb128 0x3f
 9824 0437 19       		.uleb128 0x19
 9825 0438 3C       		.uleb128 0x3c
 9826 0439 19       		.uleb128 0x19
 9827 043a 6E       		.uleb128 0x6e
ARM GAS  /var/folders/d2/nstgp4h54kz7g1l847x_b8wc0000gn/T//ccSYBGul.s 			page 174


 9828 043b 0E       		.uleb128 0xe
 9829 043c 03       		.uleb128 0x3
 9830 043d 0E       		.uleb128 0xe
 9831 043e 00       		.byte	0
 9832 043f 00       		.byte	0
 9833 0440 51       		.uleb128 0x51
 9834 0441 2E       		.uleb128 0x2e
 9835 0442 00       		.byte	0
 9836 0443 3F       		.uleb128 0x3f
 9837 0444 19       		.uleb128 0x19
 9838 0445 3C       		.uleb128 0x3c
 9839 0446 19       		.uleb128 0x19
 9840 0447 6E       		.uleb128 0x6e
 9841 0448 0E       		.uleb128 0xe
 9842 0449 03       		.uleb128 0x3
 9843 044a 0E       		.uleb128 0xe
 9844 044b 3A       		.uleb128 0x3a
 9845 044c 0B       		.uleb128 0xb
 9846 044d 3B       		.uleb128 0x3b
 9847 044e 05       		.uleb128 0x5
 9848 044f 00       		.byte	0
 9849 0450 00       		.byte	0
 9850 0451 00       		.byte	0
 9851              		.section	.debug_loc,"",%progbits
 9852              	.Ldebug_loc0:
 9853              	.LLST1:
 9854 0000 00000000 		.4byte	.LVL18
 9855 0004 0C000000 		.4byte	.LVL19
 9856 0008 0100     		.2byte	0x1
 9857 000a 50       		.byte	0x50
 9858 000b 0C000000 		.4byte	.LVL19
 9859 000f 28000000 		.4byte	.LVL22
 9860 0013 0100     		.2byte	0x1
 9861 0015 55       		.byte	0x55
 9862 0016 28000000 		.4byte	.LVL22
 9863 001a 2C000000 		.4byte	.LVL23
 9864 001e 0400     		.2byte	0x4
 9865 0020 F3       		.byte	0xf3
 9866 0021 01       		.uleb128 0x1
 9867 0022 50       		.byte	0x50
 9868 0023 9F       		.byte	0x9f
 9869 0024 2C000000 		.4byte	.LVL23
 9870 0028 38000000 		.4byte	.LFE247
 9871 002c 0100     		.2byte	0x1
 9872 002e 55       		.byte	0x55
 9873 002f 00000000 		.4byte	0
 9874 0033 00000000 		.4byte	0
 9875              	.LLST17:
 9876 0037 00000000 		.4byte	.LVL185
 9877 003b 0E000000 		.4byte	.LVL186
 9878 003f 0100     		.2byte	0x1
 9879 0041 50       		.byte	0x50
 9880 0042 0E000000 		.4byte	.LVL186
 9881 0046 3E000000 		.4byte	.LVL192
 9882 004a 0100     		.2byte	0x1
 9883 004c 55       		.byte	0x55
 9884 004d 3E000000 		.4byte	.LVL192
ARM GAS  /var/folders/d2/nstgp4h54kz7g1l847x_b8wc0000gn/T//ccSYBGul.s 			page 175


 9885 0051 42000000 		.4byte	.LVL193
 9886 0055 0400     		.2byte	0x4
 9887 0057 F3       		.byte	0xf3
 9888 0058 01       		.uleb128 0x1
 9889 0059 50       		.byte	0x50
 9890 005a 9F       		.byte	0x9f
 9891 005b 42000000 		.4byte	.LVL193
 9892 005f 58000000 		.4byte	.LFE246
 9893 0063 0100     		.2byte	0x1
 9894 0065 55       		.byte	0x55
 9895 0066 00000000 		.4byte	0
 9896 006a 00000000 		.4byte	0
 9897              	.LLST20:
 9898 006e 88000000 		.4byte	.LVL221
 9899 0072 8C000000 		.4byte	.LVL222
 9900 0076 0300     		.2byte	0x3
 9901 0078 08       		.byte	0x8
 9902 0079 20       		.byte	0x20
 9903 007a 9F       		.byte	0x9f
 9904 007b 00000000 		.4byte	0
 9905 007f 00000000 		.4byte	0
 9906              	.LLST21:
 9907 0083 CE000000 		.4byte	.LVL233
 9908 0087 D4000000 		.4byte	.LVL234
 9909 008b 0200     		.2byte	0x2
 9910 008d 30       		.byte	0x30
 9911 008e 9F       		.byte	0x9f
 9912 008f 00000000 		.4byte	0
 9913 0093 00000000 		.4byte	0
 9914              	.LLST16:
 9915 0097 00000000 		.4byte	.LVL153
 9916 009b 0E000000 		.4byte	.LVL154
 9917 009f 0100     		.2byte	0x1
 9918 00a1 50       		.byte	0x50
 9919 00a2 0E000000 		.4byte	.LVL154
 9920 00a6 2E000000 		.4byte	.LVL158
 9921 00aa 0100     		.2byte	0x1
 9922 00ac 55       		.byte	0x55
 9923 00ad 2E000000 		.4byte	.LVL158
 9924 00b1 32000000 		.4byte	.LVL159
 9925 00b5 0400     		.2byte	0x4
 9926 00b7 F3       		.byte	0xf3
 9927 00b8 01       		.uleb128 0x1
 9928 00b9 50       		.byte	0x50
 9929 00ba 9F       		.byte	0x9f
 9930 00bb 32000000 		.4byte	.LVL159
 9931 00bf 44000000 		.4byte	.LFE241
 9932 00c3 0100     		.2byte	0x1
 9933 00c5 55       		.byte	0x55
 9934 00c6 00000000 		.4byte	0
 9935 00ca 00000000 		.4byte	0
 9936              	.LLST12:
 9937 00ce 1E000000 		.4byte	.LVL105
 9938 00d2 76020000 		.4byte	.LVL150
 9939 00d6 0100     		.2byte	0x1
 9940 00d8 5A       		.byte	0x5a
 9941 00d9 7A020000 		.4byte	.LVL151
ARM GAS  /var/folders/d2/nstgp4h54kz7g1l847x_b8wc0000gn/T//ccSYBGul.s 			page 176


 9942 00dd B4020000 		.4byte	.LFE237
 9943 00e1 0100     		.2byte	0x1
 9944 00e3 5A       		.byte	0x5a
 9945 00e4 00000000 		.4byte	0
 9946 00e8 00000000 		.4byte	0
 9947              	.LLST13:
 9948 00ec 3C000000 		.4byte	.LVL107
 9949 00f0 76020000 		.4byte	.LVL150
 9950 00f4 0100     		.2byte	0x1
 9951 00f6 5B       		.byte	0x5b
 9952 00f7 7A020000 		.4byte	.LVL151
 9953 00fb B4020000 		.4byte	.LFE237
 9954 00ff 0100     		.2byte	0x1
 9955 0101 5B       		.byte	0x5b
 9956 0102 00000000 		.4byte	0
 9957 0106 00000000 		.4byte	0
 9958              	.LLST14:
 9959 010a DC010000 		.4byte	.LVL135
 9960 010e E2010000 		.4byte	.LVL136
 9961 0112 0300     		.2byte	0x3
 9962 0114 08       		.byte	0x8
 9963 0115 20       		.byte	0x20
 9964 0116 9F       		.byte	0x9f
 9965 0117 00000000 		.4byte	0
 9966 011b 00000000 		.4byte	0
 9967              	.LLST15:
 9968 011f 12020000 		.4byte	.LVL143
 9969 0123 18020000 		.4byte	.LVL144
 9970 0127 0200     		.2byte	0x2
 9971 0129 30       		.byte	0x30
 9972 012a 9F       		.byte	0x9f
 9973 012b 00000000 		.4byte	0
 9974 012f 00000000 		.4byte	0
 9975              	.LLST10:
 9976 0133 00000000 		.4byte	.LVL93
 9977 0137 0C000000 		.4byte	.LVL94
 9978 013b 0100     		.2byte	0x1
 9979 013d 50       		.byte	0x50
 9980 013e 0C000000 		.4byte	.LVL94
 9981 0142 38000000 		.4byte	.LFE236
 9982 0146 0400     		.2byte	0x4
 9983 0148 F3       		.byte	0xf3
 9984 0149 01       		.uleb128 0x1
 9985 014a 50       		.byte	0x50
 9986 014b 9F       		.byte	0x9f
 9987 014c 00000000 		.4byte	0
 9988 0150 00000000 		.4byte	0
 9989              	.LLST11:
 9990 0154 00000000 		.4byte	.LVL99
 9991 0158 0C000000 		.4byte	.LVL100
 9992 015c 0100     		.2byte	0x1
 9993 015e 50       		.byte	0x50
 9994 015f 0C000000 		.4byte	.LVL100
 9995 0163 38000000 		.4byte	.LFE235
 9996 0167 0400     		.2byte	0x4
 9997 0169 F3       		.byte	0xf3
 9998 016a 01       		.uleb128 0x1
ARM GAS  /var/folders/d2/nstgp4h54kz7g1l847x_b8wc0000gn/T//ccSYBGul.s 			page 177


 9999 016b 50       		.byte	0x50
 10000 016c 9F       		.byte	0x9f
 10001 016d 00000000 		.4byte	0
 10002 0171 00000000 		.4byte	0
 10003              	.LLST22:
 10004 0175 14000000 		.4byte	.LVL239
 10005 0179 1A000000 		.4byte	.LVL240
 10006 017d 0300     		.2byte	0x3
 10007 017f 08       		.byte	0x8
 10008 0180 20       		.byte	0x20
 10009 0181 9F       		.byte	0x9f
 10010 0182 00000000 		.4byte	0
 10011 0186 00000000 		.4byte	0
 10012              	.LLST23:
 10013 018a 40000000 		.4byte	.LVL245
 10014 018e 46000000 		.4byte	.LVL246
 10015 0192 0200     		.2byte	0x2
 10016 0194 30       		.byte	0x30
 10017 0195 9F       		.byte	0x9f
 10018 0196 00000000 		.4byte	0
 10019 019a 00000000 		.4byte	0
 10020              	.LLST6:
 10021 019e 00000000 		.4byte	.LVL59
 10022 01a2 0C000000 		.4byte	.LVL60
 10023 01a6 0100     		.2byte	0x1
 10024 01a8 50       		.byte	0x50
 10025 01a9 0C000000 		.4byte	.LVL60
 10026 01ad 44000000 		.4byte	.LFE232
 10027 01b1 0400     		.2byte	0x4
 10028 01b3 F3       		.byte	0xf3
 10029 01b4 01       		.uleb128 0x1
 10030 01b5 50       		.byte	0x50
 10031 01b6 9F       		.byte	0x9f
 10032 01b7 00000000 		.4byte	0
 10033 01bb 00000000 		.4byte	0
 10034              	.LLST7:
 10035 01bf 00000000 		.4byte	.LVL67
 10036 01c3 0C000000 		.4byte	.LVL68
 10037 01c7 0100     		.2byte	0x1
 10038 01c9 50       		.byte	0x50
 10039 01ca 0C000000 		.4byte	.LVL68
 10040 01ce 34000000 		.4byte	.LFE231
 10041 01d2 0400     		.2byte	0x4
 10042 01d4 F3       		.byte	0xf3
 10043 01d5 01       		.uleb128 0x1
 10044 01d6 50       		.byte	0x50
 10045 01d7 9F       		.byte	0x9f
 10046 01d8 00000000 		.4byte	0
 10047 01dc 00000000 		.4byte	0
 10048              	.LLST8:
 10049 01e0 00000000 		.4byte	.LVL73
 10050 01e4 0C000000 		.4byte	.LVL74
 10051 01e8 0100     		.2byte	0x1
 10052 01ea 50       		.byte	0x50
 10053 01eb 0C000000 		.4byte	.LVL74
 10054 01ef 44000000 		.4byte	.LFE230
 10055 01f3 0400     		.2byte	0x4
ARM GAS  /var/folders/d2/nstgp4h54kz7g1l847x_b8wc0000gn/T//ccSYBGul.s 			page 178


 10056 01f5 F3       		.byte	0xf3
 10057 01f6 01       		.uleb128 0x1
 10058 01f7 50       		.byte	0x50
 10059 01f8 9F       		.byte	0x9f
 10060 01f9 00000000 		.4byte	0
 10061 01fd 00000000 		.4byte	0
 10062              	.LLST9:
 10063 0201 00000000 		.4byte	.LVL81
 10064 0205 0C000000 		.4byte	.LVL82
 10065 0209 0100     		.2byte	0x1
 10066 020b 50       		.byte	0x50
 10067 020c 0C000000 		.4byte	.LVL82
 10068 0210 60000000 		.4byte	.LFE229
 10069 0214 0400     		.2byte	0x4
 10070 0216 F3       		.byte	0xf3
 10071 0217 01       		.uleb128 0x1
 10072 0218 50       		.byte	0x50
 10073 0219 9F       		.byte	0x9f
 10074 021a 00000000 		.4byte	0
 10075 021e 00000000 		.4byte	0
 10076              	.LLST3:
 10077 0222 00000000 		.4byte	.LVL38
 10078 0226 06000000 		.4byte	.LVL39
 10079 022a 0100     		.2byte	0x1
 10080 022c 50       		.byte	0x50
 10081 022d 06000000 		.4byte	.LVL39
 10082 0231 3C000000 		.4byte	.LFE228
 10083 0235 0400     		.2byte	0x4
 10084 0237 F3       		.byte	0xf3
 10085 0238 01       		.uleb128 0x1
 10086 0239 50       		.byte	0x50
 10087 023a 9F       		.byte	0x9f
 10088 023b 00000000 		.4byte	0
 10089 023f 00000000 		.4byte	0
 10090              	.LLST18:
 10091 0243 14000000 		.4byte	.LVL200
 10092 0247 1A000000 		.4byte	.LVL201
 10093 024b 0300     		.2byte	0x3
 10094 024d 08       		.byte	0x8
 10095 024e 20       		.byte	0x20
 10096 024f 9F       		.byte	0x9f
 10097 0250 00000000 		.4byte	0
 10098 0254 00000000 		.4byte	0
 10099              	.LLST19:
 10100 0258 40000000 		.4byte	.LVL206
 10101 025c 46000000 		.4byte	.LVL207
 10102 0260 0200     		.2byte	0x2
 10103 0262 30       		.byte	0x30
 10104 0263 9F       		.byte	0x9f
 10105 0264 00000000 		.4byte	0
 10106 0268 00000000 		.4byte	0
 10107              	.LLST5:
 10108 026c 00000000 		.4byte	.LVL51
 10109 0270 0C000000 		.4byte	.LVL52
 10110 0274 0100     		.2byte	0x1
 10111 0276 50       		.byte	0x50
 10112 0277 0C000000 		.4byte	.LVL52
ARM GAS  /var/folders/d2/nstgp4h54kz7g1l847x_b8wc0000gn/T//ccSYBGul.s 			page 179


 10113 027b 44000000 		.4byte	.LFE225
 10114 027f 0400     		.2byte	0x4
 10115 0281 F3       		.byte	0xf3
 10116 0282 01       		.uleb128 0x1
 10117 0283 50       		.byte	0x50
 10118 0284 9F       		.byte	0x9f
 10119 0285 00000000 		.4byte	0
 10120 0289 00000000 		.4byte	0
 10121              	.LLST4:
 10122 028d 00000000 		.4byte	.LVL45
 10123 0291 0C000000 		.4byte	.LVL46
 10124 0295 0100     		.2byte	0x1
 10125 0297 50       		.byte	0x50
 10126 0298 0C000000 		.4byte	.LVL46
 10127 029c 34000000 		.4byte	.LFE224
 10128 02a0 0400     		.2byte	0x4
 10129 02a2 F3       		.byte	0xf3
 10130 02a3 01       		.uleb128 0x1
 10131 02a4 50       		.byte	0x50
 10132 02a5 9F       		.byte	0x9f
 10133 02a6 00000000 		.4byte	0
 10134 02aa 00000000 		.4byte	0
 10135              	.LLST2:
 10136 02ae 00000000 		.4byte	.LVL30
 10137 02b2 06000000 		.4byte	.LVL31
 10138 02b6 0100     		.2byte	0x1
 10139 02b8 50       		.byte	0x50
 10140 02b9 06000000 		.4byte	.LVL31
 10141 02bd 44000000 		.4byte	.LFE223
 10142 02c1 0400     		.2byte	0x4
 10143 02c3 F3       		.byte	0xf3
 10144 02c4 01       		.uleb128 0x1
 10145 02c5 50       		.byte	0x50
 10146 02c6 9F       		.byte	0x9f
 10147 02c7 00000000 		.4byte	0
 10148 02cb 00000000 		.4byte	0
 10149              	.LLST0:
 10150 02cf 00000000 		.4byte	.LVL11
 10151 02d3 0C000000 		.4byte	.LVL12
 10152 02d7 0100     		.2byte	0x1
 10153 02d9 50       		.byte	0x50
 10154 02da 0C000000 		.4byte	.LVL12
 10155 02de 28000000 		.4byte	.LVL15
 10156 02e2 0100     		.2byte	0x1
 10157 02e4 55       		.byte	0x55
 10158 02e5 28000000 		.4byte	.LVL15
 10159 02e9 2C000000 		.4byte	.LVL16
 10160 02ed 0400     		.2byte	0x4
 10161 02ef F3       		.byte	0xf3
 10162 02f0 01       		.uleb128 0x1
 10163 02f1 50       		.byte	0x50
 10164 02f2 9F       		.byte	0x9f
 10165 02f3 2C000000 		.4byte	.LVL16
 10166 02f7 38000000 		.4byte	.LFE220
 10167 02fb 0100     		.2byte	0x1
 10168 02fd 55       		.byte	0x55
 10169 02fe 00000000 		.4byte	0
ARM GAS  /var/folders/d2/nstgp4h54kz7g1l847x_b8wc0000gn/T//ccSYBGul.s 			page 180


 10170 0302 00000000 		.4byte	0
 10171              		.section	.debug_aranges,"",%progbits
 10172 0000 E4000000 		.4byte	0xe4
 10173 0004 0200     		.2byte	0x2
 10174 0006 00000000 		.4byte	.Ldebug_info0
 10175 000a 04       		.byte	0x4
 10176 000b 00       		.byte	0
 10177 000c 0000     		.2byte	0
 10178 000e 0000     		.2byte	0
 10179 0010 00000000 		.4byte	.LFB221
 10180 0014 00010000 		.4byte	.LFE221-.LFB221
 10181 0018 00000000 		.4byte	.LFB220
 10182 001c 38000000 		.4byte	.LFE220-.LFB220
 10183 0020 00000000 		.4byte	.LFB247
 10184 0024 38000000 		.4byte	.LFE247-.LFB247
 10185 0028 00000000 		.4byte	.LFB219
 10186 002c 2C000000 		.4byte	.LFE219-.LFB219
 10187 0030 00000000 		.4byte	.LFB227
 10188 0034 34000000 		.4byte	.LFE227-.LFB227
 10189 0038 00000000 		.4byte	.LFB223
 10190 003c 44000000 		.4byte	.LFE223-.LFB223
 10191 0040 00000000 		.4byte	.LFB228
 10192 0044 3C000000 		.4byte	.LFE228-.LFB228
 10193 0048 00000000 		.4byte	.LFB224
 10194 004c 34000000 		.4byte	.LFE224-.LFB224
 10195 0050 00000000 		.4byte	.LFB225
 10196 0054 44000000 		.4byte	.LFE225-.LFB225
 10197 0058 00000000 		.4byte	.LFB232
 10198 005c 44000000 		.4byte	.LFE232-.LFB232
 10199 0060 00000000 		.4byte	.LFB231
 10200 0064 34000000 		.4byte	.LFE231-.LFB231
 10201 0068 00000000 		.4byte	.LFB230
 10202 006c 44000000 		.4byte	.LFE230-.LFB230
 10203 0070 00000000 		.4byte	.LFB229
 10204 0074 60000000 		.4byte	.LFE229-.LFB229
 10205 0078 00000000 		.4byte	.LFB236
 10206 007c 38000000 		.4byte	.LFE236-.LFB236
 10207 0080 00000000 		.4byte	.LFB235
 10208 0084 38000000 		.4byte	.LFE235-.LFB235
 10209 0088 00000000 		.4byte	.LFB237
 10210 008c B4020000 		.4byte	.LFE237-.LFB237
 10211 0090 00000000 		.4byte	.LFB241
 10212 0094 44000000 		.4byte	.LFE241-.LFB241
 10213 0098 00000000 		.4byte	.LFB240
 10214 009c 34000000 		.4byte	.LFE240-.LFB240
 10215 00a0 00000000 		.4byte	.LFB245
 10216 00a4 40000000 		.4byte	.LFE245-.LFB245
 10217 00a8 00000000 		.4byte	.LFB244
 10218 00ac D4000000 		.4byte	.LFE244-.LFB244
 10219 00b0 00000000 		.4byte	.LFB248
 10220 00b4 B0000000 		.4byte	.LFE248-.LFB248
 10221 00b8 00000000 		.4byte	.LFB246
 10222 00bc 58000000 		.4byte	.LFE246-.LFB246
 10223 00c0 00000000 		.4byte	.LFB239
 10224 00c4 58000000 		.4byte	.LFE239-.LFB239
 10225 00c8 00000000 		.4byte	.LFB226
 10226 00cc F4000000 		.4byte	.LFE226-.LFB226
ARM GAS  /var/folders/d2/nstgp4h54kz7g1l847x_b8wc0000gn/T//ccSYBGul.s 			page 181


 10227 00d0 00000000 		.4byte	.LFB242
 10228 00d4 30010000 		.4byte	.LFE242-.LFB242
 10229 00d8 00000000 		.4byte	.LFB233
 10230 00dc 28010000 		.4byte	.LFE233-.LFB233
 10231 00e0 00000000 		.4byte	0
 10232 00e4 00000000 		.4byte	0
 10233              		.section	.debug_ranges,"",%progbits
 10234              	.Ldebug_ranges0:
 10235 0000 04000000 		.4byte	.LBB167
 10236 0004 06000000 		.4byte	.LBE167
 10237 0008 0A000000 		.4byte	.LBB173
 10238 000c 0C000000 		.4byte	.LBE173
 10239 0010 0E000000 		.4byte	.LBB174
 10240 0014 10000000 		.4byte	.LBE174
 10241 0018 00000000 		.4byte	0
 10242 001c 00000000 		.4byte	0
 10243 0020 04000000 		.4byte	.LBB247
 10244 0024 06000000 		.4byte	.LBE247
 10245 0028 08000000 		.4byte	.LBB253
 10246 002c 0A000000 		.4byte	.LBE253
 10247 0030 0C000000 		.4byte	.LBB254
 10248 0034 0E000000 		.4byte	.LBE254
 10249 0038 00000000 		.4byte	0
 10250 003c 00000000 		.4byte	0
 10251 0040 02000000 		.4byte	.LBB293
 10252 0044 04000000 		.4byte	.LBE293
 10253 0048 06000000 		.4byte	.LBB299
 10254 004c 08000000 		.4byte	.LBE299
 10255 0050 0A000000 		.4byte	.LBB300
 10256 0054 0C000000 		.4byte	.LBE300
 10257 0058 00000000 		.4byte	0
 10258 005c 00000000 		.4byte	0
 10259 0060 02000000 		.4byte	.LBB301
 10260 0064 04000000 		.4byte	.LBE301
 10261 0068 06000000 		.4byte	.LBB307
 10262 006c 08000000 		.4byte	.LBE307
 10263 0070 0A000000 		.4byte	.LBB308
 10264 0074 0C000000 		.4byte	.LBE308
 10265 0078 00000000 		.4byte	0
 10266 007c 00000000 		.4byte	0
 10267 0080 14000000 		.4byte	.LBB347
 10268 0084 46000000 		.4byte	.LBE347
 10269 0088 AA000000 		.4byte	.LBB374
 10270 008c B2000000 		.4byte	.LBE374
 10271 0090 00000000 		.4byte	0
 10272 0094 00000000 		.4byte	0
 10273 0098 14000000 		.4byte	.LBB349
 10274 009c 1A000000 		.4byte	.LBE349
 10275 00a0 1C000000 		.4byte	.LBB358
 10276 00a4 24000000 		.4byte	.LBE358
 10277 00a8 00000000 		.4byte	0
 10278 00ac 00000000 		.4byte	0
 10279 00b0 1A000000 		.4byte	.LBB355
 10280 00b4 1C000000 		.4byte	.LBE355
 10281 00b8 24000000 		.4byte	.LBB359
 10282 00bc 28000000 		.4byte	.LBE359
 10283 00c0 00000000 		.4byte	0
ARM GAS  /var/folders/d2/nstgp4h54kz7g1l847x_b8wc0000gn/T//ccSYBGul.s 			page 182


 10284 00c4 00000000 		.4byte	0
 10285 00c8 28000000 		.4byte	.LBB360
 10286 00cc 46000000 		.4byte	.LBE360
 10287 00d0 AA000000 		.4byte	.LBB366
 10288 00d4 B2000000 		.4byte	.LBE366
 10289 00d8 00000000 		.4byte	0
 10290 00dc 00000000 		.4byte	0
 10291 00e0 04000000 		.4byte	.LBB389
 10292 00e4 06000000 		.4byte	.LBE389
 10293 00e8 0A000000 		.4byte	.LBB395
 10294 00ec 0C000000 		.4byte	.LBE395
 10295 00f0 0E000000 		.4byte	.LBB396
 10296 00f4 10000000 		.4byte	.LBE396
 10297 00f8 00000000 		.4byte	0
 10298 00fc 00000000 		.4byte	0
 10299 0100 84000000 		.4byte	.LBB397
 10300 0104 86000000 		.4byte	.LBE397
 10301 0108 88000000 		.4byte	.LBB406
 10302 010c 94000000 		.4byte	.LBE406
 10303 0110 00000000 		.4byte	0
 10304 0114 00000000 		.4byte	0
 10305 0118 84000000 		.4byte	.LBB399
 10306 011c 86000000 		.4byte	.LBE399
 10307 0120 88000000 		.4byte	.LBB404
 10308 0124 8C000000 		.4byte	.LBE404
 10309 0128 00000000 		.4byte	0
 10310 012c 00000000 		.4byte	0
 10311 0130 B6000000 		.4byte	.LBB407
 10312 0134 D4000000 		.4byte	.LBE407
 10313 0138 F0000000 		.4byte	.LBB413
 10314 013c F8000000 		.4byte	.LBE413
 10315 0140 00000000 		.4byte	0
 10316 0144 00000000 		.4byte	0
 10317 0148 14000000 		.4byte	.LBB448
 10318 014c 46000000 		.4byte	.LBE448
 10319 0150 D6000000 		.4byte	.LBB479
 10320 0154 DE000000 		.4byte	.LBE479
 10321 0158 00000000 		.4byte	0
 10322 015c 00000000 		.4byte	0
 10323 0160 14000000 		.4byte	.LBB450
 10324 0164 1A000000 		.4byte	.LBE450
 10325 0168 1C000000 		.4byte	.LBB459
 10326 016c 24000000 		.4byte	.LBE459
 10327 0170 00000000 		.4byte	0
 10328 0174 00000000 		.4byte	0
 10329 0178 1A000000 		.4byte	.LBB456
 10330 017c 1C000000 		.4byte	.LBE456
 10331 0180 24000000 		.4byte	.LBB460
 10332 0184 28000000 		.4byte	.LBE460
 10333 0188 00000000 		.4byte	0
 10334 018c 00000000 		.4byte	0
 10335 0190 28000000 		.4byte	.LBB461
 10336 0194 46000000 		.4byte	.LBE461
 10337 0198 D6000000 		.4byte	.LBB467
 10338 019c DE000000 		.4byte	.LBE467
 10339 01a0 00000000 		.4byte	0
 10340 01a4 00000000 		.4byte	0
ARM GAS  /var/folders/d2/nstgp4h54kz7g1l847x_b8wc0000gn/T//ccSYBGul.s 			page 183


 10341 01a8 00000000 		.4byte	.LFB221
 10342 01ac 00010000 		.4byte	.LFE221
 10343 01b0 00000000 		.4byte	.LFB220
 10344 01b4 38000000 		.4byte	.LFE220
 10345 01b8 00000000 		.4byte	.LFB247
 10346 01bc 38000000 		.4byte	.LFE247
 10347 01c0 00000000 		.4byte	.LFB219
 10348 01c4 2C000000 		.4byte	.LFE219
 10349 01c8 00000000 		.4byte	.LFB227
 10350 01cc 34000000 		.4byte	.LFE227
 10351 01d0 00000000 		.4byte	.LFB223
 10352 01d4 44000000 		.4byte	.LFE223
 10353 01d8 00000000 		.4byte	.LFB228
 10354 01dc 3C000000 		.4byte	.LFE228
 10355 01e0 00000000 		.4byte	.LFB224
 10356 01e4 34000000 		.4byte	.LFE224
 10357 01e8 00000000 		.4byte	.LFB225
 10358 01ec 44000000 		.4byte	.LFE225
 10359 01f0 00000000 		.4byte	.LFB232
 10360 01f4 44000000 		.4byte	.LFE232
 10361 01f8 00000000 		.4byte	.LFB231
 10362 01fc 34000000 		.4byte	.LFE231
 10363 0200 00000000 		.4byte	.LFB230
 10364 0204 44000000 		.4byte	.LFE230
 10365 0208 00000000 		.4byte	.LFB229
 10366 020c 60000000 		.4byte	.LFE229
 10367 0210 00000000 		.4byte	.LFB236
 10368 0214 38000000 		.4byte	.LFE236
 10369 0218 00000000 		.4byte	.LFB235
 10370 021c 38000000 		.4byte	.LFE235
 10371 0220 00000000 		.4byte	.LFB237
 10372 0224 B4020000 		.4byte	.LFE237
 10373 0228 00000000 		.4byte	.LFB241
 10374 022c 44000000 		.4byte	.LFE241
 10375 0230 00000000 		.4byte	.LFB240
 10376 0234 34000000 		.4byte	.LFE240
 10377 0238 00000000 		.4byte	.LFB245
 10378 023c 40000000 		.4byte	.LFE245
 10379 0240 00000000 		.4byte	.LFB244
 10380 0244 D4000000 		.4byte	.LFE244
 10381 0248 00000000 		.4byte	.LFB248
 10382 024c B0000000 		.4byte	.LFE248
 10383 0250 00000000 		.4byte	.LFB246
 10384 0254 58000000 		.4byte	.LFE246
 10385 0258 00000000 		.4byte	.LFB239
 10386 025c 58000000 		.4byte	.LFE239
 10387 0260 00000000 		.4byte	.LFB226
 10388 0264 F4000000 		.4byte	.LFE226
 10389 0268 00000000 		.4byte	.LFB242
 10390 026c 30010000 		.4byte	.LFE242
 10391 0270 00000000 		.4byte	.LFB233
 10392 0274 28010000 		.4byte	.LFE233
 10393 0278 00000000 		.4byte	0
 10394 027c 00000000 		.4byte	0
 10395              		.section	.debug_line,"",%progbits
 10396              	.Ldebug_line0:
 10397 0000 77090000 		.section	.debug_str,"MS",%progbits,1
ARM GAS  /var/folders/d2/nstgp4h54kz7g1l847x_b8wc0000gn/T//ccSYBGul.s 			page 184


 10397      02001104 
 10397      00000201 
 10397      FB0E0D00 
 10397      01010101 
 10398              	.LASF54:
 10399 0000 705F7374 		.ascii	"p_stats\000"
 10399      61747300 
 10400              	.LASF4:
 10401 0008 73697A65 		.ascii	"size_t\000"
 10401      5F7400
 10402              	.LASF124:
 10403 000f 77747365 		.ascii	"wtsemp\000"
 10403      6D7000
 10404              	.LASF147:
 10405 0016 63665F6F 		.ascii	"cf_off_name\000"
 10405      66665F6E 
 10405      616D6500 
 10406              	.LASF32:
 10407 0022 73797374 		.ascii	"systime_t\000"
 10407      696D655F 
 10407      7400
 10408              	.LASF136:
 10409 002c 63685F69 		.ascii	"ch_identifier\000"
 10409      64656E74 
 10409      69666965 
 10409      7200
 10410              	.LASF37:
 10411 003a 705F6374 		.ascii	"p_ctx\000"
 10411      7800
 10412              	.LASF27:
 10413 0040 74707269 		.ascii	"tprio_t\000"
 10413      6F5F7400 
 10414              	.LASF251:
 10415 0048 474E5520 		.ascii	"GNU C11 7.2.1 20170904 (release) [ARM/embedded-7-br"
 10415      43313120 
 10415      372E322E 
 10415      31203230 
 10415      31373039 
 10416 007b 616E6368 		.ascii	"anch revision 255204] -mcpu=cortex-m4 -mfloat-abi=h"
 10416      20726576 
 10416      6973696F 
 10416      6E203235 
 10416      35323034 
 10417 00ae 61726420 		.ascii	"ard -mfpu=fpv4-sp-d16 -mno-thumb-interwork -mthumb "
 10417      2D6D6670 
 10417      753D6670 
 10417      76342D73 
 10417      702D6431 
 10418 00e1 2D676764 		.ascii	"-ggdb -O2 -fomit-frame-pointer -falign-functions=16"
 10418      62202D4F 
 10418      32202D66 
 10418      6F6D6974 
 10418      2D667261 
 10419 0114 202D666E 		.ascii	" -fno-strict-aliasing -fstack-protector-all -ffunct"
 10419      6F2D7374 
 10419      72696374 
 10419      2D616C69 
ARM GAS  /var/folders/d2/nstgp4h54kz7g1l847x_b8wc0000gn/T//ccSYBGul.s 			page 185


 10419      6173696E 
 10420 0147 696F6E2D 		.ascii	"ion-sections -fdata-sections -fno-common -fsingle-p"
 10420      73656374 
 10420      696F6E73 
 10420      202D6664 
 10420      6174612D 
 10421 017a 72656369 		.ascii	"recision-constant\000"
 10421      73696F6E 
 10421      2D636F6E 
 10421      7374616E 
 10421      7400
 10422              	.LASF155:
 10423 018c 63685F64 		.ascii	"ch_debug\000"
 10423      65627567 
 10423      00
 10424              	.LASF197:
 10425 0195 74687265 		.ascii	"thread3HH\000"
 10425      61643348 
 10425      4800
 10426              	.LASF254:
 10427 019f 74657374 		.ascii	"test_buffers\000"
 10427      5F627566 
 10427      66657273 
 10427      00
 10428              	.LASF48:
 10429 01ac 705F6D73 		.ascii	"p_msgqueue\000"
 10429      67717565 
 10429      756500
 10430              	.LASF65:
 10431 01b7 725F6374 		.ascii	"r_ctx\000"
 10431      7800
 10432              	.LASF18:
 10433 01bd 696E7433 		.ascii	"int32_t\000"
 10433      325F7400 
 10434              	.LASF144:
 10435 01c5 63665F6F 		.ascii	"cf_off_ctx\000"
 10435      66665F63 
 10435      747800
 10436              	.LASF69:
 10437 01d0 76746675 		.ascii	"vtfunc_t\000"
 10437      6E635F74 
 10437      00
 10438              	.LASF78:
 10439 01d9 63685F76 		.ascii	"ch_virtual_timers_list\000"
 10439      69727475 
 10439      616C5F74 
 10439      696D6572 
 10439      735F6C69 
 10440              	.LASF211:
 10441 01f0 63685468 		.ascii	"chThdGetPriorityX\000"
 10441      64476574 
 10441      5072696F 
 10441      72697479 
 10441      5800
 10442              	.LASF250:
 10443 0202 74657374 		.ascii	"test_cpu_pulse\000"
 10443      5F637075 
ARM GAS  /var/folders/d2/nstgp4h54kz7g1l847x_b8wc0000gn/T//ccSYBGul.s 			page 186


 10443      5F70756C 
 10443      736500
 10444              	.LASF215:
 10445 0211 5F5F6675 		.ascii	"__func__\000"
 10445      6E635F5F 
 10445      00
 10446              	.LASF241:
 10447 021a 6368436F 		.ascii	"chCondSignalI\000"
 10447      6E645369 
 10447      676E616C 
 10447      4900
 10448              	.LASF184:
 10449 0228 6D747837 		.ascii	"mtx7_execute\000"
 10449      5F657865 
 10449      63757465 
 10449      00
 10450              	.LASF207:
 10451 0235 6D747832 		.ascii	"mtx2_setup\000"
 10451      5F736574 
 10451      757000
 10452              	.LASF84:
 10453 0240 6C6F636B 		.ascii	"lock_cnt\000"
 10453      5F636E74 
 10453      00
 10454              	.LASF140:
 10455 0249 63685F70 		.ascii	"ch_ptrsize\000"
 10455      74727369 
 10455      7A6500
 10456              	.LASF100:
 10457 0254 73655F74 		.ascii	"se_tp\000"
 10457      7000
 10458              	.LASF182:
 10459 025a 74687265 		.ascii	"thread11\000"
 10459      61643131 
 10459      00
 10460              	.LASF181:
 10461 0263 74687265 		.ascii	"thread12\000"
 10461      61643132 
 10461      00
 10462              	.LASF114:
 10463 026c 74696D65 		.ascii	"time_measurement_t\000"
 10463      5F6D6561 
 10463      73757265 
 10463      6D656E74 
 10463      5F7400
 10464              	.LASF218:
 10465 027f 63685654 		.ascii	"chVTGetSystemTime\000"
 10465      47657453 
 10465      79737465 
 10465      6D54696D 
 10465      6500
 10466              	.LASF185:
 10467 0291 7072696F 		.ascii	"prio\000"
 10467      00
 10468              	.LASF238:
 10469 0296 5F646267 		.ascii	"_dbg_check_unlock\000"
 10469      5F636865 
ARM GAS  /var/folders/d2/nstgp4h54kz7g1l847x_b8wc0000gn/T//ccSYBGul.s 			page 187


 10469      636B5F75 
 10469      6E6C6F63 
 10469      6B00
 10470              	.LASF202:
 10471 02a8 6D747833 		.ascii	"mtx3_setup\000"
 10471      5F736574 
 10471      757000
 10472              	.LASF132:
 10473 02b3 6D5F6F77 		.ascii	"m_owner\000"
 10473      6E657200 
 10474              	.LASF76:
 10475 02bb 76745F70 		.ascii	"vt_par\000"
 10475      617200
 10476              	.LASF121:
 10477 02c2 65786974 		.ascii	"exitcode\000"
 10477      636F6465 
 10477      00
 10478              	.LASF5:
 10479 02cb 5F5F7569 		.ascii	"__uint8_t\000"
 10479      6E74385F 
 10479      7400
 10480              	.LASF126:
 10481 02d5 65776D61 		.ascii	"ewmask\000"
 10481      736B00
 10482              	.LASF142:
 10483 02dc 63685F74 		.ascii	"ch_threadsize\000"
 10483      68726561 
 10483      6473697A 
 10483      6500
 10484              	.LASF213:
 10485 02ea 73797374 		.ascii	"systime\000"
 10485      696D6500 
 10486              	.LASF204:
 10487 02f2 74687265 		.ascii	"thread2H\000"
 10487      61643248 
 10487      00
 10488              	.LASF38:
 10489 02fb 705F6E65 		.ascii	"p_newer\000"
 10489      77657200 
 10490              	.LASF205:
 10491 0303 74687265 		.ascii	"thread2M\000"
 10491      6164324D 
 10491      00
 10492              	.LASF11:
 10493 030c 6C6F6E67 		.ascii	"long int\000"
 10493      20696E74 
 10493      00
 10494              	.LASF34:
 10495 0315 705F6E65 		.ascii	"p_next\000"
 10495      787400
 10496              	.LASF220:
 10497 031c 706F7274 		.ascii	"port_unlock\000"
 10497      5F756E6C 
 10497      6F636B00 
 10498              	.LASF231:
 10499 0328 63684D74 		.ascii	"chMtxUnlock\000"
 10499      78556E6C 
ARM GAS  /var/folders/d2/nstgp4h54kz7g1l847x_b8wc0000gn/T//ccSYBGul.s 			page 188


 10499      6F636B00 
 10500              	.LASF149:
 10501 0334 63665F6F 		.ascii	"cf_off_state\000"
 10501      66665F73 
 10501      74617465 
 10501      00
 10502              	.LASF35:
 10503 0341 705F7072 		.ascii	"p_prev\000"
 10503      657600
 10504              	.LASF201:
 10505 0348 74687265 		.ascii	"thread3LL\000"
 10505      6164334C 
 10505      4C00
 10506              	.LASF169:
 10507 0352 74657374 		.ascii	"test\000"
 10507      00
 10508              	.LASF194:
 10509 0357 6D747834 		.ascii	"mtx4_setup\000"
 10509      5F736574 
 10509      757000
 10510              	.LASF24:
 10511 0362 74737461 		.ascii	"tstate_t\000"
 10511      74655F74 
 10511      00
 10512              	.LASF22:
 10513 036b 72747469 		.ascii	"rttime_t\000"
 10513      6D655F74 
 10513      00
 10514              	.LASF59:
 10515 0374 74687265 		.ascii	"threads_queue_t\000"
 10515      6164735F 
 10515      71756575 
 10515      655F7400 
 10516              	.LASF51:
 10517 0384 705F6D74 		.ascii	"p_mtxlist\000"
 10517      786C6973 
 10517      7400
 10518              	.LASF95:
 10519 038e 72656761 		.ascii	"regarm_t\000"
 10519      726D5F74 
 10519      00
 10520              	.LASF198:
 10521 0397 74687265 		.ascii	"thread3H\000"
 10521      61643348 
 10521      00
 10522              	.LASF199:
 10523 03a0 74687265 		.ascii	"thread3M\000"
 10523      6164334D 
 10523      00
 10524              	.LASF195:
 10525 03a9 6D747833 		.ascii	"mtx3_execute\000"
 10525      5F657865 
 10525      63757465 
 10525      00
 10526              	.LASF239:
 10527 03b6 5F737461 		.ascii	"_stats_stop_measure_crit_thd\000"
 10527      74735F73 
ARM GAS  /var/folders/d2/nstgp4h54kz7g1l847x_b8wc0000gn/T//ccSYBGul.s 			page 189


 10527      746F705F 
 10527      6D656173 
 10527      7572655F 
 10528              	.LASF113:
 10529 03d3 63756D75 		.ascii	"cumulative\000"
 10529      6C617469 
 10529      766500
 10530              	.LASF3:
 10531 03de 7369676E 		.ascii	"signed char\000"
 10531      65642063 
 10531      68617200 
 10532              	.LASF45:
 10533 03ea 705F7072 		.ascii	"p_preempt\000"
 10533      65656D70 
 10533      7400
 10534              	.LASF16:
 10535 03f4 75696E74 		.ascii	"uint8_t\000"
 10535      385F7400 
 10536              	.LASF29:
 10537 03fc 6576656E 		.ascii	"eventmask_t\000"
 10537      746D6173 
 10537      6B5F7400 
 10538              	.LASF97:
 10539 0408 636F6E74 		.ascii	"context\000"
 10539      65787400 
 10540              	.LASF193:
 10541 0410 74687265 		.ascii	"thread4a\000"
 10541      61643461 
 10541      00
 10542              	.LASF192:
 10543 0419 74687265 		.ascii	"thread4b\000"
 10543      61643462 
 10543      00
 10544              	.LASF123:
 10545 0422 77747472 		.ascii	"wttrp\000"
 10545      7000
 10546              	.LASF6:
 10547 0428 756E7369 		.ascii	"unsigned char\000"
 10547      676E6564 
 10547      20636861 
 10547      7200
 10548              	.LASF82:
 10549 0436 70616E69 		.ascii	"panic_msg\000"
 10549      635F6D73 
 10549      6700
 10550              	.LASF85:
 10551 0440 74726163 		.ascii	"trace_buffer\000"
 10551      655F6275 
 10551      66666572 
 10551      00
 10552              	.LASF66:
 10553 044d 725F6E65 		.ascii	"r_newer\000"
 10553      77657200 
 10554              	.LASF80:
 10555 0455 73797374 		.ascii	"system_debug_t\000"
 10555      656D5F64 
 10555      65627567 
ARM GAS  /var/folders/d2/nstgp4h54kz7g1l847x_b8wc0000gn/T//ccSYBGul.s 			page 190


 10555      5F7400
 10556              	.LASF167:
 10557 0464 5F426F6F 		.ascii	"_Bool\000"
 10557      6C00
 10558              	.LASF224:
 10559 046a 76616C75 		.ascii	"value\000"
 10559      6500
 10560              	.LASF188:
 10561 0470 6D747836 		.ascii	"mtx6_setup\000"
 10561      5F736574 
 10561      757000
 10562              	.LASF135:
 10563 047b 63686172 		.ascii	"char\000"
 10563      00
 10564              	.LASF134:
 10565 0480 6D5F636E 		.ascii	"m_cnt\000"
 10565      7400
 10566              	.LASF233:
 10567 0486 6368436F 		.ascii	"chCondObjectInit\000"
 10567      6E644F62 
 10567      6A656374 
 10567      496E6974 
 10567      00
 10568              	.LASF36:
 10569 0497 705F7072 		.ascii	"p_prio\000"
 10569      696F00
 10570              	.LASF8:
 10571 049e 5F5F7569 		.ascii	"__uint16_t\000"
 10571      6E743136 
 10571      5F7400
 10572              	.LASF122:
 10573 04a9 77746F62 		.ascii	"wtobjp\000"
 10573      6A7000
 10574              	.LASF116:
 10575 04b0 6E5F6374 		.ascii	"n_ctxswc\000"
 10575      78737763 
 10575      00
 10576              	.LASF145:
 10577 04b9 63665F6F 		.ascii	"cf_off_newer\000"
 10577      66665F6E 
 10577      65776572 
 10577      00
 10578              	.LASF96:
 10579 04c6 73746B61 		.ascii	"stkalign_t\000"
 10579      6C69676E 
 10579      5F7400
 10580              	.LASF189:
 10581 04d1 6D747837 		.ascii	"mtx7_setup\000"
 10581      5F736574 
 10581      757000
 10582              	.LASF143:
 10583 04dc 63665F6F 		.ascii	"cf_off_prio\000"
 10583      66665F70 
 10583      72696F00 
 10584              	.LASF111:
 10585 04e8 776F7273 		.ascii	"worst\000"
 10585      7400
ARM GAS  /var/folders/d2/nstgp4h54kz7g1l847x_b8wc0000gn/T//ccSYBGul.s 			page 191


 10586              	.LASF30:
 10587 04ee 636E745F 		.ascii	"cnt_t\000"
 10587      7400
 10588              	.LASF245:
 10589 04f4 63685468 		.ascii	"chThdSleep\000"
 10589      64536C65 
 10589      657000
 10590              	.LASF75:
 10591 04ff 76745F66 		.ascii	"vt_func\000"
 10591      756E6300 
 10592              	.LASF165:
 10593 0507 62756666 		.ascii	"buffer\000"
 10593      657200
 10594              	.LASF162:
 10595 050e 73657475 		.ascii	"setup\000"
 10595      7000
 10596              	.LASF107:
 10597 0514 63685F74 		.ascii	"ch_trace_buffer_t\000"
 10597      72616365 
 10597      5F627566 
 10597      6665725F 
 10597      7400
 10598              	.LASF50:
 10599 0526 705F6570 		.ascii	"p_epending\000"
 10599      656E6469 
 10599      6E6700
 10600              	.LASF125:
 10601 0531 77746D74 		.ascii	"wtmtxp\000"
 10601      787000
 10602              	.LASF62:
 10603 0538 63685F72 		.ascii	"ch_ready_list\000"
 10603      65616479 
 10603      5F6C6973 
 10603      7400
 10604              	.LASF170:
 10605 0546 74657374 		.ascii	"test_timer_done\000"
 10605      5F74696D 
 10605      65725F64 
 10605      6F6E6500 
 10606              	.LASF230:
 10607 0556 74657374 		.ascii	"test_emit_token\000"
 10607      5F656D69 
 10607      745F746F 
 10607      6B656E00 
 10608              	.LASF83:
 10609 0566 6973725F 		.ascii	"isr_cnt\000"
 10609      636E7400 
 10610              	.LASF118:
 10611 056e 6D5F6372 		.ascii	"m_crit_isr\000"
 10611      69745F69 
 10611      737200
 10612              	.LASF102:
 10613 0579 73655F73 		.ascii	"se_state\000"
 10613      74617465 
 10613      00
 10614              	.LASF191:
 10615 0582 6D747834 		.ascii	"mtx4_execute\000"
ARM GAS  /var/folders/d2/nstgp4h54kz7g1l847x_b8wc0000gn/T//ccSYBGul.s 			page 192


 10615      5F657865 
 10615      63757465 
 10615      00
 10616              	.LASF117:
 10617 058f 6D5F6372 		.ascii	"m_crit_thd\000"
 10617      69745F74 
 10617      686400
 10618              	.LASF14:
 10619 059a 5F5F7569 		.ascii	"__uint64_t\000"
 10619      6E743634 
 10619      5F7400
 10620              	.LASF222:
 10621 05a5 63685379 		.ascii	"chSysUnlock\000"
 10621      73556E6C 
 10621      6F636B00 
 10622              	.LASF13:
 10623 05b1 6C6F6E67 		.ascii	"long unsigned int\000"
 10623      20756E73 
 10623      69676E65 
 10623      6420696E 
 10623      7400
 10624              	.LASF137:
 10625 05c3 63685F7A 		.ascii	"ch_zero\000"
 10625      65726F00 
 10626              	.LASF217:
 10627 05cb 63685379 		.ascii	"chSysLock\000"
 10627      734C6F63 
 10627      6B00
 10628              	.LASF159:
 10629 05d5 636F6E64 		.ascii	"condition_variable_t\000"
 10629      6974696F 
 10629      6E5F7661 
 10629      72696162 
 10629      6C655F74 
 10630              	.LASF180:
 10631 05ea 6D747838 		.ascii	"mtx8_execute\000"
 10631      5F657865 
 10631      63757465 
 10631      00
 10632              	.LASF94:
 10633 05f7 53797374 		.ascii	"SystemCoreClock\000"
 10633      656D436F 
 10633      7265436C 
 10633      6F636B00 
 10634              	.LASF127:
 10635 0607 63685F73 		.ascii	"ch_semaphore\000"
 10635      656D6170 
 10635      686F7265 
 10635      00
 10636              	.LASF57:
 10637 0614 63685F74 		.ascii	"ch_thread\000"
 10637      68726561 
 10637      6400
 10638              	.LASF77:
 10639 061e 76697274 		.ascii	"virtual_timers_list_t\000"
 10639      75616C5F 
 10639      74696D65 
ARM GAS  /var/folders/d2/nstgp4h54kz7g1l847x_b8wc0000gn/T//ccSYBGul.s 			page 193


 10639      72735F6C 
 10639      6973745F 
 10640              	.LASF252:
 10641 0634 2E2E2F65 		.ascii	"../e-puck2_main-processor/ChibiOS//test/rt/testmtx."
 10641      2D707563 
 10641      6B325F6D 
 10641      61696E2D 
 10641      70726F63 
 10642 0667 6300     		.ascii	"c\000"
 10643              	.LASF70:
 10644 0669 76697274 		.ascii	"virtual_timer_t\000"
 10644      75616C5F 
 10644      74696D65 
 10644      725F7400 
 10645              	.LASF61:
 10646 0679 72656164 		.ascii	"ready_list_t\000"
 10646      795F6C69 
 10646      73745F74 
 10646      00
 10647              	.LASF219:
 10648 0686 71756575 		.ascii	"queue_isempty\000"
 10648      655F6973 
 10648      656D7074 
 10648      7900
 10649              	.LASF31:
 10650 0694 75636E74 		.ascii	"ucnt_t\000"
 10650      5F7400
 10651              	.LASF58:
 10652 069b 63685F74 		.ascii	"ch_threads_list\000"
 10652      68726561 
 10652      64735F6C 
 10652      69737400 
 10653              	.LASF103:
 10654 06ab 63685F73 		.ascii	"ch_swc_event_t\000"
 10654      77635F65 
 10654      76656E74 
 10654      5F7400
 10655              	.LASF115:
 10656 06ba 6E5F6972 		.ascii	"n_irq\000"
 10656      7100
 10657              	.LASF249:
 10658 06c0 5F746573 		.ascii	"_test_assert_time_window\000"
 10658      745F6173 
 10658      73657274 
 10658      5F74696D 
 10658      655F7769 
 10659              	.LASF152:
 10660 06d9 63665F6F 		.ascii	"cf_off_preempt\000"
 10660      66665F70 
 10660      7265656D 
 10660      707400
 10661              	.LASF242:
 10662 06e8 63685363 		.ascii	"chSchRescheduleS\000"
 10662      68526573 
 10662      63686564 
 10662      756C6553 
 10662      00
ARM GAS  /var/folders/d2/nstgp4h54kz7g1l847x_b8wc0000gn/T//ccSYBGul.s 			page 194


 10663              	.LASF12:
 10664 06f9 5F5F7569 		.ascii	"__uint32_t\000"
 10664      6E743332 
 10664      5F7400
 10665              	.LASF255:
 10666 0704 5F5F7374 		.ascii	"__stack_chk_fail\000"
 10666      61636B5F 
 10666      63686B5F 
 10666      6661696C 
 10666      00
 10667              	.LASF1:
 10668 0715 6C6F6E67 		.ascii	"long long int\000"
 10668      206C6F6E 
 10668      6720696E 
 10668      7400
 10669              	.LASF139:
 10670 0723 63685F76 		.ascii	"ch_version\000"
 10670      65727369 
 10670      6F6E00
 10671              	.LASF131:
 10672 072e 6D5F7175 		.ascii	"m_queue\000"
 10672      65756500 
 10673              	.LASF157:
 10674 0736 636F6E64 		.ascii	"condition_variable\000"
 10674      6974696F 
 10674      6E5F7661 
 10674      72696162 
 10674      6C6500
 10675              	.LASF72:
 10676 0749 76745F6E 		.ascii	"vt_next\000"
 10676      65787400 
 10677              	.LASF225:
 10678 0751 63685468 		.ascii	"chThdCreateStatic\000"
 10678      64437265 
 10678      61746553 
 10678      74617469 
 10678      6300
 10679              	.LASF73:
 10680 0763 76745F70 		.ascii	"vt_prev\000"
 10680      72657600 
 10681              	.LASF104:
 10682 076b 74625F73 		.ascii	"tb_size\000"
 10682      697A6500 
 10683              	.LASF227:
 10684 0773 74657374 		.ascii	"test_wait_threads\000"
 10684      5F776169 
 10684      745F7468 
 10684      72656164 
 10684      7300
 10685              	.LASF229:
 10686 0785 63684D74 		.ascii	"chMtxLock\000"
 10686      784C6F63 
 10686      6B00
 10687              	.LASF93:
 10688 078f 49544D5F 		.ascii	"ITM_RxBuffer\000"
 10688      52784275 
 10688      66666572 
ARM GAS  /var/folders/d2/nstgp4h54kz7g1l847x_b8wc0000gn/T//ccSYBGul.s 			page 195


 10688      00
 10689              	.LASF47:
 10690 079c 705F7761 		.ascii	"p_waiting\000"
 10690      6974696E 
 10690      6700
 10691              	.LASF101:
 10692 07a6 73655F77 		.ascii	"se_wtobjp\000"
 10692      746F626A 
 10692      7000
 10693              	.LASF43:
 10694 07b0 705F666C 		.ascii	"p_flags\000"
 10694      61677300 
 10695              	.LASF247:
 10696 07b8 63684D74 		.ascii	"chMtxUnlockS\000"
 10696      78556E6C 
 10696      6F636B53 
 10696      00
 10697              	.LASF248:
 10698 07c5 74657374 		.ascii	"test_wait_tick\000"
 10698      5F776169 
 10698      745F7469 
 10698      636B00
 10699              	.LASF92:
 10700 07d4 69646C65 		.ascii	"idle_thread_wa\000"
 10700      5F746872 
 10700      6561645F 
 10700      776100
 10701              	.LASF0:
 10702 07e3 756E7369 		.ascii	"unsigned int\000"
 10702      676E6564 
 10702      20696E74 
 10702      00
 10703              	.LASF21:
 10704 07f0 7274636E 		.ascii	"rtcnt_t\000"
 10704      745F7400 
 10705              	.LASF53:
 10706 07f8 705F6D70 		.ascii	"p_mpool\000"
 10706      6F6F6C00 
 10707              	.LASF44:
 10708 0800 705F7265 		.ascii	"p_refs\000"
 10708      667300
 10709              	.LASF141:
 10710 0807 63685F74 		.ascii	"ch_timesize\000"
 10710      696D6573 
 10710      697A6500 
 10711              	.LASF119:
 10712 0813 6B65726E 		.ascii	"kernel_stats_t\000"
 10712      656C5F73 
 10712      74617473 
 10712      5F7400
 10713              	.LASF163:
 10714 0822 74656172 		.ascii	"teardown\000"
 10714      646F776E 
 10714      00
 10715              	.LASF108:
 10716 082b 6F666673 		.ascii	"offset\000"
 10716      657400
ARM GAS  /var/folders/d2/nstgp4h54kz7g1l847x_b8wc0000gn/T//ccSYBGul.s 			page 196


 10717              	.LASF106:
 10718 0832 74625F62 		.ascii	"tb_buffer\000"
 10718      75666665 
 10718      7200
 10719              	.LASF46:
 10720 083c 705F7469 		.ascii	"p_time\000"
 10720      6D6500
 10721              	.LASF151:
 10722 0843 63665F6F 		.ascii	"cf_off_refs\000"
 10722      66665F72 
 10722      65667300 
 10723              	.LASF216:
 10724 084f 6D747835 		.ascii	"mtx5_execute\000"
 10724      5F657865 
 10724      63757465 
 10724      00
 10725              	.LASF33:
 10726 085c 74687265 		.ascii	"thread_t\000"
 10726      61645F74 
 10726      00
 10727              	.LASF179:
 10728 0865 70617474 		.ascii	"patternmtx\000"
 10728      65726E6D 
 10728      747800
 10729              	.LASF2:
 10730 0870 6C6F6E67 		.ascii	"long double\000"
 10730      20646F75 
 10730      626C6500 
 10731              	.LASF55:
 10732 087c 74687265 		.ascii	"thread_reference_t\000"
 10732      61645F72 
 10732      65666572 
 10732      656E6365 
 10732      5F7400
 10733              	.LASF214:
 10734 088f 63685654 		.ascii	"chVTGetSystemTimeX\000"
 10734      47657453 
 10734      79737465 
 10734      6D54696D 
 10734      655800
 10735              	.LASF52:
 10736 08a2 705F7265 		.ascii	"p_realprio\000"
 10736      616C7072 
 10736      696F00
 10737              	.LASF98:
 10738 08ad 706F7274 		.ascii	"port_intctx\000"
 10738      5F696E74 
 10738      63747800 
 10739              	.LASF153:
 10740 08b9 63665F6F 		.ascii	"cf_off_time\000"
 10740      66665F74 
 10740      696D6500 
 10741              	.LASF74:
 10742 08c5 76745F64 		.ascii	"vt_delta\000"
 10742      656C7461 
 10742      00
 10743              	.LASF208:
ARM GAS  /var/folders/d2/nstgp4h54kz7g1l847x_b8wc0000gn/T//ccSYBGul.s 			page 197


 10744 08ce 6D747831 		.ascii	"mtx1_execute\000"
 10744      5F657865 
 10744      63757465 
 10744      00
 10745              	.LASF71:
 10746 08db 63685F76 		.ascii	"ch_virtual_timer\000"
 10746      69727475 
 10746      616C5F74 
 10746      696D6572 
 10746      00
 10747              	.LASF129:
 10748 08ec 735F636E 		.ascii	"s_cnt\000"
 10748      7400
 10749              	.LASF158:
 10750 08f2 635F7175 		.ascii	"c_queue\000"
 10750      65756500 
 10751              	.LASF91:
 10752 08fa 6B65726E 		.ascii	"kernel_stats\000"
 10752      656C5F73 
 10752      74617473 
 10752      00
 10753              	.LASF183:
 10754 0907 6D747838 		.ascii	"mtx8_setup\000"
 10754      5F736574 
 10754      757000
 10755              	.LASF15:
 10756 0912 6C6F6E67 		.ascii	"long long unsigned int\000"
 10756      206C6F6E 
 10756      6720756E 
 10756      7369676E 
 10756      65642069 
 10757              	.LASF39:
 10758 0929 705F6F6C 		.ascii	"p_older\000"
 10758      64657200 
 10759              	.LASF17:
 10760 0931 75696E74 		.ascii	"uint16_t\000"
 10760      31365F74 
 10760      00
 10761              	.LASF235:
 10762 093a 6368436F 		.ascii	"chCondBroadcast\000"
 10762      6E644272 
 10762      6F616463 
 10762      61737400 
 10763              	.LASF28:
 10764 094a 6D73675F 		.ascii	"msg_t\000"
 10764      7400
 10765              	.LASF60:
 10766 0950 63685F74 		.ascii	"ch_threads_queue\000"
 10766      68726561 
 10766      64735F71 
 10766      75657565 
 10766      00
 10767              	.LASF150:
 10768 0961 63665F6F 		.ascii	"cf_off_flags\000"
 10768      66665F66 
 10768      6C616773 
 10768      00
ARM GAS  /var/folders/d2/nstgp4h54kz7g1l847x_b8wc0000gn/T//ccSYBGul.s 			page 198


 10769              	.LASF206:
 10770 096e 74687265 		.ascii	"thread2L\000"
 10770      6164324C 
 10770      00
 10771              	.LASF26:
 10772 0977 74736C69 		.ascii	"tslices_t\000"
 10772      6365735F 
 10772      7400
 10773              	.LASF68:
 10774 0981 725F6375 		.ascii	"r_current\000"
 10774      7272656E 
 10774      7400
 10775              	.LASF164:
 10776 098b 65786563 		.ascii	"execute\000"
 10776      75746500 
 10777              	.LASF236:
 10778 0993 5F737461 		.ascii	"_stats_start_measure_crit_thd\000"
 10778      74735F73 
 10778      74617274 
 10778      5F6D6561 
 10778      73757265 
 10779              	.LASF166:
 10780 09b1 74657374 		.ascii	"test_global_fail\000"
 10780      5F676C6F 
 10780      62616C5F 
 10780      6661696C 
 10780      00
 10781              	.LASF237:
 10782 09c2 5F646267 		.ascii	"_dbg_check_lock\000"
 10782      5F636865 
 10782      636B5F6C 
 10782      6F636B00 
 10783              	.LASF209:
 10784 09d2 74687265 		.ascii	"thread1\000"
 10784      61643100 
 10785              	.LASF90:
 10786 09da 6D61696E 		.ascii	"mainthread\000"
 10786      74687265 
 10786      616400
 10787              	.LASF226:
 10788 09e5 6368436F 		.ascii	"chCondSignal\000"
 10788      6E645369 
 10788      676E616C 
 10788      00
 10789              	.LASF223:
 10790 09f2 5F5F7365 		.ascii	"__set_BASEPRI\000"
 10790      745F4241 
 10790      53455052 
 10790      4900
 10791              	.LASF110:
 10792 0a00 62657374 		.ascii	"best\000"
 10792      00
 10793              	.LASF63:
 10794 0a05 725F7175 		.ascii	"r_queue\000"
 10794      65756500 
 10795              	.LASF210:
 10796 0a0d 6D747831 		.ascii	"mtx1_setup\000"
ARM GAS  /var/folders/d2/nstgp4h54kz7g1l847x_b8wc0000gn/T//ccSYBGul.s 			page 199


 10796      5F736574 
 10796      757000
 10797              	.LASF196:
 10798 0a18 74696D65 		.ascii	"time\000"
 10798      00
 10799              	.LASF168:
 10800 0a1d 74687265 		.ascii	"threads\000"
 10800      61647300 
 10801              	.LASF243:
 10802 0a25 6368436F 		.ascii	"chCondWait\000"
 10802      6E645761 
 10802      697400
 10803              	.LASF88:
 10804 0a30 726C6973 		.ascii	"rlist\000"
 10804      7400
 10805              	.LASF23:
 10806 0a36 746D6F64 		.ascii	"tmode_t\000"
 10806      655F7400 
 10807              	.LASF190:
 10808 0a3e 6D747835 		.ascii	"mtx5_setup\000"
 10808      5F736574 
 10808      757000
 10809              	.LASF79:
 10810 0a49 76745F73 		.ascii	"vt_systime\000"
 10810      79737469 
 10810      6D6500
 10811              	.LASF67:
 10812 0a54 725F6F6C 		.ascii	"r_older\000"
 10812      64657200 
 10813              	.LASF109:
 10814 0a5c 746D5F63 		.ascii	"tm_calibration_t\000"
 10814      616C6962 
 10814      72617469 
 10814      6F6E5F74 
 10814      00
 10815              	.LASF161:
 10816 0a6d 6E616D65 		.ascii	"name\000"
 10816      00
 10817              	.LASF221:
 10818 0a72 706F7274 		.ascii	"port_lock\000"
 10818      5F6C6F63 
 10818      6B00
 10819              	.LASF128:
 10820 0a7c 735F7175 		.ascii	"s_queue\000"
 10820      65756500 
 10821              	.LASF7:
 10822 0a84 73686F72 		.ascii	"short int\000"
 10822      7420696E 
 10822      7400
 10823              	.LASF20:
 10824 0a8e 75696E74 		.ascii	"uint64_t\000"
 10824      36345F74 
 10824      00
 10825              	.LASF130:
 10826 0a97 63685F6D 		.ascii	"ch_mutex\000"
 10826      75746578 
 10826      00
ARM GAS  /var/folders/d2/nstgp4h54kz7g1l847x_b8wc0000gn/T//ccSYBGul.s 			page 200


 10827              	.LASF212:
 10828 0aa0 63685468 		.ascii	"chThdGetSelfX\000"
 10828      64476574 
 10828      53656C66 
 10828      5800
 10829              	.LASF187:
 10830 0aae 74687265 		.ascii	"thread10\000"
 10830      61643130 
 10830      00
 10831              	.LASF64:
 10832 0ab7 725F7072 		.ascii	"r_prio\000"
 10832      696F00
 10833              	.LASF160:
 10834 0abe 74657374 		.ascii	"testcase\000"
 10834      63617365 
 10834      00
 10835              	.LASF253:
 10836 0ac7 2F557365 		.ascii	"/Users/bharathkeshavamurthy/Workspaces/Talos/src/ma"
 10836      72732F62 
 10836      68617261 
 10836      74686B65 
 10836      73686176 
 10837 0afa 696E2F63 		.ascii	"in/cpp/org/purdue/ece/talos/optimize\000"
 10837      70702F6F 
 10837      72672F70 
 10837      75726475 
 10837      652F6563 
 10838              	.LASF81:
 10839 0b1f 63685F73 		.ascii	"ch_system_debug\000"
 10839      79737465 
 10839      6D5F6465 
 10839      62756700 
 10840              	.LASF186:
 10841 0b2f 6D747836 		.ascii	"mtx6_execute\000"
 10841      5F657865 
 10841      63757465 
 10841      00
 10842              	.LASF146:
 10843 0b3c 63665F6F 		.ascii	"cf_off_older\000"
 10843      66665F6F 
 10843      6C646572 
 10843      00
 10844              	.LASF171:
 10845 0b49 74657374 		.ascii	"testmtx1\000"
 10845      6D747831 
 10845      00
 10846              	.LASF172:
 10847 0b52 74657374 		.ascii	"testmtx2\000"
 10847      6D747832 
 10847      00
 10848              	.LASF173:
 10849 0b5b 74657374 		.ascii	"testmtx3\000"
 10849      6D747833 
 10849      00
 10850              	.LASF174:
 10851 0b64 74657374 		.ascii	"testmtx4\000"
 10851      6D747834 
ARM GAS  /var/folders/d2/nstgp4h54kz7g1l847x_b8wc0000gn/T//ccSYBGul.s 			page 201


 10851      00
 10852              	.LASF175:
 10853 0b6d 74657374 		.ascii	"testmtx5\000"
 10853      6D747835 
 10853      00
 10854              	.LASF176:
 10855 0b76 74657374 		.ascii	"testmtx6\000"
 10855      6D747836 
 10855      00
 10856              	.LASF177:
 10857 0b7f 74657374 		.ascii	"testmtx7\000"
 10857      6D747837 
 10857      00
 10858              	.LASF178:
 10859 0b88 74657374 		.ascii	"testmtx8\000"
 10859      6D747838 
 10859      00
 10860              	.LASF228:
 10861 0b91 5F746573 		.ascii	"_test_assert_sequence\000"
 10861      745F6173 
 10861      73657274 
 10861      5F736571 
 10861      75656E63 
 10862              	.LASF89:
 10863 0ba7 76746C69 		.ascii	"vtlist\000"
 10863      737400
 10864              	.LASF240:
 10865 0bae 63685379 		.ascii	"chSysHalt\000"
 10865      7348616C 
 10865      7400
 10866              	.LASF156:
 10867 0bb8 6D757465 		.ascii	"mutex_t\000"
 10867      785F7400 
 10868              	.LASF25:
 10869 0bc0 74726566 		.ascii	"trefs_t\000"
 10869      735F7400 
 10870              	.LASF148:
 10871 0bc8 63665F6F 		.ascii	"cf_off_stklimit\000"
 10871      66665F73 
 10871      746B6C69 
 10871      6D697400 
 10872              	.LASF56:
 10873 0bd8 74687265 		.ascii	"threads_list_t\000"
 10873      6164735F 
 10873      6C697374 
 10873      5F7400
 10874              	.LASF87:
 10875 0be7 63685F73 		.ascii	"ch_system\000"
 10875      79737465 
 10875      6D00
 10876              	.LASF19:
 10877 0bf1 75696E74 		.ascii	"uint32_t\000"
 10877      33325F74 
 10877      00
 10878              	.LASF232:
 10879 0bfa 6368436F 		.ascii	"chCondWaitTimeout\000"
 10879      6E645761 
ARM GAS  /var/folders/d2/nstgp4h54kz7g1l847x_b8wc0000gn/T//ccSYBGul.s 			page 202


 10879      69745469 
 10879      6D656F75 
 10879      7400
 10880              	.LASF246:
 10881 0c0c 63684D74 		.ascii	"chMtxUnlockAll\000"
 10881      78556E6C 
 10881      6F636B41 
 10881      6C6C00
 10882              	.LASF244:
 10883 0c1b 5F746573 		.ascii	"_test_assert\000"
 10883      745F6173 
 10883      73657274 
 10883      00
 10884              	.LASF120:
 10885 0c28 7264796D 		.ascii	"rdymsg\000"
 10885      736700
 10886              	.LASF9:
 10887 0c2f 73686F72 		.ascii	"short unsigned int\000"
 10887      7420756E 
 10887      7369676E 
 10887      65642069 
 10887      6E7400
 10888              	.LASF86:
 10889 0c42 63685F73 		.ascii	"ch_system_t\000"
 10889      79737465 
 10889      6D5F7400 
 10890              	.LASF154:
 10891 0c4e 63686465 		.ascii	"chdebug_t\000"
 10891      6275675F 
 10891      7400
 10892              	.LASF138:
 10893 0c58 63685F73 		.ascii	"ch_size\000"
 10893      697A6500 
 10894              	.LASF41:
 10895 0c60 705F7374 		.ascii	"p_stklimit\000"
 10895      6B6C696D 
 10895      697400
 10896              	.LASF10:
 10897 0c6b 5F5F696E 		.ascii	"__int32_t\000"
 10897      7433325F 
 10897      7400
 10898              	.LASF203:
 10899 0c75 6D747832 		.ascii	"mtx2_execute\000"
 10899      5F657865 
 10899      63757465 
 10899      00
 10900              	.LASF234:
 10901 0c82 63684D74 		.ascii	"chMtxObjectInit\000"
 10901      784F626A 
 10901      65637449 
 10901      6E697400 
 10902              	.LASF99:
 10903 0c92 73655F74 		.ascii	"se_time\000"
 10903      696D6500 
 10904              	.LASF40:
 10905 0c9a 705F6E61 		.ascii	"p_name\000"
 10905      6D6500
ARM GAS  /var/folders/d2/nstgp4h54kz7g1l847x_b8wc0000gn/T//ccSYBGul.s 			page 203


 10906              	.LASF133:
 10907 0ca1 6D5F6E65 		.ascii	"m_next\000"
 10907      787400
 10908              	.LASF105:
 10909 0ca8 74625F70 		.ascii	"tb_ptr\000"
 10909      747200
 10910              	.LASF200:
 10911 0caf 74687265 		.ascii	"thread3L\000"
 10911      6164334C 
 10911      00
 10912              	.LASF112:
 10913 0cb8 6C617374 		.ascii	"last\000"
 10913      00
 10914              	.LASF49:
 10915 0cbd 705F6D73 		.ascii	"p_msg\000"
 10915      6700
 10916              	.LASF42:
 10917 0cc3 705F7374 		.ascii	"p_state\000"
 10917      61746500 
 10918              		.ident	"GCC: (GNU Tools for Arm Embedded Processors 7-2017-q4-major) 7.2.1 20170904 (release) [ARM
ARM GAS  /var/folders/d2/nstgp4h54kz7g1l847x_b8wc0000gn/T//ccSYBGul.s 			page 204


DEFINED SYMBOLS
                            *ABS*:0000000000000000 testmtx.c
/var/folders/d2/nstgp4h54kz7g1l847x_b8wc0000gn/T//ccSYBGul.s:18     .text.mtx1_execute:0000000000000000 $t
/var/folders/d2/nstgp4h54kz7g1l847x_b8wc0000gn/T//ccSYBGul.s:25     .text.mtx1_execute:0000000000000000 mtx1_execute
/var/folders/d2/nstgp4h54kz7g1l847x_b8wc0000gn/T//ccSYBGul.s:208    .text.mtx1_execute:00000000000000d0 $d
/var/folders/d2/nstgp4h54kz7g1l847x_b8wc0000gn/T//ccSYBGul.s:231    .text.thread1:0000000000000000 thread1
/var/folders/d2/nstgp4h54kz7g1l847x_b8wc0000gn/T//ccSYBGul.s:224    .text.thread1:0000000000000000 $t
/var/folders/d2/nstgp4h54kz7g1l847x_b8wc0000gn/T//ccSYBGul.s:288    .text.thread1:0000000000000030 $d
/var/folders/d2/nstgp4h54kz7g1l847x_b8wc0000gn/T//ccSYBGul.s:294    .text.thread12:0000000000000000 $t
/var/folders/d2/nstgp4h54kz7g1l847x_b8wc0000gn/T//ccSYBGul.s:301    .text.thread12:0000000000000000 thread12
/var/folders/d2/nstgp4h54kz7g1l847x_b8wc0000gn/T//ccSYBGul.s:358    .text.thread12:0000000000000030 $d
/var/folders/d2/nstgp4h54kz7g1l847x_b8wc0000gn/T//ccSYBGul.s:364    .text.mtx1_setup:0000000000000000 $t
/var/folders/d2/nstgp4h54kz7g1l847x_b8wc0000gn/T//ccSYBGul.s:371    .text.mtx1_setup:0000000000000000 mtx1_setup
/var/folders/d2/nstgp4h54kz7g1l847x_b8wc0000gn/T//ccSYBGul.s:410    .text.mtx1_setup:0000000000000024 $d
/var/folders/d2/nstgp4h54kz7g1l847x_b8wc0000gn/T//ccSYBGul.s:416    .text.mtx2_setup:0000000000000000 $t
/var/folders/d2/nstgp4h54kz7g1l847x_b8wc0000gn/T//ccSYBGul.s:423    .text.mtx2_setup:0000000000000000 mtx2_setup
/var/folders/d2/nstgp4h54kz7g1l847x_b8wc0000gn/T//ccSYBGul.s:454    .text.mtx2_setup:0000000000000020 $d
/var/folders/d2/nstgp4h54kz7g1l847x_b8wc0000gn/T//ccSYBGul.s:459    .text.mtx5_setup:0000000000000000 $t
/var/folders/d2/nstgp4h54kz7g1l847x_b8wc0000gn/T//ccSYBGul.s:466    .text.mtx5_setup:0000000000000000 mtx5_setup
/var/folders/d2/nstgp4h54kz7g1l847x_b8wc0000gn/T//ccSYBGul.s:497    .text.mtx5_setup:0000000000000020 $d
/var/folders/d2/nstgp4h54kz7g1l847x_b8wc0000gn/T//ccSYBGul.s:502    .text.mtx3_setup:0000000000000000 $t
/var/folders/d2/nstgp4h54kz7g1l847x_b8wc0000gn/T//ccSYBGul.s:509    .text.mtx3_setup:0000000000000000 mtx3_setup
/var/folders/d2/nstgp4h54kz7g1l847x_b8wc0000gn/T//ccSYBGul.s:557    .text.mtx3_setup:0000000000000028 $d
/var/folders/d2/nstgp4h54kz7g1l847x_b8wc0000gn/T//ccSYBGul.s:564    .text.mtx4_setup:0000000000000000 $t
/var/folders/d2/nstgp4h54kz7g1l847x_b8wc0000gn/T//ccSYBGul.s:571    .text.mtx4_setup:0000000000000000 mtx4_setup
/var/folders/d2/nstgp4h54kz7g1l847x_b8wc0000gn/T//ccSYBGul.s:602    .text.mtx4_setup:0000000000000020 $d
/var/folders/d2/nstgp4h54kz7g1l847x_b8wc0000gn/T//ccSYBGul.s:607    .text.thread2L:0000000000000000 $t
/var/folders/d2/nstgp4h54kz7g1l847x_b8wc0000gn/T//ccSYBGul.s:614    .text.thread2L:0000000000000000 thread2L
/var/folders/d2/nstgp4h54kz7g1l847x_b8wc0000gn/T//ccSYBGul.s:676    .text.thread2L:000000000000003c $d
/var/folders/d2/nstgp4h54kz7g1l847x_b8wc0000gn/T//ccSYBGul.s:682    .text.thread3LL:0000000000000000 $t
/var/folders/d2/nstgp4h54kz7g1l847x_b8wc0000gn/T//ccSYBGul.s:689    .text.thread3LL:0000000000000000 thread3LL
/var/folders/d2/nstgp4h54kz7g1l847x_b8wc0000gn/T//ccSYBGul.s:746    .text.thread3LL:0000000000000034 $d
/var/folders/d2/nstgp4h54kz7g1l847x_b8wc0000gn/T//ccSYBGul.s:752    .text.thread2M:0000000000000000 $t
/var/folders/d2/nstgp4h54kz7g1l847x_b8wc0000gn/T//ccSYBGul.s:759    .text.thread2M:0000000000000000 thread2M
/var/folders/d2/nstgp4h54kz7g1l847x_b8wc0000gn/T//ccSYBGul.s:810    .text.thread2M:0000000000000030 $d
/var/folders/d2/nstgp4h54kz7g1l847x_b8wc0000gn/T//ccSYBGul.s:815    .text.thread2H:0000000000000000 $t
/var/folders/d2/nstgp4h54kz7g1l847x_b8wc0000gn/T//ccSYBGul.s:822    .text.thread2H:0000000000000000 thread2H
/var/folders/d2/nstgp4h54kz7g1l847x_b8wc0000gn/T//ccSYBGul.s:881    .text.thread2H:000000000000003c $d
/var/folders/d2/nstgp4h54kz7g1l847x_b8wc0000gn/T//ccSYBGul.s:887    .text.thread3HH:0000000000000000 $t
/var/folders/d2/nstgp4h54kz7g1l847x_b8wc0000gn/T//ccSYBGul.s:894    .text.thread3HH:0000000000000000 thread3HH
/var/folders/d2/nstgp4h54kz7g1l847x_b8wc0000gn/T//ccSYBGul.s:953    .text.thread3HH:000000000000003c $d
/var/folders/d2/nstgp4h54kz7g1l847x_b8wc0000gn/T//ccSYBGul.s:959    .text.thread3H:0000000000000000 $t
/var/folders/d2/nstgp4h54kz7g1l847x_b8wc0000gn/T//ccSYBGul.s:966    .text.thread3H:0000000000000000 thread3H
/var/folders/d2/nstgp4h54kz7g1l847x_b8wc0000gn/T//ccSYBGul.s:1017   .text.thread3H:0000000000000030 $d
/var/folders/d2/nstgp4h54kz7g1l847x_b8wc0000gn/T//ccSYBGul.s:1022   .text.thread3M:0000000000000000 $t
/var/folders/d2/nstgp4h54kz7g1l847x_b8wc0000gn/T//ccSYBGul.s:1029   .text.thread3M:0000000000000000 thread3M
/var/folders/d2/nstgp4h54kz7g1l847x_b8wc0000gn/T//ccSYBGul.s:1088   .text.thread3M:000000000000003c $d
/var/folders/d2/nstgp4h54kz7g1l847x_b8wc0000gn/T//ccSYBGul.s:1094   .text.thread3L:0000000000000000 $t
/var/folders/d2/nstgp4h54kz7g1l847x_b8wc0000gn/T//ccSYBGul.s:1101   .text.thread3L:0000000000000000 thread3L
/var/folders/d2/nstgp4h54kz7g1l847x_b8wc0000gn/T//ccSYBGul.s:1176   .text.thread3L:0000000000000054 $d
/var/folders/d2/nstgp4h54kz7g1l847x_b8wc0000gn/T//ccSYBGul.s:1183   .text.thread4b:0000000000000000 $t
/var/folders/d2/nstgp4h54kz7g1l847x_b8wc0000gn/T//ccSYBGul.s:1190   .text.thread4b:0000000000000000 thread4b
/var/folders/d2/nstgp4h54kz7g1l847x_b8wc0000gn/T//ccSYBGul.s:1241   .text.thread4b:0000000000000030 $d
/var/folders/d2/nstgp4h54kz7g1l847x_b8wc0000gn/T//ccSYBGul.s:1247   .text.thread4a:0000000000000000 $t
/var/folders/d2/nstgp4h54kz7g1l847x_b8wc0000gn/T//ccSYBGul.s:1254   .text.thread4a:0000000000000000 thread4a
/var/folders/d2/nstgp4h54kz7g1l847x_b8wc0000gn/T//ccSYBGul.s:1305   .text.thread4a:0000000000000030 $d
/var/folders/d2/nstgp4h54kz7g1l847x_b8wc0000gn/T//ccSYBGul.s:1311   .text.mtx4_execute:0000000000000000 $t
ARM GAS  /var/folders/d2/nstgp4h54kz7g1l847x_b8wc0000gn/T//ccSYBGul.s 			page 205


/var/folders/d2/nstgp4h54kz7g1l847x_b8wc0000gn/T//ccSYBGul.s:1318   .text.mtx4_execute:0000000000000000 mtx4_execute
/var/folders/d2/nstgp4h54kz7g1l847x_b8wc0000gn/T//ccSYBGul.s:1817   .text.mtx4_execute:0000000000000280 $d
/var/folders/d2/nstgp4h54kz7g1l847x_b8wc0000gn/T//ccSYBGul.s:1834   .text.thread10:0000000000000000 $t
/var/folders/d2/nstgp4h54kz7g1l847x_b8wc0000gn/T//ccSYBGul.s:1841   .text.thread10:0000000000000000 thread10
/var/folders/d2/nstgp4h54kz7g1l847x_b8wc0000gn/T//ccSYBGul.s:1900   .text.thread10:0000000000000038 $d
/var/folders/d2/nstgp4h54kz7g1l847x_b8wc0000gn/T//ccSYBGul.s:1907   .text.mtx6_setup:0000000000000000 $t
/var/folders/d2/nstgp4h54kz7g1l847x_b8wc0000gn/T//ccSYBGul.s:1914   .text.mtx6_setup:0000000000000000 mtx6_setup
/var/folders/d2/nstgp4h54kz7g1l847x_b8wc0000gn/T//ccSYBGul.s:1961   .text.mtx6_setup:0000000000000028 $d
/var/folders/d2/nstgp4h54kz7g1l847x_b8wc0000gn/T//ccSYBGul.s:1968   .text.mtx7_setup:0000000000000000 $t
/var/folders/d2/nstgp4h54kz7g1l847x_b8wc0000gn/T//ccSYBGul.s:1975   .text.mtx7_setup:0000000000000000 mtx7_setup
/var/folders/d2/nstgp4h54kz7g1l847x_b8wc0000gn/T//ccSYBGul.s:2006   .text.mtx7_setup:0000000000000020 $d
/var/folders/d2/nstgp4h54kz7g1l847x_b8wc0000gn/T//ccSYBGul.s:2011   .text.mtx8_setup:0000000000000000 $t
/var/folders/d2/nstgp4h54kz7g1l847x_b8wc0000gn/T//ccSYBGul.s:2018   .text.mtx8_setup:0000000000000000 mtx8_setup
/var/folders/d2/nstgp4h54kz7g1l847x_b8wc0000gn/T//ccSYBGul.s:2070   .text.mtx8_setup:0000000000000030 $d
/var/folders/d2/nstgp4h54kz7g1l847x_b8wc0000gn/T//ccSYBGul.s:2078   .text.mtx7_execute:0000000000000000 $t
/var/folders/d2/nstgp4h54kz7g1l847x_b8wc0000gn/T//ccSYBGul.s:2085   .text.mtx7_execute:0000000000000000 mtx7_execute
/var/folders/d2/nstgp4h54kz7g1l847x_b8wc0000gn/T//ccSYBGul.s:2232   .text.mtx7_execute:00000000000000a4 $d
/var/folders/d2/nstgp4h54kz7g1l847x_b8wc0000gn/T//ccSYBGul.s:2248   .text.mtx8_execute:0000000000000000 $t
/var/folders/d2/nstgp4h54kz7g1l847x_b8wc0000gn/T//ccSYBGul.s:2255   .text.mtx8_execute:0000000000000000 mtx8_execute
/var/folders/d2/nstgp4h54kz7g1l847x_b8wc0000gn/T//ccSYBGul.s:2380   .text.mtx8_execute:0000000000000080 $d
/var/folders/d2/nstgp4h54kz7g1l847x_b8wc0000gn/T//ccSYBGul.s:2403   .text.thread11:0000000000000000 thread11
/var/folders/d2/nstgp4h54kz7g1l847x_b8wc0000gn/T//ccSYBGul.s:2396   .text.thread11:0000000000000000 $t
/var/folders/d2/nstgp4h54kz7g1l847x_b8wc0000gn/T//ccSYBGul.s:2471   .text.thread11:0000000000000048 $d
/var/folders/d2/nstgp4h54kz7g1l847x_b8wc0000gn/T//ccSYBGul.s:2479   .text.mtx5_execute:0000000000000000 $t
/var/folders/d2/nstgp4h54kz7g1l847x_b8wc0000gn/T//ccSYBGul.s:2486   .text.mtx5_execute:0000000000000000 mtx5_execute
/var/folders/d2/nstgp4h54kz7g1l847x_b8wc0000gn/T//ccSYBGul.s:2578   .text.mtx5_execute:0000000000000050 $d
/var/folders/d2/nstgp4h54kz7g1l847x_b8wc0000gn/T//ccSYBGul.s:2584   .text.mtx2_execute:0000000000000000 $t
/var/folders/d2/nstgp4h54kz7g1l847x_b8wc0000gn/T//ccSYBGul.s:2591   .text.mtx2_execute:0000000000000000 mtx2_execute
/var/folders/d2/nstgp4h54kz7g1l847x_b8wc0000gn/T//ccSYBGul.s:2817   .text.mtx2_execute:00000000000000d0 $d
/var/folders/d2/nstgp4h54kz7g1l847x_b8wc0000gn/T//ccSYBGul.s:2830   .text.mtx6_execute:0000000000000000 $t
/var/folders/d2/nstgp4h54kz7g1l847x_b8wc0000gn/T//ccSYBGul.s:2837   .text.mtx6_execute:0000000000000000 mtx6_execute
/var/folders/d2/nstgp4h54kz7g1l847x_b8wc0000gn/T//ccSYBGul.s:3090   .text.mtx6_execute:00000000000000fc $d
/var/folders/d2/nstgp4h54kz7g1l847x_b8wc0000gn/T//ccSYBGul.s:3107   .text.mtx3_execute:0000000000000000 $t
/var/folders/d2/nstgp4h54kz7g1l847x_b8wc0000gn/T//ccSYBGul.s:3114   .text.mtx3_execute:0000000000000000 mtx3_execute
/var/folders/d2/nstgp4h54kz7g1l847x_b8wc0000gn/T//ccSYBGul.s:3373   .text.mtx3_execute:00000000000000fc $d
/var/folders/d2/nstgp4h54kz7g1l847x_b8wc0000gn/T//ccSYBGul.s:3460   .rodata.patternmtx:0000000000000000 patternmtx
/var/folders/d2/nstgp4h54kz7g1l847x_b8wc0000gn/T//ccSYBGul.s:3558   .rodata.testmtx8:0000000000000000 testmtx8
/var/folders/d2/nstgp4h54kz7g1l847x_b8wc0000gn/T//ccSYBGul.s:3549   .rodata.testmtx7:0000000000000000 testmtx7
/var/folders/d2/nstgp4h54kz7g1l847x_b8wc0000gn/T//ccSYBGul.s:3540   .rodata.testmtx6:0000000000000000 testmtx6
/var/folders/d2/nstgp4h54kz7g1l847x_b8wc0000gn/T//ccSYBGul.s:3531   .rodata.testmtx5:0000000000000000 testmtx5
/var/folders/d2/nstgp4h54kz7g1l847x_b8wc0000gn/T//ccSYBGul.s:3522   .rodata.testmtx4:0000000000000000 testmtx4
/var/folders/d2/nstgp4h54kz7g1l847x_b8wc0000gn/T//ccSYBGul.s:3513   .rodata.testmtx3:0000000000000000 testmtx3
/var/folders/d2/nstgp4h54kz7g1l847x_b8wc0000gn/T//ccSYBGul.s:3504   .rodata.testmtx2:0000000000000000 testmtx2
/var/folders/d2/nstgp4h54kz7g1l847x_b8wc0000gn/T//ccSYBGul.s:3495   .rodata.testmtx1:0000000000000000 testmtx1
/var/folders/d2/nstgp4h54kz7g1l847x_b8wc0000gn/T//ccSYBGul.s:3397   .data.c1:0000000000000000 $d
/var/folders/d2/nstgp4h54kz7g1l847x_b8wc0000gn/T//ccSYBGul.s:3401   .data.c1:0000000000000000 c1
/var/folders/d2/nstgp4h54kz7g1l847x_b8wc0000gn/T//ccSYBGul.s:3405   .data.m1:0000000000000000 $d
/var/folders/d2/nstgp4h54kz7g1l847x_b8wc0000gn/T//ccSYBGul.s:3409   .data.m1:0000000000000000 m1
/var/folders/d2/nstgp4h54kz7g1l847x_b8wc0000gn/T//ccSYBGul.s:3416   .data.m2:0000000000000000 $d
/var/folders/d2/nstgp4h54kz7g1l847x_b8wc0000gn/T//ccSYBGul.s:3420   .data.m2:0000000000000000 m2
/var/folders/d2/nstgp4h54kz7g1l847x_b8wc0000gn/T//ccSYBGul.s:3427   .rodata.__func__.7153:0000000000000000 $d
/var/folders/d2/nstgp4h54kz7g1l847x_b8wc0000gn/T//ccSYBGul.s:3431   .rodata.__func__.7153:0000000000000000 __func__.7153
/var/folders/d2/nstgp4h54kz7g1l847x_b8wc0000gn/T//ccSYBGul.s:3434   .rodata.mtx1_execute.str1.4:0000000000000000 $d
/var/folders/d2/nstgp4h54kz7g1l847x_b8wc0000gn/T//ccSYBGul.s:3453   .rodata.mtx8_execute.str1.4:0000000000000000 $d
/var/folders/d2/nstgp4h54kz7g1l847x_b8wc0000gn/T//ccSYBGul.s:3457   .rodata.patternmtx:0000000000000000 $d
/var/folders/d2/nstgp4h54kz7g1l847x_b8wc0000gn/T//ccSYBGul.s:3471   .rodata.str1.4:0000000000000000 $d
/var/folders/d2/nstgp4h54kz7g1l847x_b8wc0000gn/T//ccSYBGul.s:3492   .rodata.testmtx1:0000000000000000 $d
ARM GAS  /var/folders/d2/nstgp4h54kz7g1l847x_b8wc0000gn/T//ccSYBGul.s 			page 206


/var/folders/d2/nstgp4h54kz7g1l847x_b8wc0000gn/T//ccSYBGul.s:3501   .rodata.testmtx2:0000000000000000 $d
/var/folders/d2/nstgp4h54kz7g1l847x_b8wc0000gn/T//ccSYBGul.s:3510   .rodata.testmtx3:0000000000000000 $d
/var/folders/d2/nstgp4h54kz7g1l847x_b8wc0000gn/T//ccSYBGul.s:3519   .rodata.testmtx4:0000000000000000 $d
/var/folders/d2/nstgp4h54kz7g1l847x_b8wc0000gn/T//ccSYBGul.s:3528   .rodata.testmtx5:0000000000000000 $d
/var/folders/d2/nstgp4h54kz7g1l847x_b8wc0000gn/T//ccSYBGul.s:3537   .rodata.testmtx6:0000000000000000 $d
/var/folders/d2/nstgp4h54kz7g1l847x_b8wc0000gn/T//ccSYBGul.s:3546   .rodata.testmtx7:0000000000000000 $d
/var/folders/d2/nstgp4h54kz7g1l847x_b8wc0000gn/T//ccSYBGul.s:3555   .rodata.testmtx8:0000000000000000 $d

UNDEFINED SYMBOLS
chMtxLock
chThdCreateStatic
chMtxUnlock
test_wait_threads
_test_assert
_test_assert_sequence
__stack_chk_fail
ch
wa
threads
__stack_chk_guard
test_emit_token
chMtxObjectInit
test_cpu_pulse
chThdSleep
chMtxUnlockAll
_stats_start_measure_crit_thd
_dbg_check_lock
chMtxUnlockS
chSchRescheduleS
_dbg_check_unlock
_stats_stop_measure_crit_thd
chSysHalt
chCondWait
chCondObjectInit
chCondBroadcast
chCondSignal
chCondWaitTimeout
test_wait_tick
_test_assert_time_window
chCondSignalI
