ARM GAS  /var/folders/d2/nstgp4h54kz7g1l847x_b8wc0000gn/T//ccrcU65b.s 			page 1


   1              		.cpu cortex-m4
   2              		.eabi_attribute 27, 1
   3              		.eabi_attribute 28, 1
   4              		.eabi_attribute 20, 1
   5              		.eabi_attribute 21, 1
   6              		.eabi_attribute 23, 3
   7              		.eabi_attribute 24, 1
   8              		.eabi_attribute 25, 1
   9              		.eabi_attribute 26, 1
  10              		.eabi_attribute 30, 2
  11              		.eabi_attribute 34, 1
  12              		.eabi_attribute 18, 4
  13              		.file	"uc_usage.c"
  14              		.text
  15              	.Ltext0:
  16              		.cfi_sections	.debug_frame
  17              		.section	.text.chprintf,"ax",%progbits
  18              		.align	1
  19              		.p2align 4,,15
  20              		.syntax unified
  21              		.thumb
  22              		.thumb_func
  23              		.fpu fpv4-sp-d16
  24              		.type	chprintf, %function
  25              	chprintf:
  26              	.LFB219:
  27              		.file 1 "../e-puck2_main-processor/ChibiOS//os/hal/lib/streams/chprintf.h"
  28              		.loc 1 69 0
  29              		.cfi_startproc
  30              		@ args = 4, pretend = 12, frame = 8
  31              		@ frame_needed = 0, uses_anonymous_args = 1
  32              	.LVL0:
  33 0000 0EB4     		push	{r1, r2, r3}
  34              		.cfi_def_cfa_offset 12
  35              		.cfi_offset 1, -12
  36              		.cfi_offset 2, -8
  37              		.cfi_offset 3, -4
  38 0002 10B5     		push	{r4, lr}
  39              		.cfi_def_cfa_offset 20
  40              		.cfi_offset 4, -20
  41              		.cfi_offset 14, -16
  42 0004 83B0     		sub	sp, sp, #12
  43              		.cfi_def_cfa_offset 32
  44              		.loc 1 69 0
  45 0006 05AA     		add	r2, sp, #20
  46 0008 094C     		ldr	r4, .L6
  47 000a 52F8041B 		ldr	r1, [r2], #4
  48 000e 2368     		ldr	r3, [r4]
  49              		.loc 1 73 0
  50 0010 0092     		str	r2, [sp]
  51              		.loc 1 69 0
  52 0012 0193     		str	r3, [sp, #4]
  53              		.loc 1 74 0
  54 0014 FFF7FEFF 		bl	chvprintf
  55              	.LVL1:
  56              		.loc 1 78 0
  57 0018 019A     		ldr	r2, [sp, #4]
ARM GAS  /var/folders/d2/nstgp4h54kz7g1l847x_b8wc0000gn/T//ccrcU65b.s 			page 2


  58 001a 2368     		ldr	r3, [r4]
  59 001c 9A42     		cmp	r2, r3
  60 001e 04D1     		bne	.L5
  61 0020 03B0     		add	sp, sp, #12
  62              		.cfi_remember_state
  63              		.cfi_def_cfa_offset 20
  64              		@ sp needed
  65 0022 BDE81040 		pop	{r4, lr}
  66              		.cfi_restore 14
  67              		.cfi_restore 4
  68              		.cfi_def_cfa_offset 12
  69 0026 03B0     		add	sp, sp, #12
  70              		.cfi_restore 3
  71              		.cfi_restore 2
  72              		.cfi_restore 1
  73              		.cfi_def_cfa_offset 0
  74 0028 7047     		bx	lr
  75              	.L5:
  76              		.cfi_restore_state
  77 002a FFF7FEFF 		bl	__stack_chk_fail
  78              	.LVL2:
  79              	.L7:
  80 002e 00BF     		.align	2
  81              	.L6:
  82 0030 00000000 		.word	__stack_chk_guard
  83              		.cfi_endproc
  84              	.LFE219:
  85              		.size	chprintf, .-chprintf
  86              		.global	__aeabi_uldivmod
  87              		.section	.text.printUcUsage,"ax",%progbits
  88              		.align	1
  89              		.p2align 4,,15
  90              		.global	printUcUsage
  91              		.syntax unified
  92              		.thumb
  93              		.thumb_func
  94              		.fpu fpv4-sp-d16
  95              		.type	printUcUsage, %function
  96              	printUcUsage:
  97              	.LFB220:
  98              		.file 2 "../e-puck2_main-processor/src/uc_usage.c"
  99              		.loc 2 13 0
 100              		.cfi_startproc
 101              		@ args = 0, pretend = 0, frame = 8
 102              		@ frame_needed = 0, uses_anonymous_args = 0
 103              	.LVL3:
 104 0000 2DE9F04F 		push	{r4, r5, r6, r7, r8, r9, r10, fp, lr}
 105              		.cfi_def_cfa_offset 36
 106              		.cfi_offset 4, -36
 107              		.cfi_offset 5, -32
 108              		.cfi_offset 6, -28
 109              		.cfi_offset 7, -24
 110              		.cfi_offset 8, -20
 111              		.cfi_offset 9, -16
 112              		.cfi_offset 10, -12
 113              		.cfi_offset 11, -8
 114              		.cfi_offset 14, -4
ARM GAS  /var/folders/d2/nstgp4h54kz7g1l847x_b8wc0000gn/T//ccrcU65b.s 			page 3


 115 0004 764B     		ldr	r3, .L17
 116              		.loc 2 19 0
 117 0006 774E     		ldr	r6, .L17+4
 118              		.loc 2 13 0
 119 0008 1B68     		ldr	r3, [r3]
 120 000a 85B0     		sub	sp, sp, #20
 121              		.cfi_def_cfa_offset 56
 122              		.loc 2 19 0
 123 000c 0022     		movs	r2, #0
 124              		.loc 2 13 0
 125 000e 0393     		str	r3, [sp, #12]
 126              		.loc 2 19 0
 127 0010 0023     		movs	r3, #0
 128              		.loc 2 13 0
 129 0012 0546     		mov	r5, r0
 130              		.loc 2 19 0
 131 0014 C6E90023 		strd	r2, [r6]
 132              		.loc 2 21 0
 133 0018 FFF7FEFF 		bl	chRegFirstThread
 134              	.LVL4:
 135              	.L9:
 136              		.loc 2 24 0 discriminator 1
 137 001c D6E90023 		ldrd	r2, [r6]
 138 0020 D0E91889 		ldrd	r8, [r0, #96]
 139 0024 12EB080A 		adds	r10, r2, r8
 140 0028 43EB090B 		adc	fp, r3, r9
 141 002c C6E900AB 		strd	r10, [r6]
 142              		.loc 2 25 0 discriminator 1
 143 0030 FFF7FEFF 		bl	chRegNextThread
 144              	.LVL5:
 145              		.loc 2 26 0 discriminator 1
 146 0034 0028     		cmp	r0, #0
 147 0036 F1D1     		bne	.L9
 148              		.loc 2 27 0
 149 0038 6B4B     		ldr	r3, .L17+8
 150              		.loc 2 35 0
 151 003a 6C4C     		ldr	r4, .L17+12
 152              		.loc 2 27 0
 153 003c D3E90023 		ldrd	r2, [r3]
 154 0040 D6E90001 		ldrd	r0, [r6]
 155              	.LVL6:
 156 0044 1718     		adds	r7, r2, r0
 157 0046 43EB0108 		adc	r8, r3, r1
 158              		.loc 2 28 0
 159 004a 6949     		ldr	r1, .L17+16
 160 004c D1E900AB 		ldrd	r10, [r1]
 161 0050 17EB0A02 		adds	r2, r7, r10
 162 0054 48EB0B03 		adc	r3, r8, fp
 163 0058 C6E90023 		strd	r2, [r6]
 164              		.loc 2 31 0
 165 005c FFF7FEFF 		bl	chRegFirstThread
 166              	.LVL7:
 167              		.loc 2 35 0
 168 0060 DFF898B1 		ldr	fp, .L17+28
 169 0064 4FF0640A 		mov	r10, #100
 170              		.loc 2 31 0
 171 0068 8146     		mov	r9, r0
ARM GAS  /var/folders/d2/nstgp4h54kz7g1l847x_b8wc0000gn/T//ccrcU65b.s 			page 4


 172              	.LVL8:
 173              	.L10:
 174              		.loc 2 34 0 discriminator 1
 175 006a D9E91801 		ldrd	r0, [r9, #96]
 176              	.LVL9:
 177 006e 4FEA810C 		lsl	ip, r1, #2
 178 0072 8200     		lsls	r2, r0, #2
 179 0074 1718     		adds	r7, r2, r0
 180 0076 4CEA9073 		orr	r3, ip, r0, lsr #30
 181 007a 43EB0108 		adc	r8, r3, r1
 182 007e 4FEAC70E 		lsl	lr, r7, #3
 183 0082 4FEAC80C 		lsl	ip, r8, #3
 184 0086 BEEB0002 		subs	r2, lr, r0
 185 008a 4CEA577C 		orr	ip, ip, r7, lsr #29
 186 008e 6CEB0103 		sbc	r3, ip, r1
 187 0092 4FEA021E 		lsl	lr, r2, #4
 188 0096 4FEA031C 		lsl	ip, r3, #4
 189 009a 10EB0E07 		adds	r7, r0, lr
 190 009e 4CEA127C 		orr	ip, ip, r2, lsr #28
 191 00a2 41EB0C08 		adc	r8, r1, ip
 192 00a6 4146     		mov	r1, r8
 193 00a8 0B01     		lsls	r3, r1, #4
 194 00aa 43EA1773 		orr	r3, r3, r7, lsr #28
 195 00ae 3A01     		lsls	r2, r7, #4
 196 00b0 1046     		mov	r0, r2
 197 00b2 1946     		mov	r1, r3
 198 00b4 D6E90023 		ldrd	r2, [r6]
 199 00b8 FFF7FEFF 		bl	__aeabi_uldivmod
 200              	.LVL10:
 201 00bc 80B2     		uxth	r0, r0
 202              		.loc 2 35 0 discriminator 1
 203 00be A4FB0023 		umull	r2, r3, r4, r0
 204 00c2 5B09     		lsrs	r3, r3, #5
 205 00c4 0AFB1300 		mls	r0, r10, r3, r0
 206 00c8 80B2     		uxth	r0, r0
 207 00ca D9F81820 		ldr	r2, [r9, #24]
 208 00ce 0090     		str	r0, [sp]
 209 00d0 5946     		mov	r1, fp
 210 00d2 2846     		mov	r0, r5
 211 00d4 FFF7FEFF 		bl	chprintf
 212              	.LVL11:
 213              		.loc 2 36 0 discriminator 1
 214 00d8 4846     		mov	r0, r9
 215 00da FFF7FEFF 		bl	chRegNextThread
 216              	.LVL12:
 217              		.loc 2 37 0 discriminator 1
 218 00de 8146     		mov	r9, r0
 219 00e0 0028     		cmp	r0, #0
 220 00e2 C2D1     		bne	.L10
 221              		.loc 2 39 0
 222 00e4 404B     		ldr	r3, .L17+8
 223 00e6 D3E90001 		ldrd	r0, [r3]
 224              	.LVL13:
 225 00ea 8F00     		lsls	r7, r1, #2
 226 00ec 8200     		lsls	r2, r0, #2
 227 00ee 12EB0008 		adds	r8, r2, r0
 228 00f2 47EA9073 		orr	r3, r7, r0, lsr #30
ARM GAS  /var/folders/d2/nstgp4h54kz7g1l847x_b8wc0000gn/T//ccrcU65b.s 			page 5


 229 00f6 43EB0109 		adc	r9, r3, r1
 230              	.LVL14:
 231 00fa 4B46     		mov	r3, r9
 232 00fc 4FEAC80C 		lsl	ip, r8, #3
 233 0100 DF00     		lsls	r7, r3, #3
 234 0102 BCEB0002 		subs	r2, ip, r0
 235 0106 47EA5877 		orr	r7, r7, r8, lsr #29
 236 010a 67EB0103 		sbc	r3, r7, r1
 237 010e 4FEA021C 		lsl	ip, r2, #4
 238 0112 1F01     		lsls	r7, r3, #4
 239 0114 10EB0C0B 		adds	fp, r0, ip
 240 0118 47EA1277 		orr	r7, r7, r2, lsr #28
 241 011c 41EB070C 		adc	ip, r1, r7
 242 0120 D6E90067 		ldrd	r6, [r6]
 243 0124 4FEA0C13 		lsl	r3, ip, #4
 244 0128 43EA1B73 		orr	r3, r3, fp, lsr #28
 245 012c 4FEA0B12 		lsl	r2, fp, #4
 246 0130 1046     		mov	r0, r2
 247 0132 1946     		mov	r1, r3
 248 0134 3246     		mov	r2, r6
 249 0136 3B46     		mov	r3, r7
 250 0138 FFF7FEFF 		bl	__aeabi_uldivmod
 251              	.LVL15:
 252              		.loc 2 40 0
 253 013c 2C4B     		ldr	r3, .L17+16
 254 013e D3E90089 		ldrd	r8, [r3]
 255 0142 4FEA8901 		lsl	r1, r9, #2
 256 0146 4FEA8802 		lsl	r2, r8, #2
 257 014a 12EB080B 		adds	fp, r2, r8
 258 014e 41EA9873 		orr	r3, r1, r8, lsr #30
 259 0152 43EB090C 		adc	ip, r3, r9
 260 0156 6346     		mov	r3, ip
 261 0158 D900     		lsls	r1, r3, #3
 262 015a 4FEACB0C 		lsl	ip, fp, #3
 263 015e BCEB0802 		subs	r2, ip, r8
 264 0162 41EA5B71 		orr	r1, r1, fp, lsr #29
 265 0166 61EB0903 		sbc	r3, r1, r9
 266 016a 4FEA021C 		lsl	ip, r2, #4
 267 016e 1901     		lsls	r1, r3, #4
 268 0170 1CEB080B 		adds	fp, ip, r8
 269 0174 41EA1271 		orr	r1, r1, r2, lsr #28
 270 0178 41EB090C 		adc	ip, r1, r9
 271 017c 4FEA0C13 		lsl	r3, ip, #4
 272 0180 43EA1B73 		orr	r3, r3, fp, lsr #28
 273 0184 4FEA0B12 		lsl	r2, fp, #4
 274 0188 9C46     		mov	ip, r3
 275 018a 9346     		mov	fp, r2
 276 018c 3B46     		mov	r3, r7
 277              		.loc 2 39 0
 278 018e 1FFA80F9 		uxth	r9, r0
 279              		.loc 2 40 0
 280 0192 3246     		mov	r2, r6
 281 0194 6146     		mov	r1, ip
 282 0196 5846     		mov	r0, fp
 283 0198 FFF7FEFF 		bl	__aeabi_uldivmod
 284              	.LVL16:
 285 019c 80B2     		uxth	r0, r0
ARM GAS  /var/folders/d2/nstgp4h54kz7g1l847x_b8wc0000gn/T//ccrcU65b.s 			page 6


 286              		.loc 2 42 0
 287 019e A4FB0031 		umull	r3, r1, r4, r0
 288 01a2 4909     		lsrs	r1, r1, #5
 289 01a4 A4FB0932 		umull	r3, r2, r4, r9
 290 01a8 5209     		lsrs	r2, r2, #5
 291 01aa 0AFB1100 		mls	r0, r10, r1, r0
 292 01ae 0AFB1293 		mls	r3, r10, r2, r9
 293 01b2 80B2     		uxth	r0, r0
 294 01b4 0190     		str	r0, [sp, #4]
 295 01b6 9BB2     		uxth	r3, r3
 296 01b8 0091     		str	r1, [sp]
 297 01ba 2846     		mov	r0, r5
 298 01bc 0D49     		ldr	r1, .L17+20
 299 01be FFF7FEFF 		bl	chprintf
 300              	.LVL17:
 301              		.loc 2 44 0
 302 01c2 074B     		ldr	r3, .L17
 303 01c4 039A     		ldr	r2, [sp, #12]
 304 01c6 1B68     		ldr	r3, [r3]
 305 01c8 9A42     		cmp	r2, r3
 306 01ca 06D1     		bne	.L16
 307 01cc 0A49     		ldr	r1, .L17+24
 308 01ce 2846     		mov	r0, r5
 309              		.loc 2 45 0
 310 01d0 05B0     		add	sp, sp, #20
 311              		.cfi_remember_state
 312              		.cfi_def_cfa_offset 36
 313              		@ sp needed
 314 01d2 BDE8F04F 		pop	{r4, r5, r6, r7, r8, r9, r10, fp, lr}
 315              		.cfi_restore 14
 316              		.cfi_restore 11
 317              		.cfi_restore 10
 318              		.cfi_restore 9
 319              		.cfi_restore 8
 320              		.cfi_restore 7
 321              		.cfi_restore 6
 322              		.cfi_restore 5
 323              		.cfi_restore 4
 324              		.cfi_def_cfa_offset 0
 325              	.LVL18:
 326              		.loc 2 44 0
 327 01d6 FFF7FEBF 		b	chprintf
 328              	.LVL19:
 329              	.L16:
 330              		.cfi_restore_state
 331 01da FFF7FEFF 		bl	__stack_chk_fail
 332              	.LVL20:
 333              	.L18:
 334 01de 00BF     		.align	2
 335              	.L17:
 336 01e0 00000000 		.word	__stack_chk_guard
 337 01e4 00000000 		.word	.LANCHOR0
 338 01e8 C8040000 		.word	ch+1224
 339 01ec 1F85EB51 		.word	1374389535
 340 01f0 E0040000 		.word	ch+1248
 341 01f4 10000000 		.word	.LC1
 342 01f8 40000000 		.word	.LC2
ARM GAS  /var/folders/d2/nstgp4h54kz7g1l847x_b8wc0000gn/T//ccrcU65b.s 			page 7


 343 01fc 00000000 		.word	.LC0
 344              		.cfi_endproc
 345              	.LFE220:
 346              		.size	printUcUsage, .-printUcUsage
 347              		.section	.bss.sum.7868,"aw",%nobits
 348              		.align	3
 349              		.set	.LANCHOR0,. + 0
 350              		.type	sum.7868, %object
 351              		.size	sum.7868, 8
 352              	sum.7868:
 353 0000 00000000 		.space	8
 353      00000000 
 354              		.section	.rodata.printUcUsage.str1.4,"aMS",%progbits,1
 355              		.align	2
 356              	.LC0:
 357 0000 25313273 		.ascii	"%12s %u.%u%%\015\012\000"
 357      2025752E 
 357      25752525 
 357      0D0A00
 358 000f 00       		.space	1
 359              	.LC1:
 360 0010 63726974 		.ascii	"critical thd:%u.%u%%   critical isr:%u.%u%%\015\012"
 360      6963616C 
 360      20746864 
 360      3A25752E 
 360      25752525 
 361 003d 00       		.ascii	"\000"
 362 003e 0000     		.space	2
 363              	.LC2:
 364 0040 0D0A00   		.ascii	"\015\012\000"
 365              		.text
 366              	.Letext0:
 367              		.file 3 "/Applications/Eclipse_e-puck2.app/Contents/Eclipse_e-puck2/Tools/gcc-arm-none-eabi-7-2017
 368              		.file 4 "/Applications/Eclipse_e-puck2.app/Contents/Eclipse_e-puck2/Tools/gcc-arm-none-eabi-7-2017
 369              		.file 5 "/Applications/Eclipse_e-puck2.app/Contents/Eclipse_e-puck2/Tools/gcc-arm-none-eabi-7-2017
 370              		.file 6 "../e-puck2_main-processor/ChibiOS//os/rt/ports/ARMCMx/compilers/GCC/chtypes.h"
 371              		.file 7 "../e-puck2_main-processor/ChibiOS//os/rt/include/chsystypes.h"
 372              		.file 8 "../e-puck2_main-processor/ChibiOS//os/rt/include/chschd.h"
 373              		.file 9 "../e-puck2_main-processor/ChibiOS//os/ext/CMSIS/include/core_cm4.h"
 374              		.file 10 "../e-puck2_main-processor/ChibiOS//os/ext/CMSIS/ST/system_stm32f4xx.h"
 375              		.file 11 "../e-puck2_main-processor/ChibiOS//os/rt/ports/ARMCMx/chcore.h"
 376              		.file 12 "../e-puck2_main-processor/ChibiOS//os/rt/ports/ARMCMx/chcore_v7m.h"
 377              		.file 13 "../e-puck2_main-processor/ChibiOS//os/rt/include/chdebug.h"
 378              		.file 14 "../e-puck2_main-processor/ChibiOS//os/rt/include/chtm.h"
 379              		.file 15 "../e-puck2_main-processor/ChibiOS//os/rt/include/chstats.h"
 380              		.file 16 "../e-puck2_main-processor/ChibiOS//os/rt/include/chsem.h"
 381              		.file 17 "../e-puck2_main-processor/ChibiOS//os/rt/include/chmtx.h"
 382              		.file 18 "../e-puck2_main-processor/ChibiOS//os/rt/include/chregistry.h"
 383              		.file 19 "../e-puck2_main-processor/ChibiOS//os/rt/include/chstreams.h"
 384              		.file 20 "/Applications/Eclipse_e-puck2.app/Contents/Eclipse_e-puck2/Tools/gcc-arm-none-eabi-7-201
 385              		.file 21 "<built-in>"
 386              		.section	.debug_info,"",%progbits
 387              	.Ldebug_info0:
 388 0000 DF0C0000 		.4byte	0xcdf
 389 0004 0400     		.2byte	0x4
 390 0006 00000000 		.4byte	.Ldebug_abbrev0
 391 000a 04       		.byte	0x4
ARM GAS  /var/folders/d2/nstgp4h54kz7g1l847x_b8wc0000gn/T//ccrcU65b.s 			page 8


 392 000b 01       		.uleb128 0x1
 393 000c 38020000 		.4byte	.LASF171
 394 0010 0C       		.byte	0xc
 395 0011 50040000 		.4byte	.LASF172
 396 0015 F8030000 		.4byte	.LASF173
 397 0019 00000000 		.4byte	.Ldebug_ranges0+0
 398 001d 00000000 		.4byte	0
 399 0021 00000000 		.4byte	.Ldebug_line0
 400 0025 02       		.uleb128 0x2
 401 0026 08       		.byte	0x8
 402 0027 07       		.byte	0x7
 403 0028 92000000 		.4byte	.LASF0
 404 002c 02       		.uleb128 0x2
 405 002d 04       		.byte	0x4
 406 002e 07       		.byte	0x7
 407 002f 2B020000 		.4byte	.LASF1
 408 0033 03       		.uleb128 0x3
 409 0034 04       		.byte	0x4
 410 0035 05       		.byte	0x5
 411 0036 696E7400 		.ascii	"int\000"
 412 003a 04       		.uleb128 0x4
 413 003b 22000000 		.4byte	.LASF5
 414 003f 03       		.byte	0x3
 415 0040 D8       		.byte	0xd8
 416 0041 2C000000 		.4byte	0x2c
 417 0045 02       		.uleb128 0x2
 418 0046 08       		.byte	0x8
 419 0047 05       		.byte	0x5
 420 0048 28010000 		.4byte	.LASF2
 421 004c 02       		.uleb128 0x2
 422 004d 08       		.byte	0x8
 423 004e 04       		.byte	0x4
 424 004f 39050000 		.4byte	.LASF3
 425 0053 02       		.uleb128 0x2
 426 0054 01       		.byte	0x1
 427 0055 06       		.byte	0x6
 428 0056 36010000 		.4byte	.LASF4
 429 005a 04       		.uleb128 0x4
 430 005b 4C000000 		.4byte	.LASF6
 431 005f 04       		.byte	0x4
 432 0060 2B       		.byte	0x2b
 433 0061 65000000 		.4byte	0x65
 434 0065 02       		.uleb128 0x2
 435 0066 01       		.byte	0x1
 436 0067 08       		.byte	0x8
 437 0068 3E060000 		.4byte	.LASF7
 438 006c 02       		.uleb128 0x2
 439 006d 02       		.byte	0x2
 440 006e 05       		.byte	0x5
 441 006f 5E060000 		.4byte	.LASF8
 442 0073 04       		.uleb128 0x4
 443 0074 8B070000 		.4byte	.LASF9
 444 0078 04       		.byte	0x4
 445 0079 39       		.byte	0x39
 446 007a 7E000000 		.4byte	0x7e
 447 007e 02       		.uleb128 0x2
 448 007f 02       		.byte	0x2
ARM GAS  /var/folders/d2/nstgp4h54kz7g1l847x_b8wc0000gn/T//ccrcU65b.s 			page 9


 449 0080 07       		.byte	0x7
 450 0081 CC030000 		.4byte	.LASF10
 451 0085 04       		.uleb128 0x4
 452 0086 C8040000 		.4byte	.LASF11
 453 008a 04       		.byte	0x4
 454 008b 4D       		.byte	0x4d
 455 008c 90000000 		.4byte	0x90
 456 0090 02       		.uleb128 0x2
 457 0091 04       		.byte	0x4
 458 0092 05       		.byte	0x5
 459 0093 7B010000 		.4byte	.LASF12
 460 0097 04       		.uleb128 0x4
 461 0098 C9070000 		.4byte	.LASF13
 462 009c 04       		.byte	0x4
 463 009d 4F       		.byte	0x4f
 464 009e A2000000 		.4byte	0xa2
 465 00a2 02       		.uleb128 0x2
 466 00a3 04       		.byte	0x4
 467 00a4 07       		.byte	0x7
 468 00a5 58070000 		.4byte	.LASF14
 469 00a9 04       		.uleb128 0x4
 470 00aa D4050000 		.4byte	.LASF15
 471 00ae 04       		.byte	0x4
 472 00af 69       		.byte	0x69
 473 00b0 25000000 		.4byte	0x25
 474 00b4 04       		.uleb128 0x4
 475 00b5 47080000 		.4byte	.LASF16
 476 00b9 05       		.byte	0x5
 477 00ba 18       		.byte	0x18
 478 00bb 5A000000 		.4byte	0x5a
 479 00bf 05       		.uleb128 0x5
 480 00c0 B4000000 		.4byte	0xb4
 481 00c4 04       		.uleb128 0x4
 482 00c5 7C030000 		.4byte	.LASF17
 483 00c9 05       		.byte	0x5
 484 00ca 24       		.byte	0x24
 485 00cb 73000000 		.4byte	0x73
 486 00cf 04       		.uleb128 0x4
 487 00d0 36060000 		.4byte	.LASF18
 488 00d4 05       		.byte	0x5
 489 00d5 2C       		.byte	0x2c
 490 00d6 85000000 		.4byte	0x85
 491 00da 06       		.uleb128 0x6
 492 00db CF000000 		.4byte	0xcf
 493 00df 04       		.uleb128 0x4
 494 00e0 0C080000 		.4byte	.LASF19
 495 00e4 05       		.byte	0x5
 496 00e5 30       		.byte	0x30
 497 00e6 97000000 		.4byte	0x97
 498 00ea 04       		.uleb128 0x4
 499 00eb 36000000 		.4byte	.LASF20
 500 00ef 05       		.byte	0x5
 501 00f0 3C       		.byte	0x3c
 502 00f1 A9000000 		.4byte	0xa9
 503 00f5 04       		.uleb128 0x4
 504 00f6 1A050000 		.4byte	.LASF21
 505 00fa 06       		.byte	0x6
ARM GAS  /var/folders/d2/nstgp4h54kz7g1l847x_b8wc0000gn/T//ccrcU65b.s 			page 10


 506 00fb 45       		.byte	0x45
 507 00fc DF000000 		.4byte	0xdf
 508 0100 04       		.uleb128 0x4
 509 0101 F9000000 		.4byte	.LASF22
 510 0105 06       		.byte	0x6
 511 0106 46       		.byte	0x46
 512 0107 EA000000 		.4byte	0xea
 513 010b 04       		.uleb128 0x4
 514 010c 8F060000 		.4byte	.LASF23
 515 0110 06       		.byte	0x6
 516 0111 48       		.byte	0x48
 517 0112 B4000000 		.4byte	0xb4
 518 0116 04       		.uleb128 0x4
 519 0117 84010000 		.4byte	.LASF24
 520 011b 06       		.byte	0x6
 521 011c 49       		.byte	0x49
 522 011d B4000000 		.4byte	0xb4
 523 0121 04       		.uleb128 0x4
 524 0122 EA050000 		.4byte	.LASF25
 525 0126 06       		.byte	0x6
 526 0127 4A       		.byte	0x4a
 527 0128 B4000000 		.4byte	0xb4
 528 012c 04       		.uleb128 0x4
 529 012d 61010000 		.4byte	.LASF26
 530 0131 06       		.byte	0x6
 531 0132 4B       		.byte	0x4b
 532 0133 B4000000 		.4byte	0xb4
 533 0137 04       		.uleb128 0x4
 534 0138 1E060000 		.4byte	.LASF27
 535 013c 06       		.byte	0x6
 536 013d 4C       		.byte	0x4c
 537 013e DF000000 		.4byte	0xdf
 538 0142 04       		.uleb128 0x4
 539 0143 79040000 		.4byte	.LASF28
 540 0147 06       		.byte	0x6
 541 0148 4D       		.byte	0x4d
 542 0149 CF000000 		.4byte	0xcf
 543 014d 04       		.uleb128 0x4
 544 014e BC040000 		.4byte	.LASF29
 545 0152 06       		.byte	0x6
 546 0153 4F       		.byte	0x4f
 547 0154 DF000000 		.4byte	0xdf
 548 0158 04       		.uleb128 0x4
 549 0159 1A020000 		.4byte	.LASF30
 550 015d 06       		.byte	0x6
 551 015e 51       		.byte	0x51
 552 015f CF000000 		.4byte	0xcf
 553 0163 04       		.uleb128 0x4
 554 0164 84040000 		.4byte	.LASF31
 555 0168 06       		.byte	0x6
 556 0169 52       		.byte	0x52
 557 016a DF000000 		.4byte	0xdf
 558 016e 04       		.uleb128 0x4
 559 016f AB070000 		.4byte	.LASF32
 560 0173 07       		.byte	0x7
 561 0174 33       		.byte	0x33
 562 0175 DF000000 		.4byte	0xdf
ARM GAS  /var/folders/d2/nstgp4h54kz7g1l847x_b8wc0000gn/T//ccrcU65b.s 			page 11


 563 0179 06       		.uleb128 0x6
 564 017a 6E010000 		.4byte	0x16e
 565 017e 04       		.uleb128 0x4
 566 017f 96070000 		.4byte	.LASF33
 567 0183 07       		.byte	0x7
 568 0184 3F       		.byte	0x3f
 569 0185 89010000 		.4byte	0x189
 570 0189 07       		.uleb128 0x7
 571 018a EE030000 		.4byte	.LASF57
 572 018e 68       		.byte	0x68
 573 018f 08       		.byte	0x8
 574 0190 C2       		.byte	0xc2
 575 0191 A7020000 		.4byte	0x2a7
 576 0195 08       		.uleb128 0x8
 577 0196 88060000 		.4byte	.LASF34
 578 019a 08       		.byte	0x8
 579 019b C3       		.byte	0xc3
 580 019c B2020000 		.4byte	0x2b2
 581 01a0 00       		.byte	0
 582 01a1 08       		.uleb128 0x8
 583 01a2 17060000 		.4byte	.LASF35
 584 01a6 08       		.byte	0x8
 585 01a7 C5       		.byte	0xc5
 586 01a8 B2020000 		.4byte	0x2b2
 587 01ac 04       		.byte	0x4
 588 01ad 08       		.uleb128 0x8
 589 01ae 02010000 		.4byte	.LASF36
 590 01b2 08       		.byte	0x8
 591 01b3 C7       		.byte	0xc7
 592 01b4 37010000 		.4byte	0x137
 593 01b8 08       		.byte	0x8
 594 01b9 08       		.uleb128 0x8
 595 01ba A2050000 		.4byte	.LASF37
 596 01be 08       		.byte	0x8
 597 01bf C8       		.byte	0xc8
 598 01c0 2B050000 		.4byte	0x52b
 599 01c4 0C       		.byte	0xc
 600 01c5 08       		.uleb128 0x8
 601 01c6 A7010000 		.4byte	.LASF38
 602 01ca 08       		.byte	0x8
 603 01cb CA       		.byte	0xca
 604 01cc B2020000 		.4byte	0x2b2
 605 01d0 10       		.byte	0x10
 606 01d1 08       		.uleb128 0x8
 607 01d2 94050000 		.4byte	.LASF39
 608 01d6 08       		.byte	0x8
 609 01d7 CB       		.byte	0xcb
 610 01d8 B2020000 		.4byte	0x2b2
 611 01dc 14       		.byte	0x14
 612 01dd 08       		.uleb128 0x8
 613 01de 26060000 		.4byte	.LASF40
 614 01e2 08       		.byte	0x8
 615 01e3 D2       		.byte	0xd2
 616 01e4 A1080000 		.4byte	0x8a1
 617 01e8 18       		.byte	0x18
 618 01e9 08       		.uleb128 0x8
 619 01ea 20020000 		.4byte	.LASF41
ARM GAS  /var/folders/d2/nstgp4h54kz7g1l847x_b8wc0000gn/T//ccrcU65b.s 			page 12


 620 01ee 08       		.byte	0x8
 621 01ef D8       		.byte	0xd8
 622 01f0 B8080000 		.4byte	0x8b8
 623 01f4 1C       		.byte	0x1c
 624 01f5 08       		.uleb128 0x8
 625 01f6 68060000 		.4byte	.LASF42
 626 01fa 08       		.byte	0x8
 627 01fb DD       		.byte	0xdd
 628 01fc 16010000 		.4byte	0x116
 629 0200 20       		.byte	0x20
 630 0201 08       		.uleb128 0x8
 631 0202 A6060000 		.4byte	.LASF43
 632 0206 08       		.byte	0x8
 633 0207 E1       		.byte	0xe1
 634 0208 0B010000 		.4byte	0x10b
 635 020c 21       		.byte	0x21
 636 020d 08       		.uleb128 0x8
 637 020e 29080000 		.4byte	.LASF44
 638 0212 08       		.byte	0x8
 639 0213 E6       		.byte	0xe6
 640 0214 21010000 		.4byte	0x121
 641 0218 22       		.byte	0x22
 642 0219 08       		.uleb128 0x8
 643 021a 70060000 		.4byte	.LASF45
 644 021e 08       		.byte	0x8
 645 021f EC       		.byte	0xec
 646 0220 2C010000 		.4byte	0x12c
 647 0224 23       		.byte	0x23
 648 0225 08       		.uleb128 0x8
 649 0226 95030000 		.4byte	.LASF46
 650 022a 08       		.byte	0x8
 651 022b F3       		.byte	0xf3
 652 022c 79010000 		.4byte	0x179
 653 0230 24       		.byte	0x24
 654 0231 09       		.uleb128 0x9
 655 0232 705F7500 		.ascii	"p_u\000"
 656 0236 08       		.byte	0x8
 657 0237 3101     		.2byte	0x131
 658 0239 D0070000 		.4byte	0x7d0
 659 023d 28       		.byte	0x28
 660 023e 0A       		.uleb128 0xa
 661 023f 10050000 		.4byte	.LASF47
 662 0243 08       		.byte	0x8
 663 0244 3601     		.2byte	0x136
 664 0246 B8020000 		.4byte	0x2b8
 665 024a 2C       		.byte	0x2c
 666 024b 0A       		.uleb128 0xa
 667 024c AC030000 		.4byte	.LASF48
 668 0250 08       		.byte	0x8
 669 0251 3C01     		.2byte	0x13c
 670 0253 DC020000 		.4byte	0x2dc
 671 0257 30       		.byte	0x30
 672 0258 0A       		.uleb128 0xa
 673 0259 FF070000 		.4byte	.LASF49
 674 025d 08       		.byte	0x8
 675 025e 4001     		.2byte	0x140
 676 0260 42010000 		.4byte	0x142
ARM GAS  /var/folders/d2/nstgp4h54kz7g1l847x_b8wc0000gn/T//ccrcU65b.s 			page 13


 677 0264 38       		.byte	0x38
 678 0265 0A       		.uleb128 0xa
 679 0266 09070000 		.4byte	.LASF50
 680 026a 08       		.byte	0x8
 681 026b 4601     		.2byte	0x146
 682 026d 4D010000 		.4byte	0x14d
 683 0271 3C       		.byte	0x3c
 684 0272 0A       		.uleb128 0xa
 685 0273 54060000 		.4byte	.LASF51
 686 0277 08       		.byte	0x8
 687 0278 4D01     		.2byte	0x14d
 688 027a 9B080000 		.4byte	0x89b
 689 027e 40       		.byte	0x40
 690 027f 0A       		.uleb128 0xa
 691 0280 B5070000 		.4byte	.LASF52
 692 0284 08       		.byte	0x8
 693 0285 5101     		.2byte	0x151
 694 0287 37010000 		.4byte	0x137
 695 028b 44       		.byte	0x44
 696 028c 0A       		.uleb128 0xa
 697 028d 52010000 		.4byte	.LASF53
 698 0291 08       		.byte	0x8
 699 0292 5801     		.2byte	0x158
 700 0294 8F030000 		.4byte	0x38f
 701 0298 48       		.byte	0x48
 702 0299 0A       		.uleb128 0xa
 703 029a AE060000 		.4byte	.LASF54
 704 029e 08       		.byte	0x8
 705 029f 5E01     		.2byte	0x15e
 706 02a1 81070000 		.4byte	0x781
 707 02a5 50       		.byte	0x50
 708 02a6 00       		.byte	0
 709 02a7 04       		.uleb128 0x4
 710 02a8 59080000 		.4byte	.LASF55
 711 02ac 07       		.byte	0x7
 712 02ad 44       		.byte	0x44
 713 02ae B2020000 		.4byte	0x2b2
 714 02b2 0B       		.uleb128 0xb
 715 02b3 04       		.byte	0x4
 716 02b4 7E010000 		.4byte	0x17e
 717 02b8 04       		.uleb128 0x4
 718 02b9 F3040000 		.4byte	.LASF56
 719 02bd 07       		.byte	0x7
 720 02be 49       		.byte	0x49
 721 02bf C3020000 		.4byte	0x2c3
 722 02c3 07       		.uleb128 0x7
 723 02c4 40070000 		.4byte	.LASF58
 724 02c8 04       		.byte	0x4
 725 02c9 08       		.byte	0x8
 726 02ca B0       		.byte	0xb0
 727 02cb DC020000 		.4byte	0x2dc
 728 02cf 08       		.uleb128 0x8
 729 02d0 88060000 		.4byte	.LASF34
 730 02d4 08       		.byte	0x8
 731 02d5 B1       		.byte	0xb1
 732 02d6 B2020000 		.4byte	0x2b2
 733 02da 00       		.byte	0
ARM GAS  /var/folders/d2/nstgp4h54kz7g1l847x_b8wc0000gn/T//ccrcU65b.s 			page 14


 734 02db 00       		.byte	0
 735 02dc 04       		.uleb128 0x4
 736 02dd BD060000 		.4byte	.LASF59
 737 02e1 07       		.byte	0x7
 738 02e2 50       		.byte	0x50
 739 02e3 E7020000 		.4byte	0x2e7
 740 02e7 07       		.uleb128 0x7
 741 02e8 D5080000 		.4byte	.LASF60
 742 02ec 08       		.byte	0x8
 743 02ed 08       		.byte	0x8
 744 02ee B7       		.byte	0xb7
 745 02ef 0C030000 		.4byte	0x30c
 746 02f3 08       		.uleb128 0x8
 747 02f4 88060000 		.4byte	.LASF34
 748 02f8 08       		.byte	0x8
 749 02f9 B8       		.byte	0xb8
 750 02fa B2020000 		.4byte	0x2b2
 751 02fe 00       		.byte	0
 752 02ff 08       		.uleb128 0x8
 753 0300 17060000 		.4byte	.LASF35
 754 0304 08       		.byte	0x8
 755 0305 B9       		.byte	0xb9
 756 0306 B2020000 		.4byte	0x2b2
 757 030a 04       		.byte	0x4
 758 030b 00       		.byte	0
 759 030c 04       		.uleb128 0x4
 760 030d 0D000000 		.4byte	.LASF61
 761 0311 07       		.byte	0x7
 762 0312 57       		.byte	0x57
 763 0313 17030000 		.4byte	0x317
 764 0317 0C       		.uleb128 0xc
 765 0318 AE040000 		.4byte	.LASF62
 766 031c 1C       		.byte	0x1c
 767 031d 08       		.byte	0x8
 768 031e 9001     		.2byte	0x190
 769 0320 73030000 		.4byte	0x373
 770 0324 0A       		.uleb128 0xa
 771 0325 38070000 		.4byte	.LASF63
 772 0329 08       		.byte	0x8
 773 032a 9101     		.2byte	0x191
 774 032c DC020000 		.4byte	0x2dc
 775 0330 00       		.byte	0
 776 0331 0A       		.uleb128 0xa
 777 0332 7A060000 		.4byte	.LASF64
 778 0336 08       		.byte	0x8
 779 0337 9201     		.2byte	0x192
 780 0339 37010000 		.4byte	0x137
 781 033d 08       		.byte	0x8
 782 033e 0A       		.uleb128 0xa
 783 033f 9C050000 		.4byte	.LASF65
 784 0343 08       		.byte	0x8
 785 0344 9401     		.2byte	0x194
 786 0346 2B050000 		.4byte	0x52b
 787 034a 0C       		.byte	0xc
 788 034b 0A       		.uleb128 0xa
 789 034c BF010000 		.4byte	.LASF66
 790 0350 08       		.byte	0x8
ARM GAS  /var/folders/d2/nstgp4h54kz7g1l847x_b8wc0000gn/T//ccrcU65b.s 			page 15


 791 0351 9701     		.2byte	0x197
 792 0353 B2020000 		.4byte	0x2b2
 793 0357 10       		.byte	0x10
 794 0358 0A       		.uleb128 0xa
 795 0359 CC050000 		.4byte	.LASF67
 796 035d 08       		.byte	0x8
 797 035e 9801     		.2byte	0x198
 798 0360 B2020000 		.4byte	0x2b2
 799 0364 14       		.byte	0x14
 800 0365 0A       		.uleb128 0xa
 801 0366 C2050000 		.4byte	.LASF68
 802 036a 08       		.byte	0x8
 803 036b 9B01     		.2byte	0x19b
 804 036d B2020000 		.4byte	0x2b2
 805 0371 18       		.byte	0x18
 806 0372 00       		.byte	0
 807 0373 04       		.uleb128 0x4
 808 0374 C0070000 		.4byte	.LASF69
 809 0378 07       		.byte	0x7
 810 0379 5C       		.byte	0x5c
 811 037a 7E030000 		.4byte	0x37e
 812 037e 0B       		.uleb128 0xb
 813 037f 04       		.byte	0x4
 814 0380 84030000 		.4byte	0x384
 815 0384 0D       		.uleb128 0xd
 816 0385 8F030000 		.4byte	0x38f
 817 0389 0E       		.uleb128 0xe
 818 038a 8F030000 		.4byte	0x38f
 819 038e 00       		.byte	0
 820 038f 0F       		.uleb128 0xf
 821 0390 04       		.byte	0x4
 822 0391 04       		.uleb128 0x4
 823 0392 07060000 		.4byte	.LASF70
 824 0396 07       		.byte	0x7
 825 0397 61       		.byte	0x61
 826 0398 9C030000 		.4byte	0x39c
 827 039c 0C       		.uleb128 0xc
 828 039d CD060000 		.4byte	.LASF71
 829 03a1 14       		.byte	0x14
 830 03a2 08       		.byte	0x8
 831 03a3 6B01     		.2byte	0x16b
 832 03a5 EB030000 		.4byte	0x3eb
 833 03a9 0A       		.uleb128 0xa
 834 03aa EE010000 		.4byte	.LASF72
 835 03ae 08       		.byte	0x8
 836 03af 6C01     		.2byte	0x16c
 837 03b1 BE080000 		.4byte	0x8be
 838 03b5 00       		.byte	0
 839 03b6 0A       		.uleb128 0xa
 840 03b7 D0010000 		.4byte	.LASF73
 841 03bb 08       		.byte	0x8
 842 03bc 6D01     		.2byte	0x16d
 843 03be BE080000 		.4byte	0x8be
 844 03c2 04       		.byte	0x4
 845 03c3 0A       		.uleb128 0xa
 846 03c4 A3030000 		.4byte	.LASF74
 847 03c8 08       		.byte	0x8
ARM GAS  /var/folders/d2/nstgp4h54kz7g1l847x_b8wc0000gn/T//ccrcU65b.s 			page 16


 848 03c9 6E01     		.2byte	0x16e
 849 03cb 6E010000 		.4byte	0x16e
 850 03cf 08       		.byte	0x8
 851 03d0 0A       		.uleb128 0xa
 852 03d1 CD080000 		.4byte	.LASF75
 853 03d5 08       		.byte	0x8
 854 03d6 6F01     		.2byte	0x16f
 855 03d8 73030000 		.4byte	0x373
 856 03dc 0C       		.byte	0xc
 857 03dd 0A       		.uleb128 0xa
 858 03de 05080000 		.4byte	.LASF76
 859 03e2 08       		.byte	0x8
 860 03e3 7101     		.2byte	0x171
 861 03e5 8F030000 		.4byte	0x38f
 862 03e9 10       		.byte	0x10
 863 03ea 00       		.byte	0
 864 03eb 04       		.uleb128 0x4
 865 03ec D2040000 		.4byte	.LASF77
 866 03f0 07       		.byte	0x7
 867 03f1 66       		.byte	0x66
 868 03f2 F6030000 		.4byte	0x3f6
 869 03f6 0C       		.uleb128 0xc
 870 03f7 22050000 		.4byte	.LASF78
 871 03fb 10       		.byte	0x10
 872 03fc 08       		.byte	0x8
 873 03fd 7B01     		.2byte	0x17b
 874 03ff 38040000 		.4byte	0x438
 875 0403 0A       		.uleb128 0xa
 876 0404 EE010000 		.4byte	.LASF72
 877 0408 08       		.byte	0x8
 878 0409 7C01     		.2byte	0x17c
 879 040b BE080000 		.4byte	0x8be
 880 040f 00       		.byte	0
 881 0410 0A       		.uleb128 0xa
 882 0411 D0010000 		.4byte	.LASF73
 883 0415 08       		.byte	0x8
 884 0416 7E01     		.2byte	0x17e
 885 0418 BE080000 		.4byte	0x8be
 886 041c 04       		.byte	0x4
 887 041d 0A       		.uleb128 0xa
 888 041e A3030000 		.4byte	.LASF74
 889 0422 08       		.byte	0x8
 890 0423 8001     		.2byte	0x180
 891 0425 6E010000 		.4byte	0x16e
 892 0429 08       		.byte	0x8
 893 042a 0A       		.uleb128 0xa
 894 042b 73080000 		.4byte	.LASF79
 895 042f 08       		.byte	0x8
 896 0430 8201     		.2byte	0x182
 897 0432 79010000 		.4byte	0x179
 898 0436 0C       		.byte	0xc
 899 0437 00       		.byte	0
 900 0438 04       		.uleb128 0x4
 901 0439 6A000000 		.4byte	.LASF80
 902 043d 07       		.byte	0x7
 903 043e 6B       		.byte	0x6b
 904 043f 43040000 		.4byte	0x443
ARM GAS  /var/folders/d2/nstgp4h54kz7g1l847x_b8wc0000gn/T//ccrcU65b.s 			page 17


 905 0443 10       		.uleb128 0x10
 906 0444 D8010000 		.4byte	.LASF81
 907 0448 1404     		.2byte	0x414
 908 044a 08       		.byte	0x8
 909 044b A201     		.2byte	0x1a2
 910 044d 86040000 		.4byte	0x486
 911 0451 0A       		.uleb128 0xa
 912 0452 D4070000 		.4byte	.LASF82
 913 0456 08       		.byte	0x8
 914 0457 AA01     		.2byte	0x1aa
 915 0459 A7080000 		.4byte	0x8a7
 916 045d 00       		.byte	0
 917 045e 0A       		.uleb128 0xa
 918 045f 30080000 		.4byte	.LASF83
 919 0463 08       		.byte	0x8
 920 0464 AF01     		.2byte	0x1af
 921 0466 58010000 		.4byte	0x158
 922 046a 04       		.byte	0x4
 923 046b 0A       		.uleb128 0xa
 924 046c B9050000 		.4byte	.LASF84
 925 0470 08       		.byte	0x8
 926 0471 B301     		.2byte	0x1b3
 927 0473 58010000 		.4byte	0x158
 928 0477 08       		.byte	0x8
 929 0478 0A       		.uleb128 0xa
 930 0479 7E080000 		.4byte	.LASF85
 931 047d 08       		.byte	0x8
 932 047e B901     		.2byte	0x1b9
 933 0480 13070000 		.4byte	0x713
 934 0484 0C       		.byte	0xc
 935 0485 00       		.byte	0
 936 0486 04       		.uleb128 0x4
 937 0487 8B040000 		.4byte	.LASF86
 938 048b 07       		.byte	0x7
 939 048c 70       		.byte	0x70
 940 048d 91040000 		.4byte	0x491
 941 0491 10       		.uleb128 0x10
 942 0492 71010000 		.4byte	.LASF87
 943 0496 7006     		.2byte	0x670
 944 0498 08       		.byte	0x8
 945 0499 C201     		.2byte	0x1c2
 946 049b FE040000 		.4byte	0x4fe
 947 049f 0A       		.uleb128 0xa
 948 04a0 41080000 		.4byte	.LASF88
 949 04a4 08       		.byte	0x8
 950 04a5 C601     		.2byte	0x1c6
 951 04a7 0C030000 		.4byte	0x30c
 952 04ab 00       		.byte	0
 953 04ac 0A       		.uleb128 0xa
 954 04ad 5A010000 		.4byte	.LASF89
 955 04b1 08       		.byte	0x8
 956 04b2 CA01     		.2byte	0x1ca
 957 04b4 EB030000 		.4byte	0x3eb
 958 04b8 1C       		.byte	0x1c
 959 04b9 09       		.uleb128 0x9
 960 04ba 64626700 		.ascii	"dbg\000"
 961 04be 08       		.byte	0x8
ARM GAS  /var/folders/d2/nstgp4h54kz7g1l847x_b8wc0000gn/T//ccrcU65b.s 			page 18


 962 04bf CE01     		.2byte	0x1ce
 963 04c1 38040000 		.4byte	0x438
 964 04c5 2C       		.byte	0x2c
 965 04c6 11       		.uleb128 0x11
 966 04c7 D0000000 		.4byte	.LASF90
 967 04cb 08       		.byte	0x8
 968 04cc D201     		.2byte	0x1d2
 969 04ce 7E010000 		.4byte	0x17e
 970 04d2 4004     		.2byte	0x440
 971 04d4 12       		.uleb128 0x12
 972 04d5 746D00   		.ascii	"tm\000"
 973 04d8 08       		.byte	0x8
 974 04d9 D701     		.2byte	0x1d7
 975 04db 33070000 		.4byte	0x733
 976 04df A804     		.2byte	0x4a8
 977 04e1 11       		.uleb128 0x11
 978 04e2 3F000000 		.4byte	.LASF91
 979 04e6 08       		.byte	0x8
 980 04e7 DD01     		.2byte	0x1dd
 981 04e9 C5070000 		.4byte	0x7c5
 982 04ed B004     		.2byte	0x4b0
 983 04ef 11       		.uleb128 0x11
 984 04f0 0B020000 		.4byte	.LASF92
 985 04f4 08       		.byte	0x8
 986 04f5 E301     		.2byte	0x1e3
 987 04f7 C4080000 		.4byte	0x8c4
 988 04fb E804     		.2byte	0x4e8
 989 04fd 00       		.byte	0
 990 04fe 13       		.uleb128 0x13
 991 04ff EC000000 		.4byte	.LASF93
 992 0503 09       		.byte	0x9
 993 0504 A706     		.2byte	0x6a7
 994 0506 DA000000 		.4byte	0xda
 995 050a 14       		.uleb128 0x14
 996 050b 85030000 		.4byte	.LASF94
 997 050f 0A       		.byte	0xa
 998 0510 4C       		.byte	0x4c
 999 0511 DF000000 		.4byte	0xdf
 1000 0515 04       		.uleb128 0x4
 1001 0516 C7010000 		.4byte	.LASF95
 1002 051a 0B       		.byte	0xb
 1003 051b 65       		.byte	0x65
 1004 051c 8F030000 		.4byte	0x38f
 1005 0520 04       		.uleb128 0x4
 1006 0521 E8040000 		.4byte	.LASF96
 1007 0525 0B       		.byte	0xb
 1008 0526 6D       		.byte	0x6d
 1009 0527 EA000000 		.4byte	0xea
 1010 052b 07       		.uleb128 0x7
 1011 052c F7070000 		.4byte	.LASF97
 1012 0530 04       		.byte	0x4
 1013 0531 0B       		.byte	0xb
 1014 0532 89       		.byte	0x89
 1015 0533 44050000 		.4byte	0x544
 1016 0537 15       		.uleb128 0x15
 1017 0538 72313300 		.ascii	"r13\000"
 1018 053c 0B       		.byte	0xb
ARM GAS  /var/folders/d2/nstgp4h54kz7g1l847x_b8wc0000gn/T//ccrcU65b.s 			page 19


 1019 053d 8A       		.byte	0x8a
 1020 053e 85060000 		.4byte	0x685
 1021 0542 00       		.byte	0
 1022 0543 00       		.byte	0
 1023 0544 07       		.uleb128 0x7
 1024 0545 56000000 		.4byte	.LASF98
 1025 0549 64       		.byte	0x64
 1026 054a 0C       		.byte	0xc
 1027 054b F4       		.byte	0xf4
 1028 054c 85060000 		.4byte	0x685
 1029 0550 15       		.uleb128 0x15
 1030 0551 73313600 		.ascii	"s16\000"
 1031 0555 0C       		.byte	0xc
 1032 0556 F6       		.byte	0xf6
 1033 0557 15050000 		.4byte	0x515
 1034 055b 00       		.byte	0
 1035 055c 15       		.uleb128 0x15
 1036 055d 73313700 		.ascii	"s17\000"
 1037 0561 0C       		.byte	0xc
 1038 0562 F7       		.byte	0xf7
 1039 0563 15050000 		.4byte	0x515
 1040 0567 04       		.byte	0x4
 1041 0568 15       		.uleb128 0x15
 1042 0569 73313800 		.ascii	"s18\000"
 1043 056d 0C       		.byte	0xc
 1044 056e F8       		.byte	0xf8
 1045 056f 15050000 		.4byte	0x515
 1046 0573 08       		.byte	0x8
 1047 0574 15       		.uleb128 0x15
 1048 0575 73313900 		.ascii	"s19\000"
 1049 0579 0C       		.byte	0xc
 1050 057a F9       		.byte	0xf9
 1051 057b 15050000 		.4byte	0x515
 1052 057f 0C       		.byte	0xc
 1053 0580 15       		.uleb128 0x15
 1054 0581 73323000 		.ascii	"s20\000"
 1055 0585 0C       		.byte	0xc
 1056 0586 FA       		.byte	0xfa
 1057 0587 15050000 		.4byte	0x515
 1058 058b 10       		.byte	0x10
 1059 058c 15       		.uleb128 0x15
 1060 058d 73323100 		.ascii	"s21\000"
 1061 0591 0C       		.byte	0xc
 1062 0592 FB       		.byte	0xfb
 1063 0593 15050000 		.4byte	0x515
 1064 0597 14       		.byte	0x14
 1065 0598 15       		.uleb128 0x15
 1066 0599 73323200 		.ascii	"s22\000"
 1067 059d 0C       		.byte	0xc
 1068 059e FC       		.byte	0xfc
 1069 059f 15050000 		.4byte	0x515
 1070 05a3 18       		.byte	0x18
 1071 05a4 15       		.uleb128 0x15
 1072 05a5 73323300 		.ascii	"s23\000"
 1073 05a9 0C       		.byte	0xc
 1074 05aa FD       		.byte	0xfd
 1075 05ab 15050000 		.4byte	0x515
ARM GAS  /var/folders/d2/nstgp4h54kz7g1l847x_b8wc0000gn/T//ccrcU65b.s 			page 20


 1076 05af 1C       		.byte	0x1c
 1077 05b0 15       		.uleb128 0x15
 1078 05b1 73323400 		.ascii	"s24\000"
 1079 05b5 0C       		.byte	0xc
 1080 05b6 FE       		.byte	0xfe
 1081 05b7 15050000 		.4byte	0x515
 1082 05bb 20       		.byte	0x20
 1083 05bc 15       		.uleb128 0x15
 1084 05bd 73323500 		.ascii	"s25\000"
 1085 05c1 0C       		.byte	0xc
 1086 05c2 FF       		.byte	0xff
 1087 05c3 15050000 		.4byte	0x515
 1088 05c7 24       		.byte	0x24
 1089 05c8 09       		.uleb128 0x9
 1090 05c9 73323600 		.ascii	"s26\000"
 1091 05cd 0C       		.byte	0xc
 1092 05ce 0001     		.2byte	0x100
 1093 05d0 15050000 		.4byte	0x515
 1094 05d4 28       		.byte	0x28
 1095 05d5 09       		.uleb128 0x9
 1096 05d6 73323700 		.ascii	"s27\000"
 1097 05da 0C       		.byte	0xc
 1098 05db 0101     		.2byte	0x101
 1099 05dd 15050000 		.4byte	0x515
 1100 05e1 2C       		.byte	0x2c
 1101 05e2 09       		.uleb128 0x9
 1102 05e3 73323800 		.ascii	"s28\000"
 1103 05e7 0C       		.byte	0xc
 1104 05e8 0201     		.2byte	0x102
 1105 05ea 15050000 		.4byte	0x515
 1106 05ee 30       		.byte	0x30
 1107 05ef 09       		.uleb128 0x9
 1108 05f0 73323900 		.ascii	"s29\000"
 1109 05f4 0C       		.byte	0xc
 1110 05f5 0301     		.2byte	0x103
 1111 05f7 15050000 		.4byte	0x515
 1112 05fb 34       		.byte	0x34
 1113 05fc 09       		.uleb128 0x9
 1114 05fd 73333000 		.ascii	"s30\000"
 1115 0601 0C       		.byte	0xc
 1116 0602 0401     		.2byte	0x104
 1117 0604 15050000 		.4byte	0x515
 1118 0608 38       		.byte	0x38
 1119 0609 09       		.uleb128 0x9
 1120 060a 73333100 		.ascii	"s31\000"
 1121 060e 0C       		.byte	0xc
 1122 060f 0501     		.2byte	0x105
 1123 0611 15050000 		.4byte	0x515
 1124 0615 3C       		.byte	0x3c
 1125 0616 09       		.uleb128 0x9
 1126 0617 723400   		.ascii	"r4\000"
 1127 061a 0C       		.byte	0xc
 1128 061b 0701     		.2byte	0x107
 1129 061d 15050000 		.4byte	0x515
 1130 0621 40       		.byte	0x40
 1131 0622 09       		.uleb128 0x9
 1132 0623 723500   		.ascii	"r5\000"
ARM GAS  /var/folders/d2/nstgp4h54kz7g1l847x_b8wc0000gn/T//ccrcU65b.s 			page 21


 1133 0626 0C       		.byte	0xc
 1134 0627 0801     		.2byte	0x108
 1135 0629 15050000 		.4byte	0x515
 1136 062d 44       		.byte	0x44
 1137 062e 09       		.uleb128 0x9
 1138 062f 723600   		.ascii	"r6\000"
 1139 0632 0C       		.byte	0xc
 1140 0633 0901     		.2byte	0x109
 1141 0635 15050000 		.4byte	0x515
 1142 0639 48       		.byte	0x48
 1143 063a 09       		.uleb128 0x9
 1144 063b 723700   		.ascii	"r7\000"
 1145 063e 0C       		.byte	0xc
 1146 063f 0A01     		.2byte	0x10a
 1147 0641 15050000 		.4byte	0x515
 1148 0645 4C       		.byte	0x4c
 1149 0646 09       		.uleb128 0x9
 1150 0647 723800   		.ascii	"r8\000"
 1151 064a 0C       		.byte	0xc
 1152 064b 0B01     		.2byte	0x10b
 1153 064d 15050000 		.4byte	0x515
 1154 0651 50       		.byte	0x50
 1155 0652 09       		.uleb128 0x9
 1156 0653 723900   		.ascii	"r9\000"
 1157 0656 0C       		.byte	0xc
 1158 0657 0C01     		.2byte	0x10c
 1159 0659 15050000 		.4byte	0x515
 1160 065d 54       		.byte	0x54
 1161 065e 09       		.uleb128 0x9
 1162 065f 72313000 		.ascii	"r10\000"
 1163 0663 0C       		.byte	0xc
 1164 0664 0D01     		.2byte	0x10d
 1165 0666 15050000 		.4byte	0x515
 1166 066a 58       		.byte	0x58
 1167 066b 09       		.uleb128 0x9
 1168 066c 72313100 		.ascii	"r11\000"
 1169 0670 0C       		.byte	0xc
 1170 0671 0E01     		.2byte	0x10e
 1171 0673 15050000 		.4byte	0x515
 1172 0677 5C       		.byte	0x5c
 1173 0678 09       		.uleb128 0x9
 1174 0679 6C7200   		.ascii	"lr\000"
 1175 067c 0C       		.byte	0xc
 1176 067d 0F01     		.2byte	0x10f
 1177 067f 15050000 		.4byte	0x515
 1178 0683 60       		.byte	0x60
 1179 0684 00       		.byte	0
 1180 0685 0B       		.uleb128 0xb
 1181 0686 04       		.byte	0x4
 1182 0687 44050000 		.4byte	0x544
 1183 068b 16       		.uleb128 0x16
 1184 068c 10       		.byte	0x10
 1185 068d 0D       		.byte	0xd
 1186 068e 51       		.byte	0x51
 1187 068f C4060000 		.4byte	0x6c4
 1188 0693 08       		.uleb128 0x8
 1189 0694 1A000000 		.4byte	.LASF99
ARM GAS  /var/folders/d2/nstgp4h54kz7g1l847x_b8wc0000gn/T//ccrcU65b.s 			page 22


 1190 0698 0D       		.byte	0xd
 1191 0699 55       		.byte	0x55
 1192 069a 6E010000 		.4byte	0x16e
 1193 069e 00       		.byte	0
 1194 069f 08       		.uleb128 0x8
 1195 06a0 97010000 		.4byte	.LASF100
 1196 06a4 0D       		.byte	0xd
 1197 06a5 59       		.byte	0x59
 1198 06a6 B2020000 		.4byte	0x2b2
 1199 06aa 04       		.byte	0x4
 1200 06ab 08       		.uleb128 0x8
 1201 06ac B5080000 		.4byte	.LASF101
 1202 06b0 0D       		.byte	0xd
 1203 06b1 5D       		.byte	0x5d
 1204 06b2 8F030000 		.4byte	0x38f
 1205 06b6 08       		.byte	0x8
 1206 06b7 08       		.uleb128 0x8
 1207 06b8 38080000 		.4byte	.LASF102
 1208 06bc 0D       		.byte	0xd
 1209 06bd 61       		.byte	0x61
 1210 06be B4000000 		.4byte	0xb4
 1211 06c2 0C       		.byte	0xc
 1212 06c3 00       		.byte	0
 1213 06c4 04       		.uleb128 0x4
 1214 06c5 67050000 		.4byte	.LASF103
 1215 06c9 0D       		.byte	0xd
 1216 06ca 62       		.byte	0x62
 1217 06cb 8B060000 		.4byte	0x68b
 1218 06cf 17       		.uleb128 0x17
 1219 06d0 0804     		.2byte	0x408
 1220 06d2 0D       		.byte	0xd
 1221 06d3 67       		.byte	0x67
 1222 06d4 FD060000 		.4byte	0x6fd
 1223 06d8 08       		.uleb128 0x8
 1224 06d9 B7010000 		.4byte	.LASF104
 1225 06dd 0D       		.byte	0xd
 1226 06de 6B       		.byte	0x6b
 1227 06df 2C000000 		.4byte	0x2c
 1228 06e3 00       		.byte	0
 1229 06e4 08       		.uleb128 0x8
 1230 06e5 51050000 		.4byte	.LASF105
 1231 06e9 0D       		.byte	0xd
 1232 06ea 6F       		.byte	0x6f
 1233 06eb FD060000 		.4byte	0x6fd
 1234 06ef 04       		.byte	0x4
 1235 06f0 08       		.uleb128 0x8
 1236 06f1 F2050000 		.4byte	.LASF106
 1237 06f5 0D       		.byte	0xd
 1238 06f6 73       		.byte	0x73
 1239 06f7 03070000 		.4byte	0x703
 1240 06fb 08       		.byte	0x8
 1241 06fc 00       		.byte	0
 1242 06fd 0B       		.uleb128 0xb
 1243 06fe 04       		.byte	0x4
 1244 06ff C4060000 		.4byte	0x6c4
 1245 0703 18       		.uleb128 0x18
 1246 0704 C4060000 		.4byte	0x6c4
ARM GAS  /var/folders/d2/nstgp4h54kz7g1l847x_b8wc0000gn/T//ccrcU65b.s 			page 23


 1247 0708 13070000 		.4byte	0x713
 1248 070c 19       		.uleb128 0x19
 1249 070d 2C000000 		.4byte	0x2c
 1250 0711 3F       		.byte	0x3f
 1251 0712 00       		.byte	0
 1252 0713 04       		.uleb128 0x4
 1253 0714 82050000 		.4byte	.LASF107
 1254 0718 0D       		.byte	0xd
 1255 0719 74       		.byte	0x74
 1256 071a CF060000 		.4byte	0x6cf
 1257 071e 16       		.uleb128 0x16
 1258 071f 04       		.byte	0x4
 1259 0720 0E       		.byte	0xe
 1260 0721 38       		.byte	0x38
 1261 0722 33070000 		.4byte	0x733
 1262 0726 08       		.uleb128 0x8
 1263 0727 DE070000 		.4byte	.LASF108
 1264 072b 0E       		.byte	0xe
 1265 072c 3C       		.byte	0x3c
 1266 072d F5000000 		.4byte	0xf5
 1267 0731 00       		.byte	0
 1268 0732 00       		.byte	0
 1269 0733 04       		.uleb128 0x4
 1270 0734 A8050000 		.4byte	.LASF109
 1271 0738 0E       		.byte	0xe
 1272 0739 3D       		.byte	0x3d
 1273 073a 1E070000 		.4byte	0x71e
 1274 073e 16       		.uleb128 0x16
 1275 073f 18       		.byte	0x18
 1276 0740 0E       		.byte	0xe
 1277 0741 48       		.byte	0x48
 1278 0742 81070000 		.4byte	0x781
 1279 0746 08       		.uleb128 0x8
 1280 0747 9F070000 		.4byte	.LASF110
 1281 074b 0E       		.byte	0xe
 1282 074c 49       		.byte	0x49
 1283 074d F5000000 		.4byte	0xf5
 1284 0751 00       		.byte	0
 1285 0752 08       		.uleb128 0x8
 1286 0753 79000000 		.4byte	.LASF111
 1287 0757 0E       		.byte	0xe
 1288 0758 4A       		.byte	0x4a
 1289 0759 F5000000 		.4byte	0xf5
 1290 075d 04       		.byte	0x4
 1291 075e 08       		.uleb128 0x8
 1292 075f 7F040000 		.4byte	.LASF112
 1293 0763 0E       		.byte	0xe
 1294 0764 4B       		.byte	0x4b
 1295 0765 F5000000 		.4byte	0xf5
 1296 0769 08       		.byte	0x8
 1297 076a 15       		.uleb128 0x15
 1298 076b 6E00     		.ascii	"n\000"
 1299 076d 0E       		.byte	0xe
 1300 076e 4C       		.byte	0x4c
 1301 076f 63010000 		.4byte	0x163
 1302 0773 0C       		.byte	0xc
 1303 0774 08       		.uleb128 0x8
ARM GAS  /var/folders/d2/nstgp4h54kz7g1l847x_b8wc0000gn/T//ccrcU65b.s 			page 24


 1304 0775 DF050000 		.4byte	.LASF113
 1305 0779 0E       		.byte	0xe
 1306 077a 4D       		.byte	0x4d
 1307 077b 00010000 		.4byte	0x100
 1308 077f 10       		.byte	0x10
 1309 0780 00       		.byte	0
 1310 0781 04       		.uleb128 0x4
 1311 0782 7F000000 		.4byte	.LASF114
 1312 0786 0E       		.byte	0xe
 1313 0787 4E       		.byte	0x4e
 1314 0788 3E070000 		.4byte	0x73e
 1315 078c 16       		.uleb128 0x16
 1316 078d 38       		.byte	0x38
 1317 078e 0F       		.byte	0xf
 1318 078f 38       		.byte	0x38
 1319 0790 C5070000 		.4byte	0x7c5
 1320 0794 08       		.uleb128 0x8
 1321 0795 C0030000 		.4byte	.LASF115
 1322 0799 0F       		.byte	0xf
 1323 079a 39       		.byte	0x39
 1324 079b 63010000 		.4byte	0x163
 1325 079f 00       		.byte	0
 1326 07a0 08       		.uleb128 0x8
 1327 07a1 2D060000 		.4byte	.LASF116
 1328 07a5 0F       		.byte	0xf
 1329 07a6 3A       		.byte	0x3a
 1330 07a7 63010000 		.4byte	0x163
 1331 07ab 04       		.byte	0x4
 1332 07ac 08       		.uleb128 0x8
 1333 07ad A2080000 		.4byte	.LASF117
 1334 07b1 0F       		.byte	0xf
 1335 07b2 3B       		.byte	0x3b
 1336 07b3 81070000 		.4byte	0x781
 1337 07b7 08       		.byte	0x8
 1338 07b8 08       		.uleb128 0x8
 1339 07b9 A3040000 		.4byte	.LASF118
 1340 07bd 0F       		.byte	0xf
 1341 07be 3D       		.byte	0x3d
 1342 07bf 81070000 		.4byte	0x781
 1343 07c3 20       		.byte	0x20
 1344 07c4 00       		.byte	0
 1345 07c5 04       		.uleb128 0x4
 1346 07c6 DF030000 		.4byte	.LASF119
 1347 07ca 0F       		.byte	0xf
 1348 07cb 3F       		.byte	0x3f
 1349 07cc 8C070000 		.4byte	0x78c
 1350 07d0 1A       		.uleb128 0x1a
 1351 07d1 04       		.byte	0x4
 1352 07d2 08       		.byte	0x8
 1353 07d3 FA       		.byte	0xfa
 1354 07d4 2D080000 		.4byte	0x82d
 1355 07d8 1B       		.uleb128 0x1b
 1356 07d9 B6060000 		.4byte	.LASF120
 1357 07dd 08       		.byte	0x8
 1358 07de 0101     		.2byte	0x101
 1359 07e0 42010000 		.4byte	0x142
 1360 07e4 1B       		.uleb128 0x1b
ARM GAS  /var/folders/d2/nstgp4h54kz7g1l847x_b8wc0000gn/T//ccrcU65b.s 			page 25


 1361 07e5 C7000000 		.4byte	.LASF121
 1362 07e9 08       		.byte	0x8
 1363 07ea 0801     		.2byte	0x108
 1364 07ec 42010000 		.4byte	0x142
 1365 07f0 1B       		.uleb128 0x1b
 1366 07f1 6C080000 		.4byte	.LASF122
 1367 07f5 08       		.byte	0x8
 1368 07f6 0F01     		.2byte	0x10f
 1369 07f8 8F030000 		.4byte	0x38f
 1370 07fc 1B       		.uleb128 0x1b
 1371 07fd 6B010000 		.4byte	.LASF123
 1372 0801 08       		.byte	0x8
 1373 0802 1601     		.2byte	0x116
 1374 0804 2D080000 		.4byte	0x82d
 1375 0808 1B       		.uleb128 0x1b
 1376 0809 9C030000 		.4byte	.LASF124
 1377 080d 08       		.byte	0x8
 1378 080e 1E01     		.2byte	0x11e
 1379 0810 58080000 		.4byte	0x858
 1380 0814 1B       		.uleb128 0x1b
 1381 0815 84070000 		.4byte	.LASF125
 1382 0819 08       		.byte	0x8
 1383 081a 2701     		.2byte	0x127
 1384 081c 9B080000 		.4byte	0x89b
 1385 0820 1B       		.uleb128 0x1b
 1386 0821 81060000 		.4byte	.LASF126
 1387 0825 08       		.byte	0x8
 1388 0826 2F01     		.2byte	0x12f
 1389 0828 4D010000 		.4byte	0x14d
 1390 082c 00       		.byte	0
 1391 082d 0B       		.uleb128 0xb
 1392 082e 04       		.byte	0x4
 1393 082f A7020000 		.4byte	0x2a7
 1394 0833 07       		.uleb128 0x7
 1395 0834 FC060000 		.4byte	.LASF127
 1396 0838 0C       		.byte	0xc
 1397 0839 10       		.byte	0x10
 1398 083a 34       		.byte	0x34
 1399 083b 58080000 		.4byte	0x858
 1400 083f 08       		.uleb128 0x8
 1401 0840 AF010000 		.4byte	.LASF128
 1402 0844 10       		.byte	0x10
 1403 0845 35       		.byte	0x35
 1404 0846 DC020000 		.4byte	0x2dc
 1405 084a 00       		.byte	0
 1406 084b 08       		.uleb128 0x8
 1407 084c C6030000 		.4byte	.LASF129
 1408 0850 10       		.byte	0x10
 1409 0851 37       		.byte	0x37
 1410 0852 58010000 		.4byte	0x158
 1411 0856 08       		.byte	0x8
 1412 0857 00       		.byte	0
 1413 0858 0B       		.uleb128 0xb
 1414 0859 04       		.byte	0x4
 1415 085a 33080000 		.4byte	0x833
 1416 085e 07       		.uleb128 0x7
 1417 085f 20080000 		.4byte	.LASF130
ARM GAS  /var/folders/d2/nstgp4h54kz7g1l847x_b8wc0000gn/T//ccrcU65b.s 			page 26


 1418 0863 14       		.byte	0x14
 1419 0864 11       		.byte	0x11
 1420 0865 39       		.byte	0x39
 1421 0866 9B080000 		.4byte	0x89b
 1422 086a 08       		.uleb128 0x8
 1423 086b 4C060000 		.4byte	.LASF131
 1424 086f 11       		.byte	0x11
 1425 0870 3A       		.byte	0x3a
 1426 0871 DC020000 		.4byte	0x2dc
 1427 0875 00       		.byte	0
 1428 0876 08       		.uleb128 0x8
 1429 0877 AD080000 		.4byte	.LASF132
 1430 087b 11       		.byte	0x11
 1431 087c 3C       		.byte	0x3c
 1432 087d B2020000 		.4byte	0x2b2
 1433 0881 08       		.byte	0x8
 1434 0882 08       		.uleb128 0x8
 1435 0883 A4070000 		.4byte	.LASF133
 1436 0887 11       		.byte	0x11
 1437 0888 3E       		.byte	0x3e
 1438 0889 F6090000 		.4byte	0x9f6
 1439 088d 0C       		.byte	0xc
 1440 088e 08       		.uleb128 0x8
 1441 088f E8010000 		.4byte	.LASF134
 1442 0893 11       		.byte	0x11
 1443 0894 41       		.byte	0x41
 1444 0895 58010000 		.4byte	0x158
 1445 0899 10       		.byte	0x10
 1446 089a 00       		.byte	0
 1447 089b 0B       		.uleb128 0xb
 1448 089c 04       		.byte	0x4
 1449 089d 5E080000 		.4byte	0x85e
 1450 08a1 0B       		.uleb128 0xb
 1451 08a2 04       		.byte	0x4
 1452 08a3 B3080000 		.4byte	0x8b3
 1453 08a7 06       		.uleb128 0x6
 1454 08a8 A1080000 		.4byte	0x8a1
 1455 08ac 02       		.uleb128 0x2
 1456 08ad 01       		.byte	0x1
 1457 08ae 08       		.byte	0x8
 1458 08af 6F070000 		.4byte	.LASF135
 1459 08b3 05       		.uleb128 0x5
 1460 08b4 AC080000 		.4byte	0x8ac
 1461 08b8 0B       		.uleb128 0xb
 1462 08b9 04       		.byte	0x4
 1463 08ba 20050000 		.4byte	0x520
 1464 08be 0B       		.uleb128 0xb
 1465 08bf 04       		.byte	0x4
 1466 08c0 91030000 		.4byte	0x391
 1467 08c4 18       		.uleb128 0x18
 1468 08c5 20050000 		.4byte	0x520
 1469 08c9 D4080000 		.4byte	0x8d4
 1470 08cd 19       		.uleb128 0x19
 1471 08ce 2C000000 		.4byte	0x2c
 1472 08d2 30       		.byte	0x30
 1473 08d3 00       		.byte	0
 1474 08d4 1C       		.uleb128 0x1c
ARM GAS  /var/folders/d2/nstgp4h54kz7g1l847x_b8wc0000gn/T//ccrcU65b.s 			page 27


 1475 08d5 636800   		.ascii	"ch\000"
 1476 08d8 08       		.byte	0x8
 1477 08d9 0902     		.2byte	0x209
 1478 08db 86040000 		.4byte	0x486
 1479 08df 16       		.uleb128 0x16
 1480 08e0 16       		.byte	0x16
 1481 08e1 12       		.byte	0x12
 1482 08e2 34       		.byte	0x34
 1483 08e3 C0090000 		.4byte	0x9c0
 1484 08e7 08       		.uleb128 0x8
 1485 08e8 BF080000 		.4byte	.LASF136
 1486 08ec 12       		.byte	0x12
 1487 08ed 35       		.byte	0x35
 1488 08ee C0090000 		.4byte	0x9c0
 1489 08f2 00       		.byte	0
 1490 08f3 08       		.uleb128 0x8
 1491 08f4 02050000 		.4byte	.LASF137
 1492 08f8 12       		.byte	0x12
 1493 08f9 36       		.byte	0x36
 1494 08fa B4000000 		.4byte	0xb4
 1495 08fe 04       		.byte	0x4
 1496 08ff 08       		.uleb128 0x8
 1497 0900 50070000 		.4byte	.LASF138
 1498 0904 12       		.byte	0x12
 1499 0905 37       		.byte	0x37
 1500 0906 B4000000 		.4byte	0xb4
 1501 090a 05       		.byte	0x5
 1502 090b 08       		.uleb128 0x8
 1503 090c 8B080000 		.4byte	.LASF139
 1504 0910 12       		.byte	0x12
 1505 0911 38       		.byte	0x38
 1506 0912 C4000000 		.4byte	0xc4
 1507 0916 06       		.byte	0x6
 1508 0917 08       		.uleb128 0x8
 1509 0918 FC050000 		.4byte	.LASF140
 1510 091c 12       		.byte	0x12
 1511 091d 39       		.byte	0x39
 1512 091e B4000000 		.4byte	0xb4
 1513 0922 08       		.byte	0x8
 1514 0923 08       		.uleb128 0x8
 1515 0924 45050000 		.4byte	.LASF141
 1516 0928 12       		.byte	0x12
 1517 0929 3A       		.byte	0x3a
 1518 092a B4000000 		.4byte	0xb4
 1519 092e 09       		.byte	0x9
 1520 092f 08       		.uleb128 0x8
 1521 0930 B9000000 		.4byte	.LASF142
 1522 0934 12       		.byte	0x12
 1523 0935 3B       		.byte	0x3b
 1524 0936 B4000000 		.4byte	0xb4
 1525 093a 0A       		.byte	0xa
 1526 093b 08       		.uleb128 0x8
 1527 093c 2C070000 		.4byte	.LASF143
 1528 0940 12       		.byte	0x12
 1529 0941 3C       		.byte	0x3c
 1530 0942 B4000000 		.4byte	0xb4
 1531 0946 0B       		.byte	0xb
ARM GAS  /var/folders/d2/nstgp4h54kz7g1l847x_b8wc0000gn/T//ccrcU65b.s 			page 28


 1532 0947 08       		.uleb128 0x8
 1533 0948 15080000 		.4byte	.LASF144
 1534 094c 12       		.byte	0x12
 1535 094d 3D       		.byte	0x3d
 1536 094e B4000000 		.4byte	0xb4
 1537 0952 0C       		.byte	0xc
 1538 0953 08       		.uleb128 0x8
 1539 0954 DE060000 		.4byte	.LASF145
 1540 0958 12       		.byte	0x12
 1541 0959 3E       		.byte	0x3e
 1542 095a B4000000 		.4byte	0xb4
 1543 095e 0D       		.byte	0xd
 1544 095f 08       		.uleb128 0x8
 1545 0960 00000000 		.4byte	.LASF146
 1546 0964 12       		.byte	0x12
 1547 0965 3F       		.byte	0x3f
 1548 0966 B4000000 		.4byte	0xb4
 1549 096a 0E       		.byte	0xe
 1550 096b 08       		.uleb128 0x8
 1551 096c 76050000 		.4byte	.LASF147
 1552 0970 12       		.byte	0x12
 1553 0971 40       		.byte	0x40
 1554 0972 B4000000 		.4byte	0xb4
 1555 0976 0F       		.byte	0xf
 1556 0977 08       		.uleb128 0x8
 1557 0978 42010000 		.4byte	.LASF148
 1558 097c 12       		.byte	0x12
 1559 097d 41       		.byte	0x41
 1560 097e B4000000 		.4byte	0xb4
 1561 0982 10       		.byte	0x10
 1562 0983 08       		.uleb128 0x8
 1563 0984 09010000 		.4byte	.LASF149
 1564 0988 12       		.byte	0x12
 1565 0989 43       		.byte	0x43
 1566 098a B4000000 		.4byte	0xb4
 1567 098e 11       		.byte	0x11
 1568 098f 08       		.uleb128 0x8
 1569 0990 E5070000 		.4byte	.LASF150
 1570 0994 12       		.byte	0x12
 1571 0995 44       		.byte	0x44
 1572 0996 B4000000 		.4byte	0xb4
 1573 099a 12       		.byte	0x12
 1574 099b 08       		.uleb128 0x8
 1575 099c 96080000 		.4byte	.LASF151
 1576 09a0 12       		.byte	0x12
 1577 09a1 45       		.byte	0x45
 1578 09a2 B4000000 		.4byte	0xb4
 1579 09a6 13       		.byte	0x13
 1580 09a7 08       		.uleb128 0x8
 1581 09a8 97060000 		.4byte	.LASF152
 1582 09ac 12       		.byte	0x12
 1583 09ad 46       		.byte	0x46
 1584 09ae B4000000 		.4byte	0xb4
 1585 09b2 14       		.byte	0x14
 1586 09b3 08       		.uleb128 0x8
 1587 09b4 97040000 		.4byte	.LASF153
 1588 09b8 12       		.byte	0x12
ARM GAS  /var/folders/d2/nstgp4h54kz7g1l847x_b8wc0000gn/T//ccrcU65b.s 			page 29


 1589 09b9 48       		.byte	0x48
 1590 09ba B4000000 		.4byte	0xb4
 1591 09be 15       		.byte	0x15
 1592 09bf 00       		.byte	0
 1593 09c0 18       		.uleb128 0x18
 1594 09c1 AC080000 		.4byte	0x8ac
 1595 09c5 D0090000 		.4byte	0x9d0
 1596 09c9 19       		.uleb128 0x19
 1597 09ca 2C000000 		.4byte	0x2c
 1598 09ce 03       		.byte	0x3
 1599 09cf 00       		.byte	0
 1600 09d0 04       		.uleb128 0x4
 1601 09d1 9D010000 		.4byte	.LASF154
 1602 09d5 12       		.byte	0x12
 1603 09d6 49       		.byte	0x49
 1604 09d7 DF080000 		.4byte	0x8df
 1605 09db 05       		.uleb128 0x5
 1606 09dc D0090000 		.4byte	0x9d0
 1607 09e0 14       		.uleb128 0x14
 1608 09e1 B7030000 		.4byte	.LASF155
 1609 09e5 12       		.byte	0x12
 1610 09e6 6E       		.byte	0x6e
 1611 09e7 DB090000 		.4byte	0x9db
 1612 09eb 04       		.uleb128 0x4
 1613 09ec 20010000 		.4byte	.LASF156
 1614 09f0 11       		.byte	0x11
 1615 09f1 34       		.byte	0x34
 1616 09f2 5E080000 		.4byte	0x85e
 1617 09f6 0B       		.uleb128 0xb
 1618 09f7 04       		.byte	0x4
 1619 09f8 EB090000 		.4byte	0x9eb
 1620 09fc 0B       		.uleb128 0xb
 1621 09fd 04       		.byte	0x4
 1622 09fe B4000000 		.4byte	0xb4
 1623 0a02 07       		.uleb128 0x7
 1624 0a03 14070000 		.4byte	.LASF157
 1625 0a07 10       		.byte	0x10
 1626 0a08 13       		.byte	0x13
 1627 0a09 40       		.byte	0x40
 1628 0a0a 3F0A0000 		.4byte	0xa3f
 1629 0a0e 08       		.uleb128 0x8
 1630 0a0f 0A050000 		.4byte	.LASF158
 1631 0a13 13       		.byte	0x13
 1632 0a14 41       		.byte	0x41
 1633 0a15 630A0000 		.4byte	0xa63
 1634 0a19 00       		.byte	0
 1635 0a1a 08       		.uleb128 0x8
 1636 0a1b 6A070000 		.4byte	.LASF159
 1637 0a1f 13       		.byte	0x13
 1638 0a20 41       		.byte	0x41
 1639 0a21 820A0000 		.4byte	0xa82
 1640 0a25 04       		.byte	0x4
 1641 0a26 15       		.uleb128 0x15
 1642 0a27 70757400 		.ascii	"put\000"
 1643 0a2b 13       		.byte	0x13
 1644 0a2c 41       		.byte	0x41
 1645 0a2d 9C0A0000 		.4byte	0xa9c
ARM GAS  /var/folders/d2/nstgp4h54kz7g1l847x_b8wc0000gn/T//ccrcU65b.s 			page 30


 1646 0a31 08       		.byte	0x8
 1647 0a32 15       		.uleb128 0x15
 1648 0a33 67657400 		.ascii	"get\000"
 1649 0a37 13       		.byte	0x13
 1650 0a38 41       		.byte	0x41
 1651 0a39 B10A0000 		.4byte	0xab1
 1652 0a3d 0C       		.byte	0xc
 1653 0a3e 00       		.byte	0
 1654 0a3f 05       		.uleb128 0x5
 1655 0a40 020A0000 		.4byte	0xa02
 1656 0a44 1D       		.uleb128 0x1d
 1657 0a45 3A000000 		.4byte	0x3a
 1658 0a49 5D0A0000 		.4byte	0xa5d
 1659 0a4d 0E       		.uleb128 0xe
 1660 0a4e 8F030000 		.4byte	0x38f
 1661 0a52 0E       		.uleb128 0xe
 1662 0a53 5D0A0000 		.4byte	0xa5d
 1663 0a57 0E       		.uleb128 0xe
 1664 0a58 3A000000 		.4byte	0x3a
 1665 0a5c 00       		.byte	0
 1666 0a5d 0B       		.uleb128 0xb
 1667 0a5e 04       		.byte	0x4
 1668 0a5f BF000000 		.4byte	0xbf
 1669 0a63 0B       		.uleb128 0xb
 1670 0a64 04       		.byte	0x4
 1671 0a65 440A0000 		.4byte	0xa44
 1672 0a69 1D       		.uleb128 0x1d
 1673 0a6a 3A000000 		.4byte	0x3a
 1674 0a6e 820A0000 		.4byte	0xa82
 1675 0a72 0E       		.uleb128 0xe
 1676 0a73 8F030000 		.4byte	0x38f
 1677 0a77 0E       		.uleb128 0xe
 1678 0a78 FC090000 		.4byte	0x9fc
 1679 0a7c 0E       		.uleb128 0xe
 1680 0a7d 3A000000 		.4byte	0x3a
 1681 0a81 00       		.byte	0
 1682 0a82 0B       		.uleb128 0xb
 1683 0a83 04       		.byte	0x4
 1684 0a84 690A0000 		.4byte	0xa69
 1685 0a88 1D       		.uleb128 0x1d
 1686 0a89 42010000 		.4byte	0x142
 1687 0a8d 9C0A0000 		.4byte	0xa9c
 1688 0a91 0E       		.uleb128 0xe
 1689 0a92 8F030000 		.4byte	0x38f
 1690 0a96 0E       		.uleb128 0xe
 1691 0a97 B4000000 		.4byte	0xb4
 1692 0a9b 00       		.byte	0
 1693 0a9c 0B       		.uleb128 0xb
 1694 0a9d 04       		.byte	0x4
 1695 0a9e 880A0000 		.4byte	0xa88
 1696 0aa2 1D       		.uleb128 0x1d
 1697 0aa3 42010000 		.4byte	0x142
 1698 0aa7 B10A0000 		.4byte	0xab1
 1699 0aab 0E       		.uleb128 0xe
 1700 0aac 8F030000 		.4byte	0x38f
 1701 0ab0 00       		.byte	0
 1702 0ab1 0B       		.uleb128 0xb
ARM GAS  /var/folders/d2/nstgp4h54kz7g1l847x_b8wc0000gn/T//ccrcU65b.s 			page 31


 1703 0ab2 04       		.byte	0x4
 1704 0ab3 A20A0000 		.4byte	0xaa2
 1705 0ab7 16       		.uleb128 0x16
 1706 0ab8 04       		.byte	0x4
 1707 0ab9 13       		.byte	0x13
 1708 0aba 49       		.byte	0x49
 1709 0abb CC0A0000 		.4byte	0xacc
 1710 0abf 15       		.uleb128 0x15
 1711 0ac0 766D7400 		.ascii	"vmt\000"
 1712 0ac4 13       		.byte	0x13
 1713 0ac5 4B       		.byte	0x4b
 1714 0ac6 CC0A0000 		.4byte	0xacc
 1715 0aca 00       		.byte	0
 1716 0acb 00       		.byte	0
 1717 0acc 0B       		.uleb128 0xb
 1718 0acd 04       		.byte	0x4
 1719 0ace 3F0A0000 		.4byte	0xa3f
 1720 0ad2 04       		.uleb128 0x4
 1721 0ad3 F6010000 		.4byte	.LASF160
 1722 0ad7 13       		.byte	0x13
 1723 0ad8 4D       		.byte	0x4d
 1724 0ad9 B70A0000 		.4byte	0xab7
 1725 0add 04       		.uleb128 0x4
 1726 0ade 58050000 		.4byte	.LASF161
 1727 0ae2 14       		.byte	0x14
 1728 0ae3 28       		.byte	0x28
 1729 0ae4 E80A0000 		.4byte	0xae8
 1730 0ae8 07       		.uleb128 0x7
 1731 0ae9 8D010000 		.4byte	.LASF162
 1732 0aed 04       		.byte	0x4
 1733 0aee 15       		.byte	0x15
 1734 0aef 00       		.byte	0
 1735 0af0 FF0A0000 		.4byte	0xaff
 1736 0af4 1E       		.uleb128 0x1e
 1737 0af5 F2070000 		.4byte	.LASF163
 1738 0af9 8F030000 		.4byte	0x38f
 1739 0afd 00       		.byte	0
 1740 0afe 00       		.byte	0
 1741 0aff 04       		.uleb128 0x4
 1742 0b00 62000000 		.4byte	.LASF164
 1743 0b04 14       		.byte	0x14
 1744 0b05 63       		.byte	0x63
 1745 0b06 DD0A0000 		.4byte	0xadd
 1746 0b0a 1F       		.uleb128 0x1f
 1747 0b0b 29000000 		.4byte	.LASF174
 1748 0b0f 02       		.byte	0x2
 1749 0b10 0D       		.byte	0xd
 1750 0b11 00000000 		.4byte	.LFB220
 1751 0b15 00020000 		.4byte	.LFE220-.LFB220
 1752 0b19 01       		.uleb128 0x1
 1753 0b1a 9C       		.byte	0x9c
 1754 0b1b 330C0000 		.4byte	0xc33
 1755 0b1f 20       		.uleb128 0x20
 1756 0b20 6F757400 		.ascii	"out\000"
 1757 0b24 02       		.byte	0x2
 1758 0b25 0D       		.byte	0xd
 1759 0b26 330C0000 		.4byte	0xc33
ARM GAS  /var/folders/d2/nstgp4h54kz7g1l847x_b8wc0000gn/T//ccrcU65b.s 			page 32


 1760 0b2a 00000000 		.4byte	.LLST2
 1761 0b2e 21       		.uleb128 0x21
 1762 0b2f 747000   		.ascii	"tp\000"
 1763 0b32 02       		.byte	0x2
 1764 0b33 0F       		.byte	0xf
 1765 0b34 B2020000 		.4byte	0x2b2
 1766 0b38 42000000 		.4byte	.LLST3
 1767 0b3c 22       		.uleb128 0x22
 1768 0b3d 73756D00 		.ascii	"sum\000"
 1769 0b41 02       		.byte	0x2
 1770 0b42 11       		.byte	0x11
 1771 0b43 EA000000 		.4byte	0xea
 1772 0b47 05       		.uleb128 0x5
 1773 0b48 03       		.byte	0x3
 1774 0b49 00000000 		.4byte	sum.7868
 1775 0b4d 23       		.uleb128 0x23
 1776 0b4e 16010000 		.4byte	.LASF165
 1777 0b52 02       		.byte	0x2
 1778 0b53 12       		.byte	0x12
 1779 0b54 C4000000 		.4byte	0xc4
 1780 0b58 23       		.uleb128 0x23
 1781 0b59 1B010000 		.4byte	.LASF166
 1782 0b5d 02       		.byte	0x2
 1783 0b5e 12       		.byte	0x12
 1784 0b5f C4000000 		.4byte	0xc4
 1785 0b63 24       		.uleb128 0x24
 1786 0b64 1C000000 		.4byte	.LVL4
 1787 0b68 B80C0000 		.4byte	0xcb8
 1788 0b6c 24       		.uleb128 0x24
 1789 0b6d 34000000 		.4byte	.LVL5
 1790 0b71 C30C0000 		.4byte	0xcc3
 1791 0b75 24       		.uleb128 0x24
 1792 0b76 60000000 		.4byte	.LVL7
 1793 0b7a B80C0000 		.4byte	0xcb8
 1794 0b7e 25       		.uleb128 0x25
 1795 0b7f D8000000 		.4byte	.LVL11
 1796 0b83 390C0000 		.4byte	0xc39
 1797 0b87 980B0000 		.4byte	0xb98
 1798 0b8b 26       		.uleb128 0x26
 1799 0b8c 01       		.uleb128 0x1
 1800 0b8d 50       		.byte	0x50
 1801 0b8e 02       		.uleb128 0x2
 1802 0b8f 75       		.byte	0x75
 1803 0b90 00       		.sleb128 0
 1804 0b91 26       		.uleb128 0x26
 1805 0b92 01       		.uleb128 0x1
 1806 0b93 51       		.byte	0x51
 1807 0b94 02       		.uleb128 0x2
 1808 0b95 7B       		.byte	0x7b
 1809 0b96 00       		.sleb128 0
 1810 0b97 00       		.byte	0
 1811 0b98 25       		.uleb128 0x25
 1812 0b99 DE000000 		.4byte	.LVL12
 1813 0b9d C30C0000 		.4byte	0xcc3
 1814 0ba1 AC0B0000 		.4byte	0xbac
 1815 0ba5 26       		.uleb128 0x26
 1816 0ba6 01       		.uleb128 0x1
ARM GAS  /var/folders/d2/nstgp4h54kz7g1l847x_b8wc0000gn/T//ccrcU65b.s 			page 33


 1817 0ba7 50       		.byte	0x50
 1818 0ba8 02       		.uleb128 0x2
 1819 0ba9 79       		.byte	0x79
 1820 0baa 00       		.sleb128 0
 1821 0bab 00       		.byte	0
 1822 0bac 25       		.uleb128 0x25
 1823 0bad C2010000 		.4byte	.LVL17
 1824 0bb1 390C0000 		.4byte	0xc39
 1825 0bb5 0B0C0000 		.4byte	0xc0b
 1826 0bb9 26       		.uleb128 0x26
 1827 0bba 01       		.uleb128 0x1
 1828 0bbb 50       		.byte	0x50
 1829 0bbc 02       		.uleb128 0x2
 1830 0bbd 75       		.byte	0x75
 1831 0bbe 00       		.sleb128 0
 1832 0bbf 26       		.uleb128 0x26
 1833 0bc0 01       		.uleb128 0x1
 1834 0bc1 51       		.byte	0x51
 1835 0bc2 05       		.uleb128 0x5
 1836 0bc3 03       		.byte	0x3
 1837 0bc4 10000000 		.4byte	.LC1
 1838 0bc8 26       		.uleb128 0x26
 1839 0bc9 01       		.uleb128 0x1
 1840 0bca 52       		.byte	0x52
 1841 0bcb 18       		.uleb128 0x18
 1842 0bcc 79       		.byte	0x79
 1843 0bcd 00       		.sleb128 0
 1844 0bce F7       		.byte	0xf7
 1845 0bcf 2C       		.uleb128 0x2c
 1846 0bd0 F7       		.byte	0xf7
 1847 0bd1 25       		.uleb128 0x25
 1848 0bd2 74       		.byte	0x74
 1849 0bd3 00       		.sleb128 0
 1850 0bd4 F7       		.byte	0xf7
 1851 0bd5 2C       		.uleb128 0x2c
 1852 0bd6 F7       		.byte	0xf7
 1853 0bd7 25       		.uleb128 0x25
 1854 0bd8 1E       		.byte	0x1e
 1855 0bd9 08       		.byte	0x8
 1856 0bda 20       		.byte	0x20
 1857 0bdb F7       		.byte	0xf7
 1858 0bdc 25       		.uleb128 0x25
 1859 0bdd 25       		.byte	0x25
 1860 0bde F7       		.byte	0xf7
 1861 0bdf 2C       		.uleb128 0x2c
 1862 0be0 F7       		.byte	0xf7
 1863 0be1 00       		.uleb128 0
 1864 0be2 35       		.byte	0x35
 1865 0be3 25       		.byte	0x25
 1866 0be4 26       		.uleb128 0x26
 1867 0be5 01       		.uleb128 0x1
 1868 0be6 53       		.byte	0x53
 1869 0be7 22       		.uleb128 0x22
 1870 0be8 79       		.byte	0x79
 1871 0be9 00       		.sleb128 0
 1872 0bea 79       		.byte	0x79
 1873 0beb 00       		.sleb128 0
ARM GAS  /var/folders/d2/nstgp4h54kz7g1l847x_b8wc0000gn/T//ccrcU65b.s 			page 34


 1874 0bec F7       		.byte	0xf7
 1875 0bed 2C       		.uleb128 0x2c
 1876 0bee F7       		.byte	0xf7
 1877 0bef 25       		.uleb128 0x25
 1878 0bf0 74       		.byte	0x74
 1879 0bf1 00       		.sleb128 0
 1880 0bf2 F7       		.byte	0xf7
 1881 0bf3 2C       		.uleb128 0x2c
 1882 0bf4 F7       		.byte	0xf7
 1883 0bf5 25       		.uleb128 0x25
 1884 0bf6 1E       		.byte	0x1e
 1885 0bf7 08       		.byte	0x8
 1886 0bf8 20       		.byte	0x20
 1887 0bf9 F7       		.byte	0xf7
 1888 0bfa 25       		.uleb128 0x25
 1889 0bfb 25       		.byte	0x25
 1890 0bfc F7       		.byte	0xf7
 1891 0bfd 2C       		.uleb128 0x2c
 1892 0bfe F7       		.byte	0xf7
 1893 0bff 00       		.uleb128 0
 1894 0c00 35       		.byte	0x35
 1895 0c01 25       		.byte	0x25
 1896 0c02 7A       		.byte	0x7a
 1897 0c03 00       		.sleb128 0
 1898 0c04 1E       		.byte	0x1e
 1899 0c05 1C       		.byte	0x1c
 1900 0c06 0A       		.byte	0xa
 1901 0c07 FFFF     		.2byte	0xffff
 1902 0c09 1A       		.byte	0x1a
 1903 0c0a 00       		.byte	0
 1904 0c0b 27       		.uleb128 0x27
 1905 0c0c DA010000 		.4byte	.LVL19
 1906 0c10 390C0000 		.4byte	0xc39
 1907 0c14 290C0000 		.4byte	0xc29
 1908 0c18 26       		.uleb128 0x26
 1909 0c19 01       		.uleb128 0x1
 1910 0c1a 50       		.byte	0x50
 1911 0c1b 03       		.uleb128 0x3
 1912 0c1c F3       		.byte	0xf3
 1913 0c1d 01       		.uleb128 0x1
 1914 0c1e 50       		.byte	0x50
 1915 0c1f 26       		.uleb128 0x26
 1916 0c20 01       		.uleb128 0x1
 1917 0c21 51       		.byte	0x51
 1918 0c22 05       		.uleb128 0x5
 1919 0c23 03       		.byte	0x3
 1920 0c24 40000000 		.4byte	.LC2
 1921 0c28 00       		.byte	0
 1922 0c29 24       		.uleb128 0x24
 1923 0c2a DE010000 		.4byte	.LVL20
 1924 0c2e CE0C0000 		.4byte	0xcce
 1925 0c32 00       		.byte	0
 1926 0c33 0B       		.uleb128 0xb
 1927 0c34 04       		.byte	0x4
 1928 0c35 D20A0000 		.4byte	0xad2
 1929 0c39 28       		.uleb128 0x28
 1930 0c3a E6080000 		.4byte	.LASF175
ARM GAS  /var/folders/d2/nstgp4h54kz7g1l847x_b8wc0000gn/T//ccrcU65b.s 			page 35


 1931 0c3e 01       		.byte	0x1
 1932 0c3f 45       		.byte	0x45
 1933 0c40 33000000 		.4byte	0x33
 1934 0c44 00000000 		.4byte	.LFB219
 1935 0c48 34000000 		.4byte	.LFE219-.LFB219
 1936 0c4c 01       		.uleb128 0x1
 1937 0c4d 9C       		.byte	0x9c
 1938 0c4e B80C0000 		.4byte	0xcb8
 1939 0c52 20       		.uleb128 0x20
 1940 0c53 63687000 		.ascii	"chp\000"
 1941 0c57 01       		.byte	0x1
 1942 0c58 45       		.byte	0x45
 1943 0c59 330C0000 		.4byte	0xc33
 1944 0c5d 8C000000 		.4byte	.LLST0
 1945 0c61 29       		.uleb128 0x29
 1946 0c62 666D7400 		.ascii	"fmt\000"
 1947 0c66 01       		.byte	0x1
 1948 0c67 45       		.byte	0x45
 1949 0c68 A1080000 		.4byte	0x8a1
 1950 0c6c 02       		.uleb128 0x2
 1951 0c6d 91       		.byte	0x91
 1952 0c6e 74       		.sleb128 -12
 1953 0c6f 2A       		.uleb128 0x2a
 1954 0c70 22       		.uleb128 0x22
 1955 0c71 617000   		.ascii	"ap\000"
 1956 0c74 01       		.byte	0x1
 1957 0c75 46       		.byte	0x46
 1958 0c76 FF0A0000 		.4byte	0xaff
 1959 0c7a 02       		.uleb128 0x2
 1960 0c7b 91       		.byte	0x91
 1961 0c7c 60       		.sleb128 -32
 1962 0c7d 2B       		.uleb128 0x2b
 1963 0c7e A9000000 		.4byte	.LASF167
 1964 0c82 01       		.byte	0x1
 1965 0c83 47       		.byte	0x47
 1966 0c84 33000000 		.4byte	0x33
 1967 0c88 AD000000 		.4byte	.LLST1
 1968 0c8c 25       		.uleb128 0x25
 1969 0c8d 18000000 		.4byte	.LVL1
 1970 0c91 D70C0000 		.4byte	0xcd7
 1971 0c95 AE0C0000 		.4byte	0xcae
 1972 0c99 26       		.uleb128 0x26
 1973 0c9a 01       		.uleb128 0x1
 1974 0c9b 50       		.byte	0x50
 1975 0c9c 03       		.uleb128 0x3
 1976 0c9d F3       		.byte	0xf3
 1977 0c9e 01       		.uleb128 0x1
 1978 0c9f 50       		.byte	0x50
 1979 0ca0 26       		.uleb128 0x26
 1980 0ca1 01       		.uleb128 0x1
 1981 0ca2 51       		.byte	0x51
 1982 0ca3 03       		.uleb128 0x3
 1983 0ca4 91       		.byte	0x91
 1984 0ca5 5C       		.sleb128 -36
 1985 0ca6 06       		.byte	0x6
 1986 0ca7 26       		.uleb128 0x26
 1987 0ca8 01       		.uleb128 0x1
ARM GAS  /var/folders/d2/nstgp4h54kz7g1l847x_b8wc0000gn/T//ccrcU65b.s 			page 36


 1988 0ca9 52       		.byte	0x52
 1989 0caa 02       		.uleb128 0x2
 1990 0cab 91       		.byte	0x91
 1991 0cac 60       		.sleb128 -32
 1992 0cad 00       		.byte	0
 1993 0cae 24       		.uleb128 0x24
 1994 0caf 2E000000 		.4byte	.LVL2
 1995 0cb3 CE0C0000 		.4byte	0xcce
 1996 0cb7 00       		.byte	0
 1997 0cb8 2C       		.uleb128 0x2c
 1998 0cb9 DB000000 		.4byte	.LASF168
 1999 0cbd DB000000 		.4byte	.LASF168
 2000 0cc1 12       		.byte	0x12
 2001 0cc2 6F       		.byte	0x6f
 2002 0cc3 2C       		.uleb128 0x2c
 2003 0cc4 74070000 		.4byte	.LASF169
 2004 0cc8 74070000 		.4byte	.LASF169
 2005 0ccc 12       		.byte	0x12
 2006 0ccd 70       		.byte	0x70
 2007 0cce 2D       		.uleb128 0x2d
 2008 0ccf EB060000 		.4byte	.LASF176
 2009 0cd3 EB060000 		.4byte	.LASF176
 2010 0cd7 2C       		.uleb128 0x2c
 2011 0cd8 4F080000 		.4byte	.LASF170
 2012 0cdc 4F080000 		.4byte	.LASF170
 2013 0ce0 01       		.byte	0x1
 2014 0ce1 28       		.byte	0x28
 2015 0ce2 00       		.byte	0
 2016              		.section	.debug_abbrev,"",%progbits
 2017              	.Ldebug_abbrev0:
 2018 0000 01       		.uleb128 0x1
 2019 0001 11       		.uleb128 0x11
 2020 0002 01       		.byte	0x1
 2021 0003 25       		.uleb128 0x25
 2022 0004 0E       		.uleb128 0xe
 2023 0005 13       		.uleb128 0x13
 2024 0006 0B       		.uleb128 0xb
 2025 0007 03       		.uleb128 0x3
 2026 0008 0E       		.uleb128 0xe
 2027 0009 1B       		.uleb128 0x1b
 2028 000a 0E       		.uleb128 0xe
 2029 000b 55       		.uleb128 0x55
 2030 000c 17       		.uleb128 0x17
 2031 000d 11       		.uleb128 0x11
 2032 000e 01       		.uleb128 0x1
 2033 000f 10       		.uleb128 0x10
 2034 0010 17       		.uleb128 0x17
 2035 0011 00       		.byte	0
 2036 0012 00       		.byte	0
 2037 0013 02       		.uleb128 0x2
 2038 0014 24       		.uleb128 0x24
 2039 0015 00       		.byte	0
 2040 0016 0B       		.uleb128 0xb
 2041 0017 0B       		.uleb128 0xb
 2042 0018 3E       		.uleb128 0x3e
 2043 0019 0B       		.uleb128 0xb
 2044 001a 03       		.uleb128 0x3
ARM GAS  /var/folders/d2/nstgp4h54kz7g1l847x_b8wc0000gn/T//ccrcU65b.s 			page 37


 2045 001b 0E       		.uleb128 0xe
 2046 001c 00       		.byte	0
 2047 001d 00       		.byte	0
 2048 001e 03       		.uleb128 0x3
 2049 001f 24       		.uleb128 0x24
 2050 0020 00       		.byte	0
 2051 0021 0B       		.uleb128 0xb
 2052 0022 0B       		.uleb128 0xb
 2053 0023 3E       		.uleb128 0x3e
 2054 0024 0B       		.uleb128 0xb
 2055 0025 03       		.uleb128 0x3
 2056 0026 08       		.uleb128 0x8
 2057 0027 00       		.byte	0
 2058 0028 00       		.byte	0
 2059 0029 04       		.uleb128 0x4
 2060 002a 16       		.uleb128 0x16
 2061 002b 00       		.byte	0
 2062 002c 03       		.uleb128 0x3
 2063 002d 0E       		.uleb128 0xe
 2064 002e 3A       		.uleb128 0x3a
 2065 002f 0B       		.uleb128 0xb
 2066 0030 3B       		.uleb128 0x3b
 2067 0031 0B       		.uleb128 0xb
 2068 0032 49       		.uleb128 0x49
 2069 0033 13       		.uleb128 0x13
 2070 0034 00       		.byte	0
 2071 0035 00       		.byte	0
 2072 0036 05       		.uleb128 0x5
 2073 0037 26       		.uleb128 0x26
 2074 0038 00       		.byte	0
 2075 0039 49       		.uleb128 0x49
 2076 003a 13       		.uleb128 0x13
 2077 003b 00       		.byte	0
 2078 003c 00       		.byte	0
 2079 003d 06       		.uleb128 0x6
 2080 003e 35       		.uleb128 0x35
 2081 003f 00       		.byte	0
 2082 0040 49       		.uleb128 0x49
 2083 0041 13       		.uleb128 0x13
 2084 0042 00       		.byte	0
 2085 0043 00       		.byte	0
 2086 0044 07       		.uleb128 0x7
 2087 0045 13       		.uleb128 0x13
 2088 0046 01       		.byte	0x1
 2089 0047 03       		.uleb128 0x3
 2090 0048 0E       		.uleb128 0xe
 2091 0049 0B       		.uleb128 0xb
 2092 004a 0B       		.uleb128 0xb
 2093 004b 3A       		.uleb128 0x3a
 2094 004c 0B       		.uleb128 0xb
 2095 004d 3B       		.uleb128 0x3b
 2096 004e 0B       		.uleb128 0xb
 2097 004f 01       		.uleb128 0x1
 2098 0050 13       		.uleb128 0x13
 2099 0051 00       		.byte	0
 2100 0052 00       		.byte	0
 2101 0053 08       		.uleb128 0x8
ARM GAS  /var/folders/d2/nstgp4h54kz7g1l847x_b8wc0000gn/T//ccrcU65b.s 			page 38


 2102 0054 0D       		.uleb128 0xd
 2103 0055 00       		.byte	0
 2104 0056 03       		.uleb128 0x3
 2105 0057 0E       		.uleb128 0xe
 2106 0058 3A       		.uleb128 0x3a
 2107 0059 0B       		.uleb128 0xb
 2108 005a 3B       		.uleb128 0x3b
 2109 005b 0B       		.uleb128 0xb
 2110 005c 49       		.uleb128 0x49
 2111 005d 13       		.uleb128 0x13
 2112 005e 38       		.uleb128 0x38
 2113 005f 0B       		.uleb128 0xb
 2114 0060 00       		.byte	0
 2115 0061 00       		.byte	0
 2116 0062 09       		.uleb128 0x9
 2117 0063 0D       		.uleb128 0xd
 2118 0064 00       		.byte	0
 2119 0065 03       		.uleb128 0x3
 2120 0066 08       		.uleb128 0x8
 2121 0067 3A       		.uleb128 0x3a
 2122 0068 0B       		.uleb128 0xb
 2123 0069 3B       		.uleb128 0x3b
 2124 006a 05       		.uleb128 0x5
 2125 006b 49       		.uleb128 0x49
 2126 006c 13       		.uleb128 0x13
 2127 006d 38       		.uleb128 0x38
 2128 006e 0B       		.uleb128 0xb
 2129 006f 00       		.byte	0
 2130 0070 00       		.byte	0
 2131 0071 0A       		.uleb128 0xa
 2132 0072 0D       		.uleb128 0xd
 2133 0073 00       		.byte	0
 2134 0074 03       		.uleb128 0x3
 2135 0075 0E       		.uleb128 0xe
 2136 0076 3A       		.uleb128 0x3a
 2137 0077 0B       		.uleb128 0xb
 2138 0078 3B       		.uleb128 0x3b
 2139 0079 05       		.uleb128 0x5
 2140 007a 49       		.uleb128 0x49
 2141 007b 13       		.uleb128 0x13
 2142 007c 38       		.uleb128 0x38
 2143 007d 0B       		.uleb128 0xb
 2144 007e 00       		.byte	0
 2145 007f 00       		.byte	0
 2146 0080 0B       		.uleb128 0xb
 2147 0081 0F       		.uleb128 0xf
 2148 0082 00       		.byte	0
 2149 0083 0B       		.uleb128 0xb
 2150 0084 0B       		.uleb128 0xb
 2151 0085 49       		.uleb128 0x49
 2152 0086 13       		.uleb128 0x13
 2153 0087 00       		.byte	0
 2154 0088 00       		.byte	0
 2155 0089 0C       		.uleb128 0xc
 2156 008a 13       		.uleb128 0x13
 2157 008b 01       		.byte	0x1
 2158 008c 03       		.uleb128 0x3
ARM GAS  /var/folders/d2/nstgp4h54kz7g1l847x_b8wc0000gn/T//ccrcU65b.s 			page 39


 2159 008d 0E       		.uleb128 0xe
 2160 008e 0B       		.uleb128 0xb
 2161 008f 0B       		.uleb128 0xb
 2162 0090 3A       		.uleb128 0x3a
 2163 0091 0B       		.uleb128 0xb
 2164 0092 3B       		.uleb128 0x3b
 2165 0093 05       		.uleb128 0x5
 2166 0094 01       		.uleb128 0x1
 2167 0095 13       		.uleb128 0x13
 2168 0096 00       		.byte	0
 2169 0097 00       		.byte	0
 2170 0098 0D       		.uleb128 0xd
 2171 0099 15       		.uleb128 0x15
 2172 009a 01       		.byte	0x1
 2173 009b 27       		.uleb128 0x27
 2174 009c 19       		.uleb128 0x19
 2175 009d 01       		.uleb128 0x1
 2176 009e 13       		.uleb128 0x13
 2177 009f 00       		.byte	0
 2178 00a0 00       		.byte	0
 2179 00a1 0E       		.uleb128 0xe
 2180 00a2 05       		.uleb128 0x5
 2181 00a3 00       		.byte	0
 2182 00a4 49       		.uleb128 0x49
 2183 00a5 13       		.uleb128 0x13
 2184 00a6 00       		.byte	0
 2185 00a7 00       		.byte	0
 2186 00a8 0F       		.uleb128 0xf
 2187 00a9 0F       		.uleb128 0xf
 2188 00aa 00       		.byte	0
 2189 00ab 0B       		.uleb128 0xb
 2190 00ac 0B       		.uleb128 0xb
 2191 00ad 00       		.byte	0
 2192 00ae 00       		.byte	0
 2193 00af 10       		.uleb128 0x10
 2194 00b0 13       		.uleb128 0x13
 2195 00b1 01       		.byte	0x1
 2196 00b2 03       		.uleb128 0x3
 2197 00b3 0E       		.uleb128 0xe
 2198 00b4 0B       		.uleb128 0xb
 2199 00b5 05       		.uleb128 0x5
 2200 00b6 3A       		.uleb128 0x3a
 2201 00b7 0B       		.uleb128 0xb
 2202 00b8 3B       		.uleb128 0x3b
 2203 00b9 05       		.uleb128 0x5
 2204 00ba 01       		.uleb128 0x1
 2205 00bb 13       		.uleb128 0x13
 2206 00bc 00       		.byte	0
 2207 00bd 00       		.byte	0
 2208 00be 11       		.uleb128 0x11
 2209 00bf 0D       		.uleb128 0xd
 2210 00c0 00       		.byte	0
 2211 00c1 03       		.uleb128 0x3
 2212 00c2 0E       		.uleb128 0xe
 2213 00c3 3A       		.uleb128 0x3a
 2214 00c4 0B       		.uleb128 0xb
 2215 00c5 3B       		.uleb128 0x3b
ARM GAS  /var/folders/d2/nstgp4h54kz7g1l847x_b8wc0000gn/T//ccrcU65b.s 			page 40


 2216 00c6 05       		.uleb128 0x5
 2217 00c7 49       		.uleb128 0x49
 2218 00c8 13       		.uleb128 0x13
 2219 00c9 38       		.uleb128 0x38
 2220 00ca 05       		.uleb128 0x5
 2221 00cb 00       		.byte	0
 2222 00cc 00       		.byte	0
 2223 00cd 12       		.uleb128 0x12
 2224 00ce 0D       		.uleb128 0xd
 2225 00cf 00       		.byte	0
 2226 00d0 03       		.uleb128 0x3
 2227 00d1 08       		.uleb128 0x8
 2228 00d2 3A       		.uleb128 0x3a
 2229 00d3 0B       		.uleb128 0xb
 2230 00d4 3B       		.uleb128 0x3b
 2231 00d5 05       		.uleb128 0x5
 2232 00d6 49       		.uleb128 0x49
 2233 00d7 13       		.uleb128 0x13
 2234 00d8 38       		.uleb128 0x38
 2235 00d9 05       		.uleb128 0x5
 2236 00da 00       		.byte	0
 2237 00db 00       		.byte	0
 2238 00dc 13       		.uleb128 0x13
 2239 00dd 34       		.uleb128 0x34
 2240 00de 00       		.byte	0
 2241 00df 03       		.uleb128 0x3
 2242 00e0 0E       		.uleb128 0xe
 2243 00e1 3A       		.uleb128 0x3a
 2244 00e2 0B       		.uleb128 0xb
 2245 00e3 3B       		.uleb128 0x3b
 2246 00e4 05       		.uleb128 0x5
 2247 00e5 49       		.uleb128 0x49
 2248 00e6 13       		.uleb128 0x13
 2249 00e7 3F       		.uleb128 0x3f
 2250 00e8 19       		.uleb128 0x19
 2251 00e9 3C       		.uleb128 0x3c
 2252 00ea 19       		.uleb128 0x19
 2253 00eb 00       		.byte	0
 2254 00ec 00       		.byte	0
 2255 00ed 14       		.uleb128 0x14
 2256 00ee 34       		.uleb128 0x34
 2257 00ef 00       		.byte	0
 2258 00f0 03       		.uleb128 0x3
 2259 00f1 0E       		.uleb128 0xe
 2260 00f2 3A       		.uleb128 0x3a
 2261 00f3 0B       		.uleb128 0xb
 2262 00f4 3B       		.uleb128 0x3b
 2263 00f5 0B       		.uleb128 0xb
 2264 00f6 49       		.uleb128 0x49
 2265 00f7 13       		.uleb128 0x13
 2266 00f8 3F       		.uleb128 0x3f
 2267 00f9 19       		.uleb128 0x19
 2268 00fa 3C       		.uleb128 0x3c
 2269 00fb 19       		.uleb128 0x19
 2270 00fc 00       		.byte	0
 2271 00fd 00       		.byte	0
 2272 00fe 15       		.uleb128 0x15
ARM GAS  /var/folders/d2/nstgp4h54kz7g1l847x_b8wc0000gn/T//ccrcU65b.s 			page 41


 2273 00ff 0D       		.uleb128 0xd
 2274 0100 00       		.byte	0
 2275 0101 03       		.uleb128 0x3
 2276 0102 08       		.uleb128 0x8
 2277 0103 3A       		.uleb128 0x3a
 2278 0104 0B       		.uleb128 0xb
 2279 0105 3B       		.uleb128 0x3b
 2280 0106 0B       		.uleb128 0xb
 2281 0107 49       		.uleb128 0x49
 2282 0108 13       		.uleb128 0x13
 2283 0109 38       		.uleb128 0x38
 2284 010a 0B       		.uleb128 0xb
 2285 010b 00       		.byte	0
 2286 010c 00       		.byte	0
 2287 010d 16       		.uleb128 0x16
 2288 010e 13       		.uleb128 0x13
 2289 010f 01       		.byte	0x1
 2290 0110 0B       		.uleb128 0xb
 2291 0111 0B       		.uleb128 0xb
 2292 0112 3A       		.uleb128 0x3a
 2293 0113 0B       		.uleb128 0xb
 2294 0114 3B       		.uleb128 0x3b
 2295 0115 0B       		.uleb128 0xb
 2296 0116 01       		.uleb128 0x1
 2297 0117 13       		.uleb128 0x13
 2298 0118 00       		.byte	0
 2299 0119 00       		.byte	0
 2300 011a 17       		.uleb128 0x17
 2301 011b 13       		.uleb128 0x13
 2302 011c 01       		.byte	0x1
 2303 011d 0B       		.uleb128 0xb
 2304 011e 05       		.uleb128 0x5
 2305 011f 3A       		.uleb128 0x3a
 2306 0120 0B       		.uleb128 0xb
 2307 0121 3B       		.uleb128 0x3b
 2308 0122 0B       		.uleb128 0xb
 2309 0123 01       		.uleb128 0x1
 2310 0124 13       		.uleb128 0x13
 2311 0125 00       		.byte	0
 2312 0126 00       		.byte	0
 2313 0127 18       		.uleb128 0x18
 2314 0128 01       		.uleb128 0x1
 2315 0129 01       		.byte	0x1
 2316 012a 49       		.uleb128 0x49
 2317 012b 13       		.uleb128 0x13
 2318 012c 01       		.uleb128 0x1
 2319 012d 13       		.uleb128 0x13
 2320 012e 00       		.byte	0
 2321 012f 00       		.byte	0
 2322 0130 19       		.uleb128 0x19
 2323 0131 21       		.uleb128 0x21
 2324 0132 00       		.byte	0
 2325 0133 49       		.uleb128 0x49
 2326 0134 13       		.uleb128 0x13
 2327 0135 2F       		.uleb128 0x2f
 2328 0136 0B       		.uleb128 0xb
 2329 0137 00       		.byte	0
ARM GAS  /var/folders/d2/nstgp4h54kz7g1l847x_b8wc0000gn/T//ccrcU65b.s 			page 42


 2330 0138 00       		.byte	0
 2331 0139 1A       		.uleb128 0x1a
 2332 013a 17       		.uleb128 0x17
 2333 013b 01       		.byte	0x1
 2334 013c 0B       		.uleb128 0xb
 2335 013d 0B       		.uleb128 0xb
 2336 013e 3A       		.uleb128 0x3a
 2337 013f 0B       		.uleb128 0xb
 2338 0140 3B       		.uleb128 0x3b
 2339 0141 0B       		.uleb128 0xb
 2340 0142 01       		.uleb128 0x1
 2341 0143 13       		.uleb128 0x13
 2342 0144 00       		.byte	0
 2343 0145 00       		.byte	0
 2344 0146 1B       		.uleb128 0x1b
 2345 0147 0D       		.uleb128 0xd
 2346 0148 00       		.byte	0
 2347 0149 03       		.uleb128 0x3
 2348 014a 0E       		.uleb128 0xe
 2349 014b 3A       		.uleb128 0x3a
 2350 014c 0B       		.uleb128 0xb
 2351 014d 3B       		.uleb128 0x3b
 2352 014e 05       		.uleb128 0x5
 2353 014f 49       		.uleb128 0x49
 2354 0150 13       		.uleb128 0x13
 2355 0151 00       		.byte	0
 2356 0152 00       		.byte	0
 2357 0153 1C       		.uleb128 0x1c
 2358 0154 34       		.uleb128 0x34
 2359 0155 00       		.byte	0
 2360 0156 03       		.uleb128 0x3
 2361 0157 08       		.uleb128 0x8
 2362 0158 3A       		.uleb128 0x3a
 2363 0159 0B       		.uleb128 0xb
 2364 015a 3B       		.uleb128 0x3b
 2365 015b 05       		.uleb128 0x5
 2366 015c 49       		.uleb128 0x49
 2367 015d 13       		.uleb128 0x13
 2368 015e 3F       		.uleb128 0x3f
 2369 015f 19       		.uleb128 0x19
 2370 0160 3C       		.uleb128 0x3c
 2371 0161 19       		.uleb128 0x19
 2372 0162 00       		.byte	0
 2373 0163 00       		.byte	0
 2374 0164 1D       		.uleb128 0x1d
 2375 0165 15       		.uleb128 0x15
 2376 0166 01       		.byte	0x1
 2377 0167 27       		.uleb128 0x27
 2378 0168 19       		.uleb128 0x19
 2379 0169 49       		.uleb128 0x49
 2380 016a 13       		.uleb128 0x13
 2381 016b 01       		.uleb128 0x1
 2382 016c 13       		.uleb128 0x13
 2383 016d 00       		.byte	0
 2384 016e 00       		.byte	0
 2385 016f 1E       		.uleb128 0x1e
 2386 0170 0D       		.uleb128 0xd
ARM GAS  /var/folders/d2/nstgp4h54kz7g1l847x_b8wc0000gn/T//ccrcU65b.s 			page 43


 2387 0171 00       		.byte	0
 2388 0172 03       		.uleb128 0x3
 2389 0173 0E       		.uleb128 0xe
 2390 0174 49       		.uleb128 0x49
 2391 0175 13       		.uleb128 0x13
 2392 0176 38       		.uleb128 0x38
 2393 0177 0B       		.uleb128 0xb
 2394 0178 34       		.uleb128 0x34
 2395 0179 19       		.uleb128 0x19
 2396 017a 00       		.byte	0
 2397 017b 00       		.byte	0
 2398 017c 1F       		.uleb128 0x1f
 2399 017d 2E       		.uleb128 0x2e
 2400 017e 01       		.byte	0x1
 2401 017f 3F       		.uleb128 0x3f
 2402 0180 19       		.uleb128 0x19
 2403 0181 03       		.uleb128 0x3
 2404 0182 0E       		.uleb128 0xe
 2405 0183 3A       		.uleb128 0x3a
 2406 0184 0B       		.uleb128 0xb
 2407 0185 3B       		.uleb128 0x3b
 2408 0186 0B       		.uleb128 0xb
 2409 0187 27       		.uleb128 0x27
 2410 0188 19       		.uleb128 0x19
 2411 0189 11       		.uleb128 0x11
 2412 018a 01       		.uleb128 0x1
 2413 018b 12       		.uleb128 0x12
 2414 018c 06       		.uleb128 0x6
 2415 018d 40       		.uleb128 0x40
 2416 018e 18       		.uleb128 0x18
 2417 018f 9642     		.uleb128 0x2116
 2418 0191 19       		.uleb128 0x19
 2419 0192 01       		.uleb128 0x1
 2420 0193 13       		.uleb128 0x13
 2421 0194 00       		.byte	0
 2422 0195 00       		.byte	0
 2423 0196 20       		.uleb128 0x20
 2424 0197 05       		.uleb128 0x5
 2425 0198 00       		.byte	0
 2426 0199 03       		.uleb128 0x3
 2427 019a 08       		.uleb128 0x8
 2428 019b 3A       		.uleb128 0x3a
 2429 019c 0B       		.uleb128 0xb
 2430 019d 3B       		.uleb128 0x3b
 2431 019e 0B       		.uleb128 0xb
 2432 019f 49       		.uleb128 0x49
 2433 01a0 13       		.uleb128 0x13
 2434 01a1 02       		.uleb128 0x2
 2435 01a2 17       		.uleb128 0x17
 2436 01a3 00       		.byte	0
 2437 01a4 00       		.byte	0
 2438 01a5 21       		.uleb128 0x21
 2439 01a6 34       		.uleb128 0x34
 2440 01a7 00       		.byte	0
 2441 01a8 03       		.uleb128 0x3
 2442 01a9 08       		.uleb128 0x8
 2443 01aa 3A       		.uleb128 0x3a
ARM GAS  /var/folders/d2/nstgp4h54kz7g1l847x_b8wc0000gn/T//ccrcU65b.s 			page 44


 2444 01ab 0B       		.uleb128 0xb
 2445 01ac 3B       		.uleb128 0x3b
 2446 01ad 0B       		.uleb128 0xb
 2447 01ae 49       		.uleb128 0x49
 2448 01af 13       		.uleb128 0x13
 2449 01b0 02       		.uleb128 0x2
 2450 01b1 17       		.uleb128 0x17
 2451 01b2 00       		.byte	0
 2452 01b3 00       		.byte	0
 2453 01b4 22       		.uleb128 0x22
 2454 01b5 34       		.uleb128 0x34
 2455 01b6 00       		.byte	0
 2456 01b7 03       		.uleb128 0x3
 2457 01b8 08       		.uleb128 0x8
 2458 01b9 3A       		.uleb128 0x3a
 2459 01ba 0B       		.uleb128 0xb
 2460 01bb 3B       		.uleb128 0x3b
 2461 01bc 0B       		.uleb128 0xb
 2462 01bd 49       		.uleb128 0x49
 2463 01be 13       		.uleb128 0x13
 2464 01bf 02       		.uleb128 0x2
 2465 01c0 18       		.uleb128 0x18
 2466 01c1 00       		.byte	0
 2467 01c2 00       		.byte	0
 2468 01c3 23       		.uleb128 0x23
 2469 01c4 34       		.uleb128 0x34
 2470 01c5 00       		.byte	0
 2471 01c6 03       		.uleb128 0x3
 2472 01c7 0E       		.uleb128 0xe
 2473 01c8 3A       		.uleb128 0x3a
 2474 01c9 0B       		.uleb128 0xb
 2475 01ca 3B       		.uleb128 0x3b
 2476 01cb 0B       		.uleb128 0xb
 2477 01cc 49       		.uleb128 0x49
 2478 01cd 13       		.uleb128 0x13
 2479 01ce 00       		.byte	0
 2480 01cf 00       		.byte	0
 2481 01d0 24       		.uleb128 0x24
 2482 01d1 898201   		.uleb128 0x4109
 2483 01d4 00       		.byte	0
 2484 01d5 11       		.uleb128 0x11
 2485 01d6 01       		.uleb128 0x1
 2486 01d7 31       		.uleb128 0x31
 2487 01d8 13       		.uleb128 0x13
 2488 01d9 00       		.byte	0
 2489 01da 00       		.byte	0
 2490 01db 25       		.uleb128 0x25
 2491 01dc 898201   		.uleb128 0x4109
 2492 01df 01       		.byte	0x1
 2493 01e0 11       		.uleb128 0x11
 2494 01e1 01       		.uleb128 0x1
 2495 01e2 31       		.uleb128 0x31
 2496 01e3 13       		.uleb128 0x13
 2497 01e4 01       		.uleb128 0x1
 2498 01e5 13       		.uleb128 0x13
 2499 01e6 00       		.byte	0
 2500 01e7 00       		.byte	0
ARM GAS  /var/folders/d2/nstgp4h54kz7g1l847x_b8wc0000gn/T//ccrcU65b.s 			page 45


 2501 01e8 26       		.uleb128 0x26
 2502 01e9 8A8201   		.uleb128 0x410a
 2503 01ec 00       		.byte	0
 2504 01ed 02       		.uleb128 0x2
 2505 01ee 18       		.uleb128 0x18
 2506 01ef 9142     		.uleb128 0x2111
 2507 01f1 18       		.uleb128 0x18
 2508 01f2 00       		.byte	0
 2509 01f3 00       		.byte	0
 2510 01f4 27       		.uleb128 0x27
 2511 01f5 898201   		.uleb128 0x4109
 2512 01f8 01       		.byte	0x1
 2513 01f9 11       		.uleb128 0x11
 2514 01fa 01       		.uleb128 0x1
 2515 01fb 9542     		.uleb128 0x2115
 2516 01fd 19       		.uleb128 0x19
 2517 01fe 31       		.uleb128 0x31
 2518 01ff 13       		.uleb128 0x13
 2519 0200 01       		.uleb128 0x1
 2520 0201 13       		.uleb128 0x13
 2521 0202 00       		.byte	0
 2522 0203 00       		.byte	0
 2523 0204 28       		.uleb128 0x28
 2524 0205 2E       		.uleb128 0x2e
 2525 0206 01       		.byte	0x1
 2526 0207 03       		.uleb128 0x3
 2527 0208 0E       		.uleb128 0xe
 2528 0209 3A       		.uleb128 0x3a
 2529 020a 0B       		.uleb128 0xb
 2530 020b 3B       		.uleb128 0x3b
 2531 020c 0B       		.uleb128 0xb
 2532 020d 27       		.uleb128 0x27
 2533 020e 19       		.uleb128 0x19
 2534 020f 49       		.uleb128 0x49
 2535 0210 13       		.uleb128 0x13
 2536 0211 11       		.uleb128 0x11
 2537 0212 01       		.uleb128 0x1
 2538 0213 12       		.uleb128 0x12
 2539 0214 06       		.uleb128 0x6
 2540 0215 40       		.uleb128 0x40
 2541 0216 18       		.uleb128 0x18
 2542 0217 9742     		.uleb128 0x2117
 2543 0219 19       		.uleb128 0x19
 2544 021a 01       		.uleb128 0x1
 2545 021b 13       		.uleb128 0x13
 2546 021c 00       		.byte	0
 2547 021d 00       		.byte	0
 2548 021e 29       		.uleb128 0x29
 2549 021f 05       		.uleb128 0x5
 2550 0220 00       		.byte	0
 2551 0221 03       		.uleb128 0x3
 2552 0222 08       		.uleb128 0x8
 2553 0223 3A       		.uleb128 0x3a
 2554 0224 0B       		.uleb128 0xb
 2555 0225 3B       		.uleb128 0x3b
 2556 0226 0B       		.uleb128 0xb
 2557 0227 49       		.uleb128 0x49
ARM GAS  /var/folders/d2/nstgp4h54kz7g1l847x_b8wc0000gn/T//ccrcU65b.s 			page 46


 2558 0228 13       		.uleb128 0x13
 2559 0229 02       		.uleb128 0x2
 2560 022a 18       		.uleb128 0x18
 2561 022b 00       		.byte	0
 2562 022c 00       		.byte	0
 2563 022d 2A       		.uleb128 0x2a
 2564 022e 18       		.uleb128 0x18
 2565 022f 00       		.byte	0
 2566 0230 00       		.byte	0
 2567 0231 00       		.byte	0
 2568 0232 2B       		.uleb128 0x2b
 2569 0233 34       		.uleb128 0x34
 2570 0234 00       		.byte	0
 2571 0235 03       		.uleb128 0x3
 2572 0236 0E       		.uleb128 0xe
 2573 0237 3A       		.uleb128 0x3a
 2574 0238 0B       		.uleb128 0xb
 2575 0239 3B       		.uleb128 0x3b
 2576 023a 0B       		.uleb128 0xb
 2577 023b 49       		.uleb128 0x49
 2578 023c 13       		.uleb128 0x13
 2579 023d 02       		.uleb128 0x2
 2580 023e 17       		.uleb128 0x17
 2581 023f 00       		.byte	0
 2582 0240 00       		.byte	0
 2583 0241 2C       		.uleb128 0x2c
 2584 0242 2E       		.uleb128 0x2e
 2585 0243 00       		.byte	0
 2586 0244 3F       		.uleb128 0x3f
 2587 0245 19       		.uleb128 0x19
 2588 0246 3C       		.uleb128 0x3c
 2589 0247 19       		.uleb128 0x19
 2590 0248 6E       		.uleb128 0x6e
 2591 0249 0E       		.uleb128 0xe
 2592 024a 03       		.uleb128 0x3
 2593 024b 0E       		.uleb128 0xe
 2594 024c 3A       		.uleb128 0x3a
 2595 024d 0B       		.uleb128 0xb
 2596 024e 3B       		.uleb128 0x3b
 2597 024f 0B       		.uleb128 0xb
 2598 0250 00       		.byte	0
 2599 0251 00       		.byte	0
 2600 0252 2D       		.uleb128 0x2d
 2601 0253 2E       		.uleb128 0x2e
 2602 0254 00       		.byte	0
 2603 0255 3F       		.uleb128 0x3f
 2604 0256 19       		.uleb128 0x19
 2605 0257 3C       		.uleb128 0x3c
 2606 0258 19       		.uleb128 0x19
 2607 0259 6E       		.uleb128 0x6e
 2608 025a 0E       		.uleb128 0xe
 2609 025b 03       		.uleb128 0x3
 2610 025c 0E       		.uleb128 0xe
 2611 025d 00       		.byte	0
 2612 025e 00       		.byte	0
 2613 025f 00       		.byte	0
 2614              		.section	.debug_loc,"",%progbits
ARM GAS  /var/folders/d2/nstgp4h54kz7g1l847x_b8wc0000gn/T//ccrcU65b.s 			page 47


 2615              	.Ldebug_loc0:
 2616              	.LLST2:
 2617 0000 00000000 		.4byte	.LVL3
 2618 0004 1B000000 		.4byte	.LVL4-1
 2619 0008 0100     		.2byte	0x1
 2620 000a 50       		.byte	0x50
 2621 000b 1B000000 		.4byte	.LVL4-1
 2622 000f D6010000 		.4byte	.LVL18
 2623 0013 0100     		.2byte	0x1
 2624 0015 55       		.byte	0x55
 2625 0016 D6010000 		.4byte	.LVL18
 2626 001a D9010000 		.4byte	.LVL19-1
 2627 001e 0100     		.2byte	0x1
 2628 0020 50       		.byte	0x50
 2629 0021 D9010000 		.4byte	.LVL19-1
 2630 0025 DA010000 		.4byte	.LVL19
 2631 0029 0400     		.2byte	0x4
 2632 002b F3       		.byte	0xf3
 2633 002c 01       		.uleb128 0x1
 2634 002d 50       		.byte	0x50
 2635 002e 9F       		.byte	0x9f
 2636 002f DA010000 		.4byte	.LVL19
 2637 0033 00020000 		.4byte	.LFE220
 2638 0037 0100     		.2byte	0x1
 2639 0039 55       		.byte	0x55
 2640 003a 00000000 		.4byte	0
 2641 003e 00000000 		.4byte	0
 2642              	.LLST3:
 2643 0042 1C000000 		.4byte	.LVL4
 2644 0046 33000000 		.4byte	.LVL5-1
 2645 004a 0100     		.2byte	0x1
 2646 004c 50       		.byte	0x50
 2647 004d 34000000 		.4byte	.LVL5
 2648 0051 44000000 		.4byte	.LVL6
 2649 0055 0100     		.2byte	0x1
 2650 0057 50       		.byte	0x50
 2651 0058 6A000000 		.4byte	.LVL8
 2652 005c 6E000000 		.4byte	.LVL9
 2653 0060 0100     		.2byte	0x1
 2654 0062 50       		.byte	0x50
 2655 0063 6E000000 		.4byte	.LVL9
 2656 0067 DE000000 		.4byte	.LVL12
 2657 006b 0100     		.2byte	0x1
 2658 006d 59       		.byte	0x59
 2659 006e DE000000 		.4byte	.LVL12
 2660 0072 EA000000 		.4byte	.LVL13
 2661 0076 0100     		.2byte	0x1
 2662 0078 50       		.byte	0x50
 2663 0079 EA000000 		.4byte	.LVL13
 2664 007d FA000000 		.4byte	.LVL14
 2665 0081 0100     		.2byte	0x1
 2666 0083 59       		.byte	0x59
 2667 0084 00000000 		.4byte	0
 2668 0088 00000000 		.4byte	0
 2669              	.LLST0:
 2670 008c 00000000 		.4byte	.LVL0
 2671 0090 17000000 		.4byte	.LVL1-1
ARM GAS  /var/folders/d2/nstgp4h54kz7g1l847x_b8wc0000gn/T//ccrcU65b.s 			page 48


 2672 0094 0100     		.2byte	0x1
 2673 0096 50       		.byte	0x50
 2674 0097 17000000 		.4byte	.LVL1-1
 2675 009b 34000000 		.4byte	.LFE219
 2676 009f 0400     		.2byte	0x4
 2677 00a1 F3       		.byte	0xf3
 2678 00a2 01       		.uleb128 0x1
 2679 00a3 50       		.byte	0x50
 2680 00a4 9F       		.byte	0x9f
 2681 00a5 00000000 		.4byte	0
 2682 00a9 00000000 		.4byte	0
 2683              	.LLST1:
 2684 00ad 18000000 		.4byte	.LVL1
 2685 00b1 2D000000 		.4byte	.LVL2-1
 2686 00b5 0100     		.2byte	0x1
 2687 00b7 50       		.byte	0x50
 2688 00b8 00000000 		.4byte	0
 2689 00bc 00000000 		.4byte	0
 2690              		.section	.debug_aranges,"",%progbits
 2691 0000 24000000 		.4byte	0x24
 2692 0004 0200     		.2byte	0x2
 2693 0006 00000000 		.4byte	.Ldebug_info0
 2694 000a 04       		.byte	0x4
 2695 000b 00       		.byte	0
 2696 000c 0000     		.2byte	0
 2697 000e 0000     		.2byte	0
 2698 0010 00000000 		.4byte	.LFB219
 2699 0014 34000000 		.4byte	.LFE219-.LFB219
 2700 0018 00000000 		.4byte	.LFB220
 2701 001c 00020000 		.4byte	.LFE220-.LFB220
 2702 0020 00000000 		.4byte	0
 2703 0024 00000000 		.4byte	0
 2704              		.section	.debug_ranges,"",%progbits
 2705              	.Ldebug_ranges0:
 2706 0000 00000000 		.4byte	.LFB219
 2707 0004 34000000 		.4byte	.LFE219
 2708 0008 00000000 		.4byte	.LFB220
 2709 000c 00020000 		.4byte	.LFE220
 2710 0010 00000000 		.4byte	0
 2711 0014 00000000 		.4byte	0
 2712              		.section	.debug_line,"",%progbits
 2713              	.Ldebug_line0:
 2714 0000 9C040000 		.section	.debug_str,"MS",%progbits,1
 2714      02002704 
 2714      00000201 
 2714      FB0E0D00 
 2714      01010101 
 2715              	.LASF146:
 2716 0000 63665F6F 		.ascii	"cf_off_older\000"
 2716      66665F6F 
 2716      6C646572 
 2716      00
 2717              	.LASF61:
 2718 000d 72656164 		.ascii	"ready_list_t\000"
 2718      795F6C69 
 2718      73745F74 
 2718      00
ARM GAS  /var/folders/d2/nstgp4h54kz7g1l847x_b8wc0000gn/T//ccrcU65b.s 			page 49


 2719              	.LASF99:
 2720 001a 73655F74 		.ascii	"se_time\000"
 2720      696D6500 
 2721              	.LASF5:
 2722 0022 73697A65 		.ascii	"size_t\000"
 2722      5F7400
 2723              	.LASF174:
 2724 0029 7072696E 		.ascii	"printUcUsage\000"
 2724      74556355 
 2724      73616765 
 2724      00
 2725              	.LASF20:
 2726 0036 75696E74 		.ascii	"uint64_t\000"
 2726      36345F74 
 2726      00
 2727              	.LASF91:
 2728 003f 6B65726E 		.ascii	"kernel_stats\000"
 2728      656C5F73 
 2728      74617473 
 2728      00
 2729              	.LASF6:
 2730 004c 5F5F7569 		.ascii	"__uint8_t\000"
 2730      6E74385F 
 2730      7400
 2731              	.LASF98:
 2732 0056 706F7274 		.ascii	"port_intctx\000"
 2732      5F696E74 
 2732      63747800 
 2733              	.LASF164:
 2734 0062 76615F6C 		.ascii	"va_list\000"
 2734      69737400 
 2735              	.LASF80:
 2736 006a 73797374 		.ascii	"system_debug_t\000"
 2736      656D5F64 
 2736      65627567 
 2736      5F7400
 2737              	.LASF111:
 2738 0079 776F7273 		.ascii	"worst\000"
 2738      7400
 2739              	.LASF114:
 2740 007f 74696D65 		.ascii	"time_measurement_t\000"
 2740      5F6D6561 
 2740      73757265 
 2740      6D656E74 
 2740      5F7400
 2741              	.LASF0:
 2742 0092 6C6F6E67 		.ascii	"long long unsigned int\000"
 2742      206C6F6E 
 2742      6720756E 
 2742      7369676E 
 2742      65642069 
 2743              	.LASF167:
 2744 00a9 666F726D 		.ascii	"formatted_bytes\000"
 2744      61747465 
 2744      645F6279 
 2744      74657300 
 2745              	.LASF142:
ARM GAS  /var/folders/d2/nstgp4h54kz7g1l847x_b8wc0000gn/T//ccrcU65b.s 			page 50


 2746 00b9 63685F74 		.ascii	"ch_threadsize\000"
 2746      68726561 
 2746      6473697A 
 2746      6500
 2747              	.LASF121:
 2748 00c7 65786974 		.ascii	"exitcode\000"
 2748      636F6465 
 2748      00
 2749              	.LASF90:
 2750 00d0 6D61696E 		.ascii	"mainthread\000"
 2750      74687265 
 2750      616400
 2751              	.LASF168:
 2752 00db 63685265 		.ascii	"chRegFirstThread\000"
 2752      67466972 
 2752      73745468 
 2752      72656164 
 2752      00
 2753              	.LASF93:
 2754 00ec 49544D5F 		.ascii	"ITM_RxBuffer\000"
 2754      52784275 
 2754      66666572 
 2754      00
 2755              	.LASF22:
 2756 00f9 72747469 		.ascii	"rttime_t\000"
 2756      6D655F74 
 2756      00
 2757              	.LASF36:
 2758 0102 705F7072 		.ascii	"p_prio\000"
 2758      696F00
 2759              	.LASF149:
 2760 0109 63665F6F 		.ascii	"cf_off_state\000"
 2760      66665F73 
 2760      74617465 
 2760      00
 2761              	.LASF165:
 2762 0116 746D7031 		.ascii	"tmp1\000"
 2762      00
 2763              	.LASF166:
 2764 011b 746D7032 		.ascii	"tmp2\000"
 2764      00
 2765              	.LASF156:
 2766 0120 6D757465 		.ascii	"mutex_t\000"
 2766      785F7400 
 2767              	.LASF2:
 2768 0128 6C6F6E67 		.ascii	"long long int\000"
 2768      206C6F6E 
 2768      6720696E 
 2768      7400
 2769              	.LASF4:
 2770 0136 7369676E 		.ascii	"signed char\000"
 2770      65642063 
 2770      68617200 
 2771              	.LASF148:
 2772 0142 63665F6F 		.ascii	"cf_off_stklimit\000"
 2772      66665F73 
 2772      746B6C69 
ARM GAS  /var/folders/d2/nstgp4h54kz7g1l847x_b8wc0000gn/T//ccrcU65b.s 			page 51


 2772      6D697400 
 2773              	.LASF53:
 2774 0152 705F6D70 		.ascii	"p_mpool\000"
 2774      6F6F6C00 
 2775              	.LASF89:
 2776 015a 76746C69 		.ascii	"vtlist\000"
 2776      737400
 2777              	.LASF26:
 2778 0161 74736C69 		.ascii	"tslices_t\000"
 2778      6365735F 
 2778      7400
 2779              	.LASF123:
 2780 016b 77747472 		.ascii	"wttrp\000"
 2780      7000
 2781              	.LASF87:
 2782 0171 63685F73 		.ascii	"ch_system\000"
 2782      79737465 
 2782      6D00
 2783              	.LASF12:
 2784 017b 6C6F6E67 		.ascii	"long int\000"
 2784      20696E74 
 2784      00
 2785              	.LASF24:
 2786 0184 74737461 		.ascii	"tstate_t\000"
 2786      74655F74 
 2786      00
 2787              	.LASF162:
 2788 018d 5F5F7661 		.ascii	"__va_list\000"
 2788      5F6C6973 
 2788      7400
 2789              	.LASF100:
 2790 0197 73655F74 		.ascii	"se_tp\000"
 2790      7000
 2791              	.LASF154:
 2792 019d 63686465 		.ascii	"chdebug_t\000"
 2792      6275675F 
 2792      7400
 2793              	.LASF38:
 2794 01a7 705F6E65 		.ascii	"p_newer\000"
 2794      77657200 
 2795              	.LASF128:
 2796 01af 735F7175 		.ascii	"s_queue\000"
 2796      65756500 
 2797              	.LASF104:
 2798 01b7 74625F73 		.ascii	"tb_size\000"
 2798      697A6500 
 2799              	.LASF66:
 2800 01bf 725F6E65 		.ascii	"r_newer\000"
 2800      77657200 
 2801              	.LASF95:
 2802 01c7 72656761 		.ascii	"regarm_t\000"
 2802      726D5F74 
 2802      00
 2803              	.LASF73:
 2804 01d0 76745F70 		.ascii	"vt_prev\000"
 2804      72657600 
 2805              	.LASF81:
ARM GAS  /var/folders/d2/nstgp4h54kz7g1l847x_b8wc0000gn/T//ccrcU65b.s 			page 52


 2806 01d8 63685F73 		.ascii	"ch_system_debug\000"
 2806      79737465 
 2806      6D5F6465 
 2806      62756700 
 2807              	.LASF134:
 2808 01e8 6D5F636E 		.ascii	"m_cnt\000"
 2808      7400
 2809              	.LASF72:
 2810 01ee 76745F6E 		.ascii	"vt_next\000"
 2810      65787400 
 2811              	.LASF160:
 2812 01f6 42617365 		.ascii	"BaseSequentialStream\000"
 2812      53657175 
 2812      656E7469 
 2812      616C5374 
 2812      7265616D 
 2813              	.LASF92:
 2814 020b 69646C65 		.ascii	"idle_thread_wa\000"
 2814      5F746872 
 2814      6561645F 
 2814      776100
 2815              	.LASF30:
 2816 021a 636E745F 		.ascii	"cnt_t\000"
 2816      7400
 2817              	.LASF41:
 2818 0220 705F7374 		.ascii	"p_stklimit\000"
 2818      6B6C696D 
 2818      697400
 2819              	.LASF1:
 2820 022b 756E7369 		.ascii	"unsigned int\000"
 2820      676E6564 
 2820      20696E74 
 2820      00
 2821              	.LASF171:
 2822 0238 474E5520 		.ascii	"GNU C11 7.2.1 20170904 (release) [ARM/embedded-7-br"
 2822      43313120 
 2822      372E322E 
 2822      31203230 
 2822      31373039 
 2823 026b 616E6368 		.ascii	"anch revision 255204] -mcpu=cortex-m4 -mfloat-abi=h"
 2823      20726576 
 2823      6973696F 
 2823      6E203235 
 2823      35323034 
 2824 029e 61726420 		.ascii	"ard -mfpu=fpv4-sp-d16 -mno-thumb-interwork -mthumb "
 2824      2D6D6670 
 2824      753D6670 
 2824      76342D73 
 2824      702D6431 
 2825 02d1 2D676764 		.ascii	"-ggdb -O2 -fomit-frame-pointer -falign-functions=16"
 2825      62202D4F 
 2825      32202D66 
 2825      6F6D6974 
 2825      2D667261 
 2826 0304 202D666E 		.ascii	" -fno-strict-aliasing -fstack-protector-all -ffunct"
 2826      6F2D7374 
 2826      72696374 
ARM GAS  /var/folders/d2/nstgp4h54kz7g1l847x_b8wc0000gn/T//ccrcU65b.s 			page 53


 2826      2D616C69 
 2826      6173696E 
 2827 0337 696F6E2D 		.ascii	"ion-sections -fdata-sections -fno-common -fsingle-p"
 2827      73656374 
 2827      696F6E73 
 2827      202D6664 
 2827      6174612D 
 2828 036a 72656369 		.ascii	"recision-constant\000"
 2828      73696F6E 
 2828      2D636F6E 
 2828      7374616E 
 2828      7400
 2829              	.LASF17:
 2830 037c 75696E74 		.ascii	"uint16_t\000"
 2830      31365F74 
 2830      00
 2831              	.LASF94:
 2832 0385 53797374 		.ascii	"SystemCoreClock\000"
 2832      656D436F 
 2832      7265436C 
 2832      6F636B00 
 2833              	.LASF46:
 2834 0395 705F7469 		.ascii	"p_time\000"
 2834      6D6500
 2835              	.LASF124:
 2836 039c 77747365 		.ascii	"wtsemp\000"
 2836      6D7000
 2837              	.LASF74:
 2838 03a3 76745F64 		.ascii	"vt_delta\000"
 2838      656C7461 
 2838      00
 2839              	.LASF48:
 2840 03ac 705F6D73 		.ascii	"p_msgqueue\000"
 2840      67717565 
 2840      756500
 2841              	.LASF155:
 2842 03b7 63685F64 		.ascii	"ch_debug\000"
 2842      65627567 
 2842      00
 2843              	.LASF115:
 2844 03c0 6E5F6972 		.ascii	"n_irq\000"
 2844      7100
 2845              	.LASF129:
 2846 03c6 735F636E 		.ascii	"s_cnt\000"
 2846      7400
 2847              	.LASF10:
 2848 03cc 73686F72 		.ascii	"short unsigned int\000"
 2848      7420756E 
 2848      7369676E 
 2848      65642069 
 2848      6E7400
 2849              	.LASF119:
 2850 03df 6B65726E 		.ascii	"kernel_stats_t\000"
 2850      656C5F73 
 2850      74617473 
 2850      5F7400
 2851              	.LASF57:
ARM GAS  /var/folders/d2/nstgp4h54kz7g1l847x_b8wc0000gn/T//ccrcU65b.s 			page 54


 2852 03ee 63685F74 		.ascii	"ch_thread\000"
 2852      68726561 
 2852      6400
 2853              	.LASF173:
 2854 03f8 2F557365 		.ascii	"/Users/bharathkeshavamurthy/Workspaces/Talos/src/ma"
 2854      72732F62 
 2854      68617261 
 2854      74686B65 
 2854      73686176 
 2855 042b 696E2F63 		.ascii	"in/cpp/org/purdue/ece/talos/optimize\000"
 2855      70702F6F 
 2855      72672F70 
 2855      75726475 
 2855      652F6563 
 2856              	.LASF172:
 2857 0450 2E2E2F65 		.ascii	"../e-puck2_main-processor/src/uc_usage.c\000"
 2857      2D707563 
 2857      6B325F6D 
 2857      61696E2D 
 2857      70726F63 
 2858              	.LASF28:
 2859 0479 6D73675F 		.ascii	"msg_t\000"
 2859      7400
 2860              	.LASF112:
 2861 047f 6C617374 		.ascii	"last\000"
 2861      00
 2862              	.LASF31:
 2863 0484 75636E74 		.ascii	"ucnt_t\000"
 2863      5F7400
 2864              	.LASF86:
 2865 048b 63685F73 		.ascii	"ch_system_t\000"
 2865      79737465 
 2865      6D5F7400 
 2866              	.LASF153:
 2867 0497 63665F6F 		.ascii	"cf_off_time\000"
 2867      66665F74 
 2867      696D6500 
 2868              	.LASF118:
 2869 04a3 6D5F6372 		.ascii	"m_crit_isr\000"
 2869      69745F69 
 2869      737200
 2870              	.LASF62:
 2871 04ae 63685F72 		.ascii	"ch_ready_list\000"
 2871      65616479 
 2871      5F6C6973 
 2871      7400
 2872              	.LASF29:
 2873 04bc 6576656E 		.ascii	"eventmask_t\000"
 2873      746D6173 
 2873      6B5F7400 
 2874              	.LASF11:
 2875 04c8 5F5F696E 		.ascii	"__int32_t\000"
 2875      7433325F 
 2875      7400
 2876              	.LASF77:
 2877 04d2 76697274 		.ascii	"virtual_timers_list_t\000"
 2877      75616C5F 
ARM GAS  /var/folders/d2/nstgp4h54kz7g1l847x_b8wc0000gn/T//ccrcU65b.s 			page 55


 2877      74696D65 
 2877      72735F6C 
 2877      6973745F 
 2878              	.LASF96:
 2879 04e8 73746B61 		.ascii	"stkalign_t\000"
 2879      6C69676E 
 2879      5F7400
 2880              	.LASF56:
 2881 04f3 74687265 		.ascii	"threads_list_t\000"
 2881      6164735F 
 2881      6C697374 
 2881      5F7400
 2882              	.LASF137:
 2883 0502 63685F7A 		.ascii	"ch_zero\000"
 2883      65726F00 
 2884              	.LASF158:
 2885 050a 77726974 		.ascii	"write\000"
 2885      6500
 2886              	.LASF47:
 2887 0510 705F7761 		.ascii	"p_waiting\000"
 2887      6974696E 
 2887      6700
 2888              	.LASF21:
 2889 051a 7274636E 		.ascii	"rtcnt_t\000"
 2889      745F7400 
 2890              	.LASF78:
 2891 0522 63685F76 		.ascii	"ch_virtual_timers_list\000"
 2891      69727475 
 2891      616C5F74 
 2891      696D6572 
 2891      735F6C69 
 2892              	.LASF3:
 2893 0539 6C6F6E67 		.ascii	"long double\000"
 2893      20646F75 
 2893      626C6500 
 2894              	.LASF141:
 2895 0545 63685F74 		.ascii	"ch_timesize\000"
 2895      696D6573 
 2895      697A6500 
 2896              	.LASF105:
 2897 0551 74625F70 		.ascii	"tb_ptr\000"
 2897      747200
 2898              	.LASF161:
 2899 0558 5F5F676E 		.ascii	"__gnuc_va_list\000"
 2899      75635F76 
 2899      615F6C69 
 2899      737400
 2900              	.LASF103:
 2901 0567 63685F73 		.ascii	"ch_swc_event_t\000"
 2901      77635F65 
 2901      76656E74 
 2901      5F7400
 2902              	.LASF147:
 2903 0576 63665F6F 		.ascii	"cf_off_name\000"
 2903      66665F6E 
 2903      616D6500 
 2904              	.LASF107:
ARM GAS  /var/folders/d2/nstgp4h54kz7g1l847x_b8wc0000gn/T//ccrcU65b.s 			page 56


 2905 0582 63685F74 		.ascii	"ch_trace_buffer_t\000"
 2905      72616365 
 2905      5F627566 
 2905      6665725F 
 2905      7400
 2906              	.LASF39:
 2907 0594 705F6F6C 		.ascii	"p_older\000"
 2907      64657200 
 2908              	.LASF65:
 2909 059c 725F6374 		.ascii	"r_ctx\000"
 2909      7800
 2910              	.LASF37:
 2911 05a2 705F6374 		.ascii	"p_ctx\000"
 2911      7800
 2912              	.LASF109:
 2913 05a8 746D5F63 		.ascii	"tm_calibration_t\000"
 2913      616C6962 
 2913      72617469 
 2913      6F6E5F74 
 2913      00
 2914              	.LASF84:
 2915 05b9 6C6F636B 		.ascii	"lock_cnt\000"
 2915      5F636E74 
 2915      00
 2916              	.LASF68:
 2917 05c2 725F6375 		.ascii	"r_current\000"
 2917      7272656E 
 2917      7400
 2918              	.LASF67:
 2919 05cc 725F6F6C 		.ascii	"r_older\000"
 2919      64657200 
 2920              	.LASF15:
 2921 05d4 5F5F7569 		.ascii	"__uint64_t\000"
 2921      6E743634 
 2921      5F7400
 2922              	.LASF113:
 2923 05df 63756D75 		.ascii	"cumulative\000"
 2923      6C617469 
 2923      766500
 2924              	.LASF25:
 2925 05ea 74726566 		.ascii	"trefs_t\000"
 2925      735F7400 
 2926              	.LASF106:
 2927 05f2 74625F62 		.ascii	"tb_buffer\000"
 2927      75666665 
 2927      7200
 2928              	.LASF140:
 2929 05fc 63685F70 		.ascii	"ch_ptrsize\000"
 2929      74727369 
 2929      7A6500
 2930              	.LASF70:
 2931 0607 76697274 		.ascii	"virtual_timer_t\000"
 2931      75616C5F 
 2931      74696D65 
 2931      725F7400 
 2932              	.LASF35:
 2933 0617 705F7072 		.ascii	"p_prev\000"
ARM GAS  /var/folders/d2/nstgp4h54kz7g1l847x_b8wc0000gn/T//ccrcU65b.s 			page 57


 2933      657600
 2934              	.LASF27:
 2935 061e 74707269 		.ascii	"tprio_t\000"
 2935      6F5F7400 
 2936              	.LASF40:
 2937 0626 705F6E61 		.ascii	"p_name\000"
 2937      6D6500
 2938              	.LASF116:
 2939 062d 6E5F6374 		.ascii	"n_ctxswc\000"
 2939      78737763 
 2939      00
 2940              	.LASF18:
 2941 0636 696E7433 		.ascii	"int32_t\000"
 2941      325F7400 
 2942              	.LASF7:
 2943 063e 756E7369 		.ascii	"unsigned char\000"
 2943      676E6564 
 2943      20636861 
 2943      7200
 2944              	.LASF131:
 2945 064c 6D5F7175 		.ascii	"m_queue\000"
 2945      65756500 
 2946              	.LASF51:
 2947 0654 705F6D74 		.ascii	"p_mtxlist\000"
 2947      786C6973 
 2947      7400
 2948              	.LASF8:
 2949 065e 73686F72 		.ascii	"short int\000"
 2949      7420696E 
 2949      7400
 2950              	.LASF42:
 2951 0668 705F7374 		.ascii	"p_state\000"
 2951      61746500 
 2952              	.LASF45:
 2953 0670 705F7072 		.ascii	"p_preempt\000"
 2953      65656D70 
 2953      7400
 2954              	.LASF64:
 2955 067a 725F7072 		.ascii	"r_prio\000"
 2955      696F00
 2956              	.LASF126:
 2957 0681 65776D61 		.ascii	"ewmask\000"
 2957      736B00
 2958              	.LASF34:
 2959 0688 705F6E65 		.ascii	"p_next\000"
 2959      787400
 2960              	.LASF23:
 2961 068f 746D6F64 		.ascii	"tmode_t\000"
 2961      655F7400 
 2962              	.LASF152:
 2963 0697 63665F6F 		.ascii	"cf_off_preempt\000"
 2963      66665F70 
 2963      7265656D 
 2963      707400
 2964              	.LASF43:
 2965 06a6 705F666C 		.ascii	"p_flags\000"
 2965      61677300 
ARM GAS  /var/folders/d2/nstgp4h54kz7g1l847x_b8wc0000gn/T//ccrcU65b.s 			page 58


 2966              	.LASF54:
 2967 06ae 705F7374 		.ascii	"p_stats\000"
 2967      61747300 
 2968              	.LASF120:
 2969 06b6 7264796D 		.ascii	"rdymsg\000"
 2969      736700
 2970              	.LASF59:
 2971 06bd 74687265 		.ascii	"threads_queue_t\000"
 2971      6164735F 
 2971      71756575 
 2971      655F7400 
 2972              	.LASF71:
 2973 06cd 63685F76 		.ascii	"ch_virtual_timer\000"
 2973      69727475 
 2973      616C5F74 
 2973      696D6572 
 2973      00
 2974              	.LASF145:
 2975 06de 63665F6F 		.ascii	"cf_off_newer\000"
 2975      66665F6E 
 2975      65776572 
 2975      00
 2976              	.LASF176:
 2977 06eb 5F5F7374 		.ascii	"__stack_chk_fail\000"
 2977      61636B5F 
 2977      63686B5F 
 2977      6661696C 
 2977      00
 2978              	.LASF127:
 2979 06fc 63685F73 		.ascii	"ch_semaphore\000"
 2979      656D6170 
 2979      686F7265 
 2979      00
 2980              	.LASF50:
 2981 0709 705F6570 		.ascii	"p_epending\000"
 2981      656E6469 
 2981      6E6700
 2982              	.LASF157:
 2983 0714 42617365 		.ascii	"BaseSequentialStreamVMT\000"
 2983      53657175 
 2983      656E7469 
 2983      616C5374 
 2983      7265616D 
 2984              	.LASF143:
 2985 072c 63665F6F 		.ascii	"cf_off_prio\000"
 2985      66665F70 
 2985      72696F00 
 2986              	.LASF63:
 2987 0738 725F7175 		.ascii	"r_queue\000"
 2987      65756500 
 2988              	.LASF58:
 2989 0740 63685F74 		.ascii	"ch_threads_list\000"
 2989      68726561 
 2989      64735F6C 
 2989      69737400 
 2990              	.LASF138:
 2991 0750 63685F73 		.ascii	"ch_size\000"
ARM GAS  /var/folders/d2/nstgp4h54kz7g1l847x_b8wc0000gn/T//ccrcU65b.s 			page 59


 2991      697A6500 
 2992              	.LASF14:
 2993 0758 6C6F6E67 		.ascii	"long unsigned int\000"
 2993      20756E73 
 2993      69676E65 
 2993      6420696E 
 2993      7400
 2994              	.LASF159:
 2995 076a 72656164 		.ascii	"read\000"
 2995      00
 2996              	.LASF135:
 2997 076f 63686172 		.ascii	"char\000"
 2997      00
 2998              	.LASF169:
 2999 0774 63685265 		.ascii	"chRegNextThread\000"
 2999      674E6578 
 2999      74546872 
 2999      65616400 
 3000              	.LASF125:
 3001 0784 77746D74 		.ascii	"wtmtxp\000"
 3001      787000
 3002              	.LASF9:
 3003 078b 5F5F7569 		.ascii	"__uint16_t\000"
 3003      6E743136 
 3003      5F7400
 3004              	.LASF33:
 3005 0796 74687265 		.ascii	"thread_t\000"
 3005      61645F74 
 3005      00
 3006              	.LASF110:
 3007 079f 62657374 		.ascii	"best\000"
 3007      00
 3008              	.LASF133:
 3009 07a4 6D5F6E65 		.ascii	"m_next\000"
 3009      787400
 3010              	.LASF32:
 3011 07ab 73797374 		.ascii	"systime_t\000"
 3011      696D655F 
 3011      7400
 3012              	.LASF52:
 3013 07b5 705F7265 		.ascii	"p_realprio\000"
 3013      616C7072 
 3013      696F00
 3014              	.LASF69:
 3015 07c0 76746675 		.ascii	"vtfunc_t\000"
 3015      6E635F74 
 3015      00
 3016              	.LASF13:
 3017 07c9 5F5F7569 		.ascii	"__uint32_t\000"
 3017      6E743332 
 3017      5F7400
 3018              	.LASF82:
 3019 07d4 70616E69 		.ascii	"panic_msg\000"
 3019      635F6D73 
 3019      6700
 3020              	.LASF108:
 3021 07de 6F666673 		.ascii	"offset\000"
ARM GAS  /var/folders/d2/nstgp4h54kz7g1l847x_b8wc0000gn/T//ccrcU65b.s 			page 60


 3021      657400
 3022              	.LASF150:
 3023 07e5 63665F6F 		.ascii	"cf_off_flags\000"
 3023      66665F66 
 3023      6C616773 
 3023      00
 3024              	.LASF163:
 3025 07f2 5F5F6170 		.ascii	"__ap\000"
 3025      00
 3026              	.LASF97:
 3027 07f7 636F6E74 		.ascii	"context\000"
 3027      65787400 
 3028              	.LASF49:
 3029 07ff 705F6D73 		.ascii	"p_msg\000"
 3029      6700
 3030              	.LASF76:
 3031 0805 76745F70 		.ascii	"vt_par\000"
 3031      617200
 3032              	.LASF19:
 3033 080c 75696E74 		.ascii	"uint32_t\000"
 3033      33325F74 
 3033      00
 3034              	.LASF144:
 3035 0815 63665F6F 		.ascii	"cf_off_ctx\000"
 3035      66665F63 
 3035      747800
 3036              	.LASF130:
 3037 0820 63685F6D 		.ascii	"ch_mutex\000"
 3037      75746578 
 3037      00
 3038              	.LASF44:
 3039 0829 705F7265 		.ascii	"p_refs\000"
 3039      667300
 3040              	.LASF83:
 3041 0830 6973725F 		.ascii	"isr_cnt\000"
 3041      636E7400 
 3042              	.LASF102:
 3043 0838 73655F73 		.ascii	"se_state\000"
 3043      74617465 
 3043      00
 3044              	.LASF88:
 3045 0841 726C6973 		.ascii	"rlist\000"
 3045      7400
 3046              	.LASF16:
 3047 0847 75696E74 		.ascii	"uint8_t\000"
 3047      385F7400 
 3048              	.LASF170:
 3049 084f 63687670 		.ascii	"chvprintf\000"
 3049      72696E74 
 3049      6600
 3050              	.LASF55:
 3051 0859 74687265 		.ascii	"thread_reference_t\000"
 3051      61645F72 
 3051      65666572 
 3051      656E6365 
 3051      5F7400
 3052              	.LASF122:
ARM GAS  /var/folders/d2/nstgp4h54kz7g1l847x_b8wc0000gn/T//ccrcU65b.s 			page 61


 3053 086c 77746F62 		.ascii	"wtobjp\000"
 3053      6A7000
 3054              	.LASF79:
 3055 0873 76745F73 		.ascii	"vt_systime\000"
 3055      79737469 
 3055      6D6500
 3056              	.LASF85:
 3057 087e 74726163 		.ascii	"trace_buffer\000"
 3057      655F6275 
 3057      66666572 
 3057      00
 3058              	.LASF139:
 3059 088b 63685F76 		.ascii	"ch_version\000"
 3059      65727369 
 3059      6F6E00
 3060              	.LASF151:
 3061 0896 63665F6F 		.ascii	"cf_off_refs\000"
 3061      66665F72 
 3061      65667300 
 3062              	.LASF117:
 3063 08a2 6D5F6372 		.ascii	"m_crit_thd\000"
 3063      69745F74 
 3063      686400
 3064              	.LASF132:
 3065 08ad 6D5F6F77 		.ascii	"m_owner\000"
 3065      6E657200 
 3066              	.LASF101:
 3067 08b5 73655F77 		.ascii	"se_wtobjp\000"
 3067      746F626A 
 3067      7000
 3068              	.LASF136:
 3069 08bf 63685F69 		.ascii	"ch_identifier\000"
 3069      64656E74 
 3069      69666965 
 3069      7200
 3070              	.LASF75:
 3071 08cd 76745F66 		.ascii	"vt_func\000"
 3071      756E6300 
 3072              	.LASF60:
 3073 08d5 63685F74 		.ascii	"ch_threads_queue\000"
 3073      68726561 
 3073      64735F71 
 3073      75657565 
 3073      00
 3074              	.LASF175:
 3075 08e6 63687072 		.ascii	"chprintf\000"
 3075      696E7466 
 3075      00
 3076              		.ident	"GCC: (GNU Tools for Arm Embedded Processors 7-2017-q4-major) 7.2.1 20170904 (release) [ARM
ARM GAS  /var/folders/d2/nstgp4h54kz7g1l847x_b8wc0000gn/T//ccrcU65b.s 			page 62


DEFINED SYMBOLS
                            *ABS*:0000000000000000 uc_usage.c
/var/folders/d2/nstgp4h54kz7g1l847x_b8wc0000gn/T//ccrcU65b.s:18     .text.chprintf:0000000000000000 $t
/var/folders/d2/nstgp4h54kz7g1l847x_b8wc0000gn/T//ccrcU65b.s:25     .text.chprintf:0000000000000000 chprintf
/var/folders/d2/nstgp4h54kz7g1l847x_b8wc0000gn/T//ccrcU65b.s:82     .text.chprintf:0000000000000030 $d
/var/folders/d2/nstgp4h54kz7g1l847x_b8wc0000gn/T//ccrcU65b.s:88     .text.printUcUsage:0000000000000000 $t
/var/folders/d2/nstgp4h54kz7g1l847x_b8wc0000gn/T//ccrcU65b.s:96     .text.printUcUsage:0000000000000000 printUcUsage
/var/folders/d2/nstgp4h54kz7g1l847x_b8wc0000gn/T//ccrcU65b.s:336    .text.printUcUsage:00000000000001e0 $d
/var/folders/d2/nstgp4h54kz7g1l847x_b8wc0000gn/T//ccrcU65b.s:348    .bss.sum.7868:0000000000000000 $d
/var/folders/d2/nstgp4h54kz7g1l847x_b8wc0000gn/T//ccrcU65b.s:352    .bss.sum.7868:0000000000000000 sum.7868
/var/folders/d2/nstgp4h54kz7g1l847x_b8wc0000gn/T//ccrcU65b.s:355    .rodata.printUcUsage.str1.4:0000000000000000 $d

UNDEFINED SYMBOLS
chvprintf
__stack_chk_fail
__stack_chk_guard
__aeabi_uldivmod
chRegFirstThread
chRegNextThread
ch
