ARM GAS  /var/folders/d2/nstgp4h54kz7g1l847x_b8wc0000gn/T//ccS6Toqb.s 			page 1


   1              		.cpu cortex-m4
   2              		.eabi_attribute 27, 1
   3              		.eabi_attribute 28, 1
   4              		.eabi_attribute 20, 1
   5              		.eabi_attribute 21, 1
   6              		.eabi_attribute 23, 3
   7              		.eabi_attribute 24, 1
   8              		.eabi_attribute 25, 1
   9              		.eabi_attribute 26, 1
  10              		.eabi_attribute 30, 2
  11              		.eabi_attribute 34, 1
  12              		.eabi_attribute 18, 4
  13              		.file	"usb.c"
  14              		.text
  15              	.Ltext0:
  16              		.cfi_sections	.debug_frame
  17              		.section	.text.usbInit,"ax",%progbits
  18              		.align	1
  19              		.p2align 4,,15
  20              		.global	usbInit
  21              		.syntax unified
  22              		.thumb
  23              		.thumb_func
  24              		.fpu fpv4-sp-d16
  25              		.type	usbInit, %function
  26              	usbInit:
  27              	.LFB259:
  28              		.file 1 "../e-puck2_main-processor/ChibiOS//os/hal/src/usb.c"
  29              		.loc 1 254 0
  30              		.cfi_startproc
  31              		@ args = 0, pretend = 0, frame = 8
  32              		@ frame_needed = 0, uses_anonymous_args = 0
  33 0000 00B5     		push	{lr}
  34              		.cfi_def_cfa_offset 4
  35              		.cfi_offset 14, -4
  36 0002 074B     		ldr	r3, .L7
  37 0004 83B0     		sub	sp, sp, #12
  38              		.cfi_def_cfa_offset 16
  39              		.loc 1 254 0
  40 0006 1A68     		ldr	r2, [r3]
  41 0008 0192     		str	r2, [sp, #4]
  42              		.loc 1 256 0
  43 000a 019A     		ldr	r2, [sp, #4]
  44 000c 1B68     		ldr	r3, [r3]
  45 000e 9A42     		cmp	r2, r3
  46 0010 04D1     		bne	.L6
  47              		.loc 1 257 0
  48 0012 03B0     		add	sp, sp, #12
  49              		.cfi_remember_state
  50              		.cfi_def_cfa_offset 4
  51              		@ sp needed
  52 0014 5DF804EB 		ldr	lr, [sp], #4
  53              		.cfi_restore 14
  54              		.cfi_def_cfa_offset 0
  55              		.loc 1 256 0
  56 0018 FFF7FEBF 		b	usb_lld_init
  57              	.LVL0:
ARM GAS  /var/folders/d2/nstgp4h54kz7g1l847x_b8wc0000gn/T//ccS6Toqb.s 			page 2


  58              	.L6:
  59              		.cfi_restore_state
  60 001c FFF7FEFF 		bl	__stack_chk_fail
  61              	.LVL1:
  62              	.L8:
  63              		.align	2
  64              	.L7:
  65 0020 00000000 		.word	__stack_chk_guard
  66              		.cfi_endproc
  67              	.LFE259:
  68              		.size	usbInit, .-usbInit
  69              		.section	.text.usbObjectInit,"ax",%progbits
  70              		.align	1
  71              		.p2align 4,,15
  72              		.global	usbObjectInit
  73              		.syntax unified
  74              		.thumb
  75              		.thumb_func
  76              		.fpu fpv4-sp-d16
  77              		.type	usbObjectInit, %function
  78              	usbObjectInit:
  79              	.LFB260:
  80              		.loc 1 266 0
  81              		.cfi_startproc
  82              		@ args = 0, pretend = 0, frame = 8
  83              		@ frame_needed = 0, uses_anonymous_args = 0
  84              	.LVL2:
  85 0000 00B5     		push	{lr}
  86              		.cfi_def_cfa_offset 4
  87              		.cfi_offset 14, -4
  88 0002 0C4B     		ldr	r3, .L13
  89 0004 83B0     		sub	sp, sp, #12
  90              		.cfi_def_cfa_offset 16
  91              		.loc 1 266 0
  92 0006 1A68     		ldr	r2, [r3]
  93 0008 0192     		str	r2, [sp, #4]
  94              		.loc 1 269 0
  95 000a 0122     		movs	r2, #1
  96 000c 0270     		strb	r2, [r0]
  97              	.LVL3:
  98              		.loc 1 277 0
  99 000e 0199     		ldr	r1, [sp, #4]
 100 0010 1A68     		ldr	r2, [r3]
 101              		.loc 1 272 0
 102 0012 0023     		movs	r3, #0
 103              		.loc 1 277 0
 104 0014 9142     		cmp	r1, r2
 105              		.loc 1 272 0
 106 0016 C361     		str	r3, [r0, #28]
 107              		.loc 1 273 0
 108 0018 8362     		str	r3, [r0, #40]
 109              	.LVL4:
 110              		.loc 1 272 0
 111 001a 0362     		str	r3, [r0, #32]
 112              		.loc 1 273 0
 113 001c C362     		str	r3, [r0, #44]
 114              	.LVL5:
ARM GAS  /var/folders/d2/nstgp4h54kz7g1l847x_b8wc0000gn/T//ccS6Toqb.s 			page 3


 115              		.loc 1 272 0
 116 001e 4362     		str	r3, [r0, #36]
 117              		.loc 1 273 0
 118 0020 0363     		str	r3, [r0, #48]
 119              	.LVL6:
 120              		.loc 1 270 0
 121 0022 C0E90133 		strd	r3, r3, [r0, #4]
 122              		.loc 1 277 0
 123 0026 02D1     		bne	.L12
 124 0028 03B0     		add	sp, sp, #12
 125              		.cfi_remember_state
 126              		.cfi_def_cfa_offset 4
 127              		@ sp needed
 128 002a 5DF804FB 		ldr	pc, [sp], #4
 129              	.L12:
 130              		.cfi_restore_state
 131 002e FFF7FEFF 		bl	__stack_chk_fail
 132              	.LVL7:
 133              	.L14:
 134 0032 00BF     		.align	2
 135              	.L13:
 136 0034 00000000 		.word	__stack_chk_guard
 137              		.cfi_endproc
 138              	.LFE260:
 139              		.size	usbObjectInit, .-usbObjectInit
 140              		.section	.text.usbStart,"ax",%progbits
 141              		.align	1
 142              		.p2align 4,,15
 143              		.global	usbStart
 144              		.syntax unified
 145              		.thumb
 146              		.thumb_func
 147              		.fpu fpv4-sp-d16
 148              		.type	usbStart, %function
 149              	usbStart:
 150              	.LFB261:
 151              		.loc 1 287 0
 152              		.cfi_startproc
 153              		@ args = 0, pretend = 0, frame = 8
 154              		@ frame_needed = 0, uses_anonymous_args = 0
 155              	.LVL8:
 156 0000 70B5     		push	{r4, r5, r6, lr}
 157              		.cfi_def_cfa_offset 16
 158              		.cfi_offset 4, -16
 159              		.cfi_offset 5, -12
 160              		.cfi_offset 6, -8
 161              		.cfi_offset 14, -4
 162 0002 204D     		ldr	r5, .L27
 163 0004 82B0     		sub	sp, sp, #8
 164              		.cfi_def_cfa_offset 24
 165              		.loc 1 287 0
 166 0006 2B68     		ldr	r3, [r5]
 167 0008 0193     		str	r3, [sp, #4]
 168 000a 0E46     		mov	r6, r1
 169              		.loc 1 290 0
 170 000c 0446     		mov	r4, r0
 171 000e 98B3     		cbz	r0, .L16
ARM GAS  /var/folders/d2/nstgp4h54kz7g1l847x_b8wc0000gn/T//ccS6Toqb.s 			page 4


 172              		.loc 1 290 0 is_stmt 0 discriminator 3
 173 0010 91B3     		cbz	r1, .L16
 174              	.LVL9:
 175              	.L17:
 176              	.LBB212:
 177              	.LBB213:
 178              	.LBB214:
 179              	.LBB215:
 180              	.LBB216:
 181              	.LBB217:
 182              		.file 2 "../e-puck2_main-processor/ChibiOS//os/ext/CMSIS/include/core_cmFunc.h"
 183              		.loc 2 546 0 is_stmt 1
 184 0012 2023     		movs	r3, #32
 185              		.syntax unified
 186              	@ 546 "../e-puck2_main-processor/ChibiOS//os/ext/CMSIS/include/core_cmFunc.h" 1
 187 0014 83F31188 		MSR basepri, r3
 188              	@ 0 "" 2
 189              	.LVL10:
 190              		.thumb
 191              		.syntax unified
 192              	.LBE217:
 193              	.LBE216:
 194              	.LBE215:
 195              		.file 3 "../e-puck2_main-processor/ChibiOS//os/rt/include/chsys.h"
 196              		.loc 3 349 0
 197 0018 FFF7FEFF 		bl	_stats_start_measure_crit_thd
 198              	.LVL11:
 199              		.loc 3 350 0
 200 001c FFF7FEFF 		bl	_dbg_check_lock
 201              	.LVL12:
 202              	.LBE214:
 203              	.LBE213:
 204              	.LBE212:
 205              		.loc 1 293 0
 206 0020 2378     		ldrb	r3, [r4]	@ zero_extendqisi2
 207 0022 013B     		subs	r3, r3, #1
 208 0024 012B     		cmp	r3, #1
 209 0026 02D9     		bls	.L18
 210              		.loc 1 293 0 is_stmt 0 discriminator 2
 211 0028 1748     		ldr	r0, .L27+4
 212 002a FFF7FEFF 		bl	chSysHalt
 213              	.LVL13:
 214              	.L18:
 215              		.loc 1 297 0 is_stmt 1
 216 002e 0023     		movs	r3, #0
 217              		.loc 1 299 0
 218 0030 2046     		mov	r0, r4
 219              		.loc 1 297 0
 220 0032 C4E90333 		strd	r3, r3, [r4, #12]
 221 0036 C4E90533 		strd	r3, r3, [r4, #20]
 222              		.loc 1 295 0
 223 003a 6660     		str	r6, [r4, #4]
 224              	.LVL14:
 225              		.loc 1 299 0
 226 003c FFF7FEFF 		bl	usb_lld_start
 227              	.LVL15:
 228              		.loc 1 300 0
ARM GAS  /var/folders/d2/nstgp4h54kz7g1l847x_b8wc0000gn/T//ccS6Toqb.s 			page 5


 229 0040 0223     		movs	r3, #2
 230 0042 2370     		strb	r3, [r4]
 231              	.LBB218:
 232              	.LBB219:
 233              	.LBB220:
 234              		.loc 3 360 0
 235 0044 FFF7FEFF 		bl	_dbg_check_unlock
 236              	.LVL16:
 237              		.loc 3 361 0
 238 0048 FFF7FEFF 		bl	_stats_stop_measure_crit_thd
 239              	.LVL17:
 240              		.loc 3 367 0
 241 004c 0F4B     		ldr	r3, .L27+8
 242 004e 1A68     		ldr	r2, [r3]
 243 0050 9A42     		cmp	r2, r3
 244 0052 04D0     		beq	.L19
 245 0054 9969     		ldr	r1, [r3, #24]
 246 0056 9368     		ldr	r3, [r2, #8]
 247 0058 8A68     		ldr	r2, [r1, #8]
 248 005a 9A42     		cmp	r2, r3
 249 005c 08D3     		bcc	.L25
 250              	.L19:
 251              	.LVL18:
 252              	.LBB221:
 253              	.LBB222:
 254              	.LBB223:
 255              		.loc 2 546 0
 256 005e 0023     		movs	r3, #0
 257              		.syntax unified
 258              	@ 546 "../e-puck2_main-processor/ChibiOS//os/ext/CMSIS/include/core_cmFunc.h" 1
 259 0060 83F31188 		MSR basepri, r3
 260              	@ 0 "" 2
 261              	.LVL19:
 262              		.thumb
 263              		.syntax unified
 264              	.LBE223:
 265              	.LBE222:
 266              	.LBE221:
 267              	.LBE220:
 268              	.LBE219:
 269              	.LBE218:
 270              		.loc 1 302 0
 271 0064 019A     		ldr	r2, [sp, #4]
 272 0066 2B68     		ldr	r3, [r5]
 273 0068 9A42     		cmp	r2, r3
 274 006a 09D1     		bne	.L26
 275 006c 02B0     		add	sp, sp, #8
 276              		.cfi_remember_state
 277              		.cfi_def_cfa_offset 16
 278              		@ sp needed
 279 006e 70BD     		pop	{r4, r5, r6, pc}
 280              	.LVL20:
 281              	.L25:
 282              		.cfi_restore_state
 283              	.LBB226:
 284              	.LBB225:
 285              	.LBB224:
ARM GAS  /var/folders/d2/nstgp4h54kz7g1l847x_b8wc0000gn/T//ccS6Toqb.s 			page 6


 286              		.loc 3 367 0
 287 0070 0748     		ldr	r0, .L27+12
 288 0072 FFF7FEFF 		bl	chSysHalt
 289              	.LVL21:
 290 0076 F2E7     		b	.L19
 291              	.LVL22:
 292              	.L16:
 293              	.LBE224:
 294              	.LBE225:
 295              	.LBE226:
 296              		.loc 1 290 0 discriminator 4
 297 0078 0348     		ldr	r0, .L27+4
 298              	.LVL23:
 299 007a FFF7FEFF 		bl	chSysHalt
 300              	.LVL24:
 301 007e C8E7     		b	.L17
 302              	.LVL25:
 303              	.L26:
 304              		.loc 1 302 0
 305 0080 FFF7FEFF 		bl	__stack_chk_fail
 306              	.LVL26:
 307              	.L28:
 308              		.align	2
 309              	.L27:
 310 0084 00000000 		.word	__stack_chk_guard
 311 0088 00000000 		.word	.LANCHOR0
 312 008c 00000000 		.word	ch
 313 0090 00000000 		.word	.LANCHOR1
 314              		.cfi_endproc
 315              	.LFE261:
 316              		.size	usbStart, .-usbStart
 317              		.section	.text.usbStop,"ax",%progbits
 318              		.align	1
 319              		.p2align 4,,15
 320              		.global	usbStop
 321              		.syntax unified
 322              		.thumb
 323              		.thumb_func
 324              		.fpu fpv4-sp-d16
 325              		.type	usbStop, %function
 326              	usbStop:
 327              	.LFB262:
 328              		.loc 1 311 0
 329              		.cfi_startproc
 330              		@ args = 0, pretend = 0, frame = 8
 331              		@ frame_needed = 0, uses_anonymous_args = 0
 332              	.LVL27:
 333 0000 30B5     		push	{r4, r5, lr}
 334              		.cfi_def_cfa_offset 12
 335              		.cfi_offset 4, -12
 336              		.cfi_offset 5, -8
 337              		.cfi_offset 14, -4
 338 0002 1C4D     		ldr	r5, .L38
 339 0004 83B0     		sub	sp, sp, #12
 340              		.cfi_def_cfa_offset 24
 341              		.loc 1 311 0
 342 0006 2B68     		ldr	r3, [r5]
ARM GAS  /var/folders/d2/nstgp4h54kz7g1l847x_b8wc0000gn/T//ccS6Toqb.s 			page 7


 343 0008 0193     		str	r3, [sp, #4]
 344              		.loc 1 313 0
 345 000a 0446     		mov	r4, r0
 346 000c 60B3     		cbz	r0, .L35
 347              	.LVL28:
 348              	.L30:
 349              	.LBB240:
 350              	.LBB241:
 351              	.LBB242:
 352              	.LBB243:
 353              	.LBB244:
 354              	.LBB245:
 355              		.loc 2 546 0
 356 000e 2023     		movs	r3, #32
 357              		.syntax unified
 358              	@ 546 "../e-puck2_main-processor/ChibiOS//os/ext/CMSIS/include/core_cmFunc.h" 1
 359 0010 83F31188 		MSR basepri, r3
 360              	@ 0 "" 2
 361              	.LVL29:
 362              		.thumb
 363              		.syntax unified
 364              	.LBE245:
 365              	.LBE244:
 366              	.LBE243:
 367              		.loc 3 349 0
 368 0014 FFF7FEFF 		bl	_stats_start_measure_crit_thd
 369              	.LVL30:
 370              		.loc 3 350 0
 371 0018 FFF7FEFF 		bl	_dbg_check_lock
 372              	.LVL31:
 373              	.LBE242:
 374              	.LBE241:
 375              	.LBE240:
 376              		.loc 1 316 0
 377 001c 2378     		ldrb	r3, [r4]	@ zero_extendqisi2
 378 001e 013B     		subs	r3, r3, #1
 379 0020 032B     		cmp	r3, #3
 380 0022 02D9     		bls	.L31
 381              		.loc 1 316 0 is_stmt 0 discriminator 2
 382 0024 1448     		ldr	r0, .L38+4
 383 0026 FFF7FEFF 		bl	chSysHalt
 384              	.LVL32:
 385              	.L31:
 386              		.loc 1 319 0 is_stmt 1
 387 002a 2046     		mov	r0, r4
 388 002c FFF7FEFF 		bl	usb_lld_stop
 389              	.LVL33:
 390              		.loc 1 320 0
 391 0030 0123     		movs	r3, #1
 392 0032 2370     		strb	r3, [r4]
 393              	.LBB246:
 394              	.LBB247:
 395              	.LBB248:
 396              		.loc 3 360 0
 397 0034 FFF7FEFF 		bl	_dbg_check_unlock
 398              	.LVL34:
 399              		.loc 3 361 0
ARM GAS  /var/folders/d2/nstgp4h54kz7g1l847x_b8wc0000gn/T//ccS6Toqb.s 			page 8


 400 0038 FFF7FEFF 		bl	_stats_stop_measure_crit_thd
 401              	.LVL35:
 402              		.loc 3 367 0
 403 003c 0F4B     		ldr	r3, .L38+8
 404 003e 1A68     		ldr	r2, [r3]
 405 0040 9A42     		cmp	r2, r3
 406 0042 04D0     		beq	.L32
 407 0044 9969     		ldr	r1, [r3, #24]
 408 0046 9368     		ldr	r3, [r2, #8]
 409 0048 8A68     		ldr	r2, [r1, #8]
 410 004a 9A42     		cmp	r2, r3
 411 004c 08D3     		bcc	.L36
 412              	.L32:
 413              	.LVL36:
 414              	.LBB249:
 415              	.LBB250:
 416              	.LBB251:
 417              		.loc 2 546 0
 418 004e 0023     		movs	r3, #0
 419              		.syntax unified
 420              	@ 546 "../e-puck2_main-processor/ChibiOS//os/ext/CMSIS/include/core_cmFunc.h" 1
 421 0050 83F31188 		MSR basepri, r3
 422              	@ 0 "" 2
 423              	.LVL37:
 424              		.thumb
 425              		.syntax unified
 426              	.LBE251:
 427              	.LBE250:
 428              	.LBE249:
 429              	.LBE248:
 430              	.LBE247:
 431              	.LBE246:
 432              		.loc 1 322 0
 433 0054 019A     		ldr	r2, [sp, #4]
 434 0056 2B68     		ldr	r3, [r5]
 435 0058 9A42     		cmp	r2, r3
 436 005a 09D1     		bne	.L37
 437 005c 03B0     		add	sp, sp, #12
 438              		.cfi_remember_state
 439              		.cfi_def_cfa_offset 12
 440              		@ sp needed
 441 005e 30BD     		pop	{r4, r5, pc}
 442              	.LVL38:
 443              	.L36:
 444              		.cfi_restore_state
 445              	.LBB254:
 446              	.LBB253:
 447              	.LBB252:
 448              		.loc 3 367 0
 449 0060 0748     		ldr	r0, .L38+12
 450 0062 FFF7FEFF 		bl	chSysHalt
 451              	.LVL39:
 452 0066 F2E7     		b	.L32
 453              	.LVL40:
 454              	.L35:
 455              	.LBE252:
 456              	.LBE253:
ARM GAS  /var/folders/d2/nstgp4h54kz7g1l847x_b8wc0000gn/T//ccS6Toqb.s 			page 9


 457              	.LBE254:
 458              		.loc 1 313 0 discriminator 2
 459 0068 0348     		ldr	r0, .L38+4
 460              	.LVL41:
 461 006a FFF7FEFF 		bl	chSysHalt
 462              	.LVL42:
 463 006e CEE7     		b	.L30
 464              	.L37:
 465              		.loc 1 322 0
 466 0070 FFF7FEFF 		bl	__stack_chk_fail
 467              	.LVL43:
 468              	.L39:
 469              		.align	2
 470              	.L38:
 471 0074 00000000 		.word	__stack_chk_guard
 472 0078 00000000 		.word	.LANCHOR2
 473 007c 00000000 		.word	ch
 474 0080 00000000 		.word	.LANCHOR1
 475              		.cfi_endproc
 476              	.LFE262:
 477              		.size	usbStop, .-usbStop
 478              		.section	.text.usbInitEndpointI,"ax",%progbits
 479              		.align	1
 480              		.p2align 4,,15
 481              		.global	usbInitEndpointI
 482              		.syntax unified
 483              		.thumb
 484              		.thumb_func
 485              		.fpu fpv4-sp-d16
 486              		.type	usbInitEndpointI, %function
 487              	usbInitEndpointI:
 488              	.LFB263:
 489              		.loc 1 338 0
 490              		.cfi_startproc
 491              		@ args = 0, pretend = 0, frame = 8
 492              		@ frame_needed = 0, uses_anonymous_args = 0
 493              	.LVL44:
 494 0000 2DE9F041 		push	{r4, r5, r6, r7, r8, lr}
 495              		.cfi_def_cfa_offset 24
 496              		.cfi_offset 4, -24
 497              		.cfi_offset 5, -20
 498              		.cfi_offset 6, -16
 499              		.cfi_offset 7, -12
 500              		.cfi_offset 8, -8
 501              		.cfi_offset 14, -4
 502 0004 1D4E     		ldr	r6, .L66
 503 0006 82B0     		sub	sp, sp, #8
 504              		.cfi_def_cfa_offset 32
 505              		.loc 1 338 0
 506 0008 0446     		mov	r4, r0
 507 000a 3368     		ldr	r3, [r6]
 508 000c 0193     		str	r3, [sp, #4]
 509 000e 0F46     		mov	r7, r1
 510 0010 1546     		mov	r5, r2
 511              		.loc 1 340 0
 512 0012 FFF7FEFF 		bl	chDbgCheckClassI
 513              	.LVL45:
ARM GAS  /var/folders/d2/nstgp4h54kz7g1l847x_b8wc0000gn/T//ccS6Toqb.s 			page 10


 514              		.loc 1 341 0
 515 0016 5CB3     		cbz	r4, .L41
 516              		.loc 1 341 0 is_stmt 0 discriminator 3
 517 0018 55B3     		cbz	r5, .L41
 518              	.L42:
 519              		.loc 1 342 0 is_stmt 1 discriminator 1
 520 001a 2378     		ldrb	r3, [r4]	@ zero_extendqisi2
 521 001c 042B     		cmp	r3, #4
 522 001e 02D0     		beq	.L43
 523              		.loc 1 342 0 is_stmt 0 discriminator 2
 524 0020 1748     		ldr	r0, .L66+4
 525 0022 FFF7FEFF 		bl	chSysHalt
 526              	.LVL46:
 527              	.L43:
 528 0026 04EB8708 		add	r8, r4, r7, lsl #2
 529              		.loc 1 344 0 is_stmt 1 discriminator 1
 530 002a D8F80C30 		ldr	r3, [r8, #12]
 531 002e 13B1     		cbz	r3, .L44
 532              		.loc 1 344 0 is_stmt 0 discriminator 2
 533 0030 1348     		ldr	r0, .L66+4
 534 0032 FFF7FEFF 		bl	chSysHalt
 535              	.LVL47:
 536              	.L44:
 537              		.loc 1 347 0 is_stmt 1
 538 0036 6B69     		ldr	r3, [r5, #20]
 539 0038 2BB1     		cbz	r3, .L45
 540              		.loc 1 348 0
 541 003a 0022     		movs	r2, #0
 542 003c 1A60     		str	r2, [r3]	@ unaligned
 543 003e 5A60     		str	r2, [r3, #4]	@ unaligned
 544 0040 9A60     		str	r2, [r3, #8]	@ unaligned
 545 0042 DA60     		str	r2, [r3, #12]	@ unaligned
 546 0044 1A61     		str	r2, [r3, #16]	@ unaligned
 547              	.L45:
 548              		.loc 1 350 0
 549 0046 AB69     		ldr	r3, [r5, #24]
 550 0048 2BB1     		cbz	r3, .L46
 551              		.loc 1 351 0
 552 004a 0022     		movs	r2, #0
 553 004c 1A60     		str	r2, [r3]	@ unaligned
 554 004e 5A60     		str	r2, [r3, #4]	@ unaligned
 555 0050 9A60     		str	r2, [r3, #8]	@ unaligned
 556 0052 DA60     		str	r2, [r3, #12]	@ unaligned
 557 0054 1A61     		str	r2, [r3, #16]	@ unaligned
 558              	.L46:
 559              		.loc 1 357 0
 560 0056 019A     		ldr	r2, [sp, #4]
 561 0058 3368     		ldr	r3, [r6]
 562              		.loc 1 354 0
 563 005a C8F80C50 		str	r5, [r8, #12]
 564              		.loc 1 357 0
 565 005e 9A42     		cmp	r2, r3
 566 0060 0AD1     		bne	.L65
 567 0062 3946     		mov	r1, r7
 568 0064 2046     		mov	r0, r4
 569              		.loc 1 358 0
 570 0066 02B0     		add	sp, sp, #8
ARM GAS  /var/folders/d2/nstgp4h54kz7g1l847x_b8wc0000gn/T//ccS6Toqb.s 			page 11


 571              		.cfi_remember_state
 572              		.cfi_def_cfa_offset 24
 573              		@ sp needed
 574 0068 BDE8F041 		pop	{r4, r5, r6, r7, r8, lr}
 575              		.cfi_restore 14
 576              		.cfi_restore 8
 577              		.cfi_restore 7
 578              		.cfi_restore 6
 579              		.cfi_restore 5
 580              		.cfi_restore 4
 581              		.cfi_def_cfa_offset 0
 582              	.LVL48:
 583              		.loc 1 357 0
 584 006c FFF7FEBF 		b	usb_lld_init_endpoint
 585              	.LVL49:
 586              	.L41:
 587              		.cfi_restore_state
 588              		.loc 1 341 0 discriminator 4
 589 0070 0348     		ldr	r0, .L66+4
 590 0072 FFF7FEFF 		bl	chSysHalt
 591              	.LVL50:
 592 0076 D0E7     		b	.L42
 593              	.L65:
 594              		.loc 1 357 0
 595 0078 FFF7FEFF 		bl	__stack_chk_fail
 596              	.LVL51:
 597              	.L67:
 598              		.align	2
 599              	.L66:
 600 007c 00000000 		.word	__stack_chk_guard
 601 0080 00000000 		.word	.LANCHOR3
 602              		.cfi_endproc
 603              	.LFE263:
 604              		.size	usbInitEndpointI, .-usbInitEndpointI
 605              		.section	.text.usbDisableEndpointsI,"ax",%progbits
 606              		.align	1
 607              		.p2align 4,,15
 608              		.global	usbDisableEndpointsI
 609              		.syntax unified
 610              		.thumb
 611              		.thumb_func
 612              		.fpu fpv4-sp-d16
 613              		.type	usbDisableEndpointsI, %function
 614              	usbDisableEndpointsI:
 615              	.LFB264:
 616              		.loc 1 371 0
 617              		.cfi_startproc
 618              		@ args = 0, pretend = 0, frame = 8
 619              		@ frame_needed = 0, uses_anonymous_args = 0
 620              	.LVL52:
 621 0000 70B5     		push	{r4, r5, r6, lr}
 622              		.cfi_def_cfa_offset 16
 623              		.cfi_offset 4, -16
 624              		.cfi_offset 5, -12
 625              		.cfi_offset 6, -8
 626              		.cfi_offset 14, -4
 627 0002 154D     		ldr	r5, .L79
ARM GAS  /var/folders/d2/nstgp4h54kz7g1l847x_b8wc0000gn/T//ccS6Toqb.s 			page 12


 628 0004 82B0     		sub	sp, sp, #8
 629              		.cfi_def_cfa_offset 24
 630              		.loc 1 371 0
 631 0006 0446     		mov	r4, r0
 632 0008 2B68     		ldr	r3, [r5]
 633 000a 0193     		str	r3, [sp, #4]
 634              		.loc 1 374 0
 635 000c FFF7FEFF 		bl	chDbgCheckClassI
 636              	.LVL53:
 637              		.loc 1 375 0
 638 0010 DCB1     		cbz	r4, .L77
 639              	.L69:
 640              		.loc 1 376 0 discriminator 1
 641 0012 2378     		ldrb	r3, [r4]	@ zero_extendqisi2
 642 0014 032B     		cmp	r3, #3
 643 0016 02D0     		beq	.L70
 644              		.loc 1 376 0 is_stmt 0 discriminator 2
 645 0018 1048     		ldr	r0, .L79+4
 646 001a FFF7FEFF 		bl	chSysHalt
 647              	.LVL54:
 648              	.L70:
 649              		.loc 1 378 0 is_stmt 1
 650 001e 2189     		ldrh	r1, [r4, #8]
 651              		.loc 1 379 0
 652 0020 6289     		ldrh	r2, [r4, #10]
 653              		.loc 1 385 0
 654 0022 019E     		ldr	r6, [sp, #4]
 655 0024 2868     		ldr	r0, [r5]
 656              		.loc 1 381 0
 657 0026 0023     		movs	r3, #0
 658              		.loc 1 378 0
 659 0028 21F00101 		bic	r1, r1, #1
 660              		.loc 1 379 0
 661 002c 22F00102 		bic	r2, r2, #1
 662              		.loc 1 385 0
 663 0030 8642     		cmp	r6, r0
 664              		.loc 1 378 0
 665 0032 2181     		strh	r1, [r4, #8]	@ movhi
 666              		.loc 1 379 0
 667 0034 6281     		strh	r2, [r4, #10]	@ movhi
 668              	.LVL55:
 669              		.loc 1 381 0
 670 0036 C4E90433 		strd	r3, r3, [r4, #16]
 671              	.LVL56:
 672 003a A361     		str	r3, [r4, #24]
 673              	.LVL57:
 674              		.loc 1 385 0
 675 003c 09D1     		bne	.L78
 676 003e 2046     		mov	r0, r4
 677              		.loc 1 386 0
 678 0040 02B0     		add	sp, sp, #8
 679              		.cfi_remember_state
 680              		.cfi_def_cfa_offset 16
 681              		@ sp needed
 682 0042 BDE87040 		pop	{r4, r5, r6, lr}
 683              		.cfi_restore 14
 684              		.cfi_restore 6
ARM GAS  /var/folders/d2/nstgp4h54kz7g1l847x_b8wc0000gn/T//ccS6Toqb.s 			page 13


 685              		.cfi_restore 5
 686              		.cfi_restore 4
 687              		.cfi_def_cfa_offset 0
 688              	.LVL58:
 689              		.loc 1 385 0
 690 0046 FFF7FEBF 		b	usb_lld_disable_endpoints
 691              	.LVL59:
 692              	.L77:
 693              		.cfi_restore_state
 694              		.loc 1 375 0 discriminator 2
 695 004a 0448     		ldr	r0, .L79+4
 696 004c FFF7FEFF 		bl	chSysHalt
 697              	.LVL60:
 698 0050 DFE7     		b	.L69
 699              	.LVL61:
 700              	.L78:
 701              		.loc 1 385 0
 702 0052 FFF7FEFF 		bl	__stack_chk_fail
 703              	.LVL62:
 704              	.L80:
 705 0056 00BF     		.align	2
 706              	.L79:
 707 0058 00000000 		.word	__stack_chk_guard
 708 005c 00000000 		.word	.LANCHOR4
 709              		.cfi_endproc
 710              	.LFE264:
 711              		.size	usbDisableEndpointsI, .-usbDisableEndpointsI
 712              		.section	.text.usbPrepareReceive,"ax",%progbits
 713              		.align	1
 714              		.p2align 4,,15
 715              		.global	usbPrepareReceive
 716              		.syntax unified
 717              		.thumb
 718              		.thumb_func
 719              		.fpu fpv4-sp-d16
 720              		.type	usbPrepareReceive, %function
 721              	usbPrepareReceive:
 722              	.LFB265:
 723              		.loc 1 400 0
 724              		.cfi_startproc
 725              		@ args = 0, pretend = 0, frame = 8
 726              		@ frame_needed = 0, uses_anonymous_args = 0
 727              	.LVL63:
 728 0000 70B5     		push	{r4, r5, r6, lr}
 729              		.cfi_def_cfa_offset 16
 730              		.cfi_offset 4, -16
 731              		.cfi_offset 5, -12
 732              		.cfi_offset 6, -8
 733              		.cfi_offset 14, -4
 734              		.loc 1 401 0
 735 0002 00EB8104 		add	r4, r0, r1, lsl #2
 736              		.loc 1 400 0
 737 0006 0B4E     		ldr	r6, .L86
 738              		.loc 1 401 0
 739 0008 E468     		ldr	r4, [r4, #12]
 740              		.loc 1 400 0
 741 000a 3568     		ldr	r5, [r6]
ARM GAS  /var/folders/d2/nstgp4h54kz7g1l847x_b8wc0000gn/T//ccS6Toqb.s 			page 14


 742              		.loc 1 401 0
 743 000c A469     		ldr	r4, [r4, #24]
 744              	.LVL64:
 745              		.loc 1 400 0
 746 000e 82B0     		sub	sp, sp, #8
 747              		.cfi_def_cfa_offset 24
 748              		.loc 1 404 0
 749 0010 E260     		str	r2, [r4, #12]
 750              		.loc 1 400 0
 751 0012 0195     		str	r5, [sp, #4]
 752              		.loc 1 403 0
 753 0014 0025     		movs	r5, #0
 754 0016 2570     		strb	r5, [r4]
 755              		.loc 1 408 0
 756 0018 019A     		ldr	r2, [sp, #4]
 757              	.LVL65:
 758              		.loc 1 405 0
 759 001a 6360     		str	r3, [r4, #4]
 760              		.loc 1 408 0
 761 001c 3368     		ldr	r3, [r6]
 762              	.LVL66:
 763              		.loc 1 406 0
 764 001e A560     		str	r5, [r4, #8]
 765              		.loc 1 408 0
 766 0020 9A42     		cmp	r2, r3
 767 0022 04D1     		bne	.L85
 768              		.loc 1 409 0
 769 0024 02B0     		add	sp, sp, #8
 770              		.cfi_remember_state
 771              		.cfi_def_cfa_offset 16
 772              		@ sp needed
 773 0026 BDE87040 		pop	{r4, r5, r6, lr}
 774              		.cfi_restore 14
 775              		.cfi_restore 6
 776              		.cfi_restore 5
 777              		.cfi_restore 4
 778              		.cfi_def_cfa_offset 0
 779              	.LVL67:
 780              		.loc 1 408 0
 781 002a FFF7FEBF 		b	usb_lld_prepare_receive
 782              	.LVL68:
 783              	.L85:
 784              		.cfi_restore_state
 785 002e FFF7FEFF 		bl	__stack_chk_fail
 786              	.LVL69:
 787              	.L87:
 788 0032 00BF     		.align	2
 789              	.L86:
 790 0034 00000000 		.word	__stack_chk_guard
 791              		.cfi_endproc
 792              	.LFE265:
 793              		.size	usbPrepareReceive, .-usbPrepareReceive
 794              		.section	.text.usbPrepareTransmit,"ax",%progbits
 795              		.align	1
 796              		.p2align 4,,15
 797              		.global	usbPrepareTransmit
 798              		.syntax unified
ARM GAS  /var/folders/d2/nstgp4h54kz7g1l847x_b8wc0000gn/T//ccS6Toqb.s 			page 15


 799              		.thumb
 800              		.thumb_func
 801              		.fpu fpv4-sp-d16
 802              		.type	usbPrepareTransmit, %function
 803              	usbPrepareTransmit:
 804              	.LFB266:
 805              		.loc 1 426 0
 806              		.cfi_startproc
 807              		@ args = 0, pretend = 0, frame = 8
 808              		@ frame_needed = 0, uses_anonymous_args = 0
 809              	.LVL70:
 810 0000 70B5     		push	{r4, r5, r6, lr}
 811              		.cfi_def_cfa_offset 16
 812              		.cfi_offset 4, -16
 813              		.cfi_offset 5, -12
 814              		.cfi_offset 6, -8
 815              		.cfi_offset 14, -4
 816              		.loc 1 427 0
 817 0002 00EB8104 		add	r4, r0, r1, lsl #2
 818              		.loc 1 426 0
 819 0006 0B4E     		ldr	r6, .L93
 820              		.loc 1 427 0
 821 0008 E468     		ldr	r4, [r4, #12]
 822              		.loc 1 426 0
 823 000a 3568     		ldr	r5, [r6]
 824              		.loc 1 427 0
 825 000c 6469     		ldr	r4, [r4, #20]
 826              	.LVL71:
 827              		.loc 1 426 0
 828 000e 82B0     		sub	sp, sp, #8
 829              		.cfi_def_cfa_offset 24
 830              		.loc 1 430 0
 831 0010 E260     		str	r2, [r4, #12]
 832              		.loc 1 426 0
 833 0012 0195     		str	r5, [sp, #4]
 834              		.loc 1 429 0
 835 0014 0025     		movs	r5, #0
 836 0016 2570     		strb	r5, [r4]
 837              		.loc 1 434 0
 838 0018 019A     		ldr	r2, [sp, #4]
 839              	.LVL72:
 840              		.loc 1 431 0
 841 001a 6360     		str	r3, [r4, #4]
 842              		.loc 1 434 0
 843 001c 3368     		ldr	r3, [r6]
 844              	.LVL73:
 845              		.loc 1 432 0
 846 001e A560     		str	r5, [r4, #8]
 847              		.loc 1 434 0
 848 0020 9A42     		cmp	r2, r3
 849 0022 04D1     		bne	.L92
 850              		.loc 1 435 0
 851 0024 02B0     		add	sp, sp, #8
 852              		.cfi_remember_state
 853              		.cfi_def_cfa_offset 16
 854              		@ sp needed
 855 0026 BDE87040 		pop	{r4, r5, r6, lr}
ARM GAS  /var/folders/d2/nstgp4h54kz7g1l847x_b8wc0000gn/T//ccS6Toqb.s 			page 16


 856              		.cfi_restore 14
 857              		.cfi_restore 6
 858              		.cfi_restore 5
 859              		.cfi_restore 4
 860              		.cfi_def_cfa_offset 0
 861              	.LVL74:
 862              		.loc 1 434 0
 863 002a FFF7FEBF 		b	usb_lld_prepare_transmit
 864              	.LVL75:
 865              	.L92:
 866              		.cfi_restore_state
 867 002e FFF7FEFF 		bl	__stack_chk_fail
 868              	.LVL76:
 869              	.L94:
 870 0032 00BF     		.align	2
 871              	.L93:
 872 0034 00000000 		.word	__stack_chk_guard
 873              		.cfi_endproc
 874              	.LFE266:
 875              		.size	usbPrepareTransmit, .-usbPrepareTransmit
 876              		.section	.text.usbPrepareQueuedReceive,"ax",%progbits
 877              		.align	1
 878              		.p2align 4,,15
 879              		.global	usbPrepareQueuedReceive
 880              		.syntax unified
 881              		.thumb
 882              		.thumb_func
 883              		.fpu fpv4-sp-d16
 884              		.type	usbPrepareQueuedReceive, %function
 885              	usbPrepareQueuedReceive:
 886              	.LFB267:
 887              		.loc 1 455 0
 888              		.cfi_startproc
 889              		@ args = 0, pretend = 0, frame = 8
 890              		@ frame_needed = 0, uses_anonymous_args = 0
 891              	.LVL77:
 892 0000 70B5     		push	{r4, r5, r6, lr}
 893              		.cfi_def_cfa_offset 16
 894              		.cfi_offset 4, -16
 895              		.cfi_offset 5, -12
 896              		.cfi_offset 6, -8
 897              		.cfi_offset 14, -4
 898              		.loc 1 456 0
 899 0002 00EB8104 		add	r4, r0, r1, lsl #2
 900              		.loc 1 455 0
 901 0006 0C4D     		ldr	r5, .L100
 902              		.loc 1 456 0
 903 0008 E468     		ldr	r4, [r4, #12]
 904              		.loc 1 455 0
 905 000a 2E68     		ldr	r6, [r5]
 906              		.loc 1 456 0
 907 000c A469     		ldr	r4, [r4, #24]
 908              	.LVL78:
 909              		.loc 1 455 0
 910 000e 82B0     		sub	sp, sp, #8
 911              		.cfi_def_cfa_offset 24
 912              		.loc 1 459 0
ARM GAS  /var/folders/d2/nstgp4h54kz7g1l847x_b8wc0000gn/T//ccS6Toqb.s 			page 17


 913 0010 E260     		str	r2, [r4, #12]
 914              		.loc 1 455 0
 915 0012 0196     		str	r6, [sp, #4]
 916              		.loc 1 458 0
 917 0014 0126     		movs	r6, #1
 918 0016 2670     		strb	r6, [r4]
 919              		.loc 1 463 0
 920 0018 019E     		ldr	r6, [sp, #4]
 921 001a 2A68     		ldr	r2, [r5]
 922              	.LVL79:
 923              		.loc 1 460 0
 924 001c 6360     		str	r3, [r4, #4]
 925              		.loc 1 463 0
 926 001e 9642     		cmp	r6, r2
 927              		.loc 1 461 0
 928 0020 4FF00003 		mov	r3, #0
 929              	.LVL80:
 930 0024 A360     		str	r3, [r4, #8]
 931              		.loc 1 463 0
 932 0026 04D1     		bne	.L99
 933              		.loc 1 464 0
 934 0028 02B0     		add	sp, sp, #8
 935              		.cfi_remember_state
 936              		.cfi_def_cfa_offset 16
 937              		@ sp needed
 938 002a BDE87040 		pop	{r4, r5, r6, lr}
 939              		.cfi_restore 14
 940              		.cfi_restore 6
 941              		.cfi_restore 5
 942              		.cfi_restore 4
 943              		.cfi_def_cfa_offset 0
 944              	.LVL81:
 945              		.loc 1 463 0
 946 002e FFF7FEBF 		b	usb_lld_prepare_receive
 947              	.LVL82:
 948              	.L99:
 949              		.cfi_restore_state
 950 0032 FFF7FEFF 		bl	__stack_chk_fail
 951              	.LVL83:
 952              	.L101:
 953 0036 00BF     		.align	2
 954              	.L100:
 955 0038 00000000 		.word	__stack_chk_guard
 956              		.cfi_endproc
 957              	.LFE267:
 958              		.size	usbPrepareQueuedReceive, .-usbPrepareQueuedReceive
 959              		.section	.text.usbPrepareQueuedTransmit,"ax",%progbits
 960              		.align	1
 961              		.p2align 4,,15
 962              		.global	usbPrepareQueuedTransmit
 963              		.syntax unified
 964              		.thumb
 965              		.thumb_func
 966              		.fpu fpv4-sp-d16
 967              		.type	usbPrepareQueuedTransmit, %function
 968              	usbPrepareQueuedTransmit:
 969              	.LFB268:
ARM GAS  /var/folders/d2/nstgp4h54kz7g1l847x_b8wc0000gn/T//ccS6Toqb.s 			page 18


 970              		.loc 1 481 0
 971              		.cfi_startproc
 972              		@ args = 0, pretend = 0, frame = 8
 973              		@ frame_needed = 0, uses_anonymous_args = 0
 974              	.LVL84:
 975 0000 70B5     		push	{r4, r5, r6, lr}
 976              		.cfi_def_cfa_offset 16
 977              		.cfi_offset 4, -16
 978              		.cfi_offset 5, -12
 979              		.cfi_offset 6, -8
 980              		.cfi_offset 14, -4
 981              		.loc 1 482 0
 982 0002 00EB8104 		add	r4, r0, r1, lsl #2
 983              		.loc 1 481 0
 984 0006 0C4D     		ldr	r5, .L107
 985              		.loc 1 482 0
 986 0008 E468     		ldr	r4, [r4, #12]
 987              		.loc 1 481 0
 988 000a 2E68     		ldr	r6, [r5]
 989              		.loc 1 482 0
 990 000c 6469     		ldr	r4, [r4, #20]
 991              	.LVL85:
 992              		.loc 1 481 0
 993 000e 82B0     		sub	sp, sp, #8
 994              		.cfi_def_cfa_offset 24
 995              		.loc 1 485 0
 996 0010 E260     		str	r2, [r4, #12]
 997              		.loc 1 481 0
 998 0012 0196     		str	r6, [sp, #4]
 999              		.loc 1 484 0
 1000 0014 0126     		movs	r6, #1
 1001 0016 2670     		strb	r6, [r4]
 1002              		.loc 1 489 0
 1003 0018 019E     		ldr	r6, [sp, #4]
 1004 001a 2A68     		ldr	r2, [r5]
 1005              	.LVL86:
 1006              		.loc 1 486 0
 1007 001c 6360     		str	r3, [r4, #4]
 1008              		.loc 1 489 0
 1009 001e 9642     		cmp	r6, r2
 1010              		.loc 1 487 0
 1011 0020 4FF00003 		mov	r3, #0
 1012              	.LVL87:
 1013 0024 A360     		str	r3, [r4, #8]
 1014              		.loc 1 489 0
 1015 0026 04D1     		bne	.L106
 1016              		.loc 1 490 0
 1017 0028 02B0     		add	sp, sp, #8
 1018              		.cfi_remember_state
 1019              		.cfi_def_cfa_offset 16
 1020              		@ sp needed
 1021 002a BDE87040 		pop	{r4, r5, r6, lr}
 1022              		.cfi_restore 14
 1023              		.cfi_restore 6
 1024              		.cfi_restore 5
 1025              		.cfi_restore 4
 1026              		.cfi_def_cfa_offset 0
ARM GAS  /var/folders/d2/nstgp4h54kz7g1l847x_b8wc0000gn/T//ccS6Toqb.s 			page 19


 1027              	.LVL88:
 1028              		.loc 1 489 0
 1029 002e FFF7FEBF 		b	usb_lld_prepare_transmit
 1030              	.LVL89:
 1031              	.L106:
 1032              		.cfi_restore_state
 1033 0032 FFF7FEFF 		bl	__stack_chk_fail
 1034              	.LVL90:
 1035              	.L108:
 1036 0036 00BF     		.align	2
 1037              	.L107:
 1038 0038 00000000 		.word	__stack_chk_guard
 1039              		.cfi_endproc
 1040              	.LFE268:
 1041              		.size	usbPrepareQueuedTransmit, .-usbPrepareQueuedTransmit
 1042              		.section	.text.usbStartReceiveI,"ax",%progbits
 1043              		.align	1
 1044              		.p2align 4,,15
 1045              		.global	usbStartReceiveI
 1046              		.syntax unified
 1047              		.thumb
 1048              		.thumb_func
 1049              		.fpu fpv4-sp-d16
 1050              		.type	usbStartReceiveI, %function
 1051              	usbStartReceiveI:
 1052              	.LFB269:
 1053              		.loc 1 506 0
 1054              		.cfi_startproc
 1055              		@ args = 0, pretend = 0, frame = 8
 1056              		@ frame_needed = 0, uses_anonymous_args = 0
 1057              	.LVL91:
 1058 0000 F0B5     		push	{r4, r5, r6, r7, lr}
 1059              		.cfi_def_cfa_offset 20
 1060              		.cfi_offset 4, -20
 1061              		.cfi_offset 5, -16
 1062              		.cfi_offset 6, -12
 1063              		.cfi_offset 7, -8
 1064              		.cfi_offset 14, -4
 1065 0002 124D     		ldr	r5, .L117
 1066 0004 83B0     		sub	sp, sp, #12
 1067              		.cfi_def_cfa_offset 32
 1068              		.loc 1 506 0
 1069 0006 0446     		mov	r4, r0
 1070 0008 2B68     		ldr	r3, [r5]
 1071 000a 0193     		str	r3, [sp, #4]
 1072 000c 0E46     		mov	r6, r1
 1073              		.loc 1 508 0
 1074 000e FFF7FEFF 		bl	chDbgCheckClassI
 1075              	.LVL92:
 1076              		.loc 1 509 0
 1077 0012 A4B1     		cbz	r4, .L115
 1078              	.L110:
 1079              		.loc 1 511 0
 1080 0014 0120     		movs	r0, #1
 1081 0016 00FA06F3 		lsl	r3, r0, r6
 1082 001a 6289     		ldrh	r2, [r4, #10]
 1083 001c 9BB2     		uxth	r3, r3
ARM GAS  /var/folders/d2/nstgp4h54kz7g1l847x_b8wc0000gn/T//ccS6Toqb.s 			page 20


 1084 001e 12EA0307 		ands	r7, r2, r3
 1085 0022 06D1     		bne	.L111
 1086              		.loc 1 515 0
 1087 0024 1343     		orrs	r3, r3, r2
 1088              		.loc 1 516 0
 1089 0026 2046     		mov	r0, r4
 1090              		.loc 1 515 0
 1091 0028 6381     		strh	r3, [r4, #10]	@ movhi
 1092              		.loc 1 516 0
 1093 002a 3146     		mov	r1, r6
 1094 002c FFF7FEFF 		bl	usb_lld_start_out
 1095              	.LVL93:
 1096              		.loc 1 517 0
 1097 0030 3846     		mov	r0, r7
 1098              	.L111:
 1099              		.loc 1 518 0
 1100 0032 019A     		ldr	r2, [sp, #4]
 1101 0034 2B68     		ldr	r3, [r5]
 1102 0036 9A42     		cmp	r2, r3
 1103 0038 05D1     		bne	.L116
 1104 003a 03B0     		add	sp, sp, #12
 1105              		.cfi_remember_state
 1106              		.cfi_def_cfa_offset 20
 1107              		@ sp needed
 1108 003c F0BD     		pop	{r4, r5, r6, r7, pc}
 1109              	.LVL94:
 1110              	.L115:
 1111              		.cfi_restore_state
 1112              		.loc 1 509 0 discriminator 2
 1113 003e 0448     		ldr	r0, .L117+4
 1114 0040 FFF7FEFF 		bl	chSysHalt
 1115              	.LVL95:
 1116 0044 E6E7     		b	.L110
 1117              	.L116:
 1118              		.loc 1 518 0
 1119 0046 FFF7FEFF 		bl	__stack_chk_fail
 1120              	.LVL96:
 1121              	.L118:
 1122 004a 00BF     		.align	2
 1123              	.L117:
 1124 004c 00000000 		.word	__stack_chk_guard
 1125 0050 00000000 		.word	.LANCHOR5
 1126              		.cfi_endproc
 1127              	.LFE269:
 1128              		.size	usbStartReceiveI, .-usbStartReceiveI
 1129              		.section	.text.usbStartTransmitI,"ax",%progbits
 1130              		.align	1
 1131              		.p2align 4,,15
 1132              		.global	usbStartTransmitI
 1133              		.syntax unified
 1134              		.thumb
 1135              		.thumb_func
 1136              		.fpu fpv4-sp-d16
 1137              		.type	usbStartTransmitI, %function
 1138              	usbStartTransmitI:
 1139              	.LFB270:
 1140              		.loc 1 534 0
ARM GAS  /var/folders/d2/nstgp4h54kz7g1l847x_b8wc0000gn/T//ccS6Toqb.s 			page 21


 1141              		.cfi_startproc
 1142              		@ args = 0, pretend = 0, frame = 8
 1143              		@ frame_needed = 0, uses_anonymous_args = 0
 1144              	.LVL97:
 1145 0000 F0B5     		push	{r4, r5, r6, r7, lr}
 1146              		.cfi_def_cfa_offset 20
 1147              		.cfi_offset 4, -20
 1148              		.cfi_offset 5, -16
 1149              		.cfi_offset 6, -12
 1150              		.cfi_offset 7, -8
 1151              		.cfi_offset 14, -4
 1152 0002 124D     		ldr	r5, .L127
 1153 0004 83B0     		sub	sp, sp, #12
 1154              		.cfi_def_cfa_offset 32
 1155              		.loc 1 534 0
 1156 0006 0446     		mov	r4, r0
 1157 0008 2B68     		ldr	r3, [r5]
 1158 000a 0193     		str	r3, [sp, #4]
 1159 000c 0E46     		mov	r6, r1
 1160              		.loc 1 536 0
 1161 000e FFF7FEFF 		bl	chDbgCheckClassI
 1162              	.LVL98:
 1163              		.loc 1 537 0
 1164 0012 A4B1     		cbz	r4, .L125
 1165              	.L120:
 1166              		.loc 1 539 0
 1167 0014 0120     		movs	r0, #1
 1168 0016 00FA06F3 		lsl	r3, r0, r6
 1169 001a 2289     		ldrh	r2, [r4, #8]
 1170 001c 9BB2     		uxth	r3, r3
 1171 001e 12EA0307 		ands	r7, r2, r3
 1172 0022 06D1     		bne	.L121
 1173              		.loc 1 543 0
 1174 0024 1343     		orrs	r3, r3, r2
 1175              		.loc 1 544 0
 1176 0026 2046     		mov	r0, r4
 1177              		.loc 1 543 0
 1178 0028 2381     		strh	r3, [r4, #8]	@ movhi
 1179              		.loc 1 544 0
 1180 002a 3146     		mov	r1, r6
 1181 002c FFF7FEFF 		bl	usb_lld_start_in
 1182              	.LVL99:
 1183              		.loc 1 545 0
 1184 0030 3846     		mov	r0, r7
 1185              	.L121:
 1186              		.loc 1 546 0
 1187 0032 019A     		ldr	r2, [sp, #4]
 1188 0034 2B68     		ldr	r3, [r5]
 1189 0036 9A42     		cmp	r2, r3
 1190 0038 05D1     		bne	.L126
 1191 003a 03B0     		add	sp, sp, #12
 1192              		.cfi_remember_state
 1193              		.cfi_def_cfa_offset 20
 1194              		@ sp needed
 1195 003c F0BD     		pop	{r4, r5, r6, r7, pc}
 1196              	.LVL100:
 1197              	.L125:
ARM GAS  /var/folders/d2/nstgp4h54kz7g1l847x_b8wc0000gn/T//ccS6Toqb.s 			page 22


 1198              		.cfi_restore_state
 1199              		.loc 1 537 0 discriminator 2
 1200 003e 0448     		ldr	r0, .L127+4
 1201 0040 FFF7FEFF 		bl	chSysHalt
 1202              	.LVL101:
 1203 0044 E6E7     		b	.L120
 1204              	.L126:
 1205              		.loc 1 546 0
 1206 0046 FFF7FEFF 		bl	__stack_chk_fail
 1207              	.LVL102:
 1208              	.L128:
 1209 004a 00BF     		.align	2
 1210              	.L127:
 1211 004c 00000000 		.word	__stack_chk_guard
 1212 0050 00000000 		.word	.LANCHOR6
 1213              		.cfi_endproc
 1214              	.LFE270:
 1215              		.size	usbStartTransmitI, .-usbStartTransmitI
 1216              		.section	.text.usbStallReceiveI,"ax",%progbits
 1217              		.align	1
 1218              		.p2align 4,,15
 1219              		.global	usbStallReceiveI
 1220              		.syntax unified
 1221              		.thumb
 1222              		.thumb_func
 1223              		.fpu fpv4-sp-d16
 1224              		.type	usbStallReceiveI, %function
 1225              	usbStallReceiveI:
 1226              	.LFB271:
 1227              		.loc 1 560 0
 1228              		.cfi_startproc
 1229              		@ args = 0, pretend = 0, frame = 8
 1230              		@ frame_needed = 0, uses_anonymous_args = 0
 1231              	.LVL103:
 1232 0000 F0B5     		push	{r4, r5, r6, r7, lr}
 1233              		.cfi_def_cfa_offset 20
 1234              		.cfi_offset 4, -20
 1235              		.cfi_offset 5, -16
 1236              		.cfi_offset 6, -12
 1237              		.cfi_offset 7, -8
 1238              		.cfi_offset 14, -4
 1239 0002 104E     		ldr	r6, .L137
 1240 0004 83B0     		sub	sp, sp, #12
 1241              		.cfi_def_cfa_offset 32
 1242              		.loc 1 560 0
 1243 0006 0546     		mov	r5, r0
 1244 0008 3368     		ldr	r3, [r6]
 1245 000a 0193     		str	r3, [sp, #4]
 1246 000c 0F46     		mov	r7, r1
 1247              		.loc 1 562 0
 1248 000e FFF7FEFF 		bl	chDbgCheckClassI
 1249              	.LVL104:
 1250              		.loc 1 563 0
 1251 0012 85B1     		cbz	r5, .L135
 1252              	.L130:
 1253              		.loc 1 565 0
 1254 0014 0120     		movs	r0, #1
ARM GAS  /var/folders/d2/nstgp4h54kz7g1l847x_b8wc0000gn/T//ccS6Toqb.s 			page 23


 1255 0016 6C89     		ldrh	r4, [r5, #10]
 1256 0018 00FA07F3 		lsl	r3, r0, r7
 1257 001c 1C40     		ands	r4, r3, r4
 1258 001e 04D1     		bne	.L131
 1259              		.loc 1 569 0
 1260 0020 2846     		mov	r0, r5
 1261 0022 3946     		mov	r1, r7
 1262 0024 FFF7FEFF 		bl	usb_lld_stall_out
 1263              	.LVL105:
 1264              		.loc 1 570 0
 1265 0028 2046     		mov	r0, r4
 1266              	.L131:
 1267              		.loc 1 571 0
 1268 002a 019A     		ldr	r2, [sp, #4]
 1269 002c 3368     		ldr	r3, [r6]
 1270 002e 9A42     		cmp	r2, r3
 1271 0030 05D1     		bne	.L136
 1272 0032 03B0     		add	sp, sp, #12
 1273              		.cfi_remember_state
 1274              		.cfi_def_cfa_offset 20
 1275              		@ sp needed
 1276 0034 F0BD     		pop	{r4, r5, r6, r7, pc}
 1277              	.LVL106:
 1278              	.L135:
 1279              		.cfi_restore_state
 1280              		.loc 1 563 0 discriminator 2
 1281 0036 0448     		ldr	r0, .L137+4
 1282 0038 FFF7FEFF 		bl	chSysHalt
 1283              	.LVL107:
 1284 003c EAE7     		b	.L130
 1285              	.L136:
 1286              		.loc 1 571 0
 1287 003e FFF7FEFF 		bl	__stack_chk_fail
 1288              	.LVL108:
 1289              	.L138:
 1290 0042 00BF     		.align	2
 1291              	.L137:
 1292 0044 00000000 		.word	__stack_chk_guard
 1293 0048 00000000 		.word	.LANCHOR7
 1294              		.cfi_endproc
 1295              	.LFE271:
 1296              		.size	usbStallReceiveI, .-usbStallReceiveI
 1297              		.section	.text.usbStallTransmitI,"ax",%progbits
 1298              		.align	1
 1299              		.p2align 4,,15
 1300              		.global	usbStallTransmitI
 1301              		.syntax unified
 1302              		.thumb
 1303              		.thumb_func
 1304              		.fpu fpv4-sp-d16
 1305              		.type	usbStallTransmitI, %function
 1306              	usbStallTransmitI:
 1307              	.LFB272:
 1308              		.loc 1 585 0
 1309              		.cfi_startproc
 1310              		@ args = 0, pretend = 0, frame = 8
 1311              		@ frame_needed = 0, uses_anonymous_args = 0
ARM GAS  /var/folders/d2/nstgp4h54kz7g1l847x_b8wc0000gn/T//ccS6Toqb.s 			page 24


 1312              	.LVL109:
 1313 0000 F0B5     		push	{r4, r5, r6, r7, lr}
 1314              		.cfi_def_cfa_offset 20
 1315              		.cfi_offset 4, -20
 1316              		.cfi_offset 5, -16
 1317              		.cfi_offset 6, -12
 1318              		.cfi_offset 7, -8
 1319              		.cfi_offset 14, -4
 1320 0002 104E     		ldr	r6, .L147
 1321 0004 83B0     		sub	sp, sp, #12
 1322              		.cfi_def_cfa_offset 32
 1323              		.loc 1 585 0
 1324 0006 0546     		mov	r5, r0
 1325 0008 3368     		ldr	r3, [r6]
 1326 000a 0193     		str	r3, [sp, #4]
 1327 000c 0F46     		mov	r7, r1
 1328              		.loc 1 587 0
 1329 000e FFF7FEFF 		bl	chDbgCheckClassI
 1330              	.LVL110:
 1331              		.loc 1 588 0
 1332 0012 85B1     		cbz	r5, .L145
 1333              	.L140:
 1334              		.loc 1 590 0
 1335 0014 0120     		movs	r0, #1
 1336 0016 2C89     		ldrh	r4, [r5, #8]
 1337 0018 00FA07F3 		lsl	r3, r0, r7
 1338 001c 1C40     		ands	r4, r3, r4
 1339 001e 04D1     		bne	.L141
 1340              		.loc 1 594 0
 1341 0020 2846     		mov	r0, r5
 1342 0022 3946     		mov	r1, r7
 1343 0024 FFF7FEFF 		bl	usb_lld_stall_in
 1344              	.LVL111:
 1345              		.loc 1 595 0
 1346 0028 2046     		mov	r0, r4
 1347              	.L141:
 1348              		.loc 1 596 0
 1349 002a 019A     		ldr	r2, [sp, #4]
 1350 002c 3368     		ldr	r3, [r6]
 1351 002e 9A42     		cmp	r2, r3
 1352 0030 05D1     		bne	.L146
 1353 0032 03B0     		add	sp, sp, #12
 1354              		.cfi_remember_state
 1355              		.cfi_def_cfa_offset 20
 1356              		@ sp needed
 1357 0034 F0BD     		pop	{r4, r5, r6, r7, pc}
 1358              	.LVL112:
 1359              	.L145:
 1360              		.cfi_restore_state
 1361              		.loc 1 588 0 discriminator 2
 1362 0036 0448     		ldr	r0, .L147+4
 1363 0038 FFF7FEFF 		bl	chSysHalt
 1364              	.LVL113:
 1365 003c EAE7     		b	.L140
 1366              	.L146:
 1367              		.loc 1 596 0
 1368 003e FFF7FEFF 		bl	__stack_chk_fail
ARM GAS  /var/folders/d2/nstgp4h54kz7g1l847x_b8wc0000gn/T//ccS6Toqb.s 			page 25


 1369              	.LVL114:
 1370              	.L148:
 1371 0042 00BF     		.align	2
 1372              	.L147:
 1373 0044 00000000 		.word	__stack_chk_guard
 1374 0048 00000000 		.word	.LANCHOR8
 1375              		.cfi_endproc
 1376              	.LFE272:
 1377              		.size	usbStallTransmitI, .-usbStallTransmitI
 1378              		.section	.text._usb_reset,"ax",%progbits
 1379              		.align	1
 1380              		.p2align 4,,15
 1381              		.global	_usb_reset
 1382              		.syntax unified
 1383              		.thumb
 1384              		.thumb_func
 1385              		.fpu fpv4-sp-d16
 1386              		.type	_usb_reset, %function
 1387              	_usb_reset:
 1388              	.LFB273:
 1389              		.loc 1 607 0
 1390              		.cfi_startproc
 1391              		@ args = 0, pretend = 0, frame = 8
 1392              		@ frame_needed = 0, uses_anonymous_args = 0
 1393              	.LVL115:
 1394 0000 10B5     		push	{r4, lr}
 1395              		.cfi_def_cfa_offset 8
 1396              		.cfi_offset 4, -8
 1397              		.cfi_offset 14, -4
 1398 0002 0D4A     		ldr	r2, .L154
 1399 0004 82B0     		sub	sp, sp, #8
 1400              		.cfi_def_cfa_offset 16
 1401              		.loc 1 607 0
 1402 0006 1168     		ldr	r1, [r2]
 1403 0008 0191     		str	r1, [sp, #4]
 1404              		.loc 1 610 0
 1405 000a 0221     		movs	r1, #2
 1406 000c 0170     		strb	r1, [r0]
 1407              		.loc 1 626 0
 1408 000e 019C     		ldr	r4, [sp, #4]
 1409 0010 1168     		ldr	r1, [r2]
 1410              		.loc 1 611 0
 1411 0012 0022     		movs	r2, #0
 1412              		.loc 1 626 0
 1413 0014 8C42     		cmp	r4, r1
 1414              		.loc 1 611 0
 1415 0016 C264     		str	r2, [r0, #76]
 1416              	.LVL116:
 1417              		.loc 1 615 0
 1418 0018 C0E90222 		strd	r2, r2, [r0, #8]
 1419              		.loc 1 619 0
 1420 001c C0E90422 		strd	r2, r2, [r0, #16]
 1421 0020 8261     		str	r2, [r0, #24]
 1422              	.LVL117:
 1423              		.loc 1 623 0
 1424 0022 80F83420 		strb	r2, [r0, #52]
 1425              		.loc 1 626 0
ARM GAS  /var/folders/d2/nstgp4h54kz7g1l847x_b8wc0000gn/T//ccS6Toqb.s 			page 26


 1426 0026 04D1     		bne	.L153
 1427              		.loc 1 627 0
 1428 0028 02B0     		add	sp, sp, #8
 1429              		.cfi_remember_state
 1430              		.cfi_def_cfa_offset 8
 1431              		@ sp needed
 1432 002a BDE81040 		pop	{r4, lr}
 1433              		.cfi_restore 14
 1434              		.cfi_restore 4
 1435              		.cfi_def_cfa_offset 0
 1436              		.loc 1 626 0
 1437 002e FFF7FEBF 		b	usb_lld_reset
 1438              	.LVL118:
 1439              	.L153:
 1440              		.cfi_restore_state
 1441 0032 FFF7FEFF 		bl	__stack_chk_fail
 1442              	.LVL119:
 1443              	.L155:
 1444 0036 00BF     		.align	2
 1445              	.L154:
 1446 0038 00000000 		.word	__stack_chk_guard
 1447              		.cfi_endproc
 1448              	.LFE273:
 1449              		.size	_usb_reset, .-_usb_reset
 1450              		.section	.text._usb_ep0setup,"ax",%progbits
 1451              		.align	1
 1452              		.p2align 4,,15
 1453              		.global	_usb_ep0setup
 1454              		.syntax unified
 1455              		.thumb
 1456              		.thumb_func
 1457              		.fpu fpv4-sp-d16
 1458              		.type	_usb_ep0setup, %function
 1459              	_usb_ep0setup:
 1460              	.LFB274:
 1461              		.loc 1 639 0
 1462              		.cfi_startproc
 1463              		@ args = 0, pretend = 0, frame = 8
 1464              		@ frame_needed = 0, uses_anonymous_args = 0
 1465              	.LVL120:
 1466 0000 F0B5     		push	{r4, r5, r6, r7, lr}
 1467              		.cfi_def_cfa_offset 20
 1468              		.cfi_offset 4, -20
 1469              		.cfi_offset 5, -16
 1470              		.cfi_offset 6, -12
 1471              		.cfi_offset 7, -8
 1472              		.cfi_offset 14, -4
 1473 0002 C34D     		ldr	r5, .L255
 1474 0004 83B0     		sub	sp, sp, #12
 1475              		.cfi_def_cfa_offset 32
 1476              		.loc 1 639 0
 1477 0006 0446     		mov	r4, r0
 1478              		.loc 1 642 0
 1479 0008 0022     		movs	r2, #0
 1480              		.loc 1 639 0
 1481 000a 2B68     		ldr	r3, [r5]
 1482              		.loc 1 642 0
ARM GAS  /var/folders/d2/nstgp4h54kz7g1l847x_b8wc0000gn/T//ccS6Toqb.s 			page 27


 1483 000c 80F83420 		strb	r2, [r0, #52]
 1484              		.loc 1 643 0
 1485 0010 00F14402 		add	r2, r0, #68
 1486              		.loc 1 639 0
 1487 0014 0193     		str	r3, [sp, #4]
 1488              		.loc 1 643 0
 1489 0016 FFF7FEFF 		bl	usb_lld_read_setup
 1490              	.LVL121:
 1491              		.loc 1 648 0
 1492 001a 6368     		ldr	r3, [r4, #4]
 1493 001c 9B68     		ldr	r3, [r3, #8]
 1494 001e 002B     		cmp	r3, #0
 1495 0020 36D0     		beq	.L161
 1496              		.loc 1 649 0 discriminator 1
 1497 0022 2046     		mov	r0, r4
 1498 0024 9847     		blx	r3
 1499              	.LVL122:
 1500              		.loc 1 648 0 discriminator 1
 1501 0026 98B3     		cbz	r0, .L161
 1502 0028 E16B     		ldr	r1, [r4, #60]
 1503 002a 94F84430 		ldrb	r3, [r4, #68]	@ zero_extendqisi2
 1504              	.L178:
 1505              	.LBB327:
 1506              	.LBB328:
 1507              		.loc 1 55 0
 1508 002e 94F84B00 		ldrb	r0, [r4, #75]	@ zero_extendqisi2
 1509 0032 94F84A20 		ldrb	r2, [r4, #74]	@ zero_extendqisi2
 1510              	.LBE328:
 1511              	.LBE327:
 1512              		.loc 1 676 0
 1513 0036 42EA0022 		orr	r2, r2, r0, lsl #8
 1514              	.LVL123:
 1515              		.loc 1 678 0
 1516 003a 8A42     		cmp	r2, r1
 1517 003c 2CBF     		ite	cs
 1518 003e 0A46     		movcs	r2, r1
 1519              	.LVL124:
 1520              		.loc 1 679 0
 1521 0040 E263     		strcc	r2, [r4, #60]
 1522              		.loc 1 681 0
 1523 0042 1806     		lsls	r0, r3, #24
 1524              	.LVL125:
 1525 0044 E168     		ldr	r1, [r4, #12]
 1526 0046 00F1A680 		bmi	.L245
 1527              		.loc 1 707 0
 1528 004a 002A     		cmp	r2, #0
 1529 004c 00F08480 		beq	.L198
 1530              		.loc 1 709 0
 1531 0050 0423     		movs	r3, #4
 1532 0052 84F83430 		strb	r3, [r4, #52]
 1533              	.LBB329:
 1534              	.LBB330:
 1535              		.loc 1 401 0
 1536 0056 8B69     		ldr	r3, [r1, #24]
 1537              	.LBE330:
 1538              	.LBE329:
 1539              		.loc 1 710 0
ARM GAS  /var/folders/d2/nstgp4h54kz7g1l847x_b8wc0000gn/T//ccS6Toqb.s 			page 28


 1540 0058 A16B     		ldr	r1, [r4, #56]
 1541              	.LVL126:
 1542              	.LBB332:
 1543              	.LBB331:
 1544              		.loc 1 404 0
 1545 005a D960     		str	r1, [r3, #12]
 1546              	.LVL127:
 1547              		.loc 1 403 0
 1548 005c 0026     		movs	r6, #0
 1549              		.loc 1 405 0
 1550 005e 5A60     		str	r2, [r3, #4]
 1551              		.loc 1 403 0
 1552 0060 1E70     		strb	r6, [r3]
 1553              	.LVL128:
 1554              	.L243:
 1555              		.loc 1 406 0
 1556 0062 9E60     		str	r6, [r3, #8]
 1557              		.loc 1 408 0
 1558 0064 3146     		mov	r1, r6
 1559 0066 2046     		mov	r0, r4
 1560 0068 FFF7FEFF 		bl	usb_lld_prepare_receive
 1561              	.LVL129:
 1562              	.LBE331:
 1563              	.LBE332:
 1564              	.LBB333:
 1565              	.LBB334:
 1566              	.LBB335:
 1567              	.LBB336:
 1568              	.LBB337:
 1569              	.LBB338:
 1570              	.LBB339:
 1571              		.loc 2 546 0
 1572 006c 2023     		movs	r3, #32
 1573              		.syntax unified
 1574              	@ 546 "../e-puck2_main-processor/ChibiOS//os/ext/CMSIS/include/core_cmFunc.h" 1
 1575 006e 83F31188 		MSR basepri, r3
 1576              	@ 0 "" 2
 1577              	.LVL130:
 1578              		.thumb
 1579              		.syntax unified
 1580              	.LBE339:
 1581              	.LBE338:
 1582              	.LBE337:
 1583              	.LBE336:
 1584              		.loc 3 389 0
 1585 0072 FFF7FEFF 		bl	_stats_start_measure_crit_isr
 1586              	.LVL131:
 1587              		.loc 3 390 0
 1588 0076 FFF7FEFF 		bl	_dbg_check_lock_from_isr
 1589              	.LVL132:
 1590              	.LBE335:
 1591              	.LBE334:
 1592              	.LBE333:
 1593              		.loc 1 712 0
 1594 007a 3146     		mov	r1, r6
 1595 007c 2046     		mov	r0, r4
 1596 007e FFF7FEFF 		bl	usbStartReceiveI
ARM GAS  /var/folders/d2/nstgp4h54kz7g1l847x_b8wc0000gn/T//ccS6Toqb.s 			page 29


 1597              	.LVL133:
 1598              	.LBB340:
 1599              	.LBB341:
 1600              	.LBB342:
 1601              		.loc 3 408 0
 1602 0082 FFF7FEFF 		bl	_dbg_check_unlock_from_isr
 1603              	.LVL134:
 1604              		.loc 3 409 0
 1605 0086 FFF7FEFF 		bl	_stats_stop_measure_crit_isr
 1606              	.LVL135:
 1607              	.LBB343:
 1608              	.LBB344:
 1609              	.LBB345:
 1610              	.LBB346:
 1611              		.loc 2 546 0
 1612              		.syntax unified
 1613              	@ 546 "../e-puck2_main-processor/ChibiOS//os/ext/CMSIS/include/core_cmFunc.h" 1
 1614 008a 86F31188 		MSR basepri, r6
 1615              	@ 0 "" 2
 1616              	.LVL136:
 1617              		.thumb
 1618              		.syntax unified
 1619 008e 16E0     		b	.L156
 1620              	.L161:
 1621              	.LBE346:
 1622              	.LBE345:
 1623              	.LBE344:
 1624              	.LBE343:
 1625              	.LBE342:
 1626              	.LBE341:
 1627              	.LBE340:
 1628              		.loc 1 654 0
 1629 0090 94F84430 		ldrb	r3, [r4, #68]	@ zero_extendqisi2
 1630 0094 13F06006 		ands	r6, r3, #96
 1631 0098 1846     		mov	r0, r3
 1632 009a 17D0     		beq	.L246
 1633              	.L177:
 1634              		.loc 1 660 0
 1635 009c 0021     		movs	r1, #0
 1636 009e 2046     		mov	r0, r4
 1637 00a0 FFF7FEFF 		bl	usb_lld_stall_in
 1638              	.LVL137:
 1639              		.loc 1 661 0
 1640 00a4 0021     		movs	r1, #0
 1641 00a6 2046     		mov	r0, r4
 1642 00a8 FFF7FEFF 		bl	usb_lld_stall_out
 1643              	.LVL138:
 1644              		.loc 1 662 0
 1645 00ac 6368     		ldr	r3, [r4, #4]
 1646 00ae 1B68     		ldr	r3, [r3]
 1647 00b0 13B1     		cbz	r3, .L192
 1648              		.loc 1 662 0 is_stmt 0 discriminator 1
 1649 00b2 0521     		movs	r1, #5
 1650 00b4 2046     		mov	r0, r4
 1651 00b6 9847     		blx	r3
 1652              	.LVL139:
 1653              	.L192:
ARM GAS  /var/folders/d2/nstgp4h54kz7g1l847x_b8wc0000gn/T//ccS6Toqb.s 			page 30


 1654              		.loc 1 663 0 is_stmt 1
 1655 00b8 0623     		movs	r3, #6
 1656 00ba 84F83430 		strb	r3, [r4, #52]
 1657              	.L156:
 1658              		.loc 1 729 0
 1659 00be 019A     		ldr	r2, [sp, #4]
 1660 00c0 2B68     		ldr	r3, [r5]
 1661 00c2 9A42     		cmp	r2, r3
 1662 00c4 40F03A81 		bne	.L247
 1663 00c8 03B0     		add	sp, sp, #12
 1664              		.cfi_remember_state
 1665              		.cfi_def_cfa_offset 20
 1666              		@ sp needed
 1667 00ca F0BD     		pop	{r4, r5, r6, r7, pc}
 1668              	.LVL140:
 1669              	.L246:
 1670              		.cfi_restore_state
 1671              	.LBB347:
 1672              	.LBB348:
 1673              		.loc 1 90 0
 1674 00cc 94F84510 		ldrb	r1, [r4, #69]	@ zero_extendqisi2
 1675              		.loc 1 88 0
 1676 00d0 03F07F02 		and	r2, r3, #127
 1677              		.loc 1 89 0
 1678 00d4 42EA0122 		orr	r2, r2, r1, lsl #8
 1679              		.loc 1 88 0
 1680 00d8 B2F5407F 		cmp	r2, #768
 1681 00dc 00F00581 		beq	.L163
 1682 00e0 17D9     		bls	.L248
 1683 00e2 B2F5C06F 		cmp	r2, #1536
 1684 00e6 00F0C680 		beq	.L171
 1685 00ea 40F28A80 		bls	.L249
 1686 00ee B2F5106F 		cmp	r2, #2304
 1687 00f2 64D0     		beq	.L175
 1688 00f4 40F60241 		movw	r1, #3074
 1689 00f8 8A42     		cmp	r2, r1
 1690 00fa 00F0D880 		beq	.L168
 1691 00fe B2F5006F 		cmp	r2, #2048
 1692 0102 CBD1     		bne	.L177
 1693              		.loc 1 141 0
 1694 0104 04F14F02 		add	r2, r4, #79
 1695 0108 0121     		movs	r1, #1
 1696 010a 2664     		str	r6, [r4, #64]
 1697              	.LVL141:
 1698 010c C4E90E21 		strd	r2, r1, [r4, #56]
 1699 0110 8DE7     		b	.L178
 1700              	.LVL142:
 1701              	.L248:
 1702              		.loc 1 88 0
 1703 0112 022A     		cmp	r2, #2
 1704 0114 00F0D280 		beq	.L165
 1705 0118 40F29280 		bls	.L250
 1706 011c B2F5807F 		cmp	r2, #256
 1707 0120 60D0     		beq	.L169
 1708 0122 B2F5817F 		cmp	r2, #258
 1709 0126 B9D1     		bne	.L177
 1710              		.loc 1 201 0
ARM GAS  /var/folders/d2/nstgp4h54kz7g1l847x_b8wc0000gn/T//ccS6Toqb.s 			page 31


 1711 0128 94F84630 		ldrb	r3, [r4, #70]	@ zero_extendqisi2
 1712 012c 002B     		cmp	r3, #0
 1713 012e B5D1     		bne	.L177
 1714              		.loc 1 205 0
 1715 0130 94F84830 		ldrb	r3, [r4, #72]	@ zero_extendqisi2
 1716 0134 13F00F01 		ands	r1, r3, #15
 1717 0138 07D0     		beq	.L190
 1718              		.loc 1 206 0
 1719 013a 1F06     		lsls	r7, r3, #24
 1720              		.loc 1 207 0
 1721 013c 2046     		mov	r0, r4
 1722              		.loc 1 206 0
 1723 013e 00F1F380 		bmi	.L251
 1724              	.LVL143:
 1725              		.loc 1 210 0
 1726 0142 FFF7FEFF 		bl	usb_lld_clear_out
 1727              	.LVL144:
 1728 0146 94F84400 		ldrb	r0, [r4, #68]	@ zero_extendqisi2
 1729              	.L190:
 1730              		.loc 1 229 0
 1731 014a 0023     		movs	r3, #0
 1732 014c C4E90E33 		strd	r3, r3, [r4, #56]
 1733 0150 2364     		str	r3, [r4, #64]
 1734              	.LVL145:
 1735              	.L179:
 1736              	.LBE348:
 1737              	.LBE347:
 1738              		.loc 1 681 0
 1739 0152 0306     		lsls	r3, r0, #24
 1740 0154 E168     		ldr	r1, [r4, #12]
 1741 0156 29D4     		bmi	.L197
 1742              	.LVL146:
 1743              	.L198:
 1744              		.loc 1 718 0
 1745 0158 0523     		movs	r3, #5
 1746 015a 84F83430 		strb	r3, [r4, #52]
 1747              	.LVL147:
 1748              	.LBB356:
 1749              	.LBB357:
 1750              		.loc 1 427 0
 1751 015e 4B69     		ldr	r3, [r1, #20]
 1752              	.LVL148:
 1753              		.loc 1 429 0
 1754 0160 0026     		movs	r6, #0
 1755 0162 1E70     		strb	r6, [r3]
 1756              		.loc 1 430 0
 1757 0164 DE60     		str	r6, [r3, #12]
 1758              		.loc 1 431 0
 1759 0166 5E60     		str	r6, [r3, #4]
 1760              	.LVL149:
 1761              	.L244:
 1762              		.loc 1 432 0
 1763 0168 9E60     		str	r6, [r3, #8]
 1764              		.loc 1 434 0
 1765 016a 3146     		mov	r1, r6
 1766 016c 2046     		mov	r0, r4
 1767 016e FFF7FEFF 		bl	usb_lld_prepare_transmit
ARM GAS  /var/folders/d2/nstgp4h54kz7g1l847x_b8wc0000gn/T//ccS6Toqb.s 			page 32


 1768              	.LVL150:
 1769              	.LBE357:
 1770              	.LBE356:
 1771              	.LBB358:
 1772              	.LBB359:
 1773              	.LBB360:
 1774              	.LBB361:
 1775              	.LBB362:
 1776              	.LBB363:
 1777              	.LBB364:
 1778              		.loc 2 546 0
 1779 0172 2023     		movs	r3, #32
 1780              		.syntax unified
 1781              	@ 546 "../e-puck2_main-processor/ChibiOS//os/ext/CMSIS/include/core_cmFunc.h" 1
 1782 0174 83F31188 		MSR basepri, r3
 1783              	@ 0 "" 2
 1784              	.LVL151:
 1785              		.thumb
 1786              		.syntax unified
 1787              	.LBE364:
 1788              	.LBE363:
 1789              	.LBE362:
 1790              	.LBE361:
 1791              		.loc 3 389 0
 1792 0178 FFF7FEFF 		bl	_stats_start_measure_crit_isr
 1793              	.LVL152:
 1794              		.loc 3 390 0
 1795 017c FFF7FEFF 		bl	_dbg_check_lock_from_isr
 1796              	.LVL153:
 1797              	.LBE360:
 1798              	.LBE359:
 1799              	.LBE358:
 1800              		.loc 1 722 0
 1801 0180 3146     		mov	r1, r6
 1802 0182 2046     		mov	r0, r4
 1803 0184 FFF7FEFF 		bl	usbStartTransmitI
 1804              	.LVL154:
 1805              	.LBB365:
 1806              	.LBB366:
 1807              	.LBB367:
 1808              		.loc 3 408 0
 1809 0188 FFF7FEFF 		bl	_dbg_check_unlock_from_isr
 1810              	.LVL155:
 1811              		.loc 3 409 0
 1812 018c FFF7FEFF 		bl	_stats_stop_measure_crit_isr
 1813              	.LVL156:
 1814              	.LBB368:
 1815              	.LBB369:
 1816              	.LBB370:
 1817              	.LBB371:
 1818              		.loc 2 546 0
 1819              		.syntax unified
 1820              	@ 546 "../e-puck2_main-processor/ChibiOS//os/ext/CMSIS/include/core_cmFunc.h" 1
 1821 0190 86F31188 		MSR basepri, r6
 1822              	@ 0 "" 2
 1823              	.LVL157:
 1824              		.thumb
ARM GAS  /var/folders/d2/nstgp4h54kz7g1l847x_b8wc0000gn/T//ccS6Toqb.s 			page 33


 1825              		.syntax unified
 1826 0194 93E7     		b	.L156
 1827              	.LVL158:
 1828              	.L245:
 1829              	.LBE371:
 1830              	.LBE370:
 1831              	.LBE369:
 1832              	.LBE368:
 1833              	.LBE367:
 1834              	.LBE366:
 1835              	.LBE365:
 1836              		.loc 1 683 0
 1837 0196 4AB1     		cbz	r2, .L197
 1838              		.loc 1 685 0
 1839 0198 0123     		movs	r3, #1
 1840 019a 84F83430 		strb	r3, [r4, #52]
 1841              	.LBB372:
 1842              	.LBB373:
 1843              		.loc 1 427 0
 1844 019e 4B69     		ldr	r3, [r1, #20]
 1845              	.LBE373:
 1846              	.LBE372:
 1847              		.loc 1 686 0
 1848 01a0 A16B     		ldr	r1, [r4, #56]
 1849              	.LVL159:
 1850              	.LBB375:
 1851              	.LBB374:
 1852              		.loc 1 430 0
 1853 01a2 D960     		str	r1, [r3, #12]
 1854              	.LVL160:
 1855              		.loc 1 429 0
 1856 01a4 0026     		movs	r6, #0
 1857              		.loc 1 431 0
 1858 01a6 5A60     		str	r2, [r3, #4]
 1859              		.loc 1 429 0
 1860 01a8 1E70     		strb	r6, [r3]
 1861 01aa DDE7     		b	.L244
 1862              	.LVL161:
 1863              	.L197:
 1864              	.LBE374:
 1865              	.LBE375:
 1866              		.loc 1 694 0
 1867 01ac 0323     		movs	r3, #3
 1868 01ae 84F83430 		strb	r3, [r4, #52]
 1869              	.LVL162:
 1870              	.LBB376:
 1871              	.LBB377:
 1872              		.loc 1 401 0
 1873 01b2 8B69     		ldr	r3, [r1, #24]
 1874              	.LVL163:
 1875              		.loc 1 403 0
 1876 01b4 0026     		movs	r6, #0
 1877 01b6 1E70     		strb	r6, [r3]
 1878              		.loc 1 404 0
 1879 01b8 DE60     		str	r6, [r3, #12]
 1880              		.loc 1 405 0
 1881 01ba 5E60     		str	r6, [r3, #4]
ARM GAS  /var/folders/d2/nstgp4h54kz7g1l847x_b8wc0000gn/T//ccS6Toqb.s 			page 34


 1882 01bc 51E7     		b	.L243
 1883              	.LVL164:
 1884              	.L175:
 1885              	.LBE377:
 1886              	.LBE376:
 1887              	.LBB378:
 1888              	.LBB355:
 1889              		.loc 1 145 0
 1890 01be 94F84630 		ldrb	r3, [r4, #70]	@ zero_extendqisi2
 1891 01c2 84F84F30 		strb	r3, [r4, #79]
 1892              		.loc 1 146 0
 1893 01c6 002B     		cmp	r3, #0
 1894 01c8 40F09E80 		bne	.L182
 1895              		.loc 1 147 0
 1896 01cc 0323     		movs	r3, #3
 1897 01ce 2370     		strb	r3, [r4]
 1898              	.L183:
 1899              		.loc 1 152 0
 1900 01d0 6368     		ldr	r3, [r4, #4]
 1901 01d2 1B68     		ldr	r3, [r3]
 1902 01d4 002B     		cmp	r3, #0
 1903 01d6 B8D0     		beq	.L190
 1904 01d8 2046     		mov	r0, r4
 1905 01da 0221     		movs	r1, #2
 1906 01dc 9847     		blx	r3
 1907              	.LVL165:
 1908 01de 94F84400 		ldrb	r0, [r4, #68]	@ zero_extendqisi2
 1909 01e2 B2E7     		b	.L190
 1910              	.L169:
 1911              		.loc 1 98 0
 1912 01e4 94F84630 		ldrb	r3, [r4, #70]	@ zero_extendqisi2
 1913 01e8 012B     		cmp	r3, #1
 1914 01ea 7FF457AF 		bne	.L177
 1915              		.loc 1 99 0
 1916 01ee B4F84C30 		ldrh	r3, [r4, #76]
 1917              		.loc 1 100 0
 1918 01f2 A663     		str	r6, [r4, #56]
 1919              		.loc 1 99 0
 1920 01f4 23F00203 		bic	r3, r3, #2
 1921              		.loc 1 100 0
 1922 01f8 C4E90F66 		strd	r6, r6, [r4, #60]
 1923              	.LVL166:
 1924              		.loc 1 99 0
 1925 01fc A4F84C30 		strh	r3, [r4, #76]	@ movhi
 1926 0200 A7E7     		b	.L179
 1927              	.LVL167:
 1928              	.L249:
 1929              		.loc 1 88 0
 1930 0202 40F20233 		movw	r3, #770
 1931 0206 9A42     		cmp	r2, r3
 1932 0208 22D0     		beq	.L173
 1933 020a B2F5A06F 		cmp	r2, #1280
 1934 020e 7FF445AF 		bne	.L177
 1935              		.loc 1 118 0
 1936 0212 B4F84430 		ldrh	r3, [r4, #68]
 1937 0216 B3F5A06F 		cmp	r3, #1280
 1938 021a 96D1     		bne	.L190
ARM GAS  /var/folders/d2/nstgp4h54kz7g1l847x_b8wc0000gn/T//ccS6Toqb.s 			page 35


 1939              	.LVL168:
 1940              	.LBB349:
 1941              	.LBB350:
 1942              		.loc 1 66 0
 1943 021c 94F84630 		ldrb	r3, [r4, #70]	@ zero_extendqisi2
 1944 0220 84F84E30 		strb	r3, [r4, #78]
 1945              		.loc 1 67 0
 1946 0224 2046     		mov	r0, r4
 1947 0226 FFF7FEFF 		bl	usb_lld_set_address
 1948              	.LVL169:
 1949              		.loc 1 68 0
 1950 022a 6368     		ldr	r3, [r4, #4]
 1951 022c 1B68     		ldr	r3, [r3]
 1952 022e 13B1     		cbz	r3, .L181
 1953 0230 0121     		movs	r1, #1
 1954 0232 2046     		mov	r0, r4
 1955 0234 9847     		blx	r3
 1956              	.LVL170:
 1957              	.L181:
 1958              		.loc 1 69 0
 1959 0236 0323     		movs	r3, #3
 1960 0238 94F84400 		ldrb	r0, [r4, #68]	@ zero_extendqisi2
 1961 023c 2370     		strb	r3, [r4]
 1962 023e 84E7     		b	.L190
 1963              	.LVL171:
 1964              	.L250:
 1965              	.LBE350:
 1966              	.LBE349:
 1967              		.loc 1 88 0
 1968 0240 92BB     		cbnz	r2, .L252
 1969              		.loc 1 93 0
 1970 0242 04F14C00 		add	r0, r4, #76
 1971 0246 0221     		movs	r1, #2
 1972 0248 2264     		str	r2, [r4, #64]
 1973              	.LVL172:
 1974 024a C4E90E01 		strd	r0, r1, [r4, #56]
 1975 024e EEE6     		b	.L178
 1976              	.LVL173:
 1977              	.L173:
 1978              		.loc 1 217 0
 1979 0250 94F84630 		ldrb	r3, [r4, #70]	@ zero_extendqisi2
 1980 0254 002B     		cmp	r3, #0
 1981 0256 7FF421AF 		bne	.L177
 1982              		.loc 1 221 0
 1983 025a 94F84830 		ldrb	r3, [r4, #72]	@ zero_extendqisi2
 1984 025e 13F00F01 		ands	r1, r3, #15
 1985 0262 3FF472AF 		beq	.L190
 1986              		.loc 1 222 0
 1987 0266 1E06     		lsls	r6, r3, #24
 1988              		.loc 1 223 0
 1989 0268 2046     		mov	r0, r4
 1990              		.loc 1 222 0
 1991 026a 62D4     		bmi	.L253
 1992              	.LVL174:
 1993              		.loc 1 226 0
 1994 026c FFF7FEFF 		bl	usb_lld_stall_out
 1995              	.LVL175:
ARM GAS  /var/folders/d2/nstgp4h54kz7g1l847x_b8wc0000gn/T//ccS6Toqb.s 			page 36


 1996 0270 94F84400 		ldrb	r0, [r4, #68]	@ zero_extendqisi2
 1997 0274 69E7     		b	.L190
 1998              	.L171:
 1999              	.LBB351:
 2000              	.LBB352:
 2001              		.loc 1 55 0
 2002 0276 94F84900 		ldrb	r0, [r4, #73]	@ zero_extendqisi2
 2003              	.LBE352:
 2004              	.LBE351:
 2005              		.loc 1 129 0
 2006 027a 6168     		ldr	r1, [r4, #4]
 2007              	.LBB354:
 2008              	.LBB353:
 2009              		.loc 1 55 0
 2010 027c 94F84830 		ldrb	r3, [r4, #72]	@ zero_extendqisi2
 2011              	.LBE353:
 2012              	.LBE354:
 2013              		.loc 1 129 0
 2014 0280 4F68     		ldr	r7, [r1, #4]
 2015 0282 94F84620 		ldrb	r2, [r4, #70]	@ zero_extendqisi2
 2016 0286 94F84710 		ldrb	r1, [r4, #71]	@ zero_extendqisi2
 2017 028a 43EA0023 		orr	r3, r3, r0, lsl #8
 2018 028e 2046     		mov	r0, r4
 2019 0290 B847     		blx	r7
 2020              	.LVL176:
 2021              		.loc 1 132 0
 2022 0292 0028     		cmp	r0, #0
 2023 0294 3FF402AF 		beq	.L177
 2024              		.loc 1 136 0
 2025 0298 4368     		ldr	r3, [r0, #4]
 2026 029a A363     		str	r3, [r4, #56]
 2027 029c 0168     		ldr	r1, [r0]
 2028 029e 94F84430 		ldrb	r3, [r4, #68]	@ zero_extendqisi2
 2029 02a2 C4E90F16 		strd	r1, r6, [r4, #60]
 2030              	.LVL177:
 2031 02a6 C2E6     		b	.L178
 2032              	.LVL178:
 2033              	.L252:
 2034              		.loc 1 88 0
 2035 02a8 012A     		cmp	r2, #1
 2036 02aa 7FF4F7AE 		bne	.L177
 2037              	.L168:
 2038              		.loc 1 160 0
 2039 02ae 194A     		ldr	r2, .L255+4
 2040 02b0 A263     		str	r2, [r4, #56]
 2041 02b2 0221     		movs	r1, #2
 2042 02b4 0022     		movs	r2, #0
 2043 02b6 C4E90F12 		strd	r1, r2, [r4, #60]
 2044              	.LVL179:
 2045 02ba B8E6     		b	.L178
 2046              	.LVL180:
 2047              	.L165:
 2048              		.loc 1 165 0
 2049 02bc 94F84830 		ldrb	r3, [r4, #72]	@ zero_extendqisi2
 2050 02c0 03F00F01 		and	r1, r3, #15
 2051 02c4 1B06     		lsls	r3, r3, #24
 2052              		.loc 1 166 0
ARM GAS  /var/folders/d2/nstgp4h54kz7g1l847x_b8wc0000gn/T//ccS6Toqb.s 			page 37


 2053 02c6 2046     		mov	r0, r4
 2054              		.loc 1 165 0
 2055 02c8 28D4     		bmi	.L254
 2056              	.LVL181:
 2057              		.loc 1 183 0
 2058 02ca FFF7FEFF 		bl	usb_lld_get_status_out
 2059              	.LVL182:
 2060 02ce 0128     		cmp	r0, #1
 2061 02d0 28D0     		beq	.L186
 2062              	.L241:
 2063 02d2 0228     		cmp	r0, #2
 2064 02d4 7FF4E2AE 		bne	.L177
 2065              		.loc 1 174 0
 2066 02d8 0F4B     		ldr	r3, .L255+8
 2067              	.L242:
 2068 02da A363     		str	r3, [r4, #56]
 2069 02dc 0221     		movs	r1, #2
 2070 02de 0023     		movs	r3, #0
 2071 02e0 C4E90F13 		strd	r1, r3, [r4, #60]
 2072              	.LVL183:
 2073 02e4 94F84430 		ldrb	r3, [r4, #68]	@ zero_extendqisi2
 2074 02e8 A1E6     		b	.L178
 2075              	.LVL184:
 2076              	.L163:
 2077              		.loc 1 107 0
 2078 02ea 94F84630 		ldrb	r3, [r4, #70]	@ zero_extendqisi2
 2079 02ee 012B     		cmp	r3, #1
 2080 02f0 7FF4D4AE 		bne	.L177
 2081              		.loc 1 108 0
 2082 02f4 B4F84C30 		ldrh	r3, [r4, #76]
 2083              		.loc 1 109 0
 2084 02f8 A663     		str	r6, [r4, #56]
 2085              		.loc 1 108 0
 2086 02fa 43F00203 		orr	r3, r3, #2
 2087              		.loc 1 109 0
 2088 02fe C4E90F66 		strd	r6, r6, [r4, #60]
 2089              	.LVL185:
 2090              		.loc 1 108 0
 2091 0302 A4F84C30 		strh	r3, [r4, #76]	@ movhi
 2092 0306 24E7     		b	.L179
 2093              	.LVL186:
 2094              	.L182:
 2095              		.loc 1 150 0
 2096 0308 0423     		movs	r3, #4
 2097 030a 2370     		strb	r3, [r4]
 2098 030c 60E7     		b	.L183
 2099              	.L256:
 2100 030e 00BF     		.align	2
 2101              	.L255:
 2102 0310 00000000 		.word	__stack_chk_guard
 2103 0314 00000000 		.word	.LANCHOR9
 2104 0318 00000000 		.word	.LANCHOR11
 2105              	.LVL187:
 2106              	.L254:
 2107              		.loc 1 166 0
 2108 031c FFF7FEFF 		bl	usb_lld_get_status_in
 2109              	.LVL188:
ARM GAS  /var/folders/d2/nstgp4h54kz7g1l847x_b8wc0000gn/T//ccS6Toqb.s 			page 38


 2110 0320 0128     		cmp	r0, #1
 2111 0322 D6D1     		bne	.L241
 2112              	.L186:
 2113              		.loc 1 169 0
 2114 0324 064B     		ldr	r3, .L257
 2115 0326 D8E7     		b	.L242
 2116              	.LVL189:
 2117              	.L251:
 2118              		.loc 1 207 0
 2119 0328 FFF7FEFF 		bl	usb_lld_clear_in
 2120              	.LVL190:
 2121 032c 94F84400 		ldrb	r0, [r4, #68]	@ zero_extendqisi2
 2122 0330 0BE7     		b	.L190
 2123              	.LVL191:
 2124              	.L253:
 2125              		.loc 1 223 0
 2126 0332 FFF7FEFF 		bl	usb_lld_stall_in
 2127              	.LVL192:
 2128 0336 94F84400 		ldrb	r0, [r4, #68]	@ zero_extendqisi2
 2129 033a 06E7     		b	.L190
 2130              	.LVL193:
 2131              	.L247:
 2132              	.LBE355:
 2133              	.LBE378:
 2134              		.loc 1 729 0
 2135 033c FFF7FEFF 		bl	__stack_chk_fail
 2136              	.LVL194:
 2137              	.L258:
 2138              		.align	2
 2139              	.L257:
 2140 0340 00000000 		.word	.LANCHOR10
 2141              		.cfi_endproc
 2142              	.LFE274:
 2143              		.size	_usb_ep0setup, .-_usb_ep0setup
 2144              		.section	.text._usb_ep0in,"ax",%progbits
 2145              		.align	1
 2146              		.p2align 4,,15
 2147              		.global	_usb_ep0in
 2148              		.syntax unified
 2149              		.thumb
 2150              		.thumb_func
 2151              		.fpu fpv4-sp-d16
 2152              		.type	_usb_ep0in, %function
 2153              	_usb_ep0in:
 2154              	.LFB275:
 2155              		.loc 1 741 0
 2156              		.cfi_startproc
 2157              		@ args = 0, pretend = 0, frame = 8
 2158              		@ frame_needed = 0, uses_anonymous_args = 0
 2159              	.LVL195:
 2160 0000 70B5     		push	{r4, r5, r6, lr}
 2161              		.cfi_def_cfa_offset 16
 2162              		.cfi_offset 4, -16
 2163              		.cfi_offset 5, -12
 2164              		.cfi_offset 6, -8
 2165              		.cfi_offset 14, -4
 2166 0002 454D     		ldr	r5, .L282
ARM GAS  /var/folders/d2/nstgp4h54kz7g1l847x_b8wc0000gn/T//ccS6Toqb.s 			page 39


 2167              		.loc 1 745 0
 2168 0004 90F83430 		ldrb	r3, [r0, #52]	@ zero_extendqisi2
 2169              		.loc 1 741 0
 2170 0008 2A68     		ldr	r2, [r5]
 2171 000a 82B0     		sub	sp, sp, #8
 2172              		.cfi_def_cfa_offset 24
 2173              		.loc 1 741 0
 2174 000c 0446     		mov	r4, r0
 2175 000e 0192     		str	r2, [sp, #4]
 2176              		.loc 1 745 0
 2177 0010 062B     		cmp	r3, #6
 2178 0012 57D8     		bhi	.L260
 2179 0014 DFE803F0 		tbb	[pc, r3]
 2180              	.L262:
 2181 0018 04       		.byte	(.L261-.L262)/2
 2182 0019 25       		.byte	(.L263-.L262)/2
 2183 001a 54       		.byte	(.L264-.L262)/2
 2184 001b 04       		.byte	(.L261-.L262)/2
 2185 001c 04       		.byte	(.L261-.L262)/2
 2186 001d 1E       		.byte	(.L265-.L262)/2
 2187 001e 07       		.byte	(.L266-.L262)/2
 2188 001f 00       		.p2align 1
 2189              	.L261:
 2190              		.loc 1 784 0 discriminator 2
 2191 0020 3E48     		ldr	r0, .L282+4
 2192              	.LVL196:
 2193 0022 FFF7FEFF 		bl	chSysHalt
 2194              	.LVL197:
 2195              	.L266:
 2196              		.loc 1 790 0
 2197 0026 0021     		movs	r1, #0
 2198 0028 2046     		mov	r0, r4
 2199 002a FFF7FEFF 		bl	usb_lld_stall_in
 2200              	.LVL198:
 2201              		.loc 1 791 0
 2202 002e 0021     		movs	r1, #0
 2203 0030 2046     		mov	r0, r4
 2204 0032 FFF7FEFF 		bl	usb_lld_stall_out
 2205              	.LVL199:
 2206              		.loc 1 792 0
 2207 0036 6368     		ldr	r3, [r4, #4]
 2208 0038 1B68     		ldr	r3, [r3]
 2209 003a 13B1     		cbz	r3, .L270
 2210              		.loc 1 792 0 is_stmt 0 discriminator 1
 2211 003c 0521     		movs	r1, #5
 2212 003e 2046     		mov	r0, r4
 2213 0040 9847     		blx	r3
 2214              	.LVL200:
 2215              	.L270:
 2216              		.loc 1 793 0 is_stmt 1
 2217 0042 0623     		movs	r3, #6
 2218 0044 84F83430 		strb	r3, [r4, #52]
 2219              	.L259:
 2220              		.loc 1 798 0
 2221 0048 019A     		ldr	r2, [sp, #4]
 2222 004a 2B68     		ldr	r3, [r5]
 2223 004c 9A42     		cmp	r2, r3
ARM GAS  /var/folders/d2/nstgp4h54kz7g1l847x_b8wc0000gn/T//ccS6Toqb.s 			page 40


 2224 004e 61D1     		bne	.L280
 2225 0050 02B0     		add	sp, sp, #8
 2226              		.cfi_remember_state
 2227              		.cfi_def_cfa_offset 16
 2228              		@ sp needed
 2229 0052 70BD     		pop	{r4, r5, r6, pc}
 2230              	.LVL201:
 2231              	.L265:
 2232              		.cfi_restore_state
 2233              		.loc 1 775 0
 2234 0054 036C     		ldr	r3, [r0, #64]
 2235 0056 03B1     		cbz	r3, .L269
 2236              		.loc 1 776 0
 2237 0058 9847     		blx	r3
 2238              	.LVL202:
 2239              	.L269:
 2240              		.loc 1 778 0
 2241 005a 0023     		movs	r3, #0
 2242 005c 84F83430 		strb	r3, [r4, #52]
 2243              		.loc 1 779 0
 2244 0060 F2E7     		b	.L259
 2245              	.LVL203:
 2246              	.L263:
 2247              	.LBB379:
 2248              	.LBB380:
 2249              		.loc 1 55 0
 2250 0062 90F84B00 		ldrb	r0, [r0, #75]	@ zero_extendqisi2
 2251              	.LVL204:
 2252 0066 94F84A20 		ldrb	r2, [r4, #74]	@ zero_extendqisi2
 2253              	.LBE380:
 2254              	.LBE379:
 2255              		.loc 1 751 0
 2256 006a E16B     		ldr	r1, [r4, #60]
 2257              	.LVL205:
 2258 006c E368     		ldr	r3, [r4, #12]
 2259              		.loc 1 747 0
 2260 006e 42EA0022 		orr	r2, r2, r0, lsl #8
 2261              		.loc 1 751 0
 2262 0072 9142     		cmp	r1, r2
 2263 0074 05D2     		bcs	.L267
 2264              		.loc 1 752 0 discriminator 1
 2265 0076 1A8A     		ldrh	r2, [r3, #16]
 2266 0078 B1FBF2F6 		udiv	r6, r1, r2
 2267 007c 02FB1616 		mls	r6, r2, r6, r1
 2268              		.loc 1 751 0 discriminator 1
 2269 0080 56B3     		cbz	r6, .L281
 2270              	.LVL206:
 2271              	.L267:
 2272              		.loc 1 763 0
 2273 0082 0322     		movs	r2, #3
 2274 0084 84F83420 		strb	r2, [r4, #52]
 2275              	.LVL207:
 2276              	.LBB381:
 2277              	.LBB382:
 2278              		.loc 1 401 0
 2279 0088 9B69     		ldr	r3, [r3, #24]
 2280              	.LVL208:
ARM GAS  /var/folders/d2/nstgp4h54kz7g1l847x_b8wc0000gn/T//ccS6Toqb.s 			page 41


 2281              		.loc 1 403 0
 2282 008a 0026     		movs	r6, #0
 2283 008c 1E70     		strb	r6, [r3]
 2284              		.loc 1 404 0
 2285 008e DE60     		str	r6, [r3, #12]
 2286              		.loc 1 406 0
 2287 0090 C3E90166 		strd	r6, r6, [r3, #4]
 2288              		.loc 1 408 0
 2289 0094 3146     		mov	r1, r6
 2290 0096 2046     		mov	r0, r4
 2291 0098 FFF7FEFF 		bl	usb_lld_prepare_receive
 2292              	.LVL209:
 2293              	.LBE382:
 2294              	.LBE381:
 2295              	.LBB383:
 2296              	.LBB384:
 2297              	.LBB385:
 2298              	.LBB386:
 2299              	.LBB387:
 2300              	.LBB388:
 2301              	.LBB389:
 2302              		.loc 2 546 0
 2303 009c 2023     		movs	r3, #32
 2304              		.syntax unified
 2305              	@ 546 "../e-puck2_main-processor/ChibiOS//os/ext/CMSIS/include/core_cmFunc.h" 1
 2306 009e 83F31188 		MSR basepri, r3
 2307              	@ 0 "" 2
 2308              	.LVL210:
 2309              		.thumb
 2310              		.syntax unified
 2311              	.LBE389:
 2312              	.LBE388:
 2313              	.LBE387:
 2314              	.LBE386:
 2315              		.loc 3 389 0
 2316 00a2 FFF7FEFF 		bl	_stats_start_measure_crit_isr
 2317              	.LVL211:
 2318              		.loc 3 390 0
 2319 00a6 FFF7FEFF 		bl	_dbg_check_lock_from_isr
 2320              	.LVL212:
 2321              	.LBE385:
 2322              	.LBE384:
 2323              	.LBE383:
 2324              		.loc 1 767 0
 2325 00aa 3146     		mov	r1, r6
 2326 00ac 2046     		mov	r0, r4
 2327 00ae FFF7FEFF 		bl	usbStartReceiveI
 2328              	.LVL213:
 2329              	.LBB390:
 2330              	.LBB391:
 2331              	.LBB392:
 2332              		.loc 3 408 0
 2333 00b2 FFF7FEFF 		bl	_dbg_check_unlock_from_isr
 2334              	.LVL214:
 2335              		.loc 3 409 0
 2336 00b6 FFF7FEFF 		bl	_stats_stop_measure_crit_isr
 2337              	.LVL215:
ARM GAS  /var/folders/d2/nstgp4h54kz7g1l847x_b8wc0000gn/T//ccS6Toqb.s 			page 42


 2338              	.LBB393:
 2339              	.LBB394:
 2340              	.LBB395:
 2341              	.LBB396:
 2342              		.loc 2 546 0
 2343              		.syntax unified
 2344              	@ 546 "../e-puck2_main-processor/ChibiOS//os/ext/CMSIS/include/core_cmFunc.h" 1
 2345 00ba 86F31188 		MSR basepri, r6
 2346              	@ 0 "" 2
 2347              	.LVL216:
 2348              		.thumb
 2349              		.syntax unified
 2350 00be C3E7     		b	.L259
 2351              	.LVL217:
 2352              	.L264:
 2353 00c0 C368     		ldr	r3, [r0, #12]
 2354 00c2 DEE7     		b	.L267
 2355              	.L260:
 2356              	.LBE396:
 2357              	.LBE395:
 2358              	.LBE394:
 2359              	.LBE393:
 2360              	.LBE392:
 2361              	.LBE391:
 2362              	.LBE390:
 2363              		.loc 1 796 0 discriminator 2
 2364 00c4 019A     		ldr	r2, [sp, #4]
 2365 00c6 2B68     		ldr	r3, [r5]
 2366 00c8 9A42     		cmp	r2, r3
 2367 00ca 23D1     		bne	.L280
 2368 00cc 1348     		ldr	r0, .L282+4
 2369              	.LVL218:
 2370              		.loc 1 798 0 discriminator 2
 2371 00ce 02B0     		add	sp, sp, #8
 2372              		@ sp needed
 2373 00d0 BDE87040 		pop	{r4, r5, r6, lr}
 2374              	.LVL219:
 2375              		.loc 1 796 0 discriminator 2
 2376 00d4 FFF7FEBF 		b	chSysHalt
 2377              	.LVL220:
 2378              	.L281:
 2379              	.LBB397:
 2380              	.LBB398:
 2381              		.loc 1 427 0
 2382 00d8 5B69     		ldr	r3, [r3, #20]
 2383              	.LVL221:
 2384              		.loc 1 434 0
 2385 00da 3146     		mov	r1, r6
 2386              		.loc 1 429 0
 2387 00dc 1E70     		strb	r6, [r3]
 2388              	.LVL222:
 2389              		.loc 1 430 0
 2390 00de DE60     		str	r6, [r3, #12]
 2391              		.loc 1 432 0
 2392 00e0 C3E90166 		strd	r6, r6, [r3, #4]
 2393              		.loc 1 434 0
 2394 00e4 2046     		mov	r0, r4
ARM GAS  /var/folders/d2/nstgp4h54kz7g1l847x_b8wc0000gn/T//ccS6Toqb.s 			page 43


 2395 00e6 FFF7FEFF 		bl	usb_lld_prepare_transmit
 2396              	.LVL223:
 2397              	.LBE398:
 2398              	.LBE397:
 2399              	.LBB399:
 2400              	.LBB400:
 2401              	.LBB401:
 2402              	.LBB402:
 2403              	.LBB403:
 2404              	.LBB404:
 2405              	.LBB405:
 2406              		.loc 2 546 0
 2407 00ea 2023     		movs	r3, #32
 2408              		.syntax unified
 2409              	@ 546 "../e-puck2_main-processor/ChibiOS//os/ext/CMSIS/include/core_cmFunc.h" 1
 2410 00ec 83F31188 		MSR basepri, r3
 2411              	@ 0 "" 2
 2412              	.LVL224:
 2413              		.thumb
 2414              		.syntax unified
 2415              	.LBE405:
 2416              	.LBE404:
 2417              	.LBE403:
 2418              	.LBE402:
 2419              		.loc 3 389 0
 2420 00f0 FFF7FEFF 		bl	_stats_start_measure_crit_isr
 2421              	.LVL225:
 2422              		.loc 3 390 0
 2423 00f4 FFF7FEFF 		bl	_dbg_check_lock_from_isr
 2424              	.LVL226:
 2425              	.LBE401:
 2426              	.LBE400:
 2427              	.LBE399:
 2428              		.loc 1 755 0
 2429 00f8 3146     		mov	r1, r6
 2430 00fa 2046     		mov	r0, r4
 2431 00fc FFF7FEFF 		bl	usbStartTransmitI
 2432              	.LVL227:
 2433              	.LBB406:
 2434              	.LBB407:
 2435              	.LBB408:
 2436              		.loc 3 408 0
 2437 0100 FFF7FEFF 		bl	_dbg_check_unlock_from_isr
 2438              	.LVL228:
 2439              		.loc 3 409 0
 2440 0104 FFF7FEFF 		bl	_stats_stop_measure_crit_isr
 2441              	.LVL229:
 2442              	.LBB409:
 2443              	.LBB410:
 2444              	.LBB411:
 2445              	.LBB412:
 2446              		.loc 2 546 0
 2447              		.syntax unified
 2448              	@ 546 "../e-puck2_main-processor/ChibiOS//os/ext/CMSIS/include/core_cmFunc.h" 1
 2449 0108 86F31188 		MSR basepri, r6
 2450              	@ 0 "" 2
 2451              	.LVL230:
ARM GAS  /var/folders/d2/nstgp4h54kz7g1l847x_b8wc0000gn/T//ccS6Toqb.s 			page 44


 2452              		.thumb
 2453              		.syntax unified
 2454              	.LBE412:
 2455              	.LBE411:
 2456              	.LBE410:
 2457              	.LBE409:
 2458              	.LBE408:
 2459              	.LBE407:
 2460              	.LBE406:
 2461              		.loc 1 757 0
 2462 010c 0223     		movs	r3, #2
 2463 010e 84F83430 		strb	r3, [r4, #52]
 2464              		.loc 1 758 0
 2465 0112 99E7     		b	.L259
 2466              	.L280:
 2467              		.loc 1 798 0
 2468 0114 FFF7FEFF 		bl	__stack_chk_fail
 2469              	.LVL231:
 2470              	.L283:
 2471              		.align	2
 2472              	.L282:
 2473 0118 00000000 		.word	__stack_chk_guard
 2474 011c 00000000 		.word	.LANCHOR12
 2475              		.cfi_endproc
 2476              	.LFE275:
 2477              		.size	_usb_ep0in, .-_usb_ep0in
 2478              		.section	.text._usb_ep0out,"ax",%progbits
 2479              		.align	1
 2480              		.p2align 4,,15
 2481              		.global	_usb_ep0out
 2482              		.syntax unified
 2483              		.thumb
 2484              		.thumb_func
 2485              		.fpu fpv4-sp-d16
 2486              		.type	_usb_ep0out, %function
 2487              	_usb_ep0out:
 2488              	.LFB276:
 2489              		.loc 1 810 0
 2490              		.cfi_startproc
 2491              		@ args = 0, pretend = 0, frame = 8
 2492              		@ frame_needed = 0, uses_anonymous_args = 0
 2493              	.LVL232:
 2494 0000 70B5     		push	{r4, r5, r6, lr}
 2495              		.cfi_def_cfa_offset 16
 2496              		.cfi_offset 4, -16
 2497              		.cfi_offset 5, -12
 2498              		.cfi_offset 6, -8
 2499              		.cfi_offset 14, -4
 2500 0002 304D     		ldr	r5, .L304
 2501              		.loc 1 813 0
 2502 0004 90F83430 		ldrb	r3, [r0, #52]	@ zero_extendqisi2
 2503              		.loc 1 810 0
 2504 0008 2A68     		ldr	r2, [r5]
 2505 000a 82B0     		sub	sp, sp, #8
 2506              		.cfi_def_cfa_offset 24
 2507              		.loc 1 810 0
 2508 000c 0446     		mov	r4, r0
ARM GAS  /var/folders/d2/nstgp4h54kz7g1l847x_b8wc0000gn/T//ccS6Toqb.s 			page 45


 2509 000e 0192     		str	r2, [sp, #4]
 2510              		.loc 1 813 0
 2511 0010 062B     		cmp	r3, #6
 2512 0012 4AD8     		bhi	.L285
 2513 0014 DFE803F0 		tbb	[pc, r3]
 2514              	.L287:
 2515 0018 04       		.byte	(.L286-.L287)/2
 2516 0019 04       		.byte	(.L286-.L287)/2
 2517 001a 04       		.byte	(.L286-.L287)/2
 2518 001b 3D       		.byte	(.L288-.L287)/2
 2519 001c 1E       		.byte	(.L289-.L287)/2
 2520 001d 04       		.byte	(.L286-.L287)/2
 2521 001e 07       		.byte	(.L290-.L287)/2
 2522 001f 00       		.p2align 1
 2523              	.L286:
 2524              		.loc 1 844 0 discriminator 2
 2525 0020 2948     		ldr	r0, .L304+4
 2526              	.LVL233:
 2527 0022 FFF7FEFF 		bl	chSysHalt
 2528              	.LVL234:
 2529              	.L290:
 2530              		.loc 1 850 0
 2531 0026 0021     		movs	r1, #0
 2532 0028 2046     		mov	r0, r4
 2533 002a FFF7FEFF 		bl	usb_lld_stall_in
 2534              	.LVL235:
 2535              		.loc 1 851 0
 2536 002e 0021     		movs	r1, #0
 2537 0030 2046     		mov	r0, r4
 2538 0032 FFF7FEFF 		bl	usb_lld_stall_out
 2539              	.LVL236:
 2540              		.loc 1 852 0
 2541 0036 6368     		ldr	r3, [r4, #4]
 2542 0038 1B68     		ldr	r3, [r3]
 2543 003a 13B1     		cbz	r3, .L293
 2544              		.loc 1 852 0 is_stmt 0 discriminator 1
 2545 003c 0521     		movs	r1, #5
 2546 003e 2046     		mov	r0, r4
 2547 0040 9847     		blx	r3
 2548              	.LVL237:
 2549              	.L293:
 2550              		.loc 1 853 0 is_stmt 1
 2551 0042 0623     		movs	r3, #6
 2552 0044 84F83430 		strb	r3, [r4, #52]
 2553              	.L284:
 2554              		.loc 1 858 0
 2555 0048 019A     		ldr	r2, [sp, #4]
 2556 004a 2B68     		ldr	r3, [r5]
 2557 004c 9A42     		cmp	r2, r3
 2558 004e 36D1     		bne	.L303
 2559 0050 02B0     		add	sp, sp, #8
 2560              		.cfi_remember_state
 2561              		.cfi_def_cfa_offset 16
 2562              		@ sp needed
 2563 0052 70BD     		pop	{r4, r5, r6, pc}
 2564              	.LVL238:
 2565              	.L289:
ARM GAS  /var/folders/d2/nstgp4h54kz7g1l847x_b8wc0000gn/T//ccS6Toqb.s 			page 46


 2566              		.cfi_restore_state
 2567              	.LBB413:
 2568              	.LBB414:
 2569              		.loc 1 427 0
 2570 0054 C368     		ldr	r3, [r0, #12]
 2571              	.LBE414:
 2572              	.LBE413:
 2573              		.loc 1 816 0
 2574 0056 0522     		movs	r2, #5
 2575 0058 80F83420 		strb	r2, [r0, #52]
 2576              	.LVL239:
 2577              	.LBB416:
 2578              	.LBB415:
 2579              		.loc 1 427 0
 2580 005c 5B69     		ldr	r3, [r3, #20]
 2581              	.LVL240:
 2582              		.loc 1 429 0
 2583 005e 0026     		movs	r6, #0
 2584 0060 1E70     		strb	r6, [r3]
 2585              		.loc 1 430 0
 2586 0062 DE60     		str	r6, [r3, #12]
 2587              		.loc 1 432 0
 2588 0064 C3E90166 		strd	r6, r6, [r3, #4]
 2589              		.loc 1 434 0
 2590 0068 3146     		mov	r1, r6
 2591              	.LVL241:
 2592 006a FFF7FEFF 		bl	usb_lld_prepare_transmit
 2593              	.LVL242:
 2594              	.LBE415:
 2595              	.LBE416:
 2596              	.LBB417:
 2597              	.LBB418:
 2598              	.LBB419:
 2599              	.LBB420:
 2600              	.LBB421:
 2601              	.LBB422:
 2602              	.LBB423:
 2603              		.loc 2 546 0
 2604 006e 2023     		movs	r3, #32
 2605              		.syntax unified
 2606              	@ 546 "../e-puck2_main-processor/ChibiOS//os/ext/CMSIS/include/core_cmFunc.h" 1
 2607 0070 83F31188 		MSR basepri, r3
 2608              	@ 0 "" 2
 2609              	.LVL243:
 2610              		.thumb
 2611              		.syntax unified
 2612              	.LBE423:
 2613              	.LBE422:
 2614              	.LBE421:
 2615              	.LBE420:
 2616              		.loc 3 389 0
 2617 0074 FFF7FEFF 		bl	_stats_start_measure_crit_isr
 2618              	.LVL244:
 2619              		.loc 3 390 0
 2620 0078 FFF7FEFF 		bl	_dbg_check_lock_from_isr
 2621              	.LVL245:
 2622              	.LBE419:
ARM GAS  /var/folders/d2/nstgp4h54kz7g1l847x_b8wc0000gn/T//ccS6Toqb.s 			page 47


 2623              	.LBE418:
 2624              	.LBE417:
 2625              		.loc 1 820 0
 2626 007c 3146     		mov	r1, r6
 2627 007e 2046     		mov	r0, r4
 2628 0080 FFF7FEFF 		bl	usbStartTransmitI
 2629              	.LVL246:
 2630              	.LBB424:
 2631              	.LBB425:
 2632              	.LBB426:
 2633              		.loc 3 408 0
 2634 0084 FFF7FEFF 		bl	_dbg_check_unlock_from_isr
 2635              	.LVL247:
 2636              		.loc 3 409 0
 2637 0088 FFF7FEFF 		bl	_stats_stop_measure_crit_isr
 2638              	.LVL248:
 2639              	.LBB427:
 2640              	.LBB428:
 2641              	.LBB429:
 2642              	.LBB430:
 2643              		.loc 2 546 0
 2644              		.syntax unified
 2645              	@ 546 "../e-puck2_main-processor/ChibiOS//os/ext/CMSIS/include/core_cmFunc.h" 1
 2646 008c 86F31188 		MSR basepri, r6
 2647              	@ 0 "" 2
 2648              	.LVL249:
 2649              		.thumb
 2650              		.syntax unified
 2651 0090 DAE7     		b	.L284
 2652              	.LVL250:
 2653              	.L288:
 2654              	.LBE430:
 2655              	.LBE429:
 2656              	.LBE428:
 2657              	.LBE427:
 2658              	.LBE426:
 2659              	.LBE425:
 2660              	.LBE424:
 2661              		.loc 1 830 0
 2662 0092 C368     		ldr	r3, [r0, #12]
 2663 0094 9B69     		ldr	r3, [r3, #24]
 2664 0096 9B68     		ldr	r3, [r3, #8]
 2665 0098 002B     		cmp	r3, #0
 2666 009a D5D1     		bne	.L284
 2667              		.loc 1 834 0
 2668 009c 036C     		ldr	r3, [r0, #64]
 2669 009e 03B1     		cbz	r3, .L292
 2670              		.loc 1 835 0
 2671 00a0 9847     		blx	r3
 2672              	.LVL251:
 2673              	.L292:
 2674              		.loc 1 837 0
 2675 00a2 0023     		movs	r3, #0
 2676 00a4 84F83430 		strb	r3, [r4, #52]
 2677              		.loc 1 838 0
 2678 00a8 CEE7     		b	.L284
 2679              	.LVL252:
ARM GAS  /var/folders/d2/nstgp4h54kz7g1l847x_b8wc0000gn/T//ccS6Toqb.s 			page 48


 2680              	.L285:
 2681              		.loc 1 856 0 discriminator 2
 2682 00aa 019A     		ldr	r2, [sp, #4]
 2683 00ac 2B68     		ldr	r3, [r5]
 2684 00ae 9A42     		cmp	r2, r3
 2685 00b0 05D1     		bne	.L303
 2686 00b2 0548     		ldr	r0, .L304+4
 2687              	.LVL253:
 2688              		.loc 1 858 0 discriminator 2
 2689 00b4 02B0     		add	sp, sp, #8
 2690              		@ sp needed
 2691 00b6 BDE87040 		pop	{r4, r5, r6, lr}
 2692              	.LVL254:
 2693              		.loc 1 856 0 discriminator 2
 2694 00ba FFF7FEBF 		b	chSysHalt
 2695              	.LVL255:
 2696              	.L303:
 2697              		.loc 1 858 0
 2698 00be FFF7FEFF 		bl	__stack_chk_fail
 2699              	.LVL256:
 2700              	.L305:
 2701 00c2 00BF     		.align	2
 2702              	.L304:
 2703 00c4 00000000 		.word	__stack_chk_guard
 2704 00c8 00000000 		.word	.LANCHOR13
 2705              		.cfi_endproc
 2706              	.LFE276:
 2707              		.size	_usb_ep0out, .-_usb_ep0out
 2708              		.section	.rodata.__func__.10294,"a",%progbits
 2709              		.align	2
 2710              		.set	.LANCHOR0,. + 0
 2711              		.type	__func__.10294, %object
 2712              		.size	__func__.10294, 9
 2713              	__func__.10294:
 2714 0000 75736253 		.ascii	"usbStart\000"
 2714      74617274 
 2714      00
 2715              		.section	.rodata.__func__.10301,"a",%progbits
 2716              		.align	2
 2717              		.set	.LANCHOR2,. + 0
 2718              		.type	__func__.10301, %object
 2719              		.size	__func__.10301, 8
 2720              	__func__.10301:
 2721 0000 75736253 		.ascii	"usbStop\000"
 2721      746F7000 
 2722              		.section	.rodata.__func__.10307,"a",%progbits
 2723              		.align	2
 2724              		.set	.LANCHOR3,. + 0
 2725              		.type	__func__.10307, %object
 2726              		.size	__func__.10307, 17
 2727              	__func__.10307:
 2728 0000 75736249 		.ascii	"usbInitEndpointI\000"
 2728      6E697445 
 2728      6E64706F 
 2728      696E7449 
 2728      00
 2729              		.section	.rodata.__func__.10312,"a",%progbits
ARM GAS  /var/folders/d2/nstgp4h54kz7g1l847x_b8wc0000gn/T//ccS6Toqb.s 			page 49


 2730              		.align	2
 2731              		.set	.LANCHOR4,. + 0
 2732              		.type	__func__.10312, %object
 2733              		.size	__func__.10312, 21
 2734              	__func__.10312:
 2735 0000 75736244 		.ascii	"usbDisableEndpointsI\000"
 2735      69736162 
 2735      6C65456E 
 2735      64706F69 
 2735      6E747349 
 2736              		.section	.rodata.__func__.10348,"a",%progbits
 2737              		.align	2
 2738              		.set	.LANCHOR5,. + 0
 2739              		.type	__func__.10348, %object
 2740              		.size	__func__.10348, 17
 2741              	__func__.10348:
 2742 0000 75736253 		.ascii	"usbStartReceiveI\000"
 2742      74617274 
 2742      52656365 
 2742      69766549 
 2742      00
 2743              		.section	.rodata.__func__.10353,"a",%progbits
 2744              		.align	2
 2745              		.set	.LANCHOR6,. + 0
 2746              		.type	__func__.10353, %object
 2747              		.size	__func__.10353, 18
 2748              	__func__.10353:
 2749 0000 75736253 		.ascii	"usbStartTransmitI\000"
 2749      74617274 
 2749      5472616E 
 2749      736D6974 
 2749      4900
 2750              		.section	.rodata.__func__.10358,"a",%progbits
 2751              		.align	2
 2752              		.set	.LANCHOR7,. + 0
 2753              		.type	__func__.10358, %object
 2754              		.size	__func__.10358, 17
 2755              	__func__.10358:
 2756 0000 75736253 		.ascii	"usbStallReceiveI\000"
 2756      74616C6C 
 2756      52656365 
 2756      69766549 
 2756      00
 2757              		.section	.rodata.__func__.10363,"a",%progbits
 2758              		.align	2
 2759              		.set	.LANCHOR8,. + 0
 2760              		.type	__func__.10363, %object
 2761              		.size	__func__.10363, 18
 2762              	__func__.10363:
 2763 0000 75736253 		.ascii	"usbStallTransmitI\000"
 2763      74616C6C 
 2763      5472616E 
 2763      736D6974 
 2763      4900
 2764              		.section	.rodata.__func__.10387,"a",%progbits
 2765              		.align	2
 2766              		.set	.LANCHOR12,. + 0
ARM GAS  /var/folders/d2/nstgp4h54kz7g1l847x_b8wc0000gn/T//ccS6Toqb.s 			page 50


 2767              		.type	__func__.10387, %object
 2768              		.size	__func__.10387, 11
 2769              	__func__.10387:
 2770 0000 5F757362 		.ascii	"_usb_ep0in\000"
 2770      5F657030 
 2770      696E00
 2771              		.section	.rodata.__func__.10401,"a",%progbits
 2772              		.align	2
 2773              		.set	.LANCHOR13,. + 0
 2774              		.type	__func__.10401, %object
 2775              		.size	__func__.10401, 12
 2776              	__func__.10401:
 2777 0000 5F757362 		.ascii	"_usb_ep0out\000"
 2777      5F657030 
 2777      6F757400 
 2778              		.section	.rodata.__func__.7554,"a",%progbits
 2779              		.align	2
 2780              		.set	.LANCHOR1,. + 0
 2781              		.type	__func__.7554, %object
 2782              		.size	__func__.7554, 12
 2783              	__func__.7554:
 2784 0000 63685379 		.ascii	"chSysUnlock\000"
 2784      73556E6C 
 2784      6F636B00 
 2785              		.section	.rodata.active_status,"a",%progbits
 2786              		.align	2
 2787              		.set	.LANCHOR11,. + 0
 2788              		.type	active_status, %object
 2789              		.size	active_status, 2
 2790              	active_status:
 2791 0000 0000     		.space	2
 2792              		.section	.rodata.halted_status,"a",%progbits
 2793              		.align	2
 2794              		.set	.LANCHOR10,. + 0
 2795              		.type	halted_status, %object
 2796              		.size	halted_status, 2
 2797              	halted_status:
 2798 0000 01       		.byte	1
 2799 0001 00       		.byte	0
 2800              		.section	.rodata.zero_status,"a",%progbits
 2801              		.align	2
 2802              		.set	.LANCHOR9,. + 0
 2803              		.type	zero_status, %object
 2804              		.size	zero_status, 2
 2805              	zero_status:
 2806 0000 0000     		.space	2
 2807              		.text
 2808              	.Letext0:
 2809              		.file 4 "/Applications/Eclipse_e-puck2.app/Contents/Eclipse_e-puck2/Tools/gcc-arm-none-eabi-7-2017
 2810              		.file 5 "/Applications/Eclipse_e-puck2.app/Contents/Eclipse_e-puck2/Tools/gcc-arm-none-eabi-7-2017
 2811              		.file 6 "/Applications/Eclipse_e-puck2.app/Contents/Eclipse_e-puck2/Tools/gcc-arm-none-eabi-7-2017
 2812              		.file 7 "/Applications/Eclipse_e-puck2.app/Contents/Eclipse_e-puck2/Tools/gcc-arm-none-eabi-7-2017
 2813              		.file 8 "/Applications/Eclipse_e-puck2.app/Contents/Eclipse_e-puck2/Tools/gcc-arm-none-eabi-7-2017
 2814              		.file 9 "/Applications/Eclipse_e-puck2.app/Contents/Eclipse_e-puck2/Tools/gcc-arm-none-eabi-7-2017
 2815              		.file 10 "../e-puck2_main-processor/ChibiOS//os/rt/ports/ARMCMx/compilers/GCC/chtypes.h"
 2816              		.file 11 "../e-puck2_main-processor/ChibiOS//os/rt/include/chsystypes.h"
 2817              		.file 12 "../e-puck2_main-processor/ChibiOS//os/rt/include/chschd.h"
ARM GAS  /var/folders/d2/nstgp4h54kz7g1l847x_b8wc0000gn/T//ccS6Toqb.s 			page 51


 2818              		.file 13 "../e-puck2_main-processor/ChibiOS//os/ext/CMSIS/include/core_cm4.h"
 2819              		.file 14 "../e-puck2_main-processor/ChibiOS//os/ext/CMSIS/ST/system_stm32f4xx.h"
 2820              		.file 15 "../e-puck2_main-processor/ChibiOS//os/ext/CMSIS/ST/stm32f407xx.h"
 2821              		.file 16 "../e-puck2_main-processor/ChibiOS//os/rt/ports/ARMCMx/chcore.h"
 2822              		.file 17 "../e-puck2_main-processor/ChibiOS//os/rt/ports/ARMCMx/chcore_v7m.h"
 2823              		.file 18 "../e-puck2_main-processor/ChibiOS//os/rt/include/chdebug.h"
 2824              		.file 19 "../e-puck2_main-processor/ChibiOS//os/rt/include/chtm.h"
 2825              		.file 20 "../e-puck2_main-processor/ChibiOS//os/rt/include/chstats.h"
 2826              		.file 21 "../e-puck2_main-processor/ChibiOS//os/rt/include/chsem.h"
 2827              		.file 22 "../e-puck2_main-processor/ChibiOS//os/rt/include/chmtx.h"
 2828              		.file 23 "../e-puck2_main-processor/ChibiOS//os/rt/include/chregistry.h"
 2829              		.file 24 "../e-puck2_main-processor/ChibiOS//os/rt/include/chevents.h"
 2830              		.file 25 "../e-puck2_main-processor/ChibiOS//os/rt/include/chqueues.h"
 2831              		.file 26 "../e-puck2_main-processor/ChibiOS//os/hal/ports/STM32/STM32F4xx/stm32_dma.h"
 2832              		.file 27 "../e-puck2_main-processor/ChibiOS//os/hal/include/hal_ioblock.h"
 2833              		.file 28 "../e-puck2_main-processor/ChibiOS//os/hal/ports/STM32/LLD/GPIOv2/pal_lld.h"
 2834              		.file 29 "../e-puck2_main-processor/ChibiOS//os/hal/include/adc.h"
 2835              		.file 30 "../e-puck2_main-processor/ChibiOS//os/hal/ports/STM32/STM32F4xx/adc_lld.h"
 2836              		.file 31 "../e-puck2_main-processor/ChibiOS//os/hal/include/can.h"
 2837              		.file 32 "../e-puck2_main-processor/ChibiOS//os/hal/ports/STM32/LLD/can_lld.h"
 2838              		.file 33 "../e-puck2_main-processor/ChibiOS//os/hal/include/dac.h"
 2839              		.file 34 "../e-puck2_main-processor/ChibiOS//os/hal/ports/STM32/LLD/DACv1/dac_lld.h"
 2840              		.file 35 "../e-puck2_main-processor/ChibiOS//os/hal/include/ext.h"
 2841              		.file 36 "../e-puck2_main-processor/ChibiOS//os/hal/ports/STM32/LLD/ext_lld.h"
 2842              		.file 37 "../e-puck2_main-processor/ChibiOS//os/hal/include/gpt.h"
 2843              		.file 38 "../e-puck2_main-processor/ChibiOS//os/hal/ports/STM32/LLD/TIMv1/gpt_lld.h"
 2844              		.file 39 "../e-puck2_main-processor/ChibiOS//os/hal/ports/STM32/LLD/TIMv1/stm32_tim.h"
 2845              		.file 40 "../e-puck2_main-processor/ChibiOS//os/hal/include/i2c.h"
 2846              		.file 41 "../e-puck2_main-processor/ChibiOS//os/hal/ports/STM32/LLD/I2Cv1/i2c_lld.h"
 2847              		.file 42 "../e-puck2_main-processor/ChibiOS//os/hal/include/i2s.h"
 2848              		.file 43 "../e-puck2_main-processor/ChibiOS//os/hal/ports/STM32/LLD/SPIv1/i2s_lld.h"
 2849              		.file 44 "../e-puck2_main-processor/ChibiOS//os/hal/include/pwm.h"
 2850              		.file 45 "../e-puck2_main-processor/ChibiOS//os/hal/ports/STM32/LLD/TIMv1/pwm_lld.h"
 2851              		.file 46 "../e-puck2_main-processor/ChibiOS//os/hal/include/serial.h"
 2852              		.file 47 "../e-puck2_main-processor/ChibiOS//os/hal/ports/STM32/LLD/USARTv1/serial_lld.h"
 2853              		.file 48 "../e-puck2_main-processor/ChibiOS//os/hal/include/sdc.h"
 2854              		.file 49 "../e-puck2_main-processor/ChibiOS//os/hal/ports/STM32/LLD/sdc_lld.h"
 2855              		.file 50 "../e-puck2_main-processor/ChibiOS//os/hal/include/spi.h"
 2856              		.file 51 "../e-puck2_main-processor/ChibiOS//os/hal/ports/STM32/LLD/SPIv1/spi_lld.h"
 2857              		.file 52 "../e-puck2_main-processor/ChibiOS//os/hal/include/usb.h"
 2858              		.file 53 "../e-puck2_main-processor/ChibiOS//os/hal/ports/STM32/LLD/OTGv1/usb_lld.h"
 2859              		.file 54 "../e-puck2_main-processor/ChibiOS//os/hal/ports/STM32/LLD/OTGv1/stm32_otg.h"
 2860              		.file 55 "../e-puck2_main-processor/ChibiOS//os/hal/osal/rt/osal.h"