ARM GAS  /var/folders/d2/nstgp4h54kz7g1l847x_b8wc0000gn/T//ccvTRJsx.s 			page 1


   1              		.cpu cortex-m4
   2              		.eabi_attribute 27, 1
   3              		.eabi_attribute 28, 1
   4              		.eabi_attribute 20, 1
   5              		.eabi_attribute 21, 1
   6              		.eabi_attribute 23, 3
   7              		.eabi_attribute 24, 1
   8              		.eabi_attribute 25, 1
   9              		.eabi_attribute 26, 1
  10              		.eabi_attribute 30, 6
  11              		.eabi_attribute 34, 1
  12              		.eabi_attribute 18, 4
  13              		.file	"usb_lld.c"
  14              		.section	.text.port_lock,"ax",%progbits
  15              		.align	1
  16              		.syntax unified
  17              		.thumb
  18              		.thumb_func
  19              		.fpu fpv4-sp-d16
  20              		.type	port_lock, %function
  21              	port_lock:
  22              		@ args = 0, pretend = 0, frame = 8
  23              		@ frame_needed = 1, uses_anonymous_args = 0
  24              		@ link register save eliminated.
  25 0000 80B4     		push	{r7}
  26 0002 83B0     		sub	sp, sp, #12
  27 0004 00AF     		add	r7, sp, #0
  28 0006 2023     		movs	r3, #32
  29 0008 7B60     		str	r3, [r7, #4]
  30 000a 7B68     		ldr	r3, [r7, #4]
  31              		.syntax unified
  32              	@ 546 "../e-puck2_main-processor/ChibiOS//os/ext/CMSIS/include/core_cmFunc.h" 1
  33 000c 83F31188 		MSR basepri, r3
  34              	@ 0 "" 2
  35              		.thumb
  36              		.syntax unified
  37 0010 00BF     		nop
  38 0012 0C37     		adds	r7, r7, #12
  39 0014 BD46     		mov	sp, r7
  40              		@ sp needed
  41 0016 5DF8047B 		ldr	r7, [sp], #4
  42 001a 7047     		bx	lr
  43              		.size	port_lock, .-port_lock
  44              		.section	.text.port_unlock,"ax",%progbits
  45              		.align	1
  46              		.syntax unified
  47              		.thumb
  48              		.thumb_func
  49              		.fpu fpv4-sp-d16
  50              		.type	port_unlock, %function
  51              	port_unlock:
  52              		@ args = 0, pretend = 0, frame = 8
  53              		@ frame_needed = 1, uses_anonymous_args = 0
  54              		@ link register save eliminated.
  55 0000 80B4     		push	{r7}
  56 0002 83B0     		sub	sp, sp, #12
  57 0004 00AF     		add	r7, sp, #0
ARM GAS  /var/folders/d2/nstgp4h54kz7g1l847x_b8wc0000gn/T//ccvTRJsx.s 			page 2


  58 0006 0023     		movs	r3, #0
  59 0008 7B60     		str	r3, [r7, #4]
  60 000a 7B68     		ldr	r3, [r7, #4]
  61              		.syntax unified
  62              	@ 546 "../e-puck2_main-processor/ChibiOS//os/ext/CMSIS/include/core_cmFunc.h" 1
  63 000c 83F31188 		MSR basepri, r3
  64              	@ 0 "" 2
  65              		.thumb
  66              		.syntax unified
  67 0010 00BF     		nop
  68 0012 0C37     		adds	r7, r7, #12
  69 0014 BD46     		mov	sp, r7
  70              		@ sp needed
  71 0016 5DF8047B 		ldr	r7, [sp], #4
  72 001a 7047     		bx	lr
  73              		.size	port_unlock, .-port_unlock
  74              		.section	.text.port_lock_from_isr,"ax",%progbits
  75              		.align	1
  76              		.syntax unified
  77              		.thumb
  78              		.thumb_func
  79              		.fpu fpv4-sp-d16
  80              		.type	port_lock_from_isr, %function
  81              	port_lock_from_isr:
  82              		@ args = 0, pretend = 0, frame = 0
  83              		@ frame_needed = 1, uses_anonymous_args = 0
  84 0000 80B5     		push	{r7, lr}
  85 0002 00AF     		add	r7, sp, #0
  86 0004 FFF7FEFF 		bl	port_lock
  87 0008 00BF     		nop
  88 000a 80BD     		pop	{r7, pc}
  89              		.size	port_lock_from_isr, .-port_lock_from_isr
  90              		.section	.text.port_unlock_from_isr,"ax",%progbits
  91              		.align	1
  92              		.syntax unified
  93              		.thumb
  94              		.thumb_func
  95              		.fpu fpv4-sp-d16
  96              		.type	port_unlock_from_isr, %function
  97              	port_unlock_from_isr:
  98              		@ args = 0, pretend = 0, frame = 0
  99              		@ frame_needed = 1, uses_anonymous_args = 0
 100 0000 80B5     		push	{r7, lr}
 101 0002 00AF     		add	r7, sp, #0
 102 0004 FFF7FEFF 		bl	port_unlock
 103 0008 00BF     		nop
 104 000a 80BD     		pop	{r7, pc}
 105              		.size	port_unlock_from_isr, .-port_unlock_from_isr
 106              		.section	.text.chSysLock,"ax",%progbits
 107              		.align	1
 108              		.syntax unified
 109              		.thumb
 110              		.thumb_func
 111              		.fpu fpv4-sp-d16
 112              		.type	chSysLock, %function
 113              	chSysLock:
 114              		@ args = 0, pretend = 0, frame = 0
ARM GAS  /var/folders/d2/nstgp4h54kz7g1l847x_b8wc0000gn/T//ccvTRJsx.s 			page 3


 115              		@ frame_needed = 1, uses_anonymous_args = 0
 116 0000 80B5     		push	{r7, lr}
 117 0002 00AF     		add	r7, sp, #0
 118 0004 FFF7FEFF 		bl	port_lock
 119 0008 FFF7FEFF 		bl	_stats_start_measure_crit_thd
 120 000c FFF7FEFF 		bl	_dbg_check_lock
 121 0010 00BF     		nop
 122 0012 80BD     		pop	{r7, pc}
 123              		.size	chSysLock, .-chSysLock
 124              		.section	.text.chSysUnlock,"ax",%progbits
 125              		.align	1
 126              		.syntax unified
 127              		.thumb
 128              		.thumb_func
 129              		.fpu fpv4-sp-d16
 130              		.type	chSysUnlock, %function
 131              	chSysUnlock:
 132              		@ args = 0, pretend = 0, frame = 0
 133              		@ frame_needed = 1, uses_anonymous_args = 0
 134 0000 80B5     		push	{r7, lr}
 135 0002 00AF     		add	r7, sp, #0
 136 0004 FFF7FEFF 		bl	_dbg_check_unlock
 137 0008 FFF7FEFF 		bl	_stats_stop_measure_crit_thd
 138 000c 094B     		ldr	r3, .L8
 139 000e 1B68     		ldr	r3, [r3]
 140 0010 084A     		ldr	r2, .L8
 141 0012 9342     		cmp	r3, r2
 142 0014 0AD0     		beq	.L7
 143 0016 074B     		ldr	r3, .L8
 144 0018 9B69     		ldr	r3, [r3, #24]
 145 001a 9A68     		ldr	r2, [r3, #8]
 146 001c 054B     		ldr	r3, .L8
 147 001e 1B68     		ldr	r3, [r3]
 148 0020 9B68     		ldr	r3, [r3, #8]
 149 0022 9A42     		cmp	r2, r3
 150 0024 02D2     		bcs	.L7
 151 0026 0448     		ldr	r0, .L8+4
 152 0028 FFF7FEFF 		bl	chSysHalt
 153              	.L7:
 154 002c FFF7FEFF 		bl	port_unlock
 155 0030 00BF     		nop
 156 0032 80BD     		pop	{r7, pc}
 157              	.L9:
 158              		.align	2
 159              	.L8:
 160 0034 00000000 		.word	ch
 161 0038 00000000 		.word	__func__.7554
 162              		.size	chSysUnlock, .-chSysUnlock
 163              		.section	.text.chSysLockFromISR,"ax",%progbits
 164              		.align	1
 165              		.syntax unified
 166              		.thumb
 167              		.thumb_func
 168              		.fpu fpv4-sp-d16
 169              		.type	chSysLockFromISR, %function
 170              	chSysLockFromISR:
 171              		@ args = 0, pretend = 0, frame = 0
ARM GAS  /var/folders/d2/nstgp4h54kz7g1l847x_b8wc0000gn/T//ccvTRJsx.s 			page 4


 172              		@ frame_needed = 1, uses_anonymous_args = 0
 173 0000 80B5     		push	{r7, lr}
 174 0002 00AF     		add	r7, sp, #0
 175 0004 FFF7FEFF 		bl	port_lock_from_isr
 176 0008 FFF7FEFF 		bl	_stats_start_measure_crit_isr
 177 000c FFF7FEFF 		bl	_dbg_check_lock_from_isr
 178 0010 00BF     		nop
 179 0012 80BD     		pop	{r7, pc}
 180              		.size	chSysLockFromISR, .-chSysLockFromISR
 181              		.section	.text.chSysUnlockFromISR,"ax",%progbits
 182              		.align	1
 183              		.syntax unified
 184              		.thumb
 185              		.thumb_func
 186              		.fpu fpv4-sp-d16
 187              		.type	chSysUnlockFromISR, %function
 188              	chSysUnlockFromISR:
 189              		@ args = 0, pretend = 0, frame = 0
 190              		@ frame_needed = 1, uses_anonymous_args = 0
 191 0000 80B5     		push	{r7, lr}
 192 0002 00AF     		add	r7, sp, #0
 193 0004 FFF7FEFF 		bl	_dbg_check_unlock_from_isr
 194 0008 FFF7FEFF 		bl	_stats_stop_measure_crit_isr
 195 000c FFF7FEFF 		bl	port_unlock_from_isr
 196 0010 00BF     		nop
 197 0012 80BD     		pop	{r7, pc}
 198              		.size	chSysUnlockFromISR, .-chSysUnlockFromISR
 199              		.section	.text.chThdStartI,"ax",%progbits
 200              		.align	1
 201              		.syntax unified
 202              		.thumb
 203              		.thumb_func
 204              		.fpu fpv4-sp-d16
 205              		.type	chThdStartI, %function
 206              	chThdStartI:
 207              		@ args = 0, pretend = 0, frame = 8
 208              		@ frame_needed = 1, uses_anonymous_args = 0
 209 0000 80B5     		push	{r7, lr}
 210 0002 82B0     		sub	sp, sp, #8
 211 0004 00AF     		add	r7, sp, #0
 212 0006 7860     		str	r0, [r7, #4]
 213 0008 7B68     		ldr	r3, [r7, #4]
 214 000a 93F82030 		ldrb	r3, [r3, #32]	@ zero_extendqisi2
 215 000e 022B     		cmp	r3, #2
 216 0010 02D0     		beq	.L13
 217 0012 0548     		ldr	r0, .L15
 218 0014 FFF7FEFF 		bl	chSysHalt
 219              	.L13:
 220 0018 7868     		ldr	r0, [r7, #4]
 221 001a FFF7FEFF 		bl	chSchReadyI
 222 001e 0346     		mov	r3, r0
 223 0020 1846     		mov	r0, r3
 224 0022 0837     		adds	r7, r7, #8
 225 0024 BD46     		mov	sp, r7
 226              		@ sp needed
 227 0026 80BD     		pop	{r7, pc}
 228              	.L16:
ARM GAS  /var/folders/d2/nstgp4h54kz7g1l847x_b8wc0000gn/T//ccvTRJsx.s 			page 5


 229              		.align	2
 230              	.L15:
 231 0028 00000000 		.word	__func__.7721
 232              		.size	chThdStartI, .-chThdStartI
 233              		.section	.text.chRegSetThreadName,"ax",%progbits
 234              		.align	1
 235              		.syntax unified
 236              		.thumb
 237              		.thumb_func
 238              		.fpu fpv4-sp-d16
 239              		.type	chRegSetThreadName, %function
 240              	chRegSetThreadName:
 241              		@ args = 0, pretend = 0, frame = 8
 242              		@ frame_needed = 1, uses_anonymous_args = 0
 243              		@ link register save eliminated.
 244 0000 80B4     		push	{r7}
 245 0002 83B0     		sub	sp, sp, #12
 246 0004 00AF     		add	r7, sp, #0
 247 0006 7860     		str	r0, [r7, #4]
 248 0008 044B     		ldr	r3, .L18
 249 000a 9B69     		ldr	r3, [r3, #24]
 250 000c 7A68     		ldr	r2, [r7, #4]
 251 000e 9A61     		str	r2, [r3, #24]
 252 0010 00BF     		nop
 253 0012 0C37     		adds	r7, r7, #12
 254 0014 BD46     		mov	sp, r7
 255              		@ sp needed
 256 0016 5DF8047B 		ldr	r7, [sp], #4
 257 001a 7047     		bx	lr
 258              	.L19:
 259              		.align	2
 260              	.L18:
 261 001c 00000000 		.word	ch
 262              		.size	chRegSetThreadName, .-chRegSetThreadName
 263              		.section	.text.osalSysLock,"ax",%progbits
 264              		.align	1
 265              		.syntax unified
 266              		.thumb
 267              		.thumb_func
 268              		.fpu fpv4-sp-d16
 269              		.type	osalSysLock, %function
 270              	osalSysLock:
 271              		@ args = 0, pretend = 0, frame = 0
 272              		@ frame_needed = 1, uses_anonymous_args = 0
 273 0000 80B5     		push	{r7, lr}
 274 0002 00AF     		add	r7, sp, #0
 275 0004 FFF7FEFF 		bl	chSysLock
 276 0008 00BF     		nop
 277 000a 80BD     		pop	{r7, pc}
 278              		.size	osalSysLock, .-osalSysLock
 279              		.section	.text.osalSysUnlock,"ax",%progbits
 280              		.align	1
 281              		.syntax unified
 282              		.thumb
 283              		.thumb_func
 284              		.fpu fpv4-sp-d16
 285              		.type	osalSysUnlock, %function
ARM GAS  /var/folders/d2/nstgp4h54kz7g1l847x_b8wc0000gn/T//ccvTRJsx.s 			page 6


 286              	osalSysUnlock:
 287              		@ args = 0, pretend = 0, frame = 0
 288              		@ frame_needed = 1, uses_anonymous_args = 0
 289 0000 80B5     		push	{r7, lr}
 290 0002 00AF     		add	r7, sp, #0
 291 0004 FFF7FEFF 		bl	chSysUnlock
 292 0008 00BF     		nop
 293 000a 80BD     		pop	{r7, pc}
 294              		.size	osalSysUnlock, .-osalSysUnlock
 295              		.section	.text.osalSysLockFromISR,"ax",%progbits
 296              		.align	1
 297              		.syntax unified
 298              		.thumb
 299              		.thumb_func
 300              		.fpu fpv4-sp-d16
 301              		.type	osalSysLockFromISR, %function
 302              	osalSysLockFromISR:
 303              		@ args = 0, pretend = 0, frame = 0
 304              		@ frame_needed = 1, uses_anonymous_args = 0
 305 0000 80B5     		push	{r7, lr}
 306 0002 00AF     		add	r7, sp, #0
 307 0004 FFF7FEFF 		bl	chSysLockFromISR
 308 0008 00BF     		nop
 309 000a 80BD     		pop	{r7, pc}
 310              		.size	osalSysLockFromISR, .-osalSysLockFromISR
 311              		.section	.text.osalSysUnlockFromISR,"ax",%progbits
 312              		.align	1
 313              		.syntax unified
 314              		.thumb
 315              		.thumb_func
 316              		.fpu fpv4-sp-d16
 317              		.type	osalSysUnlockFromISR, %function
 318              	osalSysUnlockFromISR:
 319              		@ args = 0, pretend = 0, frame = 0
 320              		@ frame_needed = 1, uses_anonymous_args = 0
 321 0000 80B5     		push	{r7, lr}
 322 0002 00AF     		add	r7, sp, #0
 323 0004 FFF7FEFF 		bl	chSysUnlockFromISR
 324 0008 00BF     		nop
 325 000a 80BD     		pop	{r7, pc}
 326              		.size	osalSysUnlockFromISR, .-osalSysUnlockFromISR
 327              		.section	.text.osalSysPolledDelayX,"ax",%progbits
 328              		.align	1
 329              		.syntax unified
 330              		.thumb
 331              		.thumb_func
 332              		.fpu fpv4-sp-d16
 333              		.type	osalSysPolledDelayX, %function
 334              	osalSysPolledDelayX:
 335              		@ args = 0, pretend = 0, frame = 8
 336              		@ frame_needed = 1, uses_anonymous_args = 0
 337 0000 80B5     		push	{r7, lr}
 338 0002 82B0     		sub	sp, sp, #8
 339 0004 00AF     		add	r7, sp, #0
 340 0006 7860     		str	r0, [r7, #4]
 341 0008 7868     		ldr	r0, [r7, #4]
 342 000a FFF7FEFF 		bl	chSysPolledDelayX
ARM GAS  /var/folders/d2/nstgp4h54kz7g1l847x_b8wc0000gn/T//ccvTRJsx.s 			page 7


 343 000e 00BF     		nop
 344 0010 0837     		adds	r7, r7, #8
 345 0012 BD46     		mov	sp, r7
 346              		@ sp needed
 347 0014 80BD     		pop	{r7, pc}
 348              		.size	osalSysPolledDelayX, .-osalSysPolledDelayX
 349              		.section	.text.osalOsRescheduleS,"ax",%progbits
 350              		.align	1
 351              		.syntax unified
 352              		.thumb
 353              		.thumb_func
 354              		.fpu fpv4-sp-d16
 355              		.type	osalOsRescheduleS, %function
 356              	osalOsRescheduleS:
 357              		@ args = 0, pretend = 0, frame = 0
 358              		@ frame_needed = 1, uses_anonymous_args = 0
 359 0000 80B5     		push	{r7, lr}
 360 0002 00AF     		add	r7, sp, #0
 361 0004 FFF7FEFF 		bl	chSchRescheduleS
 362 0008 00BF     		nop
 363 000a 80BD     		pop	{r7, pc}
 364              		.size	osalOsRescheduleS, .-osalOsRescheduleS
 365              		.section	.text.osalThreadSuspendS,"ax",%progbits
 366              		.align	1
 367              		.syntax unified
 368              		.thumb
 369              		.thumb_func
 370              		.fpu fpv4-sp-d16
 371              		.type	osalThreadSuspendS, %function
 372              	osalThreadSuspendS:
 373              		@ args = 0, pretend = 0, frame = 8
 374              		@ frame_needed = 1, uses_anonymous_args = 0
 375 0000 80B5     		push	{r7, lr}
 376 0002 82B0     		sub	sp, sp, #8
 377 0004 00AF     		add	r7, sp, #0
 378 0006 7860     		str	r0, [r7, #4]
 379 0008 7868     		ldr	r0, [r7, #4]
 380 000a FFF7FEFF 		bl	chThdSuspendS
 381 000e 0346     		mov	r3, r0
 382 0010 1846     		mov	r0, r3
 383 0012 0837     		adds	r7, r7, #8
 384 0014 BD46     		mov	sp, r7
 385              		@ sp needed
 386 0016 80BD     		pop	{r7, pc}
 387              		.size	osalThreadSuspendS, .-osalThreadSuspendS
 388              		.section	.text.osalThreadResumeI,"ax",%progbits
 389              		.align	1
 390              		.syntax unified
 391              		.thumb
 392              		.thumb_func
 393              		.fpu fpv4-sp-d16
 394              		.type	osalThreadResumeI, %function
 395              	osalThreadResumeI:
 396              		@ args = 0, pretend = 0, frame = 8
 397              		@ frame_needed = 1, uses_anonymous_args = 0
 398 0000 80B5     		push	{r7, lr}
 399 0002 82B0     		sub	sp, sp, #8
ARM GAS  /var/folders/d2/nstgp4h54kz7g1l847x_b8wc0000gn/T//ccvTRJsx.s 			page 8


 400 0004 00AF     		add	r7, sp, #0
 401 0006 7860     		str	r0, [r7, #4]
 402 0008 3960     		str	r1, [r7]
 403 000a 3968     		ldr	r1, [r7]
 404 000c 7868     		ldr	r0, [r7, #4]
 405 000e FFF7FEFF 		bl	chThdResumeI
 406 0012 00BF     		nop
 407 0014 0837     		adds	r7, r7, #8
 408 0016 BD46     		mov	sp, r7
 409              		@ sp needed
 410 0018 80BD     		pop	{r7, pc}
 411              		.size	osalThreadResumeI, .-osalThreadResumeI
 412              		.section	.text.osalThreadDequeueAllI,"ax",%progbits
 413              		.align	1
 414              		.syntax unified
 415              		.thumb
 416              		.thumb_func
 417              		.fpu fpv4-sp-d16
 418              		.type	osalThreadDequeueAllI, %function
 419              	osalThreadDequeueAllI:
 420              		@ args = 0, pretend = 0, frame = 8
 421              		@ frame_needed = 1, uses_anonymous_args = 0
 422 0000 80B5     		push	{r7, lr}
 423 0002 82B0     		sub	sp, sp, #8
 424 0004 00AF     		add	r7, sp, #0
 425 0006 7860     		str	r0, [r7, #4]
 426 0008 3960     		str	r1, [r7]
 427 000a 3968     		ldr	r1, [r7]
 428 000c 7868     		ldr	r0, [r7, #4]
 429 000e FFF7FEFF 		bl	chThdDequeueAllI
 430 0012 00BF     		nop
 431 0014 0837     		adds	r7, r7, #8
 432 0016 BD46     		mov	sp, r7
 433              		@ sp needed
 434 0018 80BD     		pop	{r7, pc}
 435              		.size	osalThreadDequeueAllI, .-osalThreadDequeueAllI
 436              		.global	USBD1
 437              		.section	.bss.USBD1,"aw",%nobits
 438              		.align	3
 439              		.type	USBD1, %object
 440              		.size	USBD1, 608
 441              	USBD1:
 442 0000 00000000 		.space	608
 442      00000000 
 442      00000000 
 442      00000000 
 442      00000000 
 443              		.section	.bss.ep0_state,"aw",%nobits
 444              		.align	2
 445              		.type	ep0_state, %object
 446              		.size	ep0_state, 20
 447              	ep0_state:
 448 0000 00000000 		.space	20
 448      00000000 
 448      00000000 
 448      00000000 
 448      00000000 
ARM GAS  /var/folders/d2/nstgp4h54kz7g1l847x_b8wc0000gn/T//ccvTRJsx.s 			page 9


 449              		.section	.bss.ep0setup_buffer,"aw",%nobits
 450              		.align	2
 451              		.type	ep0setup_buffer, %object
 452              		.size	ep0setup_buffer, 8
 453              	ep0setup_buffer:
 454 0000 00000000 		.space	8
 454      00000000 
 455              		.section	.rodata.ep0config,"a",%progbits
 456              		.align	2
 457              		.type	ep0config, %object
 458              		.size	ep0config, 36
 459              	ep0config:
 460 0000 00000000 		.word	0
 461 0004 00000000 		.word	_usb_ep0setup
 462 0008 00000000 		.word	_usb_ep0in
 463 000c 00000000 		.word	_usb_ep0out
 464 0010 4000     		.short	64
 465 0012 4000     		.short	64
 466 0014 00000000 		.word	ep0_state
 467 0018 00000000 		.word	ep0_state
 468 001c 0100     		.short	1
 469 001e 0000     		.space	2
 470 0020 00000000 		.word	ep0setup_buffer
 471              		.section	.rodata.fsparams,"a",%progbits
 472              		.align	2
 473              		.type	fsparams, %object
 474              		.size	fsparams, 12
 475              	fsparams:
 476 0000 80000000 		.word	128
 477 0004 40010000 		.word	320
 478 0008 03000000 		.word	3
 479              		.section	.text.otg_core_reset,"ax",%progbits
 480              		.align	1
 481              		.syntax unified
 482              		.thumb
 483              		.thumb_func
 484              		.fpu fpv4-sp-d16
 485              		.type	otg_core_reset, %function
 486              	otg_core_reset:
 487              		@ args = 0, pretend = 0, frame = 16
 488              		@ frame_needed = 1, uses_anonymous_args = 0
 489 0000 80B5     		push	{r7, lr}
 490 0002 84B0     		sub	sp, sp, #16
 491 0004 00AF     		add	r7, sp, #0
 492 0006 7860     		str	r0, [r7, #4]
 493 0008 7B68     		ldr	r3, [r7, #4]
 494 000a 1B6D     		ldr	r3, [r3, #80]
 495 000c FB60     		str	r3, [r7, #12]
 496 000e 2020     		movs	r0, #32
 497 0010 FFF7FEFF 		bl	osalSysPolledDelayX
 498 0014 FB68     		ldr	r3, [r7, #12]
 499 0016 0122     		movs	r2, #1
 500 0018 1A61     		str	r2, [r3, #16]
 501 001a 00BF     		nop
 502              	.L31:
 503 001c FB68     		ldr	r3, [r7, #12]
 504 001e 1B69     		ldr	r3, [r3, #16]
ARM GAS  /var/folders/d2/nstgp4h54kz7g1l847x_b8wc0000gn/T//ccvTRJsx.s 			page 10


 505 0020 03F00103 		and	r3, r3, #1
 506 0024 002B     		cmp	r3, #0
 507 0026 F9D1     		bne	.L31
 508 0028 0C20     		movs	r0, #12
 509 002a FFF7FEFF 		bl	osalSysPolledDelayX
 510 002e 00BF     		nop
 511              	.L32:
 512 0030 FB68     		ldr	r3, [r7, #12]
 513 0032 1B69     		ldr	r3, [r3, #16]
 514 0034 002B     		cmp	r3, #0
 515 0036 FBDA     		bge	.L32
 516 0038 00BF     		nop
 517 003a 1037     		adds	r7, r7, #16
 518 003c BD46     		mov	sp, r7
 519              		@ sp needed
 520 003e 80BD     		pop	{r7, pc}
 521              		.size	otg_core_reset, .-otg_core_reset
 522              		.section	.text.otg_disable_ep,"ax",%progbits
 523              		.align	1
 524              		.syntax unified
 525              		.thumb
 526              		.thumb_func
 527              		.fpu fpv4-sp-d16
 528              		.type	otg_disable_ep, %function
 529              	otg_disable_ep:
 530              		@ args = 0, pretend = 0, frame = 16
 531              		@ frame_needed = 1, uses_anonymous_args = 0
 532              		@ link register save eliminated.
 533 0000 80B4     		push	{r7}
 534 0002 85B0     		sub	sp, sp, #20
 535 0004 00AF     		add	r7, sp, #0
 536 0006 7860     		str	r0, [r7, #4]
 537 0008 7B68     		ldr	r3, [r7, #4]
 538 000a 1B6D     		ldr	r3, [r3, #80]
 539 000c BB60     		str	r3, [r7, #8]
 540 000e 0023     		movs	r3, #0
 541 0010 FB60     		str	r3, [r7, #12]
 542 0012 6CE0     		b	.L34
 543              	.L41:
 544 0014 BA68     		ldr	r2, [r7, #8]
 545 0016 FB68     		ldr	r3, [r7, #12]
 546 0018 4833     		adds	r3, r3, #72
 547 001a 5B01     		lsls	r3, r3, #5
 548 001c 1344     		add	r3, r3, r2
 549 001e 1B68     		ldr	r3, [r3]
 550 0020 002B     		cmp	r3, #0
 551 0022 14DA     		bge	.L35
 552 0024 BA68     		ldr	r2, [r7, #8]
 553 0026 FB68     		ldr	r3, [r7, #12]
 554 0028 4833     		adds	r3, r3, #72
 555 002a 5B01     		lsls	r3, r3, #5
 556 002c 1344     		add	r3, r3, r2
 557 002e 4FF08042 		mov	r2, #1073741824
 558 0032 1A60     		str	r2, [r3]
 559 0034 00BF     		nop
 560              	.L36:
 561 0036 BA68     		ldr	r2, [r7, #8]
ARM GAS  /var/folders/d2/nstgp4h54kz7g1l847x_b8wc0000gn/T//ccvTRJsx.s 			page 11


 562 0038 FB68     		ldr	r3, [r7, #12]
 563 003a 5B01     		lsls	r3, r3, #5
 564 003c 1344     		add	r3, r3, r2
 565 003e 03F60813 		addw	r3, r3, #2312
 566 0042 1B68     		ldr	r3, [r3]
 567 0044 03F00203 		and	r3, r3, #2
 568 0048 002B     		cmp	r3, #0
 569 004a F4D0     		beq	.L36
 570 004c 06E0     		b	.L37
 571              	.L35:
 572 004e BA68     		ldr	r2, [r7, #8]
 573 0050 FB68     		ldr	r3, [r7, #12]
 574 0052 4833     		adds	r3, r3, #72
 575 0054 5B01     		lsls	r3, r3, #5
 576 0056 1344     		add	r3, r3, r2
 577 0058 0022     		movs	r2, #0
 578 005a 1A60     		str	r2, [r3]
 579              	.L37:
 580 005c BA68     		ldr	r2, [r7, #8]
 581 005e FB68     		ldr	r3, [r7, #12]
 582 0060 5B01     		lsls	r3, r3, #5
 583 0062 1344     		add	r3, r3, r2
 584 0064 03F51163 		add	r3, r3, #2320
 585 0068 0022     		movs	r2, #0
 586 006a 1A60     		str	r2, [r3]
 587 006c BA68     		ldr	r2, [r7, #8]
 588 006e FB68     		ldr	r3, [r7, #12]
 589 0070 5B01     		lsls	r3, r3, #5
 590 0072 1344     		add	r3, r3, r2
 591 0074 03F60813 		addw	r3, r3, #2312
 592 0078 4FF0FF32 		mov	r2, #-1
 593 007c 1A60     		str	r2, [r3]
 594 007e BA68     		ldr	r2, [r7, #8]
 595 0080 FB68     		ldr	r3, [r7, #12]
 596 0082 5833     		adds	r3, r3, #88
 597 0084 5B01     		lsls	r3, r3, #5
 598 0086 1344     		add	r3, r3, r2
 599 0088 1B68     		ldr	r3, [r3]
 600 008a 002B     		cmp	r3, #0
 601 008c 14DA     		bge	.L38
 602 008e BA68     		ldr	r2, [r7, #8]
 603 0090 FB68     		ldr	r3, [r7, #12]
 604 0092 5833     		adds	r3, r3, #88
 605 0094 5B01     		lsls	r3, r3, #5
 606 0096 1344     		add	r3, r3, r2
 607 0098 4FF08042 		mov	r2, #1073741824
 608 009c 1A60     		str	r2, [r3]
 609 009e 00BF     		nop
 610              	.L39:
 611 00a0 BA68     		ldr	r2, [r7, #8]
 612 00a2 FB68     		ldr	r3, [r7, #12]
 613 00a4 5B01     		lsls	r3, r3, #5
 614 00a6 1344     		add	r3, r3, r2
 615 00a8 03F60833 		addw	r3, r3, #2824
 616 00ac 1B68     		ldr	r3, [r3]
 617 00ae 03F01003 		and	r3, r3, #16
 618 00b2 002B     		cmp	r3, #0
ARM GAS  /var/folders/d2/nstgp4h54kz7g1l847x_b8wc0000gn/T//ccvTRJsx.s 			page 12


 619 00b4 F4D0     		beq	.L39
 620 00b6 06E0     		b	.L40
 621              	.L38:
 622 00b8 BA68     		ldr	r2, [r7, #8]
 623 00ba FB68     		ldr	r3, [r7, #12]
 624 00bc 5833     		adds	r3, r3, #88
 625 00be 5B01     		lsls	r3, r3, #5
 626 00c0 1344     		add	r3, r3, r2
 627 00c2 0022     		movs	r2, #0
 628 00c4 1A60     		str	r2, [r3]
 629              	.L40:
 630 00c6 BA68     		ldr	r2, [r7, #8]
 631 00c8 FB68     		ldr	r3, [r7, #12]
 632 00ca 5B01     		lsls	r3, r3, #5
 633 00cc 1344     		add	r3, r3, r2
 634 00ce 03F53163 		add	r3, r3, #2832
 635 00d2 0022     		movs	r2, #0
 636 00d4 1A60     		str	r2, [r3]
 637 00d6 BA68     		ldr	r2, [r7, #8]
 638 00d8 FB68     		ldr	r3, [r7, #12]
 639 00da 5B01     		lsls	r3, r3, #5
 640 00dc 1344     		add	r3, r3, r2
 641 00de 03F60833 		addw	r3, r3, #2824
 642 00e2 4FF0FF32 		mov	r2, #-1
 643 00e6 1A60     		str	r2, [r3]
 644 00e8 FB68     		ldr	r3, [r7, #12]
 645 00ea 0133     		adds	r3, r3, #1
 646 00ec FB60     		str	r3, [r7, #12]
 647              	.L34:
 648 00ee 7B68     		ldr	r3, [r7, #4]
 649 00f0 5B6D     		ldr	r3, [r3, #84]
 650 00f2 9B68     		ldr	r3, [r3, #8]
 651 00f4 FA68     		ldr	r2, [r7, #12]
 652 00f6 9A42     		cmp	r2, r3
 653 00f8 8CD9     		bls	.L41
 654 00fa BB68     		ldr	r3, [r7, #8]
 655 00fc 4FF00112 		mov	r2, #65537
 656 0100 C3F81C28 		str	r2, [r3, #2076]
 657 0104 00BF     		nop
 658 0106 1437     		adds	r7, r7, #20
 659 0108 BD46     		mov	sp, r7
 660              		@ sp needed
 661 010a 5DF8047B 		ldr	r7, [sp], #4
 662 010e 7047     		bx	lr
 663              		.size	otg_disable_ep, .-otg_disable_ep
 664              		.section	.text.otg_rxfifo_flush,"ax",%progbits
 665              		.align	1
 666              		.syntax unified
 667              		.thumb
 668              		.thumb_func
 669              		.fpu fpv4-sp-d16
 670              		.type	otg_rxfifo_flush, %function
 671              	otg_rxfifo_flush:
 672              		@ args = 0, pretend = 0, frame = 16
 673              		@ frame_needed = 1, uses_anonymous_args = 0
 674 0000 80B5     		push	{r7, lr}
 675 0002 84B0     		sub	sp, sp, #16
ARM GAS  /var/folders/d2/nstgp4h54kz7g1l847x_b8wc0000gn/T//ccvTRJsx.s 			page 13


 676 0004 00AF     		add	r7, sp, #0
 677 0006 7860     		str	r0, [r7, #4]
 678 0008 7B68     		ldr	r3, [r7, #4]
 679 000a 1B6D     		ldr	r3, [r3, #80]
 680 000c FB60     		str	r3, [r7, #12]
 681 000e FB68     		ldr	r3, [r7, #12]
 682 0010 1022     		movs	r2, #16
 683 0012 1A61     		str	r2, [r3, #16]
 684 0014 00BF     		nop
 685              	.L43:
 686 0016 FB68     		ldr	r3, [r7, #12]
 687 0018 1B69     		ldr	r3, [r3, #16]
 688 001a 03F01003 		and	r3, r3, #16
 689 001e 002B     		cmp	r3, #0
 690 0020 F9D1     		bne	.L43
 691 0022 0C20     		movs	r0, #12
 692 0024 FFF7FEFF 		bl	osalSysPolledDelayX
 693 0028 00BF     		nop
 694 002a 1037     		adds	r7, r7, #16
 695 002c BD46     		mov	sp, r7
 696              		@ sp needed
 697 002e 80BD     		pop	{r7, pc}
 698              		.size	otg_rxfifo_flush, .-otg_rxfifo_flush
 699              		.section	.text.otg_txfifo_flush,"ax",%progbits
 700              		.align	1
 701              		.syntax unified
 702              		.thumb
 703              		.thumb_func
 704              		.fpu fpv4-sp-d16
 705              		.type	otg_txfifo_flush, %function
 706              	otg_txfifo_flush:
 707              		@ args = 0, pretend = 0, frame = 16
 708              		@ frame_needed = 1, uses_anonymous_args = 0
 709 0000 80B5     		push	{r7, lr}
 710 0002 84B0     		sub	sp, sp, #16
 711 0004 00AF     		add	r7, sp, #0
 712 0006 7860     		str	r0, [r7, #4]
 713 0008 3960     		str	r1, [r7]
 714 000a 7B68     		ldr	r3, [r7, #4]
 715 000c 1B6D     		ldr	r3, [r3, #80]
 716 000e FB60     		str	r3, [r7, #12]
 717 0010 3B68     		ldr	r3, [r7]
 718 0012 9B01     		lsls	r3, r3, #6
 719 0014 43F02002 		orr	r2, r3, #32
 720 0018 FB68     		ldr	r3, [r7, #12]
 721 001a 1A61     		str	r2, [r3, #16]
 722 001c 00BF     		nop
 723              	.L45:
 724 001e FB68     		ldr	r3, [r7, #12]
 725 0020 1B69     		ldr	r3, [r3, #16]
 726 0022 03F02003 		and	r3, r3, #32
 727 0026 002B     		cmp	r3, #0
 728 0028 F9D1     		bne	.L45
 729 002a 0C20     		movs	r0, #12
 730 002c FFF7FEFF 		bl	osalSysPolledDelayX
 731 0030 00BF     		nop
 732 0032 1037     		adds	r7, r7, #16
ARM GAS  /var/folders/d2/nstgp4h54kz7g1l847x_b8wc0000gn/T//ccvTRJsx.s 			page 14


 733 0034 BD46     		mov	sp, r7
 734              		@ sp needed
 735 0036 80BD     		pop	{r7, pc}
 736              		.size	otg_txfifo_flush, .-otg_txfifo_flush
 737              		.section	.text.otg_ram_reset,"ax",%progbits
 738              		.align	1
 739              		.syntax unified
 740              		.thumb
 741              		.thumb_func
 742              		.fpu fpv4-sp-d16
 743              		.type	otg_ram_reset, %function
 744              	otg_ram_reset:
 745              		@ args = 0, pretend = 0, frame = 8
 746              		@ frame_needed = 1, uses_anonymous_args = 0
 747              		@ link register save eliminated.
 748 0000 80B4     		push	{r7}
 749 0002 83B0     		sub	sp, sp, #12
 750 0004 00AF     		add	r7, sp, #0
 751 0006 7860     		str	r0, [r7, #4]
 752 0008 7B68     		ldr	r3, [r7, #4]
 753 000a 5B6D     		ldr	r3, [r3, #84]
 754 000c 1A68     		ldr	r2, [r3]
 755 000e 7B68     		ldr	r3, [r7, #4]
 756 0010 9A65     		str	r2, [r3, #88]
 757 0012 00BF     		nop
 758 0014 0C37     		adds	r7, r7, #12
 759 0016 BD46     		mov	sp, r7
 760              		@ sp needed
 761 0018 5DF8047B 		ldr	r7, [sp], #4
 762 001c 7047     		bx	lr
 763              		.size	otg_ram_reset, .-otg_ram_reset
 764              		.section	.text.otg_ram_alloc,"ax",%progbits
 765              		.align	1
 766              		.syntax unified
 767              		.thumb
 768              		.thumb_func
 769              		.fpu fpv4-sp-d16
 770              		.type	otg_ram_alloc, %function
 771              	otg_ram_alloc:
 772              		@ args = 0, pretend = 0, frame = 16
 773              		@ frame_needed = 1, uses_anonymous_args = 0
 774 0000 80B5     		push	{r7, lr}
 775 0002 84B0     		sub	sp, sp, #16
 776 0004 00AF     		add	r7, sp, #0
 777 0006 7860     		str	r0, [r7, #4]
 778 0008 3960     		str	r1, [r7]
 779 000a 7B68     		ldr	r3, [r7, #4]
 780 000c 9B6D     		ldr	r3, [r3, #88]
 781 000e FB60     		str	r3, [r7, #12]
 782 0010 7B68     		ldr	r3, [r7, #4]
 783 0012 9A6D     		ldr	r2, [r3, #88]
 784 0014 3B68     		ldr	r3, [r7]
 785 0016 1A44     		add	r2, r2, r3
 786 0018 7B68     		ldr	r3, [r7, #4]
 787 001a 9A65     		str	r2, [r3, #88]
 788 001c 7B68     		ldr	r3, [r7, #4]
 789 001e 9A6D     		ldr	r2, [r3, #88]
ARM GAS  /var/folders/d2/nstgp4h54kz7g1l847x_b8wc0000gn/T//ccvTRJsx.s 			page 15


 790 0020 7B68     		ldr	r3, [r7, #4]
 791 0022 5B6D     		ldr	r3, [r3, #84]
 792 0024 5B68     		ldr	r3, [r3, #4]
 793 0026 9A42     		cmp	r2, r3
 794 0028 02D9     		bls	.L48
 795 002a 0448     		ldr	r0, .L50
 796 002c FFF7FEFF 		bl	chSysHalt
 797              	.L48:
 798 0030 FB68     		ldr	r3, [r7, #12]
 799 0032 1846     		mov	r0, r3
 800 0034 1037     		adds	r7, r7, #16
 801 0036 BD46     		mov	sp, r7
 802              		@ sp needed
 803 0038 80BD     		pop	{r7, pc}
 804              	.L51:
 805 003a 00BF     		.align	2
 806              	.L50:
 807 003c 00000000 		.word	__func__.10294
 808              		.size	otg_ram_alloc, .-otg_ram_alloc
 809              		.section	.text.otg_do_push,"ax",%progbits
 810              		.align	1
 811              		.syntax unified
 812              		.thumb
 813              		.thumb_func
 814              		.fpu fpv4-sp-d16
 815              		.type	otg_do_push, %function
 816              	otg_do_push:
 817              		@ args = 0, pretend = 0, frame = 16
 818              		@ frame_needed = 1, uses_anonymous_args = 0
 819              		@ link register save eliminated.
 820 0000 80B4     		push	{r7}
 821 0002 85B0     		sub	sp, sp, #20
 822 0004 00AF     		add	r7, sp, #0
 823 0006 F860     		str	r0, [r7, #12]
 824 0008 B960     		str	r1, [r7, #8]
 825 000a 7A60     		str	r2, [r7, #4]
 826 000c 09E0     		b	.L53
 827              	.L54:
 828 000e BB68     		ldr	r3, [r7, #8]
 829 0010 1A68     		ldr	r2, [r3]
 830 0012 FB68     		ldr	r3, [r7, #12]
 831 0014 1A60     		str	r2, [r3]
 832 0016 BB68     		ldr	r3, [r7, #8]
 833 0018 0433     		adds	r3, r3, #4
 834 001a BB60     		str	r3, [r7, #8]
 835 001c 7B68     		ldr	r3, [r7, #4]
 836 001e 013B     		subs	r3, r3, #1
 837 0020 7B60     		str	r3, [r7, #4]
 838              	.L53:
 839 0022 7B68     		ldr	r3, [r7, #4]
 840 0024 002B     		cmp	r3, #0
 841 0026 F2D1     		bne	.L54
 842 0028 BB68     		ldr	r3, [r7, #8]
 843 002a 1846     		mov	r0, r3
 844 002c 1437     		adds	r7, r7, #20
 845 002e BD46     		mov	sp, r7
 846              		@ sp needed
ARM GAS  /var/folders/d2/nstgp4h54kz7g1l847x_b8wc0000gn/T//ccvTRJsx.s 			page 16


 847 0030 5DF8047B 		ldr	r7, [sp], #4
 848 0034 7047     		bx	lr
 849              		.size	otg_do_push, .-otg_do_push
 850              		.section	.text.otg_fifo_write_from_buffer,"ax",%progbits
 851              		.align	1
 852              		.syntax unified
 853              		.thumb
 854              		.thumb_func
 855              		.fpu fpv4-sp-d16
 856              		.type	otg_fifo_write_from_buffer, %function
 857              	otg_fifo_write_from_buffer:
 858              		@ args = 0, pretend = 0, frame = 16
 859              		@ frame_needed = 1, uses_anonymous_args = 0
 860 0000 80B5     		push	{r7, lr}
 861 0002 84B0     		sub	sp, sp, #16
 862 0004 00AF     		add	r7, sp, #0
 863 0006 F860     		str	r0, [r7, #12]
 864 0008 B960     		str	r1, [r7, #8]
 865 000a 7A60     		str	r2, [r7, #4]
 866 000c 7B68     		ldr	r3, [r7, #4]
 867 000e 0333     		adds	r3, r3, #3
 868 0010 9B08     		lsrs	r3, r3, #2
 869 0012 1A46     		mov	r2, r3
 870 0014 B968     		ldr	r1, [r7, #8]
 871 0016 F868     		ldr	r0, [r7, #12]
 872 0018 FFF7FEFF 		bl	otg_do_push
 873 001c 00BF     		nop
 874 001e 1037     		adds	r7, r7, #16
 875 0020 BD46     		mov	sp, r7
 876              		@ sp needed
 877 0022 80BD     		pop	{r7, pc}
 878              		.size	otg_fifo_write_from_buffer, .-otg_fifo_write_from_buffer
 879              		.section	.text.otg_fifo_write_from_queue,"ax",%progbits
 880              		.align	1
 881              		.syntax unified
 882              		.thumb
 883              		.thumb_func
 884              		.fpu fpv4-sp-d16
 885              		.type	otg_fifo_write_from_queue, %function
 886              	otg_fifo_write_from_queue:
 887              		@ args = 0, pretend = 0, frame = 40
 888              		@ frame_needed = 1, uses_anonymous_args = 0
 889 0000 80B5     		push	{r7, lr}
 890 0002 8AB0     		sub	sp, sp, #40
 891 0004 00AF     		add	r7, sp, #0
 892 0006 F860     		str	r0, [r7, #12]
 893 0008 B960     		str	r1, [r7, #8]
 894 000a 7A60     		str	r2, [r7, #4]
 895 000c 7B68     		ldr	r3, [r7, #4]
 896 000e 7B62     		str	r3, [r7, #36]
 897 0010 5FE0     		b	.L58
 898              	.L67:
 899 0012 7B6A     		ldr	r3, [r7, #36]
 900 0014 9B08     		lsrs	r3, r3, #2
 901 0016 BB61     		str	r3, [r7, #24]
 902 0018 BB69     		ldr	r3, [r7, #24]
 903 001a 002B     		cmp	r3, #0
ARM GAS  /var/folders/d2/nstgp4h54kz7g1l847x_b8wc0000gn/T//ccvTRJsx.s 			page 17


 904 001c 2AD0     		beq	.L59
 905 001e BB68     		ldr	r3, [r7, #8]
 906 0020 1B69     		ldr	r3, [r3, #16]
 907 0022 1A46     		mov	r2, r3
 908 0024 BB68     		ldr	r3, [r7, #8]
 909 0026 9B69     		ldr	r3, [r3, #24]
 910 0028 D31A     		subs	r3, r2, r3
 911 002a 002B     		cmp	r3, #0
 912 002c 00DA     		bge	.L60
 913 002e 0333     		adds	r3, r3, #3
 914              	.L60:
 915 0030 9B10     		asrs	r3, r3, #2
 916 0032 7B61     		str	r3, [r7, #20]
 917 0034 BA69     		ldr	r2, [r7, #24]
 918 0036 7B69     		ldr	r3, [r7, #20]
 919 0038 9342     		cmp	r3, r2
 920 003a 28BF     		it	cs
 921 003c 1346     		movcs	r3, r2
 922 003e 3B61     		str	r3, [r7, #16]
 923 0040 3B69     		ldr	r3, [r7, #16]
 924 0042 9B00     		lsls	r3, r3, #2
 925 0044 7A6A     		ldr	r2, [r7, #36]
 926 0046 D31A     		subs	r3, r2, r3
 927 0048 7B62     		str	r3, [r7, #36]
 928 004a BB68     		ldr	r3, [r7, #8]
 929 004c 9B69     		ldr	r3, [r3, #24]
 930 004e 3A69     		ldr	r2, [r7, #16]
 931 0050 1946     		mov	r1, r3
 932 0052 F868     		ldr	r0, [r7, #12]
 933 0054 FFF7FEFF 		bl	otg_do_push
 934 0058 0246     		mov	r2, r0
 935 005a BB68     		ldr	r3, [r7, #8]
 936 005c 9A61     		str	r2, [r3, #24]
 937 005e BB68     		ldr	r3, [r7, #8]
 938 0060 9A69     		ldr	r2, [r3, #24]
 939 0062 BB68     		ldr	r3, [r7, #8]
 940 0064 1B69     		ldr	r3, [r3, #16]
 941 0066 9A42     		cmp	r2, r3
 942 0068 04D3     		bcc	.L59
 943 006a BB68     		ldr	r3, [r7, #8]
 944 006c DA68     		ldr	r2, [r3, #12]
 945 006e BB68     		ldr	r3, [r7, #8]
 946 0070 9A61     		str	r2, [r3, #24]
 947 0072 2EE0     		b	.L58
 948              	.L59:
 949 0074 7B6A     		ldr	r3, [r7, #36]
 950 0076 002B     		cmp	r3, #0
 951 0078 2FD0     		beq	.L68
 952 007a 0023     		movs	r3, #0
 953 007c 3B62     		str	r3, [r7, #32]
 954 007e 0023     		movs	r3, #0
 955 0080 FB61     		str	r3, [r7, #28]
 956 0082 1DE0     		b	.L63
 957              	.L66:
 958 0084 BB68     		ldr	r3, [r7, #8]
 959 0086 9B69     		ldr	r3, [r3, #24]
 960 0088 591C     		adds	r1, r3, #1
ARM GAS  /var/folders/d2/nstgp4h54kz7g1l847x_b8wc0000gn/T//ccvTRJsx.s 			page 18


 961 008a BA68     		ldr	r2, [r7, #8]
 962 008c 9161     		str	r1, [r2, #24]
 963 008e 1B78     		ldrb	r3, [r3]	@ zero_extendqisi2
 964 0090 1A46     		mov	r2, r3
 965 0092 FB69     		ldr	r3, [r7, #28]
 966 0094 DB00     		lsls	r3, r3, #3
 967 0096 02FA03F3 		lsl	r3, r2, r3
 968 009a 3A6A     		ldr	r2, [r7, #32]
 969 009c 1343     		orrs	r3, r3, r2
 970 009e 3B62     		str	r3, [r7, #32]
 971 00a0 BB68     		ldr	r3, [r7, #8]
 972 00a2 9A69     		ldr	r2, [r3, #24]
 973 00a4 BB68     		ldr	r3, [r7, #8]
 974 00a6 1B69     		ldr	r3, [r3, #16]
 975 00a8 9A42     		cmp	r2, r3
 976 00aa 03D3     		bcc	.L64
 977 00ac BB68     		ldr	r3, [r7, #8]
 978 00ae DA68     		ldr	r2, [r3, #12]
 979 00b0 BB68     		ldr	r3, [r7, #8]
 980 00b2 9A61     		str	r2, [r3, #24]
 981              	.L64:
 982 00b4 7B6A     		ldr	r3, [r7, #36]
 983 00b6 013B     		subs	r3, r3, #1
 984 00b8 7B62     		str	r3, [r7, #36]
 985 00ba FB69     		ldr	r3, [r7, #28]
 986 00bc 0133     		adds	r3, r3, #1
 987 00be FB61     		str	r3, [r7, #28]
 988              	.L63:
 989 00c0 7B6A     		ldr	r3, [r7, #36]
 990 00c2 002B     		cmp	r3, #0
 991 00c4 02D0     		beq	.L65
 992 00c6 FB69     		ldr	r3, [r7, #28]
 993 00c8 032B     		cmp	r3, #3
 994 00ca DBD9     		bls	.L66
 995              	.L65:
 996 00cc FB68     		ldr	r3, [r7, #12]
 997 00ce 3A6A     		ldr	r2, [r7, #32]
 998 00d0 1A60     		str	r2, [r3]
 999              	.L58:
 1000 00d2 7B6A     		ldr	r3, [r7, #36]
 1001 00d4 002B     		cmp	r3, #0
 1002 00d6 9CD1     		bne	.L67
 1003 00d8 00E0     		b	.L62
 1004              	.L68:
 1005 00da 00BF     		nop
 1006              	.L62:
 1007 00dc FFF7FEFF 		bl	osalSysLock
 1008 00e0 BB68     		ldr	r3, [r7, #8]
 1009 00e2 9A68     		ldr	r2, [r3, #8]
 1010 00e4 7B68     		ldr	r3, [r7, #4]
 1011 00e6 1A44     		add	r2, r2, r3
 1012 00e8 BB68     		ldr	r3, [r7, #8]
 1013 00ea 9A60     		str	r2, [r3, #8]
 1014 00ec BB68     		ldr	r3, [r7, #8]
 1015 00ee 0021     		movs	r1, #0
 1016 00f0 1846     		mov	r0, r3
 1017 00f2 FFF7FEFF 		bl	osalThreadDequeueAllI
ARM GAS  /var/folders/d2/nstgp4h54kz7g1l847x_b8wc0000gn/T//ccvTRJsx.s 			page 19


 1018 00f6 FFF7FEFF 		bl	osalOsRescheduleS
 1019 00fa FFF7FEFF 		bl	osalSysUnlock
 1020 00fe 00BF     		nop
 1021 0100 2837     		adds	r7, r7, #40
 1022 0102 BD46     		mov	sp, r7
 1023              		@ sp needed
 1024 0104 80BD     		pop	{r7, pc}
 1025              		.size	otg_fifo_write_from_queue, .-otg_fifo_write_from_queue
 1026              		.section	.text.otg_do_pop,"ax",%progbits
 1027              		.align	1
 1028              		.syntax unified
 1029              		.thumb
 1030              		.thumb_func
 1031              		.fpu fpv4-sp-d16
 1032              		.type	otg_do_pop, %function
 1033              	otg_do_pop:
 1034              		@ args = 0, pretend = 0, frame = 24
 1035              		@ frame_needed = 1, uses_anonymous_args = 0
 1036              		@ link register save eliminated.
 1037 0000 80B4     		push	{r7}
 1038 0002 87B0     		sub	sp, sp, #28
 1039 0004 00AF     		add	r7, sp, #0
 1040 0006 F860     		str	r0, [r7, #12]
 1041 0008 B960     		str	r1, [r7, #8]
 1042 000a 7A60     		str	r2, [r7, #4]
 1043 000c 0BE0     		b	.L70
 1044              	.L71:
 1045 000e FB68     		ldr	r3, [r7, #12]
 1046 0010 1B68     		ldr	r3, [r3]
 1047 0012 7B61     		str	r3, [r7, #20]
 1048 0014 BB68     		ldr	r3, [r7, #8]
 1049 0016 7A69     		ldr	r2, [r7, #20]
 1050 0018 1A60     		str	r2, [r3]
 1051 001a BB68     		ldr	r3, [r7, #8]
 1052 001c 0433     		adds	r3, r3, #4
 1053 001e BB60     		str	r3, [r7, #8]
 1054 0020 7B68     		ldr	r3, [r7, #4]
 1055 0022 013B     		subs	r3, r3, #1
 1056 0024 7B60     		str	r3, [r7, #4]
 1057              	.L70:
 1058 0026 7B68     		ldr	r3, [r7, #4]
 1059 0028 002B     		cmp	r3, #0
 1060 002a F0D1     		bne	.L71
 1061 002c BB68     		ldr	r3, [r7, #8]
 1062 002e 1846     		mov	r0, r3
 1063 0030 1C37     		adds	r7, r7, #28
 1064 0032 BD46     		mov	sp, r7
 1065              		@ sp needed
 1066 0034 5DF8047B 		ldr	r7, [sp], #4
 1067 0038 7047     		bx	lr
 1068              		.size	otg_do_pop, .-otg_do_pop
 1069              		.section	.text.otg_fifo_read_to_buffer,"ax",%progbits
 1070              		.align	1
 1071              		.syntax unified
 1072              		.thumb
 1073              		.thumb_func
 1074              		.fpu fpv4-sp-d16
ARM GAS  /var/folders/d2/nstgp4h54kz7g1l847x_b8wc0000gn/T//ccvTRJsx.s 			page 20


 1075              		.type	otg_fifo_read_to_buffer, %function
 1076              	otg_fifo_read_to_buffer:
 1077              		@ args = 0, pretend = 0, frame = 24
 1078              		@ frame_needed = 1, uses_anonymous_args = 0
 1079              		@ link register save eliminated.
 1080 0000 80B4     		push	{r7}
 1081 0002 87B0     		sub	sp, sp, #28
 1082 0004 00AF     		add	r7, sp, #0
 1083 0006 F860     		str	r0, [r7, #12]
 1084 0008 B960     		str	r1, [r7, #8]
 1085 000a 7A60     		str	r2, [r7, #4]
 1086 000c 3B60     		str	r3, [r7]
 1087 000e 7B68     		ldr	r3, [r7, #4]
 1088 0010 0333     		adds	r3, r3, #3
 1089 0012 9B08     		lsrs	r3, r3, #2
 1090 0014 7B60     		str	r3, [r7, #4]
 1091 0016 3B68     		ldr	r3, [r7]
 1092 0018 0333     		adds	r3, r3, #3
 1093 001a 9B08     		lsrs	r3, r3, #2
 1094 001c 3B60     		str	r3, [r7]
 1095 001e 11E0     		b	.L74
 1096              	.L76:
 1097 0020 FB68     		ldr	r3, [r7, #12]
 1098 0022 1B68     		ldr	r3, [r3]
 1099 0024 7B61     		str	r3, [r7, #20]
 1100 0026 3B68     		ldr	r3, [r7]
 1101 0028 002B     		cmp	r3, #0
 1102 002a 08D0     		beq	.L75
 1103 002c BB68     		ldr	r3, [r7, #8]
 1104 002e 7A69     		ldr	r2, [r7, #20]
 1105 0030 1A60     		str	r2, [r3]
 1106 0032 BB68     		ldr	r3, [r7, #8]
 1107 0034 0433     		adds	r3, r3, #4
 1108 0036 BB60     		str	r3, [r7, #8]
 1109 0038 3B68     		ldr	r3, [r7]
 1110 003a 013B     		subs	r3, r3, #1
 1111 003c 3B60     		str	r3, [r7]
 1112              	.L75:
 1113 003e 7B68     		ldr	r3, [r7, #4]
 1114 0040 013B     		subs	r3, r3, #1
 1115 0042 7B60     		str	r3, [r7, #4]
 1116              	.L74:
 1117 0044 7B68     		ldr	r3, [r7, #4]
 1118 0046 002B     		cmp	r3, #0
 1119 0048 EAD1     		bne	.L76
 1120 004a 00BF     		nop
 1121 004c 1C37     		adds	r7, r7, #28
 1122 004e BD46     		mov	sp, r7
 1123              		@ sp needed
 1124 0050 5DF8047B 		ldr	r7, [sp], #4
 1125 0054 7047     		bx	lr
 1126              		.size	otg_fifo_read_to_buffer, .-otg_fifo_read_to_buffer
 1127              		.section	.text.otg_fifo_read_to_queue,"ax",%progbits
 1128              		.align	1
 1129              		.syntax unified
 1130              		.thumb
 1131              		.thumb_func
ARM GAS  /var/folders/d2/nstgp4h54kz7g1l847x_b8wc0000gn/T//ccvTRJsx.s 			page 21


 1132              		.fpu fpv4-sp-d16
 1133              		.type	otg_fifo_read_to_queue, %function
 1134              	otg_fifo_read_to_queue:
 1135              		@ args = 0, pretend = 0, frame = 40
 1136              		@ frame_needed = 1, uses_anonymous_args = 0
 1137 0000 80B5     		push	{r7, lr}
 1138 0002 8AB0     		sub	sp, sp, #40
 1139 0004 00AF     		add	r7, sp, #0
 1140 0006 F860     		str	r0, [r7, #12]
 1141 0008 B960     		str	r1, [r7, #8]
 1142 000a 7A60     		str	r2, [r7, #4]
 1143 000c 7B68     		ldr	r3, [r7, #4]
 1144 000e 7B62     		str	r3, [r7, #36]
 1145 0010 52E0     		b	.L78
 1146              	.L85:
 1147 0012 7B6A     		ldr	r3, [r7, #36]
 1148 0014 9B08     		lsrs	r3, r3, #2
 1149 0016 FB61     		str	r3, [r7, #28]
 1150 0018 FB69     		ldr	r3, [r7, #28]
 1151 001a 002B     		cmp	r3, #0
 1152 001c 21D0     		beq	.L79
 1153 001e 0023     		movs	r3, #0
 1154 0020 BB61     		str	r3, [r7, #24]
 1155 0022 FA69     		ldr	r2, [r7, #28]
 1156 0024 BB69     		ldr	r3, [r7, #24]
 1157 0026 9342     		cmp	r3, r2
 1158 0028 28BF     		it	cs
 1159 002a 1346     		movcs	r3, r2
 1160 002c 7B61     		str	r3, [r7, #20]
 1161 002e 7B69     		ldr	r3, [r7, #20]
 1162 0030 9B00     		lsls	r3, r3, #2
 1163 0032 7A6A     		ldr	r2, [r7, #36]
 1164 0034 D31A     		subs	r3, r2, r3
 1165 0036 7B62     		str	r3, [r7, #36]
 1166 0038 BB68     		ldr	r3, [r7, #8]
 1167 003a 5B69     		ldr	r3, [r3, #20]
 1168 003c 7A69     		ldr	r2, [r7, #20]
 1169 003e 1946     		mov	r1, r3
 1170 0040 F868     		ldr	r0, [r7, #12]
 1171 0042 FFF7FEFF 		bl	otg_do_pop
 1172 0046 0246     		mov	r2, r0
 1173 0048 BB68     		ldr	r3, [r7, #8]
 1174 004a 5A61     		str	r2, [r3, #20]
 1175 004c BB68     		ldr	r3, [r7, #8]
 1176 004e 5A69     		ldr	r2, [r3, #20]
 1177 0050 BB68     		ldr	r3, [r7, #8]
 1178 0052 1B69     		ldr	r3, [r3, #16]
 1179 0054 9A42     		cmp	r2, r3
 1180 0056 04D3     		bcc	.L79
 1181 0058 BB68     		ldr	r3, [r7, #8]
 1182 005a DA68     		ldr	r2, [r3, #12]
 1183 005c BB68     		ldr	r3, [r7, #8]
 1184 005e 5A61     		str	r2, [r3, #20]
 1185 0060 2AE0     		b	.L78
 1186              	.L79:
 1187 0062 7B6A     		ldr	r3, [r7, #36]
 1188 0064 002B     		cmp	r3, #0
ARM GAS  /var/folders/d2/nstgp4h54kz7g1l847x_b8wc0000gn/T//ccvTRJsx.s 			page 22


 1189 0066 2BD0     		beq	.L86
 1190 0068 FB68     		ldr	r3, [r7, #12]
 1191 006a 1B68     		ldr	r3, [r3]
 1192 006c 3B61     		str	r3, [r7, #16]
 1193 006e 0023     		movs	r3, #0
 1194 0070 3B62     		str	r3, [r7, #32]
 1195 0072 1BE0     		b	.L82
 1196              	.L84:
 1197 0074 3B6A     		ldr	r3, [r7, #32]
 1198 0076 DB00     		lsls	r3, r3, #3
 1199 0078 3A69     		ldr	r2, [r7, #16]
 1200 007a 22FA03F0 		lsr	r0, r2, r3
 1201 007e BB68     		ldr	r3, [r7, #8]
 1202 0080 5B69     		ldr	r3, [r3, #20]
 1203 0082 591C     		adds	r1, r3, #1
 1204 0084 BA68     		ldr	r2, [r7, #8]
 1205 0086 5161     		str	r1, [r2, #20]
 1206 0088 C2B2     		uxtb	r2, r0
 1207 008a 1A70     		strb	r2, [r3]
 1208 008c BB68     		ldr	r3, [r7, #8]
 1209 008e 5A69     		ldr	r2, [r3, #20]
 1210 0090 BB68     		ldr	r3, [r7, #8]
 1211 0092 1B69     		ldr	r3, [r3, #16]
 1212 0094 9A42     		cmp	r2, r3
 1213 0096 03D3     		bcc	.L83
 1214 0098 BB68     		ldr	r3, [r7, #8]
 1215 009a DA68     		ldr	r2, [r3, #12]
 1216 009c BB68     		ldr	r3, [r7, #8]
 1217 009e 5A61     		str	r2, [r3, #20]
 1218              	.L83:
 1219 00a0 7B6A     		ldr	r3, [r7, #36]
 1220 00a2 013B     		subs	r3, r3, #1
 1221 00a4 7B62     		str	r3, [r7, #36]
 1222 00a6 3B6A     		ldr	r3, [r7, #32]
 1223 00a8 0133     		adds	r3, r3, #1
 1224 00aa 3B62     		str	r3, [r7, #32]
 1225              	.L82:
 1226 00ac 7B6A     		ldr	r3, [r7, #36]
 1227 00ae 002B     		cmp	r3, #0
 1228 00b0 02D0     		beq	.L78
 1229 00b2 3B6A     		ldr	r3, [r7, #32]
 1230 00b4 032B     		cmp	r3, #3
 1231 00b6 DDD9     		bls	.L84
 1232              	.L78:
 1233 00b8 7B6A     		ldr	r3, [r7, #36]
 1234 00ba 002B     		cmp	r3, #0
 1235 00bc A9D1     		bne	.L85
 1236 00be 00E0     		b	.L81
 1237              	.L86:
 1238 00c0 00BF     		nop
 1239              	.L81:
 1240 00c2 FFF7FEFF 		bl	osalSysLock
 1241 00c6 BB68     		ldr	r3, [r7, #8]
 1242 00c8 9A68     		ldr	r2, [r3, #8]
 1243 00ca 7B68     		ldr	r3, [r7, #4]
 1244 00cc 1A44     		add	r2, r2, r3
 1245 00ce BB68     		ldr	r3, [r7, #8]
ARM GAS  /var/folders/d2/nstgp4h54kz7g1l847x_b8wc0000gn/T//ccvTRJsx.s 			page 23


 1246 00d0 9A60     		str	r2, [r3, #8]
 1247 00d2 BB68     		ldr	r3, [r7, #8]
 1248 00d4 0021     		movs	r1, #0
 1249 00d6 1846     		mov	r0, r3
 1250 00d8 FFF7FEFF 		bl	osalThreadDequeueAllI
 1251 00dc FFF7FEFF 		bl	osalOsRescheduleS
 1252 00e0 FFF7FEFF 		bl	osalSysUnlock
 1253 00e4 00BF     		nop
 1254 00e6 2837     		adds	r7, r7, #40
 1255 00e8 BD46     		mov	sp, r7
 1256              		@ sp needed
 1257 00ea 80BD     		pop	{r7, pc}
 1258              		.size	otg_fifo_read_to_queue, .-otg_fifo_read_to_queue
 1259              		.section	.text.otg_rxfifo_handler,"ax",%progbits
 1260              		.align	1
 1261              		.syntax unified
 1262              		.thumb
 1263              		.thumb_func
 1264              		.fpu fpv4-sp-d16
 1265              		.type	otg_rxfifo_handler, %function
 1266              	otg_rxfifo_handler:
 1267              		@ args = 0, pretend = 0, frame = 24
 1268              		@ frame_needed = 1, uses_anonymous_args = 0
 1269 0000 90B5     		push	{r4, r7, lr}
 1270 0002 87B0     		sub	sp, sp, #28
 1271 0004 00AF     		add	r7, sp, #0
 1272 0006 7860     		str	r0, [r7, #4]
 1273 0008 7B68     		ldr	r3, [r7, #4]
 1274 000a 1B6D     		ldr	r3, [r3, #80]
 1275 000c 1B6A     		ldr	r3, [r3, #32]
 1276 000e 7B61     		str	r3, [r7, #20]
 1277 0010 7B69     		ldr	r3, [r7, #20]
 1278 0012 03F4F013 		and	r3, r3, #1966080
 1279 0016 B3F5002F 		cmp	r3, #524288
 1280 001a 00F08A80 		beq	.L94
 1281 001e B3F5402F 		cmp	r3, #786432
 1282 0022 03D0     		beq	.L90
 1283 0024 B3F5802F 		cmp	r3, #262144
 1284 0028 19D0     		beq	.L91
 1285 002a 83E0     		b	.L95
 1286              	.L90:
 1287 002c 7B69     		ldr	r3, [r7, #20]
 1288 002e 1B09     		lsrs	r3, r3, #4
 1289 0030 C3F30A03 		ubfx	r3, r3, #0, #11
 1290 0034 3B61     		str	r3, [r7, #16]
 1291 0036 7B69     		ldr	r3, [r7, #20]
 1292 0038 03F00F03 		and	r3, r3, #15
 1293 003c FB60     		str	r3, [r7, #12]
 1294 003e 7B68     		ldr	r3, [r7, #4]
 1295 0040 1B6D     		ldr	r3, [r3, #80]
 1296 0042 03F58050 		add	r0, r3, #4096
 1297 0046 7A68     		ldr	r2, [r7, #4]
 1298 0048 FB68     		ldr	r3, [r7, #12]
 1299 004a 0233     		adds	r3, r3, #2
 1300 004c 9B00     		lsls	r3, r3, #2
 1301 004e 1344     		add	r3, r3, r2
 1302 0050 5B68     		ldr	r3, [r3, #4]
ARM GAS  /var/folders/d2/nstgp4h54kz7g1l847x_b8wc0000gn/T//ccvTRJsx.s 			page 24


 1303 0052 196A     		ldr	r1, [r3, #32]
 1304 0054 0823     		movs	r3, #8
 1305 0056 3A69     		ldr	r2, [r7, #16]
 1306 0058 FFF7FEFF 		bl	otg_fifo_read_to_buffer
 1307 005c 6AE0     		b	.L88
 1308              	.L91:
 1309 005e 7B69     		ldr	r3, [r7, #20]
 1310 0060 1B09     		lsrs	r3, r3, #4
 1311 0062 C3F30A03 		ubfx	r3, r3, #0, #11
 1312 0066 3B61     		str	r3, [r7, #16]
 1313 0068 7B69     		ldr	r3, [r7, #20]
 1314 006a 03F00F03 		and	r3, r3, #15
 1315 006e FB60     		str	r3, [r7, #12]
 1316 0070 7A68     		ldr	r2, [r7, #4]
 1317 0072 FB68     		ldr	r3, [r7, #12]
 1318 0074 0233     		adds	r3, r3, #2
 1319 0076 9B00     		lsls	r3, r3, #2
 1320 0078 1344     		add	r3, r3, r2
 1321 007a 5B68     		ldr	r3, [r3, #4]
 1322 007c 9B69     		ldr	r3, [r3, #24]
 1323 007e 1B78     		ldrb	r3, [r3]	@ zero_extendqisi2
 1324 0080 002B     		cmp	r3, #0
 1325 0082 10D0     		beq	.L92
 1326 0084 7B68     		ldr	r3, [r7, #4]
 1327 0086 1B6D     		ldr	r3, [r3, #80]
 1328 0088 03F58050 		add	r0, r3, #4096
 1329 008c 7A68     		ldr	r2, [r7, #4]
 1330 008e FB68     		ldr	r3, [r7, #12]
 1331 0090 0233     		adds	r3, r3, #2
 1332 0092 9B00     		lsls	r3, r3, #2
 1333 0094 1344     		add	r3, r3, r2
 1334 0096 5B68     		ldr	r3, [r3, #4]
 1335 0098 9B69     		ldr	r3, [r3, #24]
 1336 009a DB68     		ldr	r3, [r3, #12]
 1337 009c 3A69     		ldr	r2, [r7, #16]
 1338 009e 1946     		mov	r1, r3
 1339 00a0 FFF7FEFF 		bl	otg_fifo_read_to_queue
 1340 00a4 32E0     		b	.L93
 1341              	.L92:
 1342 00a6 7B68     		ldr	r3, [r7, #4]
 1343 00a8 1B6D     		ldr	r3, [r3, #80]
 1344 00aa 03F58050 		add	r0, r3, #4096
 1345 00ae 7A68     		ldr	r2, [r7, #4]
 1346 00b0 FB68     		ldr	r3, [r7, #12]
 1347 00b2 0233     		adds	r3, r3, #2
 1348 00b4 9B00     		lsls	r3, r3, #2
 1349 00b6 1344     		add	r3, r3, r2
 1350 00b8 5B68     		ldr	r3, [r3, #4]
 1351 00ba 9B69     		ldr	r3, [r3, #24]
 1352 00bc DC68     		ldr	r4, [r3, #12]
 1353 00be 7A68     		ldr	r2, [r7, #4]
 1354 00c0 FB68     		ldr	r3, [r7, #12]
 1355 00c2 0233     		adds	r3, r3, #2
 1356 00c4 9B00     		lsls	r3, r3, #2
 1357 00c6 1344     		add	r3, r3, r2
 1358 00c8 5B68     		ldr	r3, [r3, #4]
 1359 00ca 9B69     		ldr	r3, [r3, #24]
ARM GAS  /var/folders/d2/nstgp4h54kz7g1l847x_b8wc0000gn/T//ccvTRJsx.s 			page 25


 1360 00cc 5A68     		ldr	r2, [r3, #4]
 1361 00ce 7968     		ldr	r1, [r7, #4]
 1362 00d0 FB68     		ldr	r3, [r7, #12]
 1363 00d2 0233     		adds	r3, r3, #2
 1364 00d4 9B00     		lsls	r3, r3, #2
 1365 00d6 0B44     		add	r3, r3, r1
 1366 00d8 5B68     		ldr	r3, [r3, #4]
 1367 00da 9B69     		ldr	r3, [r3, #24]
 1368 00dc 9B68     		ldr	r3, [r3, #8]
 1369 00de D31A     		subs	r3, r2, r3
 1370 00e0 3A69     		ldr	r2, [r7, #16]
 1371 00e2 2146     		mov	r1, r4
 1372 00e4 FFF7FEFF 		bl	otg_fifo_read_to_buffer
 1373 00e8 7A68     		ldr	r2, [r7, #4]
 1374 00ea FB68     		ldr	r3, [r7, #12]
 1375 00ec 0233     		adds	r3, r3, #2
 1376 00ee 9B00     		lsls	r3, r3, #2
 1377 00f0 1344     		add	r3, r3, r2
 1378 00f2 5B68     		ldr	r3, [r3, #4]
 1379 00f4 9B69     		ldr	r3, [r3, #24]
 1380 00f6 D968     		ldr	r1, [r3, #12]
 1381 00f8 7A68     		ldr	r2, [r7, #4]
 1382 00fa FB68     		ldr	r3, [r7, #12]
 1383 00fc 0233     		adds	r3, r3, #2
 1384 00fe 9B00     		lsls	r3, r3, #2
 1385 0100 1344     		add	r3, r3, r2
 1386 0102 5B68     		ldr	r3, [r3, #4]
 1387 0104 9B69     		ldr	r3, [r3, #24]
 1388 0106 3A69     		ldr	r2, [r7, #16]
 1389 0108 0A44     		add	r2, r2, r1
 1390 010a DA60     		str	r2, [r3, #12]
 1391              	.L93:
 1392 010c 7A68     		ldr	r2, [r7, #4]
 1393 010e FB68     		ldr	r3, [r7, #12]
 1394 0110 0233     		adds	r3, r3, #2
 1395 0112 9B00     		lsls	r3, r3, #2
 1396 0114 1344     		add	r3, r3, r2
 1397 0116 5B68     		ldr	r3, [r3, #4]
 1398 0118 9B69     		ldr	r3, [r3, #24]
 1399 011a 9968     		ldr	r1, [r3, #8]
 1400 011c 7A68     		ldr	r2, [r7, #4]
 1401 011e FB68     		ldr	r3, [r7, #12]
 1402 0120 0233     		adds	r3, r3, #2
 1403 0122 9B00     		lsls	r3, r3, #2
 1404 0124 1344     		add	r3, r3, r2
 1405 0126 5B68     		ldr	r3, [r3, #4]
 1406 0128 9B69     		ldr	r3, [r3, #24]
 1407 012a 3A69     		ldr	r2, [r7, #16]
 1408 012c 0A44     		add	r2, r2, r1
 1409 012e 9A60     		str	r2, [r3, #8]
 1410 0130 00E0     		b	.L88
 1411              	.L94:
 1412 0132 00BF     		nop
 1413              	.L88:
 1414              	.L95:
 1415 0134 00BF     		nop
 1416 0136 1C37     		adds	r7, r7, #28
ARM GAS  /var/folders/d2/nstgp4h54kz7g1l847x_b8wc0000gn/T//ccvTRJsx.s 			page 26


 1417 0138 BD46     		mov	sp, r7
 1418              		@ sp needed
 1419 013a 90BD     		pop	{r4, r7, pc}
 1420              		.size	otg_rxfifo_handler, .-otg_rxfifo_handler
 1421              		.section	.text.otg_txfifo_handler,"ax",%progbits
 1422              		.align	1
 1423              		.syntax unified
 1424              		.thumb
 1425              		.thumb_func
 1426              		.fpu fpv4-sp-d16
 1427              		.type	otg_txfifo_handler, %function
 1428              	otg_txfifo_handler:
 1429              		@ args = 0, pretend = 0, frame = 16
 1430              		@ frame_needed = 1, uses_anonymous_args = 0
 1431 0000 80B5     		push	{r7, lr}
 1432 0002 84B0     		sub	sp, sp, #16
 1433 0004 00AF     		add	r7, sp, #0
 1434 0006 7860     		str	r0, [r7, #4]
 1435 0008 0B46     		mov	r3, r1
 1436 000a FB70     		strb	r3, [r7, #3]
 1437              	.L103:
 1438 000c FB78     		ldrb	r3, [r7, #3]	@ zero_extendqisi2
 1439 000e 7A68     		ldr	r2, [r7, #4]
 1440 0010 0233     		adds	r3, r3, #2
 1441 0012 9B00     		lsls	r3, r3, #2
 1442 0014 1344     		add	r3, r3, r2
 1443 0016 5B68     		ldr	r3, [r3, #4]
 1444 0018 5B69     		ldr	r3, [r3, #20]
 1445 001a 9A68     		ldr	r2, [r3, #8]
 1446 001c FB78     		ldrb	r3, [r7, #3]	@ zero_extendqisi2
 1447 001e 7968     		ldr	r1, [r7, #4]
 1448 0020 0233     		adds	r3, r3, #2
 1449 0022 9B00     		lsls	r3, r3, #2
 1450 0024 0B44     		add	r3, r3, r1
 1451 0026 5B68     		ldr	r3, [r3, #4]
 1452 0028 5B69     		ldr	r3, [r3, #20]
 1453 002a 5B68     		ldr	r3, [r3, #4]
 1454 002c 9A42     		cmp	r2, r3
 1455 002e 01D3     		bcc	.L97
 1456 0030 0123     		movs	r3, #1
 1457 0032 87E0     		b	.L98
 1458              	.L97:
 1459 0034 FB78     		ldrb	r3, [r7, #3]	@ zero_extendqisi2
 1460 0036 7A68     		ldr	r2, [r7, #4]
 1461 0038 0233     		adds	r3, r3, #2
 1462 003a 9B00     		lsls	r3, r3, #2
 1463 003c 1344     		add	r3, r3, r2
 1464 003e 5B68     		ldr	r3, [r3, #4]
 1465 0040 5B69     		ldr	r3, [r3, #20]
 1466 0042 5A68     		ldr	r2, [r3, #4]
 1467 0044 FB78     		ldrb	r3, [r7, #3]	@ zero_extendqisi2
 1468 0046 7968     		ldr	r1, [r7, #4]
 1469 0048 0233     		adds	r3, r3, #2
 1470 004a 9B00     		lsls	r3, r3, #2
 1471 004c 0B44     		add	r3, r3, r1
 1472 004e 5B68     		ldr	r3, [r3, #4]
 1473 0050 5B69     		ldr	r3, [r3, #20]
ARM GAS  /var/folders/d2/nstgp4h54kz7g1l847x_b8wc0000gn/T//ccvTRJsx.s 			page 27


 1474 0052 9B68     		ldr	r3, [r3, #8]
 1475 0054 D31A     		subs	r3, r2, r3
 1476 0056 FB60     		str	r3, [r7, #12]
 1477 0058 FB78     		ldrb	r3, [r7, #3]	@ zero_extendqisi2
 1478 005a 7A68     		ldr	r2, [r7, #4]
 1479 005c 0233     		adds	r3, r3, #2
 1480 005e 9B00     		lsls	r3, r3, #2
 1481 0060 1344     		add	r3, r3, r2
 1482 0062 5B68     		ldr	r3, [r3, #4]
 1483 0064 1B8A     		ldrh	r3, [r3, #16]
 1484 0066 1A46     		mov	r2, r3
 1485 0068 FB68     		ldr	r3, [r7, #12]
 1486 006a 9342     		cmp	r3, r2
 1487 006c 07D9     		bls	.L99
 1488 006e FB78     		ldrb	r3, [r7, #3]	@ zero_extendqisi2
 1489 0070 7A68     		ldr	r2, [r7, #4]
 1490 0072 0233     		adds	r3, r3, #2
 1491 0074 9B00     		lsls	r3, r3, #2
 1492 0076 1344     		add	r3, r3, r2
 1493 0078 5B68     		ldr	r3, [r3, #4]
 1494 007a 1B8A     		ldrh	r3, [r3, #16]
 1495 007c FB60     		str	r3, [r7, #12]
 1496              	.L99:
 1497 007e 7B68     		ldr	r3, [r7, #4]
 1498 0080 1A6D     		ldr	r2, [r3, #80]
 1499 0082 FB78     		ldrb	r3, [r7, #3]	@ zero_extendqisi2
 1500 0084 5B01     		lsls	r3, r3, #5
 1501 0086 1344     		add	r3, r3, r2
 1502 0088 03F61813 		addw	r3, r3, #2328
 1503 008c 1B68     		ldr	r3, [r3]
 1504 008e 9BB2     		uxth	r3, r3
 1505 0090 9B00     		lsls	r3, r3, #2
 1506 0092 FA68     		ldr	r2, [r7, #12]
 1507 0094 9A42     		cmp	r2, r3
 1508 0096 01D9     		bls	.L100
 1509 0098 0023     		movs	r3, #0
 1510 009a 53E0     		b	.L98
 1511              	.L100:
 1512 009c FB78     		ldrb	r3, [r7, #3]	@ zero_extendqisi2
 1513 009e 7A68     		ldr	r2, [r7, #4]
 1514 00a0 0233     		adds	r3, r3, #2
 1515 00a2 9B00     		lsls	r3, r3, #2
 1516 00a4 1344     		add	r3, r3, r2
 1517 00a6 5B68     		ldr	r3, [r3, #4]
 1518 00a8 5B69     		ldr	r3, [r3, #20]
 1519 00aa 1B78     		ldrb	r3, [r3]	@ zero_extendqisi2
 1520 00ac 002B     		cmp	r3, #0
 1521 00ae 12D0     		beq	.L101
 1522 00b0 7B68     		ldr	r3, [r7, #4]
 1523 00b2 1A6D     		ldr	r2, [r3, #80]
 1524 00b4 FB78     		ldrb	r3, [r7, #3]	@ zero_extendqisi2
 1525 00b6 0133     		adds	r3, r3, #1
 1526 00b8 1B03     		lsls	r3, r3, #12
 1527 00ba D018     		adds	r0, r2, r3
 1528 00bc FB78     		ldrb	r3, [r7, #3]	@ zero_extendqisi2
 1529 00be 7A68     		ldr	r2, [r7, #4]
 1530 00c0 0233     		adds	r3, r3, #2
ARM GAS  /var/folders/d2/nstgp4h54kz7g1l847x_b8wc0000gn/T//ccvTRJsx.s 			page 28


 1531 00c2 9B00     		lsls	r3, r3, #2
 1532 00c4 1344     		add	r3, r3, r2
 1533 00c6 5B68     		ldr	r3, [r3, #4]
 1534 00c8 5B69     		ldr	r3, [r3, #20]
 1535 00ca DB68     		ldr	r3, [r3, #12]
 1536 00cc FA68     		ldr	r2, [r7, #12]
 1537 00ce 1946     		mov	r1, r3
 1538 00d0 FFF7FEFF 		bl	otg_fifo_write_from_queue
 1539 00d4 23E0     		b	.L102
 1540              	.L101:
 1541 00d6 7B68     		ldr	r3, [r7, #4]
 1542 00d8 1A6D     		ldr	r2, [r3, #80]
 1543 00da FB78     		ldrb	r3, [r7, #3]	@ zero_extendqisi2
 1544 00dc 0133     		adds	r3, r3, #1
 1545 00de 1B03     		lsls	r3, r3, #12
 1546 00e0 D018     		adds	r0, r2, r3
 1547 00e2 FB78     		ldrb	r3, [r7, #3]	@ zero_extendqisi2
 1548 00e4 7A68     		ldr	r2, [r7, #4]
 1549 00e6 0233     		adds	r3, r3, #2
 1550 00e8 9B00     		lsls	r3, r3, #2
 1551 00ea 1344     		add	r3, r3, r2
 1552 00ec 5B68     		ldr	r3, [r3, #4]
 1553 00ee 5B69     		ldr	r3, [r3, #20]
 1554 00f0 DB68     		ldr	r3, [r3, #12]
 1555 00f2 FA68     		ldr	r2, [r7, #12]
 1556 00f4 1946     		mov	r1, r3
 1557 00f6 FFF7FEFF 		bl	otg_fifo_write_from_buffer
 1558 00fa FB78     		ldrb	r3, [r7, #3]	@ zero_extendqisi2
 1559 00fc 7A68     		ldr	r2, [r7, #4]
 1560 00fe 0233     		adds	r3, r3, #2
 1561 0100 9B00     		lsls	r3, r3, #2
 1562 0102 1344     		add	r3, r3, r2
 1563 0104 5B68     		ldr	r3, [r3, #4]
 1564 0106 5B69     		ldr	r3, [r3, #20]
 1565 0108 D968     		ldr	r1, [r3, #12]
 1566 010a FB78     		ldrb	r3, [r7, #3]	@ zero_extendqisi2
 1567 010c 7A68     		ldr	r2, [r7, #4]
 1568 010e 0233     		adds	r3, r3, #2
 1569 0110 9B00     		lsls	r3, r3, #2
 1570 0112 1344     		add	r3, r3, r2
 1571 0114 5B68     		ldr	r3, [r3, #4]
 1572 0116 5B69     		ldr	r3, [r3, #20]
 1573 0118 FA68     		ldr	r2, [r7, #12]
 1574 011a 0A44     		add	r2, r2, r1
 1575 011c DA60     		str	r2, [r3, #12]
 1576              	.L102:
 1577 011e FB78     		ldrb	r3, [r7, #3]	@ zero_extendqisi2
 1578 0120 7A68     		ldr	r2, [r7, #4]
 1579 0122 0233     		adds	r3, r3, #2
 1580 0124 9B00     		lsls	r3, r3, #2
 1581 0126 1344     		add	r3, r3, r2
 1582 0128 5B68     		ldr	r3, [r3, #4]
 1583 012a 5B69     		ldr	r3, [r3, #20]
 1584 012c 9968     		ldr	r1, [r3, #8]
 1585 012e FB78     		ldrb	r3, [r7, #3]	@ zero_extendqisi2
 1586 0130 7A68     		ldr	r2, [r7, #4]
 1587 0132 0233     		adds	r3, r3, #2
ARM GAS  /var/folders/d2/nstgp4h54kz7g1l847x_b8wc0000gn/T//ccvTRJsx.s 			page 29


 1588 0134 9B00     		lsls	r3, r3, #2
 1589 0136 1344     		add	r3, r3, r2
 1590 0138 5B68     		ldr	r3, [r3, #4]
 1591 013a 5B69     		ldr	r3, [r3, #20]
 1592 013c FA68     		ldr	r2, [r7, #12]
 1593 013e 0A44     		add	r2, r2, r1
 1594 0140 9A60     		str	r2, [r3, #8]
 1595 0142 63E7     		b	.L103
 1596              	.L98:
 1597 0144 1846     		mov	r0, r3
 1598 0146 1037     		adds	r7, r7, #16
 1599 0148 BD46     		mov	sp, r7
 1600              		@ sp needed
 1601 014a 80BD     		pop	{r7, pc}
 1602              		.size	otg_txfifo_handler, .-otg_txfifo_handler
 1603              		.section	.text.otg_epin_handler,"ax",%progbits
 1604              		.align	1
 1605              		.syntax unified
 1606              		.thumb
 1607              		.thumb_func
 1608              		.fpu fpv4-sp-d16
 1609              		.type	otg_epin_handler, %function
 1610              	otg_epin_handler:
 1611              		@ args = 0, pretend = 0, frame = 24
 1612              		@ frame_needed = 1, uses_anonymous_args = 0
 1613 0000 80B5     		push	{r7, lr}
 1614 0002 86B0     		sub	sp, sp, #24
 1615 0004 00AF     		add	r7, sp, #0
 1616 0006 7860     		str	r0, [r7, #4]
 1617 0008 0B46     		mov	r3, r1
 1618 000a FB70     		strb	r3, [r7, #3]
 1619 000c 7B68     		ldr	r3, [r7, #4]
 1620 000e 1B6D     		ldr	r3, [r3, #80]
 1621 0010 7B61     		str	r3, [r7, #20]
 1622 0012 FB78     		ldrb	r3, [r7, #3]	@ zero_extendqisi2
 1623 0014 7A69     		ldr	r2, [r7, #20]
 1624 0016 5B01     		lsls	r3, r3, #5
 1625 0018 1344     		add	r3, r3, r2
 1626 001a 03F60813 		addw	r3, r3, #2312
 1627 001e 1B68     		ldr	r3, [r3]
 1628 0020 3B61     		str	r3, [r7, #16]
 1629 0022 FB78     		ldrb	r3, [r7, #3]	@ zero_extendqisi2
 1630 0024 7A69     		ldr	r2, [r7, #20]
 1631 0026 5B01     		lsls	r3, r3, #5
 1632 0028 1344     		add	r3, r3, r2
 1633 002a 03F60813 		addw	r3, r3, #2312
 1634 002e 3A69     		ldr	r2, [r7, #16]
 1635 0030 1A60     		str	r2, [r3]
 1636 0032 3B69     		ldr	r3, [r7, #16]
 1637 0034 03F00103 		and	r3, r3, #1
 1638 0038 002B     		cmp	r3, #0
 1639 003a 47D0     		beq	.L105
 1640 003c 7B69     		ldr	r3, [r7, #20]
 1641 003e D3F81038 		ldr	r3, [r3, #2064]
 1642 0042 03F00103 		and	r3, r3, #1
 1643 0046 002B     		cmp	r3, #0
 1644 0048 40D0     		beq	.L105
ARM GAS  /var/folders/d2/nstgp4h54kz7g1l847x_b8wc0000gn/T//ccvTRJsx.s 			page 30


 1645 004a FB78     		ldrb	r3, [r7, #3]	@ zero_extendqisi2
 1646 004c 7A68     		ldr	r2, [r7, #4]
 1647 004e 0233     		adds	r3, r3, #2
 1648 0050 9B00     		lsls	r3, r3, #2
 1649 0052 1344     		add	r3, r3, r2
 1650 0054 5B68     		ldr	r3, [r3, #4]
 1651 0056 5B69     		ldr	r3, [r3, #20]
 1652 0058 FB60     		str	r3, [r7, #12]
 1653 005a FB68     		ldr	r3, [r7, #12]
 1654 005c 5A68     		ldr	r2, [r3, #4]
 1655 005e FB68     		ldr	r3, [r7, #12]
 1656 0060 1B69     		ldr	r3, [r3, #16]
 1657 0062 9A42     		cmp	r2, r3
 1658 0064 18D2     		bcs	.L106
 1659 0066 FB68     		ldr	r3, [r7, #12]
 1660 0068 1A69     		ldr	r2, [r3, #16]
 1661 006a FB68     		ldr	r3, [r7, #12]
 1662 006c 5B68     		ldr	r3, [r3, #4]
 1663 006e D21A     		subs	r2, r2, r3
 1664 0070 FB68     		ldr	r3, [r7, #12]
 1665 0072 5A60     		str	r2, [r3, #4]
 1666 0074 FB68     		ldr	r3, [r7, #12]
 1667 0076 0022     		movs	r2, #0
 1668 0078 9A60     		str	r2, [r3, #8]
 1669 007a FB78     		ldrb	r3, [r7, #3]	@ zero_extendqisi2
 1670 007c 1946     		mov	r1, r3
 1671 007e 7868     		ldr	r0, [r7, #4]
 1672 0080 FFF7FEFF 		bl	usb_lld_prepare_transmit
 1673 0084 FFF7FEFF 		bl	osalSysLockFromISR
 1674 0088 FB78     		ldrb	r3, [r7, #3]	@ zero_extendqisi2
 1675 008a 1946     		mov	r1, r3
 1676 008c 7868     		ldr	r0, [r7, #4]
 1677 008e FFF7FEFF 		bl	usb_lld_start_in
 1678 0092 FFF7FEFF 		bl	osalSysUnlockFromISR
 1679 0096 19E0     		b	.L105
 1680              	.L106:
 1681 0098 7B68     		ldr	r3, [r7, #4]
 1682 009a 1B89     		ldrh	r3, [r3, #8]
 1683 009c 1AB2     		sxth	r2, r3
 1684 009e FB78     		ldrb	r3, [r7, #3]	@ zero_extendqisi2
 1685 00a0 0121     		movs	r1, #1
 1686 00a2 01FA03F3 		lsl	r3, r1, r3
 1687 00a6 1BB2     		sxth	r3, r3
 1688 00a8 DB43     		mvns	r3, r3
 1689 00aa 1BB2     		sxth	r3, r3
 1690 00ac 1340     		ands	r3, r3, r2
 1691 00ae 1BB2     		sxth	r3, r3
 1692 00b0 9AB2     		uxth	r2, r3
 1693 00b2 7B68     		ldr	r3, [r7, #4]
 1694 00b4 1A81     		strh	r2, [r3, #8]	@ movhi
 1695 00b6 FB78     		ldrb	r3, [r7, #3]	@ zero_extendqisi2
 1696 00b8 7A68     		ldr	r2, [r7, #4]
 1697 00ba 0233     		adds	r3, r3, #2
 1698 00bc 9B00     		lsls	r3, r3, #2
 1699 00be 1344     		add	r3, r3, r2
 1700 00c0 5B68     		ldr	r3, [r3, #4]
 1701 00c2 9B68     		ldr	r3, [r3, #8]
ARM GAS  /var/folders/d2/nstgp4h54kz7g1l847x_b8wc0000gn/T//ccvTRJsx.s 			page 31


 1702 00c4 FA78     		ldrb	r2, [r7, #3]	@ zero_extendqisi2
 1703 00c6 1146     		mov	r1, r2
 1704 00c8 7868     		ldr	r0, [r7, #4]
 1705 00ca 9847     		blx	r3
 1706              	.L105:
 1707 00cc 3B69     		ldr	r3, [r7, #16]
 1708 00ce 03F08003 		and	r3, r3, #128
 1709 00d2 002B     		cmp	r3, #0
 1710 00d4 28D0     		beq	.L108
 1711 00d6 7B69     		ldr	r3, [r7, #20]
 1712 00d8 D3F83428 		ldr	r2, [r3, #2100]
 1713 00dc FB78     		ldrb	r3, [r7, #3]	@ zero_extendqisi2
 1714 00de 0121     		movs	r1, #1
 1715 00e0 01FA03F3 		lsl	r3, r1, r3
 1716 00e4 1340     		ands	r3, r3, r2
 1717 00e6 002B     		cmp	r3, #0
 1718 00e8 1ED0     		beq	.L108
 1719 00ea FFF7FEFF 		bl	osalSysLockFromISR
 1720 00ee 7B68     		ldr	r3, [r7, #4]
 1721 00f0 DB6D     		ldr	r3, [r3, #92]
 1722 00f2 FA78     		ldrb	r2, [r7, #3]	@ zero_extendqisi2
 1723 00f4 0121     		movs	r1, #1
 1724 00f6 01FA02F2 		lsl	r2, r1, r2
 1725 00fa 1A43     		orrs	r2, r2, r3
 1726 00fc 7B68     		ldr	r3, [r7, #4]
 1727 00fe DA65     		str	r2, [r3, #92]
 1728 0100 7B69     		ldr	r3, [r7, #20]
 1729 0102 D3F83438 		ldr	r3, [r3, #2100]
 1730 0106 FA78     		ldrb	r2, [r7, #3]	@ zero_extendqisi2
 1731 0108 0121     		movs	r1, #1
 1732 010a 01FA02F2 		lsl	r2, r1, r2
 1733 010e D243     		mvns	r2, r2
 1734 0110 1A40     		ands	r2, r2, r3
 1735 0112 7B69     		ldr	r3, [r7, #20]
 1736 0114 C3F83428 		str	r2, [r3, #2100]
 1737 0118 7B68     		ldr	r3, [r7, #4]
 1738 011a 6033     		adds	r3, r3, #96
 1739 011c 0021     		movs	r1, #0
 1740 011e 1846     		mov	r0, r3
 1741 0120 FFF7FEFF 		bl	osalThreadResumeI
 1742 0124 FFF7FEFF 		bl	osalSysUnlockFromISR
 1743              	.L108:
 1744 0128 00BF     		nop
 1745 012a 1837     		adds	r7, r7, #24
 1746 012c BD46     		mov	sp, r7
 1747              		@ sp needed
 1748 012e 80BD     		pop	{r7, pc}
 1749              		.size	otg_epin_handler, .-otg_epin_handler
 1750              		.section	.text.otg_epout_handler,"ax",%progbits
 1751              		.align	1
 1752              		.syntax unified
 1753              		.thumb
 1754              		.thumb_func
 1755              		.fpu fpv4-sp-d16
 1756              		.type	otg_epout_handler, %function
 1757              	otg_epout_handler:
 1758              		@ args = 0, pretend = 0, frame = 24
ARM GAS  /var/folders/d2/nstgp4h54kz7g1l847x_b8wc0000gn/T//ccvTRJsx.s 			page 32


 1759              		@ frame_needed = 1, uses_anonymous_args = 0
 1760 0000 80B5     		push	{r7, lr}
 1761 0002 86B0     		sub	sp, sp, #24
 1762 0004 00AF     		add	r7, sp, #0
 1763 0006 7860     		str	r0, [r7, #4]
 1764 0008 0B46     		mov	r3, r1
 1765 000a FB70     		strb	r3, [r7, #3]
 1766 000c 7B68     		ldr	r3, [r7, #4]
 1767 000e 1B6D     		ldr	r3, [r3, #80]
 1768 0010 7B61     		str	r3, [r7, #20]
 1769 0012 FB78     		ldrb	r3, [r7, #3]	@ zero_extendqisi2
 1770 0014 7A69     		ldr	r2, [r7, #20]
 1771 0016 5B01     		lsls	r3, r3, #5
 1772 0018 1344     		add	r3, r3, r2
 1773 001a 03F60833 		addw	r3, r3, #2824
 1774 001e 1B68     		ldr	r3, [r3]
 1775 0020 3B61     		str	r3, [r7, #16]
 1776 0022 FB78     		ldrb	r3, [r7, #3]	@ zero_extendqisi2
 1777 0024 7A69     		ldr	r2, [r7, #20]
 1778 0026 5B01     		lsls	r3, r3, #5
 1779 0028 1344     		add	r3, r3, r2
 1780 002a 03F60833 		addw	r3, r3, #2824
 1781 002e 3A69     		ldr	r2, [r7, #16]
 1782 0030 1A60     		str	r2, [r3]
 1783 0032 3B69     		ldr	r3, [r7, #16]
 1784 0034 03F00803 		and	r3, r3, #8
 1785 0038 002B     		cmp	r3, #0
 1786 003a 11D0     		beq	.L110
 1787 003c 7B69     		ldr	r3, [r7, #20]
 1788 003e D3F81438 		ldr	r3, [r3, #2068]
 1789 0042 03F00803 		and	r3, r3, #8
 1790 0046 002B     		cmp	r3, #0
 1791 0048 0AD0     		beq	.L110
 1792 004a FB78     		ldrb	r3, [r7, #3]	@ zero_extendqisi2
 1793 004c 7A68     		ldr	r2, [r7, #4]
 1794 004e 0233     		adds	r3, r3, #2
 1795 0050 9B00     		lsls	r3, r3, #2
 1796 0052 1344     		add	r3, r3, r2
 1797 0054 5B68     		ldr	r3, [r3, #4]
 1798 0056 5B68     		ldr	r3, [r3, #4]
 1799 0058 FA78     		ldrb	r2, [r7, #3]	@ zero_extendqisi2
 1800 005a 1146     		mov	r1, r2
 1801 005c 7868     		ldr	r0, [r7, #4]
 1802 005e 9847     		blx	r3
 1803              	.L110:
 1804 0060 3B69     		ldr	r3, [r7, #16]
 1805 0062 03F00103 		and	r3, r3, #1
 1806 0066 002B     		cmp	r3, #0
 1807 0068 47D0     		beq	.L113
 1808 006a 7B69     		ldr	r3, [r7, #20]
 1809 006c D3F81438 		ldr	r3, [r3, #2068]
 1810 0070 03F00103 		and	r3, r3, #1
 1811 0074 002B     		cmp	r3, #0
 1812 0076 40D0     		beq	.L113
 1813 0078 FB78     		ldrb	r3, [r7, #3]	@ zero_extendqisi2
 1814 007a 7A68     		ldr	r2, [r7, #4]
 1815 007c 0233     		adds	r3, r3, #2
ARM GAS  /var/folders/d2/nstgp4h54kz7g1l847x_b8wc0000gn/T//ccvTRJsx.s 			page 33


 1816 007e 9B00     		lsls	r3, r3, #2
 1817 0080 1344     		add	r3, r3, r2
 1818 0082 5B68     		ldr	r3, [r3, #4]
 1819 0084 9B69     		ldr	r3, [r3, #24]
 1820 0086 FB60     		str	r3, [r7, #12]
 1821 0088 FB68     		ldr	r3, [r7, #12]
 1822 008a 5A68     		ldr	r2, [r3, #4]
 1823 008c FB68     		ldr	r3, [r7, #12]
 1824 008e 1B69     		ldr	r3, [r3, #16]
 1825 0090 9A42     		cmp	r2, r3
 1826 0092 18D2     		bcs	.L112
 1827 0094 FB68     		ldr	r3, [r7, #12]
 1828 0096 1A69     		ldr	r2, [r3, #16]
 1829 0098 FB68     		ldr	r3, [r7, #12]
 1830 009a 5B68     		ldr	r3, [r3, #4]
 1831 009c D21A     		subs	r2, r2, r3
 1832 009e FB68     		ldr	r3, [r7, #12]
 1833 00a0 5A60     		str	r2, [r3, #4]
 1834 00a2 FB68     		ldr	r3, [r7, #12]
 1835 00a4 0022     		movs	r2, #0
 1836 00a6 9A60     		str	r2, [r3, #8]
 1837 00a8 FB78     		ldrb	r3, [r7, #3]	@ zero_extendqisi2
 1838 00aa 1946     		mov	r1, r3
 1839 00ac 7868     		ldr	r0, [r7, #4]
 1840 00ae FFF7FEFF 		bl	usb_lld_prepare_receive
 1841 00b2 FFF7FEFF 		bl	chSysLockFromISR
 1842 00b6 FB78     		ldrb	r3, [r7, #3]	@ zero_extendqisi2
 1843 00b8 1946     		mov	r1, r3
 1844 00ba 7868     		ldr	r0, [r7, #4]
 1845 00bc FFF7FEFF 		bl	usb_lld_start_out
 1846 00c0 FFF7FEFF 		bl	chSysUnlockFromISR
 1847 00c4 19E0     		b	.L113
 1848              	.L112:
 1849 00c6 7B68     		ldr	r3, [r7, #4]
 1850 00c8 5B89     		ldrh	r3, [r3, #10]
 1851 00ca 1AB2     		sxth	r2, r3
 1852 00cc FB78     		ldrb	r3, [r7, #3]	@ zero_extendqisi2
 1853 00ce 0121     		movs	r1, #1
 1854 00d0 01FA03F3 		lsl	r3, r1, r3
 1855 00d4 1BB2     		sxth	r3, r3
 1856 00d6 DB43     		mvns	r3, r3
 1857 00d8 1BB2     		sxth	r3, r3
 1858 00da 1340     		ands	r3, r3, r2
 1859 00dc 1BB2     		sxth	r3, r3
 1860 00de 9AB2     		uxth	r2, r3
 1861 00e0 7B68     		ldr	r3, [r7, #4]
 1862 00e2 5A81     		strh	r2, [r3, #10]	@ movhi
 1863 00e4 FB78     		ldrb	r3, [r7, #3]	@ zero_extendqisi2
 1864 00e6 7A68     		ldr	r2, [r7, #4]
 1865 00e8 0233     		adds	r3, r3, #2
 1866 00ea 9B00     		lsls	r3, r3, #2
 1867 00ec 1344     		add	r3, r3, r2
 1868 00ee 5B68     		ldr	r3, [r3, #4]
 1869 00f0 DB68     		ldr	r3, [r3, #12]
 1870 00f2 FA78     		ldrb	r2, [r7, #3]	@ zero_extendqisi2
 1871 00f4 1146     		mov	r1, r2
 1872 00f6 7868     		ldr	r0, [r7, #4]
ARM GAS  /var/folders/d2/nstgp4h54kz7g1l847x_b8wc0000gn/T//ccvTRJsx.s 			page 34


 1873 00f8 9847     		blx	r3
 1874              	.L113:
 1875 00fa 00BF     		nop
 1876 00fc 1837     		adds	r7, r7, #24
 1877 00fe BD46     		mov	sp, r7
 1878              		@ sp needed
 1879 0100 80BD     		pop	{r7, pc}
 1880              		.size	otg_epout_handler, .-otg_epout_handler
 1881              		.section	.text.usb_lld_serve_interrupt,"ax",%progbits
 1882              		.align	1
 1883              		.syntax unified
 1884              		.thumb
 1885              		.thumb_func
 1886              		.fpu fpv4-sp-d16
 1887              		.type	usb_lld_serve_interrupt, %function
 1888              	usb_lld_serve_interrupt:
 1889              		@ args = 0, pretend = 0, frame = 24
 1890              		@ frame_needed = 1, uses_anonymous_args = 0
 1891 0000 80B5     		push	{r7, lr}
 1892 0002 86B0     		sub	sp, sp, #24
 1893 0004 00AF     		add	r7, sp, #0
 1894 0006 7860     		str	r0, [r7, #4]
 1895 0008 7B68     		ldr	r3, [r7, #4]
 1896 000a 1B6D     		ldr	r3, [r3, #80]
 1897 000c 7B61     		str	r3, [r7, #20]
 1898 000e 7B69     		ldr	r3, [r7, #20]
 1899 0010 5B69     		ldr	r3, [r3, #20]
 1900 0012 3B61     		str	r3, [r7, #16]
 1901 0014 7B69     		ldr	r3, [r7, #20]
 1902 0016 9B69     		ldr	r3, [r3, #24]
 1903 0018 3A69     		ldr	r2, [r7, #16]
 1904 001a 1340     		ands	r3, r3, r2
 1905 001c 3B61     		str	r3, [r7, #16]
 1906 001e 7B69     		ldr	r3, [r7, #20]
 1907 0020 3A69     		ldr	r2, [r7, #16]
 1908 0022 5A61     		str	r2, [r3, #20]
 1909 0024 3B69     		ldr	r3, [r7, #16]
 1910 0026 03F48053 		and	r3, r3, #4096
 1911 002a 002B     		cmp	r3, #0
 1912 002c 0DD0     		beq	.L115
 1913 002e 7868     		ldr	r0, [r7, #4]
 1914 0030 FFF7FEFF 		bl	_usb_reset
 1915 0034 7B68     		ldr	r3, [r7, #4]
 1916 0036 5B68     		ldr	r3, [r3, #4]
 1917 0038 1B68     		ldr	r3, [r3]
 1918 003a 002B     		cmp	r3, #0
 1919 003c 05D0     		beq	.L115
 1920 003e 7B68     		ldr	r3, [r7, #4]
 1921 0040 5B68     		ldr	r3, [r3, #4]
 1922 0042 1B68     		ldr	r3, [r3]
 1923 0044 0021     		movs	r1, #0
 1924 0046 7868     		ldr	r0, [r7, #4]
 1925 0048 9847     		blx	r3
 1926              	.L115:
 1927 004a 3B69     		ldr	r3, [r7, #16]
 1928 004c 03F40053 		and	r3, r3, #8192
 1929 0050 002B     		cmp	r3, #0
ARM GAS  /var/folders/d2/nstgp4h54kz7g1l847x_b8wc0000gn/T//ccvTRJsx.s 			page 35


 1930 0052 02D0     		beq	.L116
 1931 0054 7B69     		ldr	r3, [r7, #20]
 1932 0056 D3F80838 		ldr	r3, [r3, #2056]
 1933              	.L116:
 1934 005a 3B69     		ldr	r3, [r7, #16]
 1935 005c 03F00803 		and	r3, r3, #8
 1936 0060 002B     		cmp	r3, #0
 1937 0062 09D0     		beq	.L117
 1938 0064 7B68     		ldr	r3, [r7, #4]
 1939 0066 5B68     		ldr	r3, [r3, #4]
 1940 0068 DB68     		ldr	r3, [r3, #12]
 1941 006a 002B     		cmp	r3, #0
 1942 006c 04D0     		beq	.L117
 1943 006e 7B68     		ldr	r3, [r7, #4]
 1944 0070 5B68     		ldr	r3, [r3, #4]
 1945 0072 DB68     		ldr	r3, [r3, #12]
 1946 0074 7868     		ldr	r0, [r7, #4]
 1947 0076 9847     		blx	r3
 1948              	.L117:
 1949 0078 3B69     		ldr	r3, [r7, #16]
 1950 007a 03F01003 		and	r3, r3, #16
 1951 007e 002B     		cmp	r3, #0
 1952 0080 0FD0     		beq	.L118
 1953 0082 FFF7FEFF 		bl	osalSysLockFromISR
 1954 0086 7B69     		ldr	r3, [r7, #20]
 1955 0088 9B69     		ldr	r3, [r3, #24]
 1956 008a 23F01002 		bic	r2, r3, #16
 1957 008e 7B69     		ldr	r3, [r7, #20]
 1958 0090 9A61     		str	r2, [r3, #24]
 1959 0092 7B68     		ldr	r3, [r7, #4]
 1960 0094 6033     		adds	r3, r3, #96
 1961 0096 0021     		movs	r1, #0
 1962 0098 1846     		mov	r0, r3
 1963 009a FFF7FEFF 		bl	osalThreadResumeI
 1964 009e FFF7FEFF 		bl	osalSysUnlockFromISR
 1965              	.L118:
 1966 00a2 7B69     		ldr	r3, [r7, #20]
 1967 00a4 D3F81838 		ldr	r3, [r3, #2072]
 1968 00a8 FB60     		str	r3, [r7, #12]
 1969 00aa 3B69     		ldr	r3, [r7, #16]
 1970 00ac 03F48023 		and	r3, r3, #262144
 1971 00b0 002B     		cmp	r3, #0
 1972 00b2 23D0     		beq	.L119
 1973 00b4 FB68     		ldr	r3, [r7, #12]
 1974 00b6 03F00103 		and	r3, r3, #1
 1975 00ba 002B     		cmp	r3, #0
 1976 00bc 03D0     		beq	.L120
 1977 00be 0021     		movs	r1, #0
 1978 00c0 7868     		ldr	r0, [r7, #4]
 1979 00c2 FFF7FEFF 		bl	otg_epin_handler
 1980              	.L120:
 1981 00c6 FB68     		ldr	r3, [r7, #12]
 1982 00c8 03F00203 		and	r3, r3, #2
 1983 00cc 002B     		cmp	r3, #0
 1984 00ce 03D0     		beq	.L121
 1985 00d0 0121     		movs	r1, #1
 1986 00d2 7868     		ldr	r0, [r7, #4]
ARM GAS  /var/folders/d2/nstgp4h54kz7g1l847x_b8wc0000gn/T//ccvTRJsx.s 			page 36


 1987 00d4 FFF7FEFF 		bl	otg_epin_handler
 1988              	.L121:
 1989 00d8 FB68     		ldr	r3, [r7, #12]
 1990 00da 03F00403 		and	r3, r3, #4
 1991 00de 002B     		cmp	r3, #0
 1992 00e0 03D0     		beq	.L122
 1993 00e2 0221     		movs	r1, #2
 1994 00e4 7868     		ldr	r0, [r7, #4]
 1995 00e6 FFF7FEFF 		bl	otg_epin_handler
 1996              	.L122:
 1997 00ea FB68     		ldr	r3, [r7, #12]
 1998 00ec 03F00803 		and	r3, r3, #8
 1999 00f0 002B     		cmp	r3, #0
 2000 00f2 03D0     		beq	.L119
 2001 00f4 0321     		movs	r1, #3
 2002 00f6 7868     		ldr	r0, [r7, #4]
 2003 00f8 FFF7FEFF 		bl	otg_epin_handler
 2004              	.L119:
 2005 00fc 3B69     		ldr	r3, [r7, #16]
 2006 00fe 03F40023 		and	r3, r3, #524288
 2007 0102 002B     		cmp	r3, #0
 2008 0104 23D0     		beq	.L127
 2009 0106 FB68     		ldr	r3, [r7, #12]
 2010 0108 03F48033 		and	r3, r3, #65536
 2011 010c 002B     		cmp	r3, #0
 2012 010e 03D0     		beq	.L124
 2013 0110 0021     		movs	r1, #0
 2014 0112 7868     		ldr	r0, [r7, #4]
 2015 0114 FFF7FEFF 		bl	otg_epout_handler
 2016              	.L124:
 2017 0118 FB68     		ldr	r3, [r7, #12]
 2018 011a 03F40033 		and	r3, r3, #131072
 2019 011e 002B     		cmp	r3, #0
 2020 0120 03D0     		beq	.L125
 2021 0122 0121     		movs	r1, #1
 2022 0124 7868     		ldr	r0, [r7, #4]
 2023 0126 FFF7FEFF 		bl	otg_epout_handler
 2024              	.L125:
 2025 012a FB68     		ldr	r3, [r7, #12]
 2026 012c 03F48023 		and	r3, r3, #262144
 2027 0130 002B     		cmp	r3, #0
 2028 0132 03D0     		beq	.L126
 2029 0134 0221     		movs	r1, #2
 2030 0136 7868     		ldr	r0, [r7, #4]
 2031 0138 FFF7FEFF 		bl	otg_epout_handler
 2032              	.L126:
 2033 013c FB68     		ldr	r3, [r7, #12]
 2034 013e 03F40023 		and	r3, r3, #524288
 2035 0142 002B     		cmp	r3, #0
 2036 0144 03D0     		beq	.L127
 2037 0146 0321     		movs	r1, #3
 2038 0148 7868     		ldr	r0, [r7, #4]
 2039 014a FFF7FEFF 		bl	otg_epout_handler
 2040              	.L127:
 2041 014e 00BF     		nop
 2042 0150 1837     		adds	r7, r7, #24
 2043 0152 BD46     		mov	sp, r7
ARM GAS  /var/folders/d2/nstgp4h54kz7g1l847x_b8wc0000gn/T//ccvTRJsx.s 			page 37


 2044              		@ sp needed
 2045 0154 80BD     		pop	{r7, pc}
 2046              		.size	usb_lld_serve_interrupt, .-usb_lld_serve_interrupt
 2047              		.section	.text.Vector14C,"ax",%progbits
 2048              		.align	1
 2049              		.global	Vector14C
 2050              		.syntax unified
 2051              		.thumb
 2052              		.thumb_func
 2053              		.fpu fpv4-sp-d16
 2054              		.type	Vector14C, %function
 2055              	Vector14C:
 2056              		@ args = 0, pretend = 0, frame = 0
 2057              		@ frame_needed = 1, uses_anonymous_args = 0
 2058 0000 80B5     		push	{r7, lr}
 2059 0002 00AF     		add	r7, sp, #0
 2060 0004 FFF7FEFF 		bl	_stats_increase_irq
 2061 0008 FFF7FEFF 		bl	_dbg_check_enter_isr
 2062 000c 0448     		ldr	r0, .L129
 2063 000e FFF7FEFF 		bl	usb_lld_serve_interrupt
 2064 0012 FFF7FEFF 		bl	_dbg_check_leave_isr
 2065 0016 FFF7FEFF 		bl	_port_irq_epilogue
 2066 001a 00BF     		nop
 2067 001c 80BD     		pop	{r7, pc}
 2068              	.L130:
 2069 001e 00BF     		.align	2
 2070              	.L129:
 2071 0020 00000000 		.word	USBD1
 2072              		.size	Vector14C, .-Vector14C
 2073              		.section	.text.usb_lld_init,"ax",%progbits
 2074              		.align	1
 2075              		.global	usb_lld_init
 2076              		.syntax unified
 2077              		.thumb
 2078              		.thumb_func
 2079              		.fpu fpv4-sp-d16
 2080              		.type	usb_lld_init, %function
 2081              	usb_lld_init:
 2082              		@ args = 0, pretend = 0, frame = 8
 2083              		@ frame_needed = 1, uses_anonymous_args = 0
 2084 0000 80B5     		push	{r7, lr}
 2085 0002 82B0     		sub	sp, sp, #8
 2086 0004 00AF     		add	r7, sp, #0
 2087 0006 1348     		ldr	r0, .L132
 2088 0008 FFF7FEFF 		bl	usbObjectInit
 2089 000c 114B     		ldr	r3, .L132
 2090 000e 0022     		movs	r2, #0
 2091 0010 1A66     		str	r2, [r3, #96]
 2092 0012 104B     		ldr	r3, .L132
 2093 0014 4FF0A042 		mov	r2, #1342177280
 2094 0018 1A65     		str	r2, [r3, #80]
 2095 001a 0E4B     		ldr	r3, .L132
 2096 001c 0E4A     		ldr	r2, .L132+4
 2097 001e 5A65     		str	r2, [r3, #84]
 2098 0020 0C4B     		ldr	r3, .L132
 2099 0022 0022     		movs	r2, #0
 2100 0024 5A66     		str	r2, [r3, #100]
ARM GAS  /var/folders/d2/nstgp4h54kz7g1l847x_b8wc0000gn/T//ccvTRJsx.s 			page 38


 2101 0026 0D4B     		ldr	r3, .L132+8
 2102 0028 7B60     		str	r3, [r7, #4]
 2103 002a 7B68     		ldr	r3, [r7, #4]
 2104 002c 6833     		adds	r3, r3, #104
 2105 002e FF22     		movs	r2, #255
 2106 0030 1946     		mov	r1, r3
 2107 0032 7868     		ldr	r0, [r7, #4]
 2108 0034 FFF7FEFF 		bl	_thread_memfill
 2109 0038 7B68     		ldr	r3, [r7, #4]
 2110 003a 03F16800 		add	r0, r3, #104
 2111 003e 7B68     		ldr	r3, [r7, #4]
 2112 0040 03F5FC73 		add	r3, r3, #504
 2113 0044 5522     		movs	r2, #85
 2114 0046 1946     		mov	r1, r3
 2115 0048 FFF7FEFF 		bl	_thread_memfill
 2116 004c 00BF     		nop
 2117 004e 0837     		adds	r7, r7, #8
 2118 0050 BD46     		mov	sp, r7
 2119              		@ sp needed
 2120 0052 80BD     		pop	{r7, pc}
 2121              	.L133:
 2122              		.align	2
 2123              	.L132:
 2124 0054 00000000 		.word	USBD1
 2125 0058 00000000 		.word	fsparams
 2126 005c 68000000 		.word	USBD1+104
 2127              		.size	usb_lld_init, .-usb_lld_init
 2128              		.section	.text.usb_lld_start,"ax",%progbits
 2129              		.align	1
 2130              		.global	usb_lld_start
 2131              		.syntax unified
 2132              		.thumb
 2133              		.thumb_func
 2134              		.fpu fpv4-sp-d16
 2135              		.type	usb_lld_start, %function
 2136              	usb_lld_start:
 2137              		@ args = 0, pretend = 0, frame = 16
 2138              		@ frame_needed = 1, uses_anonymous_args = 0
 2139 0000 80B5     		push	{r7, lr}
 2140 0002 86B0     		sub	sp, sp, #24
 2141 0004 02AF     		add	r7, sp, #8
 2142 0006 7860     		str	r0, [r7, #4]
 2143 0008 7B68     		ldr	r3, [r7, #4]
 2144 000a 1B6D     		ldr	r3, [r3, #80]
 2145 000c FB60     		str	r3, [r7, #12]
 2146 000e 7B68     		ldr	r3, [r7, #4]
 2147 0010 1B78     		ldrb	r3, [r3]	@ zero_extendqisi2
 2148 0012 012B     		cmp	r3, #1
 2149 0014 6ED1     		bne	.L140
 2150 0016 7B68     		ldr	r3, [r7, #4]
 2151 0018 384A     		ldr	r2, .L141
 2152 001a 9342     		cmp	r3, r2
 2153 001c 12D1     		bne	.L136
 2154 001e 384B     		ldr	r3, .L141+4
 2155 0020 5B6B     		ldr	r3, [r3, #52]
 2156 0022 374A     		ldr	r2, .L141+4
 2157 0024 43F08003 		orr	r3, r3, #128
ARM GAS  /var/folders/d2/nstgp4h54kz7g1l847x_b8wc0000gn/T//ccvTRJsx.s 			page 39


 2158 0028 5363     		str	r3, [r2, #52]
 2159 002a 354B     		ldr	r3, .L141+4
 2160 002c 5B69     		ldr	r3, [r3, #20]
 2161 002e 344A     		ldr	r2, .L141+4
 2162 0030 43F08003 		orr	r3, r3, #128
 2163 0034 5361     		str	r3, [r2, #20]
 2164 0036 324B     		ldr	r3, .L141+4
 2165 0038 0022     		movs	r2, #0
 2166 003a 5A61     		str	r2, [r3, #20]
 2167 003c 0E21     		movs	r1, #14
 2168 003e 4320     		movs	r0, #67
 2169 0040 FFF7FEFF 		bl	nvicEnableVector
 2170              	.L136:
 2171 0044 7B68     		ldr	r3, [r7, #4]
 2172 0046 0022     		movs	r2, #0
 2173 0048 DA65     		str	r2, [r3, #92]
 2174 004a FB68     		ldr	r3, [r7, #12]
 2175 004c 2D4A     		ldr	r2, .L141+8
 2176 004e DA60     		str	r2, [r3, #12]
 2177 0050 FB68     		ldr	r3, [r7, #12]
 2178 0052 2D4A     		ldr	r2, .L141+12
 2179 0054 C3F80028 		str	r2, [r3, #2048]
 2180 0058 FB68     		ldr	r3, [r7, #12]
 2181 005a 0022     		movs	r2, #0
 2182 005c C3F8002E 		str	r2, [r3, #3584]
 2183 0060 FB68     		ldr	r3, [r7, #12]
 2184 0062 4FF45022 		mov	r2, #851968
 2185 0066 9A63     		str	r2, [r3, #56]
 2186 0068 7868     		ldr	r0, [r7, #4]
 2187 006a FFF7FEFF 		bl	otg_core_reset
 2188 006e FB68     		ldr	r3, [r7, #12]
 2189 0070 0022     		movs	r2, #0
 2190 0072 9A60     		str	r2, [r3, #8]
 2191 0074 7868     		ldr	r0, [r7, #4]
 2192 0076 FFF7FEFF 		bl	otg_disable_ep
 2193 007a FB68     		ldr	r3, [r7, #12]
 2194 007c 0022     		movs	r2, #0
 2195 007e C3F81028 		str	r2, [r3, #2064]
 2196 0082 FB68     		ldr	r3, [r7, #12]
 2197 0084 0022     		movs	r2, #0
 2198 0086 C3F81428 		str	r2, [r3, #2068]
 2199 008a FB68     		ldr	r3, [r7, #12]
 2200 008c 0022     		movs	r2, #0
 2201 008e C3F81C28 		str	r2, [r3, #2076]
 2202 0092 7B68     		ldr	r3, [r7, #4]
 2203 0094 5B68     		ldr	r3, [r3, #4]
 2204 0096 DB68     		ldr	r3, [r3, #12]
 2205 0098 002B     		cmp	r3, #0
 2206 009a 04D1     		bne	.L137
 2207 009c FB68     		ldr	r3, [r7, #12]
 2208 009e 4FF44052 		mov	r2, #12288
 2209 00a2 9A61     		str	r2, [r3, #24]
 2210 00a4 03E0     		b	.L138
 2211              	.L137:
 2212 00a6 FB68     		ldr	r3, [r7, #12]
 2213 00a8 43F20802 		movw	r2, #12296
 2214 00ac 9A61     		str	r2, [r3, #24]
ARM GAS  /var/folders/d2/nstgp4h54kz7g1l847x_b8wc0000gn/T//ccvTRJsx.s 			page 40


 2215              	.L138:
 2216 00ae FB68     		ldr	r3, [r7, #12]
 2217 00b0 4FF0FF32 		mov	r2, #-1
 2218 00b4 5A61     		str	r2, [r3, #20]
 2219 00b6 7B68     		ldr	r3, [r7, #4]
 2220 00b8 5B6E     		ldr	r3, [r3, #100]
 2221 00ba 002B     		cmp	r3, #0
 2222 00bc 14D1     		bne	.L139
 2223 00be 7B68     		ldr	r3, [r7, #4]
 2224 00c0 03F16800 		add	r0, r3, #104
 2225 00c4 7B68     		ldr	r3, [r7, #4]
 2226 00c6 0093     		str	r3, [sp]
 2227 00c8 104B     		ldr	r3, .L141+16
 2228 00ca 4A22     		movs	r2, #74
 2229 00cc 4FF4FC71 		mov	r1, #504
 2230 00d0 FFF7FEFF 		bl	chThdCreateI
 2231 00d4 0246     		mov	r2, r0
 2232 00d6 7B68     		ldr	r3, [r7, #4]
 2233 00d8 5A66     		str	r2, [r3, #100]
 2234 00da 7B68     		ldr	r3, [r7, #4]
 2235 00dc 5B6E     		ldr	r3, [r3, #100]
 2236 00de 1846     		mov	r0, r3
 2237 00e0 FFF7FEFF 		bl	chThdStartI
 2238 00e4 FFF7FEFF 		bl	chSchRescheduleS
 2239              	.L139:
 2240 00e8 FB68     		ldr	r3, [r7, #12]
 2241 00ea 9B68     		ldr	r3, [r3, #8]
 2242 00ec 43F00102 		orr	r2, r3, #1
 2243 00f0 FB68     		ldr	r3, [r7, #12]
 2244 00f2 9A60     		str	r2, [r3, #8]
 2245              	.L140:
 2246 00f4 00BF     		nop
 2247 00f6 1037     		adds	r7, r7, #16
 2248 00f8 BD46     		mov	sp, r7
 2249              		@ sp needed
 2250 00fa 80BD     		pop	{r7, pc}
 2251              	.L142:
 2252              		.align	2
 2253              	.L141:
 2254 00fc 00000000 		.word	USBD1
 2255 0100 00380240 		.word	1073887232
 2256 0104 40140040 		.word	1073747008
 2257 0108 03002002 		.word	35651587
 2258 010c 00000000 		.word	usb_lld_pump
 2259              		.size	usb_lld_start, .-usb_lld_start
 2260              		.section	.text.usb_lld_stop,"ax",%progbits
 2261              		.align	1
 2262              		.global	usb_lld_stop
 2263              		.syntax unified
 2264              		.thumb
 2265              		.thumb_func
 2266              		.fpu fpv4-sp-d16
 2267              		.type	usb_lld_stop, %function
 2268              	usb_lld_stop:
 2269              		@ args = 0, pretend = 0, frame = 16
 2270              		@ frame_needed = 1, uses_anonymous_args = 0
 2271 0000 80B5     		push	{r7, lr}
ARM GAS  /var/folders/d2/nstgp4h54kz7g1l847x_b8wc0000gn/T//ccvTRJsx.s 			page 41


 2272 0002 84B0     		sub	sp, sp, #16
 2273 0004 00AF     		add	r7, sp, #0
 2274 0006 7860     		str	r0, [r7, #4]
 2275 0008 7B68     		ldr	r3, [r7, #4]
 2276 000a 1B6D     		ldr	r3, [r3, #80]
 2277 000c FB60     		str	r3, [r7, #12]
 2278 000e 7B68     		ldr	r3, [r7, #4]
 2279 0010 1B78     		ldrb	r3, [r3]	@ zero_extendqisi2
 2280 0012 012B     		cmp	r3, #1
 2281 0014 1CD0     		beq	.L145
 2282 0016 7868     		ldr	r0, [r7, #4]
 2283 0018 FFF7FEFF 		bl	otg_disable_ep
 2284 001c 7B68     		ldr	r3, [r7, #4]
 2285 001e 0022     		movs	r2, #0
 2286 0020 DA65     		str	r2, [r3, #92]
 2287 0022 FB68     		ldr	r3, [r7, #12]
 2288 0024 0022     		movs	r2, #0
 2289 0026 C3F81C28 		str	r2, [r3, #2076]
 2290 002a FB68     		ldr	r3, [r7, #12]
 2291 002c 0022     		movs	r2, #0
 2292 002e 9A60     		str	r2, [r3, #8]
 2293 0030 FB68     		ldr	r3, [r7, #12]
 2294 0032 0022     		movs	r2, #0
 2295 0034 9A63     		str	r2, [r3, #56]
 2296 0036 7B68     		ldr	r3, [r7, #4]
 2297 0038 074A     		ldr	r2, .L146
 2298 003a 9342     		cmp	r3, r2
 2299 003c 08D1     		bne	.L145
 2300 003e 4320     		movs	r0, #67
 2301 0040 FFF7FEFF 		bl	nvicDisableVector
 2302 0044 054B     		ldr	r3, .L146+4
 2303 0046 5B6B     		ldr	r3, [r3, #52]
 2304 0048 044A     		ldr	r2, .L146+4
 2305 004a 23F08003 		bic	r3, r3, #128
 2306 004e 5363     		str	r3, [r2, #52]
 2307              	.L145:
 2308 0050 00BF     		nop
 2309 0052 1037     		adds	r7, r7, #16
 2310 0054 BD46     		mov	sp, r7
 2311              		@ sp needed
 2312 0056 80BD     		pop	{r7, pc}
 2313              	.L147:
 2314              		.align	2
 2315              	.L146:
 2316 0058 00000000 		.word	USBD1
 2317 005c 00380240 		.word	1073887232
 2318              		.size	usb_lld_stop, .-usb_lld_stop
 2319              		.section	.text.usb_lld_reset,"ax",%progbits
 2320              		.align	1
 2321              		.global	usb_lld_reset
 2322              		.syntax unified
 2323              		.thumb
 2324              		.thumb_func
 2325              		.fpu fpv4-sp-d16
 2326              		.type	usb_lld_reset, %function
 2327              	usb_lld_reset:
 2328              		@ args = 0, pretend = 0, frame = 16
ARM GAS  /var/folders/d2/nstgp4h54kz7g1l847x_b8wc0000gn/T//ccvTRJsx.s 			page 42


 2329              		@ frame_needed = 1, uses_anonymous_args = 0
 2330 0000 90B5     		push	{r4, r7, lr}
 2331 0002 85B0     		sub	sp, sp, #20
 2332 0004 00AF     		add	r7, sp, #0
 2333 0006 7860     		str	r0, [r7, #4]
 2334 0008 7B68     		ldr	r3, [r7, #4]
 2335 000a 1B6D     		ldr	r3, [r3, #80]
 2336 000c BB60     		str	r3, [r7, #8]
 2337 000e 0021     		movs	r1, #0
 2338 0010 7868     		ldr	r0, [r7, #4]
 2339 0012 FFF7FEFF 		bl	otg_txfifo_flush
 2340 0016 0023     		movs	r3, #0
 2341 0018 FB60     		str	r3, [r7, #12]
 2342 001a 22E0     		b	.L149
 2343              	.L150:
 2344 001c BA68     		ldr	r2, [r7, #8]
 2345 001e FB68     		ldr	r3, [r7, #12]
 2346 0020 4833     		adds	r3, r3, #72
 2347 0022 5B01     		lsls	r3, r3, #5
 2348 0024 1344     		add	r3, r3, r2
 2349 0026 4FF00062 		mov	r2, #134217728
 2350 002a 1A60     		str	r2, [r3]
 2351 002c BA68     		ldr	r2, [r7, #8]
 2352 002e FB68     		ldr	r3, [r7, #12]
 2353 0030 5833     		adds	r3, r3, #88
 2354 0032 5B01     		lsls	r3, r3, #5
 2355 0034 1344     		add	r3, r3, r2
 2356 0036 4FF00062 		mov	r2, #134217728
 2357 003a 1A60     		str	r2, [r3]
 2358 003c BA68     		ldr	r2, [r7, #8]
 2359 003e FB68     		ldr	r3, [r7, #12]
 2360 0040 5B01     		lsls	r3, r3, #5
 2361 0042 1344     		add	r3, r3, r2
 2362 0044 03F60813 		addw	r3, r3, #2312
 2363 0048 FF22     		movs	r2, #255
 2364 004a 1A60     		str	r2, [r3]
 2365 004c BA68     		ldr	r2, [r7, #8]
 2366 004e FB68     		ldr	r3, [r7, #12]
 2367 0050 5B01     		lsls	r3, r3, #5
 2368 0052 1344     		add	r3, r3, r2
 2369 0054 03F60833 		addw	r3, r3, #2824
 2370 0058 FF22     		movs	r2, #255
 2371 005a 1A60     		str	r2, [r3]
 2372 005c FB68     		ldr	r3, [r7, #12]
 2373 005e 0133     		adds	r3, r3, #1
 2374 0060 FB60     		str	r3, [r7, #12]
 2375              	.L149:
 2376 0062 7B68     		ldr	r3, [r7, #4]
 2377 0064 5B6D     		ldr	r3, [r3, #84]
 2378 0066 9B68     		ldr	r3, [r3, #8]
 2379 0068 FA68     		ldr	r2, [r7, #12]
 2380 006a 9A42     		cmp	r2, r3
 2381 006c D6D9     		bls	.L150
 2382 006e BB68     		ldr	r3, [r7, #8]
 2383 0070 4FF0FF32 		mov	r2, #-1
 2384 0074 C3F81828 		str	r2, [r3, #2072]
 2385 0078 BB68     		ldr	r3, [r7, #8]
ARM GAS  /var/folders/d2/nstgp4h54kz7g1l847x_b8wc0000gn/T//ccvTRJsx.s 			page 43


 2386 007a 4FF00112 		mov	r2, #65537
 2387 007e C3F81C28 		str	r2, [r3, #2076]
 2388 0082 7868     		ldr	r0, [r7, #4]
 2389 0084 FFF7FEFF 		bl	otg_ram_reset
 2390 0088 7B68     		ldr	r3, [r7, #4]
 2391 008a 5B6D     		ldr	r3, [r3, #84]
 2392 008c 1A68     		ldr	r2, [r3]
 2393 008e BB68     		ldr	r3, [r7, #8]
 2394 0090 5A62     		str	r2, [r3, #36]
 2395 0092 7868     		ldr	r0, [r7, #4]
 2396 0094 FFF7FEFF 		bl	otg_rxfifo_flush
 2397 0098 BB68     		ldr	r3, [r7, #8]
 2398 009a D3F80038 		ldr	r3, [r3, #2048]
 2399 009e 23F4FE62 		bic	r2, r3, #2032
 2400 00a2 BB68     		ldr	r3, [r7, #8]
 2401 00a4 C3F80028 		str	r2, [r3, #2048]
 2402 00a8 BB68     		ldr	r3, [r7, #8]
 2403 00aa 9B69     		ldr	r3, [r3, #24]
 2404 00ac 43F44023 		orr	r3, r3, #786432
 2405 00b0 43F01003 		orr	r3, r3, #16
 2406 00b4 BA68     		ldr	r2, [r7, #8]
 2407 00b6 9361     		str	r3, [r2, #24]
 2408 00b8 BB68     		ldr	r3, [r7, #8]
 2409 00ba 0922     		movs	r2, #9
 2410 00bc C3F81028 		str	r2, [r3, #2064]
 2411 00c0 BB68     		ldr	r3, [r7, #8]
 2412 00c2 0922     		movs	r2, #9
 2413 00c4 C3F81428 		str	r2, [r3, #2068]
 2414 00c8 7B68     		ldr	r3, [r7, #4]
 2415 00ca 174A     		ldr	r2, .L151
 2416 00cc DA60     		str	r2, [r3, #12]
 2417 00ce BB68     		ldr	r3, [r7, #8]
 2418 00d0 0022     		movs	r2, #0
 2419 00d2 C3F8102B 		str	r2, [r3, #2832]
 2420 00d6 4023     		movs	r3, #64
 2421 00d8 43F08053 		orr	r3, r3, #268435456
 2422 00dc 43F40043 		orr	r3, r3, #32768
 2423 00e0 BA68     		ldr	r2, [r7, #8]
 2424 00e2 C2F8003B 		str	r3, [r2, #2816]
 2425 00e6 BB68     		ldr	r3, [r7, #8]
 2426 00e8 0022     		movs	r2, #0
 2427 00ea C3F81029 		str	r2, [r3, #2320]
 2428 00ee 4023     		movs	r3, #64
 2429 00f0 43F08053 		orr	r3, r3, #268435456
 2430 00f4 43F40043 		orr	r3, r3, #32768
 2431 00f8 BA68     		ldr	r2, [r7, #8]
 2432 00fa C2F80039 		str	r3, [r2, #2304]
 2433 00fe 4023     		movs	r3, #64
 2434 0100 9B08     		lsrs	r3, r3, #2
 2435 0102 9BB2     		uxth	r3, r3
 2436 0104 1B04     		lsls	r3, r3, #16
 2437 0106 1C46     		mov	r4, r3
 2438 0108 4023     		movs	r3, #64
 2439 010a 9B08     		lsrs	r3, r3, #2
 2440 010c 9BB2     		uxth	r3, r3
 2441 010e 1946     		mov	r1, r3
 2442 0110 7868     		ldr	r0, [r7, #4]
ARM GAS  /var/folders/d2/nstgp4h54kz7g1l847x_b8wc0000gn/T//ccvTRJsx.s 			page 44


 2443 0112 FFF7FEFF 		bl	otg_ram_alloc
 2444 0116 0346     		mov	r3, r0
 2445 0118 44EA0302 		orr	r2, r4, r3
 2446 011c BB68     		ldr	r3, [r7, #8]
 2447 011e 9A62     		str	r2, [r3, #40]
 2448 0120 00BF     		nop
 2449 0122 1437     		adds	r7, r7, #20
 2450 0124 BD46     		mov	sp, r7
 2451              		@ sp needed
 2452 0126 90BD     		pop	{r4, r7, pc}
 2453              	.L152:
 2454              		.align	2
 2455              	.L151:
 2456 0128 00000000 		.word	ep0config
 2457              		.size	usb_lld_reset, .-usb_lld_reset
 2458              		.section	.text.usb_lld_set_address,"ax",%progbits
 2459              		.align	1
 2460              		.global	usb_lld_set_address
 2461              		.syntax unified
 2462              		.thumb
 2463              		.thumb_func
 2464              		.fpu fpv4-sp-d16
 2465              		.type	usb_lld_set_address, %function
 2466              	usb_lld_set_address:
 2467              		@ args = 0, pretend = 0, frame = 16
 2468              		@ frame_needed = 1, uses_anonymous_args = 0
 2469              		@ link register save eliminated.
 2470 0000 80B4     		push	{r7}
 2471 0002 85B0     		sub	sp, sp, #20
 2472 0004 00AF     		add	r7, sp, #0
 2473 0006 7860     		str	r0, [r7, #4]
 2474 0008 7B68     		ldr	r3, [r7, #4]
 2475 000a 1B6D     		ldr	r3, [r3, #80]
 2476 000c FB60     		str	r3, [r7, #12]
 2477 000e FB68     		ldr	r3, [r7, #12]
 2478 0010 D3F80038 		ldr	r3, [r3, #2048]
 2479 0014 23F4FE63 		bic	r3, r3, #2032
 2480 0018 7A68     		ldr	r2, [r7, #4]
 2481 001a 92F84E20 		ldrb	r2, [r2, #78]	@ zero_extendqisi2
 2482 001e 1201     		lsls	r2, r2, #4
 2483 0020 1A43     		orrs	r2, r2, r3
 2484 0022 FB68     		ldr	r3, [r7, #12]
 2485 0024 C3F80028 		str	r2, [r3, #2048]
 2486 0028 00BF     		nop
 2487 002a 1437     		adds	r7, r7, #20
 2488 002c BD46     		mov	sp, r7
 2489              		@ sp needed
 2490 002e 5DF8047B 		ldr	r7, [sp], #4
 2491 0032 7047     		bx	lr
 2492              		.size	usb_lld_set_address, .-usb_lld_set_address
 2493              		.section	.text.usb_lld_init_endpoint,"ax",%progbits
 2494              		.align	1
 2495              		.global	usb_lld_init_endpoint
 2496              		.syntax unified
 2497              		.thumb
 2498              		.thumb_func
 2499              		.fpu fpv4-sp-d16
ARM GAS  /var/folders/d2/nstgp4h54kz7g1l847x_b8wc0000gn/T//ccvTRJsx.s 			page 45


 2500              		.type	usb_lld_init_endpoint, %function
 2501              	usb_lld_init_endpoint:
 2502              		@ args = 0, pretend = 0, frame = 24
 2503              		@ frame_needed = 1, uses_anonymous_args = 0
 2504 0000 90B5     		push	{r4, r7, lr}
 2505 0002 87B0     		sub	sp, sp, #28
 2506 0004 00AF     		add	r7, sp, #0
 2507 0006 7860     		str	r0, [r7, #4]
 2508 0008 0B46     		mov	r3, r1
 2509 000a FB70     		strb	r3, [r7, #3]
 2510 000c 7B68     		ldr	r3, [r7, #4]
 2511 000e 1B6D     		ldr	r3, [r3, #80]
 2512 0010 FB60     		str	r3, [r7, #12]
 2513 0012 FB78     		ldrb	r3, [r7, #3]	@ zero_extendqisi2
 2514 0014 7A68     		ldr	r2, [r7, #4]
 2515 0016 0233     		adds	r3, r3, #2
 2516 0018 9B00     		lsls	r3, r3, #2
 2517 001a 1344     		add	r3, r3, r2
 2518 001c 5B68     		ldr	r3, [r3, #4]
 2519 001e 1B68     		ldr	r3, [r3]
 2520 0020 03F00303 		and	r3, r3, #3
 2521 0024 032B     		cmp	r3, #3
 2522 0026 00F2EC80 		bhi	.L167
 2523 002a 01A2     		adr	r2, .L157
 2524 002c 52F823F0 		ldr	pc, [r2, r3, lsl #2]
 2525              		.p2align 2
 2526              	.L157:
 2527 0030 41000000 		.word	.L156+1
 2528 0034 47000000 		.word	.L158+1
 2529 0038 4D000000 		.word	.L159+1
 2530 003c 53000000 		.word	.L160+1
 2531              		.p2align 1
 2532              	.L156:
 2533 0040 724B     		ldr	r3, .L168
 2534 0042 7B61     		str	r3, [r7, #20]
 2535 0044 08E0     		b	.L161
 2536              	.L158:
 2537 0046 724B     		ldr	r3, .L168+4
 2538 0048 7B61     		str	r3, [r7, #20]
 2539 004a 05E0     		b	.L161
 2540              	.L159:
 2541 004c 714B     		ldr	r3, .L168+8
 2542 004e 7B61     		str	r3, [r7, #20]
 2543 0050 02E0     		b	.L161
 2544              	.L160:
 2545 0052 714B     		ldr	r3, .L168+12
 2546 0054 7B61     		str	r3, [r7, #20]
 2547 0056 00BF     		nop
 2548              	.L161:
 2549 0058 FB78     		ldrb	r3, [r7, #3]	@ zero_extendqisi2
 2550 005a FA68     		ldr	r2, [r7, #12]
 2551 005c 5B01     		lsls	r3, r3, #5
 2552 005e 1344     		add	r3, r3, r2
 2553 0060 03F53163 		add	r3, r3, #2832
 2554 0064 0022     		movs	r2, #0
 2555 0066 1A60     		str	r2, [r3]
 2556 0068 FB78     		ldrb	r3, [r7, #3]	@ zero_extendqisi2
ARM GAS  /var/folders/d2/nstgp4h54kz7g1l847x_b8wc0000gn/T//ccvTRJsx.s 			page 46


 2557 006a 7A68     		ldr	r2, [r7, #4]
 2558 006c 0233     		adds	r3, r3, #2
 2559 006e 9B00     		lsls	r3, r3, #2
 2560 0070 1344     		add	r3, r3, r2
 2561 0072 5B68     		ldr	r3, [r3, #4]
 2562 0074 DB68     		ldr	r3, [r3, #12]
 2563 0076 002B     		cmp	r3, #0
 2564 0078 1CD0     		beq	.L163
 2565 007a FB78     		ldrb	r3, [r7, #3]	@ zero_extendqisi2
 2566 007c 7A68     		ldr	r2, [r7, #4]
 2567 007e 0233     		adds	r3, r3, #2
 2568 0080 9B00     		lsls	r3, r3, #2
 2569 0082 1344     		add	r3, r3, r2
 2570 0084 5B68     		ldr	r3, [r3, #4]
 2571 0086 5B8A     		ldrh	r3, [r3, #18]
 2572 0088 1946     		mov	r1, r3
 2573 008a FB78     		ldrb	r3, [r7, #3]	@ zero_extendqisi2
 2574 008c 7A69     		ldr	r2, [r7, #20]
 2575 008e 0A43     		orrs	r2, r2, r1
 2576 0090 F968     		ldr	r1, [r7, #12]
 2577 0092 5833     		adds	r3, r3, #88
 2578 0094 5B01     		lsls	r3, r3, #5
 2579 0096 0B44     		add	r3, r3, r1
 2580 0098 1A60     		str	r2, [r3]
 2581 009a FB68     		ldr	r3, [r7, #12]
 2582 009c D3F81C28 		ldr	r2, [r3, #2076]
 2583 00a0 FB78     		ldrb	r3, [r7, #3]	@ zero_extendqisi2
 2584 00a2 1033     		adds	r3, r3, #16
 2585 00a4 0121     		movs	r1, #1
 2586 00a6 01FA03F3 		lsl	r3, r1, r3
 2587 00aa 1A43     		orrs	r2, r2, r3
 2588 00ac FB68     		ldr	r3, [r7, #12]
 2589 00ae C3F81C28 		str	r2, [r3, #2076]
 2590 00b2 1AE0     		b	.L164
 2591              	.L163:
 2592 00b4 FB78     		ldrb	r3, [r7, #3]	@ zero_extendqisi2
 2593 00b6 FA68     		ldr	r2, [r7, #12]
 2594 00b8 5833     		adds	r3, r3, #88
 2595 00ba 5B01     		lsls	r3, r3, #5
 2596 00bc 1344     		add	r3, r3, r2
 2597 00be 1A68     		ldr	r2, [r3]
 2598 00c0 FB78     		ldrb	r3, [r7, #3]	@ zero_extendqisi2
 2599 00c2 22F40042 		bic	r2, r2, #32768
 2600 00c6 F968     		ldr	r1, [r7, #12]
 2601 00c8 5833     		adds	r3, r3, #88
 2602 00ca 5B01     		lsls	r3, r3, #5
 2603 00cc 0B44     		add	r3, r3, r1
 2604 00ce 1A60     		str	r2, [r3]
 2605 00d0 FB68     		ldr	r3, [r7, #12]
 2606 00d2 D3F81C28 		ldr	r2, [r3, #2076]
 2607 00d6 FB78     		ldrb	r3, [r7, #3]	@ zero_extendqisi2
 2608 00d8 1033     		adds	r3, r3, #16
 2609 00da 0121     		movs	r1, #1
 2610 00dc 01FA03F3 		lsl	r3, r1, r3
 2611 00e0 DB43     		mvns	r3, r3
 2612 00e2 1A40     		ands	r2, r2, r3
 2613 00e4 FB68     		ldr	r3, [r7, #12]
ARM GAS  /var/folders/d2/nstgp4h54kz7g1l847x_b8wc0000gn/T//ccvTRJsx.s 			page 47


 2614 00e6 C3F81C28 		str	r2, [r3, #2076]
 2615              	.L164:
 2616 00ea FB78     		ldrb	r3, [r7, #3]	@ zero_extendqisi2
 2617 00ec FA68     		ldr	r2, [r7, #12]
 2618 00ee 5B01     		lsls	r3, r3, #5
 2619 00f0 1344     		add	r3, r3, r2
 2620 00f2 03F51163 		add	r3, r3, #2320
 2621 00f6 0022     		movs	r2, #0
 2622 00f8 1A60     		str	r2, [r3]
 2623 00fa FB78     		ldrb	r3, [r7, #3]	@ zero_extendqisi2
 2624 00fc 7A68     		ldr	r2, [r7, #4]
 2625 00fe 0233     		adds	r3, r3, #2
 2626 0100 9B00     		lsls	r3, r3, #2
 2627 0102 1344     		add	r3, r3, r2
 2628 0104 5B68     		ldr	r3, [r3, #4]
 2629 0106 9B68     		ldr	r3, [r3, #8]
 2630 0108 002B     		cmp	r3, #0
 2631 010a 52D0     		beq	.L165
 2632 010c FB78     		ldrb	r3, [r7, #3]	@ zero_extendqisi2
 2633 010e 7A68     		ldr	r2, [r7, #4]
 2634 0110 0233     		adds	r3, r3, #2
 2635 0112 9B00     		lsls	r3, r3, #2
 2636 0114 1344     		add	r3, r3, r2
 2637 0116 5B68     		ldr	r3, [r3, #4]
 2638 0118 1B8A     		ldrh	r3, [r3, #16]
 2639 011a 9B08     		lsrs	r3, r3, #2
 2640 011c 9BB2     		uxth	r3, r3
 2641 011e 3B61     		str	r3, [r7, #16]
 2642 0120 FB78     		ldrb	r3, [r7, #3]	@ zero_extendqisi2
 2643 0122 7A68     		ldr	r2, [r7, #4]
 2644 0124 0233     		adds	r3, r3, #2
 2645 0126 9B00     		lsls	r3, r3, #2
 2646 0128 1344     		add	r3, r3, r2
 2647 012a 5B68     		ldr	r3, [r3, #4]
 2648 012c 9B8B     		ldrh	r3, [r3, #28]
 2649 012e 012B     		cmp	r3, #1
 2650 0130 0BD9     		bls	.L166
 2651 0132 FB78     		ldrb	r3, [r7, #3]	@ zero_extendqisi2
 2652 0134 7A68     		ldr	r2, [r7, #4]
 2653 0136 0233     		adds	r3, r3, #2
 2654 0138 9B00     		lsls	r3, r3, #2
 2655 013a 1344     		add	r3, r3, r2
 2656 013c 5B68     		ldr	r3, [r3, #4]
 2657 013e 9B8B     		ldrh	r3, [r3, #28]
 2658 0140 1A46     		mov	r2, r3
 2659 0142 3B69     		ldr	r3, [r7, #16]
 2660 0144 02FB03F3 		mul	r3, r2, r3
 2661 0148 3B61     		str	r3, [r7, #16]
 2662              	.L166:
 2663 014a 3B69     		ldr	r3, [r7, #16]
 2664 014c 1C04     		lsls	r4, r3, #16
 2665 014e 3969     		ldr	r1, [r7, #16]
 2666 0150 7868     		ldr	r0, [r7, #4]
 2667 0152 FFF7FEFF 		bl	otg_ram_alloc
 2668 0156 0246     		mov	r2, r0
 2669 0158 FB78     		ldrb	r3, [r7, #3]	@ zero_extendqisi2
 2670 015a 013B     		subs	r3, r3, #1
ARM GAS  /var/folders/d2/nstgp4h54kz7g1l847x_b8wc0000gn/T//ccvTRJsx.s 			page 48


 2671 015c 2243     		orrs	r2, r2, r4
 2672 015e F968     		ldr	r1, [r7, #12]
 2673 0160 4033     		adds	r3, r3, #64
 2674 0162 9B00     		lsls	r3, r3, #2
 2675 0164 0B44     		add	r3, r3, r1
 2676 0166 5A60     		str	r2, [r3, #4]
 2677 0168 FB78     		ldrb	r3, [r7, #3]	@ zero_extendqisi2
 2678 016a 1946     		mov	r1, r3
 2679 016c 7868     		ldr	r0, [r7, #4]
 2680 016e FFF7FEFF 		bl	otg_txfifo_flush
 2681 0172 FB78     		ldrb	r3, [r7, #3]	@ zero_extendqisi2
 2682 0174 9B05     		lsls	r3, r3, #22
 2683 0176 1A46     		mov	r2, r3
 2684 0178 7B69     		ldr	r3, [r7, #20]
 2685 017a 1A43     		orrs	r2, r2, r3
 2686 017c FB78     		ldrb	r3, [r7, #3]	@ zero_extendqisi2
 2687 017e 7968     		ldr	r1, [r7, #4]
 2688 0180 0233     		adds	r3, r3, #2
 2689 0182 9B00     		lsls	r3, r3, #2
 2690 0184 0B44     		add	r3, r3, r1
 2691 0186 5B68     		ldr	r3, [r3, #4]
 2692 0188 1B8A     		ldrh	r3, [r3, #16]
 2693 018a 1946     		mov	r1, r3
 2694 018c FB78     		ldrb	r3, [r7, #3]	@ zero_extendqisi2
 2695 018e 0A43     		orrs	r2, r2, r1
 2696 0190 F968     		ldr	r1, [r7, #12]
 2697 0192 4833     		adds	r3, r3, #72
 2698 0194 5B01     		lsls	r3, r3, #5
 2699 0196 0B44     		add	r3, r3, r1
 2700 0198 1A60     		str	r2, [r3]
 2701 019a FB68     		ldr	r3, [r7, #12]
 2702 019c D3F81C28 		ldr	r2, [r3, #2076]
 2703 01a0 FB78     		ldrb	r3, [r7, #3]	@ zero_extendqisi2
 2704 01a2 0121     		movs	r1, #1
 2705 01a4 01FA03F3 		lsl	r3, r1, r3
 2706 01a8 1A43     		orrs	r2, r2, r3
 2707 01aa FB68     		ldr	r3, [r7, #12]
 2708 01ac C3F81C28 		str	r2, [r3, #2076]
 2709 01b0 28E0     		b	.L154
 2710              	.L165:
 2711 01b2 FB78     		ldrb	r3, [r7, #3]	@ zero_extendqisi2
 2712 01b4 013B     		subs	r3, r3, #1
 2713 01b6 FA68     		ldr	r2, [r7, #12]
 2714 01b8 4033     		adds	r3, r3, #64
 2715 01ba 9B00     		lsls	r3, r3, #2
 2716 01bc 1344     		add	r3, r3, r2
 2717 01be 174A     		ldr	r2, .L168+16
 2718 01c0 5A60     		str	r2, [r3, #4]
 2719 01c2 FB78     		ldrb	r3, [r7, #3]	@ zero_extendqisi2
 2720 01c4 1946     		mov	r1, r3
 2721 01c6 7868     		ldr	r0, [r7, #4]
 2722 01c8 FFF7FEFF 		bl	otg_txfifo_flush
 2723 01cc FB78     		ldrb	r3, [r7, #3]	@ zero_extendqisi2
 2724 01ce FA68     		ldr	r2, [r7, #12]
 2725 01d0 4833     		adds	r3, r3, #72
 2726 01d2 5B01     		lsls	r3, r3, #5
 2727 01d4 1344     		add	r3, r3, r2
ARM GAS  /var/folders/d2/nstgp4h54kz7g1l847x_b8wc0000gn/T//ccvTRJsx.s 			page 49


 2728 01d6 1A68     		ldr	r2, [r3]
 2729 01d8 FB78     		ldrb	r3, [r7, #3]	@ zero_extendqisi2
 2730 01da 22F40042 		bic	r2, r2, #32768
 2731 01de F968     		ldr	r1, [r7, #12]
 2732 01e0 4833     		adds	r3, r3, #72
 2733 01e2 5B01     		lsls	r3, r3, #5
 2734 01e4 0B44     		add	r3, r3, r1
 2735 01e6 1A60     		str	r2, [r3]
 2736 01e8 FB68     		ldr	r3, [r7, #12]
 2737 01ea D3F81C28 		ldr	r2, [r3, #2076]
 2738 01ee FB78     		ldrb	r3, [r7, #3]	@ zero_extendqisi2
 2739 01f0 0121     		movs	r1, #1
 2740 01f2 01FA03F3 		lsl	r3, r1, r3
 2741 01f6 DB43     		mvns	r3, r3
 2742 01f8 1A40     		ands	r2, r2, r3
 2743 01fa FB68     		ldr	r3, [r7, #12]
 2744 01fc C3F81C28 		str	r2, [r3, #2076]
 2745 0200 00E0     		b	.L154
 2746              	.L167:
 2747 0202 00BF     		nop
 2748              	.L154:
 2749 0204 1C37     		adds	r7, r7, #28
 2750 0206 BD46     		mov	sp, r7
 2751              		@ sp needed
 2752 0208 90BD     		pop	{r4, r7, pc}
 2753              	.L169:
 2754 020a 00BF     		.align	2
 2755              	.L168:
 2756 020c 00800010 		.word	268468224
 2757 0210 00800410 		.word	268730368
 2758 0214 00800810 		.word	268992512
 2759 0218 00800C10 		.word	269254656
 2760 021c 00040002 		.word	33555456
 2761              		.size	usb_lld_init_endpoint, .-usb_lld_init_endpoint
 2762              		.section	.text.usb_lld_disable_endpoints,"ax",%progbits
 2763              		.align	1
 2764              		.global	usb_lld_disable_endpoints
 2765              		.syntax unified
 2766              		.thumb
 2767              		.thumb_func
 2768              		.fpu fpv4-sp-d16
 2769              		.type	usb_lld_disable_endpoints, %function
 2770              	usb_lld_disable_endpoints:
 2771              		@ args = 0, pretend = 0, frame = 8
 2772              		@ frame_needed = 1, uses_anonymous_args = 0
 2773 0000 80B5     		push	{r7, lr}
 2774 0002 82B0     		sub	sp, sp, #8
 2775 0004 00AF     		add	r7, sp, #0
 2776 0006 7860     		str	r0, [r7, #4]
 2777 0008 7868     		ldr	r0, [r7, #4]
 2778 000a FFF7FEFF 		bl	otg_ram_reset
 2779 000e 7868     		ldr	r0, [r7, #4]
 2780 0010 FFF7FEFF 		bl	otg_disable_ep
 2781 0014 00BF     		nop
 2782 0016 0837     		adds	r7, r7, #8
 2783 0018 BD46     		mov	sp, r7
 2784              		@ sp needed
ARM GAS  /var/folders/d2/nstgp4h54kz7g1l847x_b8wc0000gn/T//ccvTRJsx.s 			page 50


 2785 001a 80BD     		pop	{r7, pc}
 2786              		.size	usb_lld_disable_endpoints, .-usb_lld_disable_endpoints
 2787              		.section	.text.usb_lld_get_status_out,"ax",%progbits
 2788              		.align	1
 2789              		.global	usb_lld_get_status_out
 2790              		.syntax unified
 2791              		.thumb
 2792              		.thumb_func
 2793              		.fpu fpv4-sp-d16
 2794              		.type	usb_lld_get_status_out, %function
 2795              	usb_lld_get_status_out:
 2796              		@ args = 0, pretend = 0, frame = 16
 2797              		@ frame_needed = 1, uses_anonymous_args = 0
 2798              		@ link register save eliminated.
 2799 0000 80B4     		push	{r7}
 2800 0002 85B0     		sub	sp, sp, #20
 2801 0004 00AF     		add	r7, sp, #0
 2802 0006 7860     		str	r0, [r7, #4]
 2803 0008 0B46     		mov	r3, r1
 2804 000a FB70     		strb	r3, [r7, #3]
 2805 000c 7B68     		ldr	r3, [r7, #4]
 2806 000e 1A6D     		ldr	r2, [r3, #80]
 2807 0010 FB78     		ldrb	r3, [r7, #3]	@ zero_extendqisi2
 2808 0012 5833     		adds	r3, r3, #88
 2809 0014 5B01     		lsls	r3, r3, #5
 2810 0016 1344     		add	r3, r3, r2
 2811 0018 1B68     		ldr	r3, [r3]
 2812 001a FB60     		str	r3, [r7, #12]
 2813 001c FB68     		ldr	r3, [r7, #12]
 2814 001e 03F40043 		and	r3, r3, #32768
 2815 0022 002B     		cmp	r3, #0
 2816 0024 01D1     		bne	.L172
 2817 0026 0023     		movs	r3, #0
 2818 0028 07E0     		b	.L173
 2819              	.L172:
 2820 002a FB68     		ldr	r3, [r7, #12]
 2821 002c 03F40013 		and	r3, r3, #2097152
 2822 0030 002B     		cmp	r3, #0
 2823 0032 01D0     		beq	.L174
 2824 0034 0123     		movs	r3, #1
 2825 0036 00E0     		b	.L173
 2826              	.L174:
 2827 0038 0223     		movs	r3, #2
 2828              	.L173:
 2829 003a 1846     		mov	r0, r3
 2830 003c 1437     		adds	r7, r7, #20
 2831 003e BD46     		mov	sp, r7
 2832              		@ sp needed
 2833 0040 5DF8047B 		ldr	r7, [sp], #4
 2834 0044 7047     		bx	lr
 2835              		.size	usb_lld_get_status_out, .-usb_lld_get_status_out
 2836              		.section	.text.usb_lld_get_status_in,"ax",%progbits
 2837              		.align	1
 2838              		.global	usb_lld_get_status_in
 2839              		.syntax unified
 2840              		.thumb
 2841              		.thumb_func
ARM GAS  /var/folders/d2/nstgp4h54kz7g1l847x_b8wc0000gn/T//ccvTRJsx.s 			page 51


 2842              		.fpu fpv4-sp-d16
 2843              		.type	usb_lld_get_status_in, %function
 2844              	usb_lld_get_status_in:
 2845              		@ args = 0, pretend = 0, frame = 16
 2846              		@ frame_needed = 1, uses_anonymous_args = 0
 2847              		@ link register save eliminated.
 2848 0000 80B4     		push	{r7}
 2849 0002 85B0     		sub	sp, sp, #20
 2850 0004 00AF     		add	r7, sp, #0
 2851 0006 7860     		str	r0, [r7, #4]
 2852 0008 0B46     		mov	r3, r1
 2853 000a FB70     		strb	r3, [r7, #3]
 2854 000c 7B68     		ldr	r3, [r7, #4]
 2855 000e 1A6D     		ldr	r2, [r3, #80]
 2856 0010 FB78     		ldrb	r3, [r7, #3]	@ zero_extendqisi2
 2857 0012 4833     		adds	r3, r3, #72
 2858 0014 5B01     		lsls	r3, r3, #5
 2859 0016 1344     		add	r3, r3, r2
 2860 0018 1B68     		ldr	r3, [r3]
 2861 001a FB60     		str	r3, [r7, #12]
 2862 001c FB68     		ldr	r3, [r7, #12]
 2863 001e 03F40043 		and	r3, r3, #32768
 2864 0022 002B     		cmp	r3, #0
 2865 0024 01D1     		bne	.L176
 2866 0026 0023     		movs	r3, #0
 2867 0028 07E0     		b	.L177
 2868              	.L176:
 2869 002a FB68     		ldr	r3, [r7, #12]
 2870 002c 03F40013 		and	r3, r3, #2097152
 2871 0030 002B     		cmp	r3, #0
 2872 0032 01D0     		beq	.L178
 2873 0034 0123     		movs	r3, #1
 2874 0036 00E0     		b	.L177
 2875              	.L178:
 2876 0038 0223     		movs	r3, #2
 2877              	.L177:
 2878 003a 1846     		mov	r0, r3
 2879 003c 1437     		adds	r7, r7, #20
 2880 003e BD46     		mov	sp, r7
 2881              		@ sp needed
 2882 0040 5DF8047B 		ldr	r7, [sp], #4
 2883 0044 7047     		bx	lr
 2884              		.size	usb_lld_get_status_in, .-usb_lld_get_status_in
 2885              		.section	.text.usb_lld_read_setup,"ax",%progbits
 2886              		.align	1
 2887              		.global	usb_lld_read_setup
 2888              		.syntax unified
 2889              		.thumb
 2890              		.thumb_func
 2891              		.fpu fpv4-sp-d16
 2892              		.type	usb_lld_read_setup, %function
 2893              	usb_lld_read_setup:
 2894              		@ args = 0, pretend = 0, frame = 16
 2895              		@ frame_needed = 1, uses_anonymous_args = 0
 2896 0000 80B5     		push	{r7, lr}
 2897 0002 84B0     		sub	sp, sp, #16
 2898 0004 00AF     		add	r7, sp, #0
ARM GAS  /var/folders/d2/nstgp4h54kz7g1l847x_b8wc0000gn/T//ccvTRJsx.s 			page 52


 2899 0006 F860     		str	r0, [r7, #12]
 2900 0008 0B46     		mov	r3, r1
 2901 000a 7A60     		str	r2, [r7, #4]
 2902 000c FB72     		strb	r3, [r7, #11]
 2903 000e FB7A     		ldrb	r3, [r7, #11]	@ zero_extendqisi2
 2904 0010 FA68     		ldr	r2, [r7, #12]
 2905 0012 0233     		adds	r3, r3, #2
 2906 0014 9B00     		lsls	r3, r3, #2
 2907 0016 1344     		add	r3, r3, r2
 2908 0018 5B68     		ldr	r3, [r3, #4]
 2909 001a 1B6A     		ldr	r3, [r3, #32]
 2910 001c 0822     		movs	r2, #8
 2911 001e 1946     		mov	r1, r3
 2912 0020 7868     		ldr	r0, [r7, #4]
 2913 0022 FFF7FEFF 		bl	memcpy
 2914 0026 00BF     		nop
 2915 0028 1037     		adds	r7, r7, #16
 2916 002a BD46     		mov	sp, r7
 2917              		@ sp needed
 2918 002c 80BD     		pop	{r7, pc}
 2919              		.size	usb_lld_read_setup, .-usb_lld_read_setup
 2920              		.section	.text.usb_lld_prepare_receive,"ax",%progbits
 2921              		.align	1
 2922              		.global	usb_lld_prepare_receive
 2923              		.syntax unified
 2924              		.thumb
 2925              		.thumb_func
 2926              		.fpu fpv4-sp-d16
 2927              		.type	usb_lld_prepare_receive, %function
 2928              	usb_lld_prepare_receive:
 2929              		@ args = 0, pretend = 0, frame = 16
 2930              		@ frame_needed = 1, uses_anonymous_args = 0
 2931              		@ link register save eliminated.
 2932 0000 80B4     		push	{r7}
 2933 0002 85B0     		sub	sp, sp, #20
 2934 0004 00AF     		add	r7, sp, #0
 2935 0006 7860     		str	r0, [r7, #4]
 2936 0008 0B46     		mov	r3, r1
 2937 000a FB70     		strb	r3, [r7, #3]
 2938 000c FB78     		ldrb	r3, [r7, #3]	@ zero_extendqisi2
 2939 000e 7A68     		ldr	r2, [r7, #4]
 2940 0010 0233     		adds	r3, r3, #2
 2941 0012 9B00     		lsls	r3, r3, #2
 2942 0014 1344     		add	r3, r3, r2
 2943 0016 5B68     		ldr	r3, [r3, #4]
 2944 0018 9B69     		ldr	r3, [r3, #24]
 2945 001a FB60     		str	r3, [r7, #12]
 2946 001c FB68     		ldr	r3, [r7, #12]
 2947 001e 5A68     		ldr	r2, [r3, #4]
 2948 0020 FB68     		ldr	r3, [r7, #12]
 2949 0022 1A61     		str	r2, [r3, #16]
 2950 0024 FB78     		ldrb	r3, [r7, #3]	@ zero_extendqisi2
 2951 0026 002B     		cmp	r3, #0
 2952 0028 06D1     		bne	.L181
 2953 002a FB68     		ldr	r3, [r7, #12]
 2954 002c 5B68     		ldr	r3, [r3, #4]
 2955 002e 402B     		cmp	r3, #64
ARM GAS  /var/folders/d2/nstgp4h54kz7g1l847x_b8wc0000gn/T//ccvTRJsx.s 			page 53


 2956 0030 02D9     		bls	.L181
 2957 0032 FB68     		ldr	r3, [r7, #12]
 2958 0034 4022     		movs	r2, #64
 2959 0036 5A60     		str	r2, [r3, #4]
 2960              	.L181:
 2961 0038 FB68     		ldr	r3, [r7, #12]
 2962 003a 5A68     		ldr	r2, [r3, #4]
 2963 003c FB78     		ldrb	r3, [r7, #3]	@ zero_extendqisi2
 2964 003e 7968     		ldr	r1, [r7, #4]
 2965 0040 0233     		adds	r3, r3, #2
 2966 0042 9B00     		lsls	r3, r3, #2
 2967 0044 0B44     		add	r3, r3, r1
 2968 0046 5B68     		ldr	r3, [r3, #4]
 2969 0048 5B8A     		ldrh	r3, [r3, #18]
 2970 004a 1344     		add	r3, r3, r2
 2971 004c 5A1E     		subs	r2, r3, #1
 2972 004e FB78     		ldrb	r3, [r7, #3]	@ zero_extendqisi2
 2973 0050 7968     		ldr	r1, [r7, #4]
 2974 0052 0233     		adds	r3, r3, #2
 2975 0054 9B00     		lsls	r3, r3, #2
 2976 0056 0B44     		add	r3, r3, r1
 2977 0058 5B68     		ldr	r3, [r3, #4]
 2978 005a 5B8A     		ldrh	r3, [r3, #18]
 2979 005c B2FBF3F3 		udiv	r3, r2, r3
 2980 0060 BB60     		str	r3, [r7, #8]
 2981 0062 BB68     		ldr	r3, [r7, #8]
 2982 0064 DA04     		lsls	r2, r3, #19
 2983 0066 FB68     		ldr	r3, [r7, #12]
 2984 0068 5B68     		ldr	r3, [r3, #4]
 2985 006a 1A43     		orrs	r2, r2, r3
 2986 006c 7B68     		ldr	r3, [r7, #4]
 2987 006e 196D     		ldr	r1, [r3, #80]
 2988 0070 FB78     		ldrb	r3, [r7, #3]	@ zero_extendqisi2
 2989 0072 42F0C042 		orr	r2, r2, #1610612736
 2990 0076 5B01     		lsls	r3, r3, #5
 2991 0078 0B44     		add	r3, r3, r1
 2992 007a 03F53163 		add	r3, r3, #2832
 2993 007e 1A60     		str	r2, [r3]
 2994 0080 00BF     		nop
 2995 0082 1437     		adds	r7, r7, #20
 2996 0084 BD46     		mov	sp, r7
 2997              		@ sp needed
 2998 0086 5DF8047B 		ldr	r7, [sp], #4
 2999 008a 7047     		bx	lr
 3000              		.size	usb_lld_prepare_receive, .-usb_lld_prepare_receive
 3001              		.section	.text.usb_lld_prepare_transmit,"ax",%progbits
 3002              		.align	1
 3003              		.global	usb_lld_prepare_transmit
 3004              		.syntax unified
 3005              		.thumb
 3006              		.thumb_func
 3007              		.fpu fpv4-sp-d16
 3008              		.type	usb_lld_prepare_transmit, %function
 3009              	usb_lld_prepare_transmit:
 3010              		@ args = 0, pretend = 0, frame = 16
 3011              		@ frame_needed = 1, uses_anonymous_args = 0
 3012              		@ link register save eliminated.
ARM GAS  /var/folders/d2/nstgp4h54kz7g1l847x_b8wc0000gn/T//ccvTRJsx.s 			page 54


 3013 0000 80B4     		push	{r7}
 3014 0002 85B0     		sub	sp, sp, #20
 3015 0004 00AF     		add	r7, sp, #0
 3016 0006 7860     		str	r0, [r7, #4]
 3017 0008 0B46     		mov	r3, r1
 3018 000a FB70     		strb	r3, [r7, #3]
 3019 000c FB78     		ldrb	r3, [r7, #3]	@ zero_extendqisi2
 3020 000e 7A68     		ldr	r2, [r7, #4]
 3021 0010 0233     		adds	r3, r3, #2
 3022 0012 9B00     		lsls	r3, r3, #2
 3023 0014 1344     		add	r3, r3, r2
 3024 0016 5B68     		ldr	r3, [r3, #4]
 3025 0018 5B69     		ldr	r3, [r3, #20]
 3026 001a FB60     		str	r3, [r7, #12]
 3027 001c FB68     		ldr	r3, [r7, #12]
 3028 001e 5A68     		ldr	r2, [r3, #4]
 3029 0020 FB68     		ldr	r3, [r7, #12]
 3030 0022 1A61     		str	r2, [r3, #16]
 3031 0024 FB68     		ldr	r3, [r7, #12]
 3032 0026 5B68     		ldr	r3, [r3, #4]
 3033 0028 002B     		cmp	r3, #0
 3034 002a 0AD1     		bne	.L183
 3035 002c 7B68     		ldr	r3, [r7, #4]
 3036 002e 1A6D     		ldr	r2, [r3, #80]
 3037 0030 FB78     		ldrb	r3, [r7, #3]	@ zero_extendqisi2
 3038 0032 5B01     		lsls	r3, r3, #5
 3039 0034 1344     		add	r3, r3, r2
 3040 0036 03F51163 		add	r3, r3, #2320
 3041 003a 4FF40022 		mov	r2, #524288
 3042 003e 1A60     		str	r2, [r3]
 3043 0040 2BE0     		b	.L186
 3044              	.L183:
 3045 0042 FB78     		ldrb	r3, [r7, #3]	@ zero_extendqisi2
 3046 0044 002B     		cmp	r3, #0
 3047 0046 06D1     		bne	.L185
 3048 0048 FB68     		ldr	r3, [r7, #12]
 3049 004a 5B68     		ldr	r3, [r3, #4]
 3050 004c 402B     		cmp	r3, #64
 3051 004e 02D9     		bls	.L185
 3052 0050 FB68     		ldr	r3, [r7, #12]
 3053 0052 4022     		movs	r2, #64
 3054 0054 5A60     		str	r2, [r3, #4]
 3055              	.L185:
 3056 0056 FB68     		ldr	r3, [r7, #12]
 3057 0058 5A68     		ldr	r2, [r3, #4]
 3058 005a FB78     		ldrb	r3, [r7, #3]	@ zero_extendqisi2
 3059 005c 7968     		ldr	r1, [r7, #4]
 3060 005e 0233     		adds	r3, r3, #2
 3061 0060 9B00     		lsls	r3, r3, #2
 3062 0062 0B44     		add	r3, r3, r1
 3063 0064 5B68     		ldr	r3, [r3, #4]
 3064 0066 1B8A     		ldrh	r3, [r3, #16]
 3065 0068 1344     		add	r3, r3, r2
 3066 006a 5A1E     		subs	r2, r3, #1
 3067 006c FB78     		ldrb	r3, [r7, #3]	@ zero_extendqisi2
 3068 006e 7968     		ldr	r1, [r7, #4]
 3069 0070 0233     		adds	r3, r3, #2
ARM GAS  /var/folders/d2/nstgp4h54kz7g1l847x_b8wc0000gn/T//ccvTRJsx.s 			page 55


 3070 0072 9B00     		lsls	r3, r3, #2
 3071 0074 0B44     		add	r3, r3, r1
 3072 0076 5B68     		ldr	r3, [r3, #4]
 3073 0078 1B8A     		ldrh	r3, [r3, #16]
 3074 007a B2FBF3F3 		udiv	r3, r2, r3
 3075 007e BB60     		str	r3, [r7, #8]
 3076 0080 BB68     		ldr	r3, [r7, #8]
 3077 0082 D804     		lsls	r0, r3, #19
 3078 0084 FB68     		ldr	r3, [r7, #12]
 3079 0086 5A68     		ldr	r2, [r3, #4]
 3080 0088 7B68     		ldr	r3, [r7, #4]
 3081 008a 196D     		ldr	r1, [r3, #80]
 3082 008c FB78     		ldrb	r3, [r7, #3]	@ zero_extendqisi2
 3083 008e 0243     		orrs	r2, r2, r0
 3084 0090 5B01     		lsls	r3, r3, #5
 3085 0092 0B44     		add	r3, r3, r1
 3086 0094 03F51163 		add	r3, r3, #2320
 3087 0098 1A60     		str	r2, [r3]
 3088              	.L186:
 3089 009a 00BF     		nop
 3090 009c 1437     		adds	r7, r7, #20
 3091 009e BD46     		mov	sp, r7
 3092              		@ sp needed
 3093 00a0 5DF8047B 		ldr	r7, [sp], #4
 3094 00a4 7047     		bx	lr
 3095              		.size	usb_lld_prepare_transmit, .-usb_lld_prepare_transmit
 3096              		.section	.text.usb_lld_start_out,"ax",%progbits
 3097              		.align	1
 3098              		.global	usb_lld_start_out
 3099              		.syntax unified
 3100              		.thumb
 3101              		.thumb_func
 3102              		.fpu fpv4-sp-d16
 3103              		.type	usb_lld_start_out, %function
 3104              	usb_lld_start_out:
 3105              		@ args = 0, pretend = 0, frame = 8
 3106              		@ frame_needed = 1, uses_anonymous_args = 0
 3107              		@ link register save eliminated.
 3108 0000 80B4     		push	{r7}
 3109 0002 83B0     		sub	sp, sp, #12
 3110 0004 00AF     		add	r7, sp, #0
 3111 0006 7860     		str	r0, [r7, #4]
 3112 0008 0B46     		mov	r3, r1
 3113 000a FB70     		strb	r3, [r7, #3]
 3114 000c 7B68     		ldr	r3, [r7, #4]
 3115 000e 1A6D     		ldr	r2, [r3, #80]
 3116 0010 FB78     		ldrb	r3, [r7, #3]	@ zero_extendqisi2
 3117 0012 5833     		adds	r3, r3, #88
 3118 0014 5B01     		lsls	r3, r3, #5
 3119 0016 1344     		add	r3, r3, r2
 3120 0018 1A68     		ldr	r2, [r3]
 3121 001a 7B68     		ldr	r3, [r7, #4]
 3122 001c 196D     		ldr	r1, [r3, #80]
 3123 001e FB78     		ldrb	r3, [r7, #3]	@ zero_extendqisi2
 3124 0020 42F08062 		orr	r2, r2, #67108864
 3125 0024 5833     		adds	r3, r3, #88
 3126 0026 5B01     		lsls	r3, r3, #5
ARM GAS  /var/folders/d2/nstgp4h54kz7g1l847x_b8wc0000gn/T//ccvTRJsx.s 			page 56


 3127 0028 0B44     		add	r3, r3, r1
 3128 002a 1A60     		str	r2, [r3]
 3129 002c 00BF     		nop
 3130 002e 0C37     		adds	r7, r7, #12
 3131 0030 BD46     		mov	sp, r7
 3132              		@ sp needed
 3133 0032 5DF8047B 		ldr	r7, [sp], #4
 3134 0036 7047     		bx	lr
 3135              		.size	usb_lld_start_out, .-usb_lld_start_out
 3136              		.section	.text.usb_lld_start_in,"ax",%progbits
 3137              		.align	1
 3138              		.global	usb_lld_start_in
 3139              		.syntax unified
 3140              		.thumb
 3141              		.thumb_func
 3142              		.fpu fpv4-sp-d16
 3143              		.type	usb_lld_start_in, %function
 3144              	usb_lld_start_in:
 3145              		@ args = 0, pretend = 0, frame = 8
 3146              		@ frame_needed = 1, uses_anonymous_args = 0
 3147              		@ link register save eliminated.
 3148 0000 80B4     		push	{r7}
 3149 0002 83B0     		sub	sp, sp, #12
 3150 0004 00AF     		add	r7, sp, #0
 3151 0006 7860     		str	r0, [r7, #4]
 3152 0008 0B46     		mov	r3, r1
 3153 000a FB70     		strb	r3, [r7, #3]
 3154 000c 7B68     		ldr	r3, [r7, #4]
 3155 000e 1A6D     		ldr	r2, [r3, #80]
 3156 0010 FB78     		ldrb	r3, [r7, #3]	@ zero_extendqisi2
 3157 0012 4833     		adds	r3, r3, #72
 3158 0014 5B01     		lsls	r3, r3, #5
 3159 0016 1344     		add	r3, r3, r2
 3160 0018 1A68     		ldr	r2, [r3]
 3161 001a 7B68     		ldr	r3, [r7, #4]
 3162 001c 196D     		ldr	r1, [r3, #80]
 3163 001e FB78     		ldrb	r3, [r7, #3]	@ zero_extendqisi2
 3164 0020 42F00442 		orr	r2, r2, #-2080374784
 3165 0024 4833     		adds	r3, r3, #72
 3166 0026 5B01     		lsls	r3, r3, #5
 3167 0028 0B44     		add	r3, r3, r1
 3168 002a 1A60     		str	r2, [r3]
 3169 002c 7B68     		ldr	r3, [r7, #4]
 3170 002e 1B6D     		ldr	r3, [r3, #80]
 3171 0030 D3F83418 		ldr	r1, [r3, #2100]
 3172 0034 FB78     		ldrb	r3, [r7, #3]	@ zero_extendqisi2
 3173 0036 0122     		movs	r2, #1
 3174 0038 9A40     		lsls	r2, r2, r3
 3175 003a 7B68     		ldr	r3, [r7, #4]
 3176 003c 1B6D     		ldr	r3, [r3, #80]
 3177 003e 0A43     		orrs	r2, r2, r1
 3178 0040 C3F83428 		str	r2, [r3, #2100]
 3179 0044 00BF     		nop
 3180 0046 0C37     		adds	r7, r7, #12
 3181 0048 BD46     		mov	sp, r7
 3182              		@ sp needed
 3183 004a 5DF8047B 		ldr	r7, [sp], #4
ARM GAS  /var/folders/d2/nstgp4h54kz7g1l847x_b8wc0000gn/T//ccvTRJsx.s 			page 57


 3184 004e 7047     		bx	lr
 3185              		.size	usb_lld_start_in, .-usb_lld_start_in
 3186              		.section	.text.usb_lld_stall_out,"ax",%progbits
 3187              		.align	1
 3188              		.global	usb_lld_stall_out
 3189              		.syntax unified
 3190              		.thumb
 3191              		.thumb_func
 3192              		.fpu fpv4-sp-d16
 3193              		.type	usb_lld_stall_out, %function
 3194              	usb_lld_stall_out:
 3195              		@ args = 0, pretend = 0, frame = 8
 3196              		@ frame_needed = 1, uses_anonymous_args = 0
 3197              		@ link register save eliminated.
 3198 0000 80B4     		push	{r7}
 3199 0002 83B0     		sub	sp, sp, #12
 3200 0004 00AF     		add	r7, sp, #0
 3201 0006 7860     		str	r0, [r7, #4]
 3202 0008 0B46     		mov	r3, r1
 3203 000a FB70     		strb	r3, [r7, #3]
 3204 000c 7B68     		ldr	r3, [r7, #4]
 3205 000e 1A6D     		ldr	r2, [r3, #80]
 3206 0010 FB78     		ldrb	r3, [r7, #3]	@ zero_extendqisi2
 3207 0012 5833     		adds	r3, r3, #88
 3208 0014 5B01     		lsls	r3, r3, #5
 3209 0016 1344     		add	r3, r3, r2
 3210 0018 1A68     		ldr	r2, [r3]
 3211 001a 7B68     		ldr	r3, [r7, #4]
 3212 001c 196D     		ldr	r1, [r3, #80]
 3213 001e FB78     		ldrb	r3, [r7, #3]	@ zero_extendqisi2
 3214 0020 42F40012 		orr	r2, r2, #2097152
 3215 0024 5833     		adds	r3, r3, #88
 3216 0026 5B01     		lsls	r3, r3, #5
 3217 0028 0B44     		add	r3, r3, r1
 3218 002a 1A60     		str	r2, [r3]
 3219 002c 00BF     		nop
 3220 002e 0C37     		adds	r7, r7, #12
 3221 0030 BD46     		mov	sp, r7
 3222              		@ sp needed
 3223 0032 5DF8047B 		ldr	r7, [sp], #4
 3224 0036 7047     		bx	lr
 3225              		.size	usb_lld_stall_out, .-usb_lld_stall_out
 3226              		.section	.text.usb_lld_stall_in,"ax",%progbits
 3227              		.align	1
 3228              		.global	usb_lld_stall_in
 3229              		.syntax unified
 3230              		.thumb
 3231              		.thumb_func
 3232              		.fpu fpv4-sp-d16
 3233              		.type	usb_lld_stall_in, %function
 3234              	usb_lld_stall_in:
 3235              		@ args = 0, pretend = 0, frame = 8
 3236              		@ frame_needed = 1, uses_anonymous_args = 0
 3237              		@ link register save eliminated.
 3238 0000 80B4     		push	{r7}
 3239 0002 83B0     		sub	sp, sp, #12
 3240 0004 00AF     		add	r7, sp, #0
ARM GAS  /var/folders/d2/nstgp4h54kz7g1l847x_b8wc0000gn/T//ccvTRJsx.s 			page 58


 3241 0006 7860     		str	r0, [r7, #4]
 3242 0008 0B46     		mov	r3, r1
 3243 000a FB70     		strb	r3, [r7, #3]
 3244 000c 7B68     		ldr	r3, [r7, #4]
 3245 000e 1A6D     		ldr	r2, [r3, #80]
 3246 0010 FB78     		ldrb	r3, [r7, #3]	@ zero_extendqisi2
 3247 0012 4833     		adds	r3, r3, #72
 3248 0014 5B01     		lsls	r3, r3, #5
 3249 0016 1344     		add	r3, r3, r2
 3250 0018 1A68     		ldr	r2, [r3]
 3251 001a 7B68     		ldr	r3, [r7, #4]
 3252 001c 196D     		ldr	r1, [r3, #80]
 3253 001e FB78     		ldrb	r3, [r7, #3]	@ zero_extendqisi2
 3254 0020 42F40012 		orr	r2, r2, #2097152
 3255 0024 4833     		adds	r3, r3, #72
 3256 0026 5B01     		lsls	r3, r3, #5
 3257 0028 0B44     		add	r3, r3, r1
 3258 002a 1A60     		str	r2, [r3]
 3259 002c 00BF     		nop
 3260 002e 0C37     		adds	r7, r7, #12
 3261 0030 BD46     		mov	sp, r7
 3262              		@ sp needed
 3263 0032 5DF8047B 		ldr	r7, [sp], #4
 3264 0036 7047     		bx	lr
 3265              		.size	usb_lld_stall_in, .-usb_lld_stall_in
 3266              		.section	.text.usb_lld_clear_out,"ax",%progbits
 3267              		.align	1
 3268              		.global	usb_lld_clear_out
 3269              		.syntax unified
 3270              		.thumb
 3271              		.thumb_func
 3272              		.fpu fpv4-sp-d16
 3273              		.type	usb_lld_clear_out, %function
 3274              	usb_lld_clear_out:
 3275              		@ args = 0, pretend = 0, frame = 8
 3276              		@ frame_needed = 1, uses_anonymous_args = 0
 3277              		@ link register save eliminated.
 3278 0000 80B4     		push	{r7}
 3279 0002 83B0     		sub	sp, sp, #12
 3280 0004 00AF     		add	r7, sp, #0
 3281 0006 7860     		str	r0, [r7, #4]
 3282 0008 0B46     		mov	r3, r1
 3283 000a FB70     		strb	r3, [r7, #3]
 3284 000c 7B68     		ldr	r3, [r7, #4]
 3285 000e 1A6D     		ldr	r2, [r3, #80]
 3286 0010 FB78     		ldrb	r3, [r7, #3]	@ zero_extendqisi2
 3287 0012 5833     		adds	r3, r3, #88
 3288 0014 5B01     		lsls	r3, r3, #5
 3289 0016 1344     		add	r3, r3, r2
 3290 0018 1A68     		ldr	r2, [r3]
 3291 001a 7B68     		ldr	r3, [r7, #4]
 3292 001c 196D     		ldr	r1, [r3, #80]
 3293 001e FB78     		ldrb	r3, [r7, #3]	@ zero_extendqisi2
 3294 0020 22F40012 		bic	r2, r2, #2097152
 3295 0024 5833     		adds	r3, r3, #88
 3296 0026 5B01     		lsls	r3, r3, #5
 3297 0028 0B44     		add	r3, r3, r1
ARM GAS  /var/folders/d2/nstgp4h54kz7g1l847x_b8wc0000gn/T//ccvTRJsx.s 			page 59


 3298 002a 1A60     		str	r2, [r3]
 3299 002c 00BF     		nop
 3300 002e 0C37     		adds	r7, r7, #12
 3301 0030 BD46     		mov	sp, r7
 3302              		@ sp needed
 3303 0032 5DF8047B 		ldr	r7, [sp], #4
 3304 0036 7047     		bx	lr
 3305              		.size	usb_lld_clear_out, .-usb_lld_clear_out
 3306              		.section	.text.usb_lld_clear_in,"ax",%progbits
 3307              		.align	1
 3308              		.global	usb_lld_clear_in
 3309              		.syntax unified
 3310              		.thumb
 3311              		.thumb_func
 3312              		.fpu fpv4-sp-d16
 3313              		.type	usb_lld_clear_in, %function
 3314              	usb_lld_clear_in:
 3315              		@ args = 0, pretend = 0, frame = 8
 3316              		@ frame_needed = 1, uses_anonymous_args = 0
 3317              		@ link register save eliminated.
 3318 0000 80B4     		push	{r7}
 3319 0002 83B0     		sub	sp, sp, #12
 3320 0004 00AF     		add	r7, sp, #0
 3321 0006 7860     		str	r0, [r7, #4]
 3322 0008 0B46     		mov	r3, r1
 3323 000a FB70     		strb	r3, [r7, #3]
 3324 000c 7B68     		ldr	r3, [r7, #4]
 3325 000e 1A6D     		ldr	r2, [r3, #80]
 3326 0010 FB78     		ldrb	r3, [r7, #3]	@ zero_extendqisi2
 3327 0012 4833     		adds	r3, r3, #72
 3328 0014 5B01     		lsls	r3, r3, #5
 3329 0016 1344     		add	r3, r3, r2
 3330 0018 1A68     		ldr	r2, [r3]
 3331 001a 7B68     		ldr	r3, [r7, #4]
 3332 001c 196D     		ldr	r1, [r3, #80]
 3333 001e FB78     		ldrb	r3, [r7, #3]	@ zero_extendqisi2
 3334 0020 22F40012 		bic	r2, r2, #2097152
 3335 0024 4833     		adds	r3, r3, #72
 3336 0026 5B01     		lsls	r3, r3, #5
 3337 0028 0B44     		add	r3, r3, r1
 3338 002a 1A60     		str	r2, [r3]
 3339 002c 00BF     		nop
 3340 002e 0C37     		adds	r7, r7, #12
 3341 0030 BD46     		mov	sp, r7
 3342              		@ sp needed
 3343 0032 5DF8047B 		ldr	r7, [sp], #4
 3344 0036 7047     		bx	lr
 3345              		.size	usb_lld_clear_in, .-usb_lld_clear_in
 3346              		.section	.rodata
 3347              		.align	2
 3348              	.LC0:
 3349 0000 7573625F 		.ascii	"usb_lld_pump\000"
 3349      6C6C645F 
 3349      70756D70 
 3349      00
 3350              		.section	.text.usb_lld_pump,"ax",%progbits
 3351              		.align	1
ARM GAS  /var/folders/d2/nstgp4h54kz7g1l847x_b8wc0000gn/T//ccvTRJsx.s 			page 60


 3352              		.global	usb_lld_pump
 3353              		.syntax unified
 3354              		.thumb
 3355              		.thumb_func
 3356              		.fpu fpv4-sp-d16
 3357              		.type	usb_lld_pump, %function
 3358              	usb_lld_pump:
 3359              		@ args = 0, pretend = 0, frame = 32
 3360              		@ frame_needed = 1, uses_anonymous_args = 0
 3361 0000 80B5     		push	{r7, lr}
 3362 0002 88B0     		sub	sp, sp, #32
 3363 0004 00AF     		add	r7, sp, #0
 3364 0006 7860     		str	r0, [r7, #4]
 3365 0008 7B68     		ldr	r3, [r7, #4]
 3366 000a BB61     		str	r3, [r7, #24]
 3367 000c BB69     		ldr	r3, [r7, #24]
 3368 000e 1B6D     		ldr	r3, [r3, #80]
 3369 0010 7B61     		str	r3, [r7, #20]
 3370 0012 3948     		ldr	r0, .L203
 3371 0014 FFF7FEFF 		bl	chRegSetThreadName
 3372 0018 FFF7FEFF 		bl	osalSysLock
 3373              	.L202:
 3374 001c BB69     		ldr	r3, [r7, #24]
 3375 001e 1B78     		ldrb	r3, [r3]	@ zero_extendqisi2
 3376 0020 012B     		cmp	r3, #1
 3377 0022 09D0     		beq	.L194
 3378 0024 BB69     		ldr	r3, [r7, #24]
 3379 0026 DB6D     		ldr	r3, [r3, #92]
 3380 0028 002B     		cmp	r3, #0
 3381 002a 10D1     		bne	.L195
 3382 002c 7B69     		ldr	r3, [r7, #20]
 3383 002e 5B69     		ldr	r3, [r3, #20]
 3384 0030 03F01003 		and	r3, r3, #16
 3385 0034 002B     		cmp	r3, #0
 3386 0036 0AD1     		bne	.L195
 3387              	.L194:
 3388 0038 7B69     		ldr	r3, [r7, #20]
 3389 003a 9B69     		ldr	r3, [r3, #24]
 3390 003c 43F01002 		orr	r2, r3, #16
 3391 0040 7B69     		ldr	r3, [r7, #20]
 3392 0042 9A61     		str	r2, [r3, #24]
 3393 0044 BB69     		ldr	r3, [r7, #24]
 3394 0046 6033     		adds	r3, r3, #96
 3395 0048 1846     		mov	r0, r3
 3396 004a FFF7FEFF 		bl	osalThreadSuspendS
 3397              	.L195:
 3398 004e FFF7FEFF 		bl	osalSysUnlock
 3399 0052 0023     		movs	r3, #0
 3400 0054 FB77     		strb	r3, [r7, #31]
 3401 0056 46E0     		b	.L196
 3402              	.L198:
 3403 0058 B869     		ldr	r0, [r7, #24]
 3404 005a FFF7FEFF 		bl	otg_rxfifo_handler
 3405              	.L197:
 3406 005e 7B69     		ldr	r3, [r7, #20]
 3407 0060 5B69     		ldr	r3, [r3, #20]
 3408 0062 03F01003 		and	r3, r3, #16
ARM GAS  /var/folders/d2/nstgp4h54kz7g1l847x_b8wc0000gn/T//ccvTRJsx.s 			page 61


 3409 0066 002B     		cmp	r3, #0
 3410 0068 F6D1     		bne	.L198
 3411 006a FB7F     		ldrb	r3, [r7, #31]	@ zero_extendqisi2
 3412 006c 0122     		movs	r2, #1
 3413 006e 02FA03F3 		lsl	r3, r2, r3
 3414 0072 3B61     		str	r3, [r7, #16]
 3415 0074 BB69     		ldr	r3, [r7, #24]
 3416 0076 DA6D     		ldr	r2, [r3, #92]
 3417 0078 3B69     		ldr	r3, [r7, #16]
 3418 007a 1340     		ands	r3, r3, r2
 3419 007c 002B     		cmp	r3, #0
 3420 007e 2FD0     		beq	.L199
 3421 0080 FFF7FEFF 		bl	osalSysLock
 3422 0084 7B69     		ldr	r3, [r7, #20]
 3423 0086 9B68     		ldr	r3, [r3, #8]
 3424 0088 23F00102 		bic	r2, r3, #1
 3425 008c 7B69     		ldr	r3, [r7, #20]
 3426 008e 9A60     		str	r2, [r3, #8]
 3427 0090 BB69     		ldr	r3, [r7, #24]
 3428 0092 DA6D     		ldr	r2, [r3, #92]
 3429 0094 3B69     		ldr	r3, [r7, #16]
 3430 0096 DB43     		mvns	r3, r3
 3431 0098 1A40     		ands	r2, r2, r3
 3432 009a BB69     		ldr	r3, [r7, #24]
 3433 009c DA65     		str	r2, [r3, #92]
 3434 009e FFF7FEFF 		bl	osalSysUnlock
 3435 00a2 FB7F     		ldrb	r3, [r7, #31]	@ zero_extendqisi2
 3436 00a4 1946     		mov	r1, r3
 3437 00a6 B869     		ldr	r0, [r7, #24]
 3438 00a8 FFF7FEFF 		bl	otg_txfifo_handler
 3439 00ac 0346     		mov	r3, r0
 3440 00ae FB73     		strb	r3, [r7, #15]
 3441 00b0 FFF7FEFF 		bl	osalSysLock
 3442 00b4 7B69     		ldr	r3, [r7, #20]
 3443 00b6 9B68     		ldr	r3, [r3, #8]
 3444 00b8 43F00102 		orr	r2, r3, #1
 3445 00bc 7B69     		ldr	r3, [r7, #20]
 3446 00be 9A60     		str	r2, [r3, #8]
 3447 00c0 FB7B     		ldrb	r3, [r7, #15]
 3448 00c2 83F00103 		eor	r3, r3, #1
 3449 00c6 DBB2     		uxtb	r3, r3
 3450 00c8 002B     		cmp	r3, #0
 3451 00ca 07D0     		beq	.L200
 3452 00cc 7B69     		ldr	r3, [r7, #20]
 3453 00ce D3F83428 		ldr	r2, [r3, #2100]
 3454 00d2 3B69     		ldr	r3, [r7, #16]
 3455 00d4 1A43     		orrs	r2, r2, r3
 3456 00d6 7B69     		ldr	r3, [r7, #20]
 3457 00d8 C3F83428 		str	r2, [r3, #2100]
 3458              	.L200:
 3459 00dc FFF7FEFF 		bl	osalSysUnlock
 3460              	.L199:
 3461 00e0 FB7F     		ldrb	r3, [r7, #31]	@ zero_extendqisi2
 3462 00e2 0133     		adds	r3, r3, #1
 3463 00e4 FB77     		strb	r3, [r7, #31]
 3464              	.L196:
 3465 00e6 FA7F     		ldrb	r2, [r7, #31]	@ zero_extendqisi2
ARM GAS  /var/folders/d2/nstgp4h54kz7g1l847x_b8wc0000gn/T//ccvTRJsx.s 			page 62


 3466 00e8 BB69     		ldr	r3, [r7, #24]
 3467 00ea 5B6D     		ldr	r3, [r3, #84]
 3468 00ec 9B68     		ldr	r3, [r3, #8]
 3469 00ee 9A42     		cmp	r2, r3
 3470 00f0 B5D9     		bls	.L197
 3471 00f2 FFF7FEFF 		bl	osalSysLock
 3472 00f6 91E7     		b	.L202
 3473              	.L204:
 3474              		.align	2
 3475              	.L203:
 3476 00f8 00000000 		.word	.LC0
 3477              		.size	usb_lld_pump, .-usb_lld_pump
 3478              		.section	.rodata.__func__.10294,"a",%progbits
 3479              		.align	2
 3480              		.type	__func__.10294, %object
 3481              		.size	__func__.10294, 14
 3482              	__func__.10294:
 3483 0000 6F74675F 		.ascii	"otg_ram_alloc\000"
 3483      72616D5F 
 3483      616C6C6F 
 3483      6300
 3484              		.section	.rodata.__func__.7554,"a",%progbits
 3485              		.align	2
 3486              		.type	__func__.7554, %object
 3487              		.size	__func__.7554, 12
 3488              	__func__.7554:
 3489 0000 63685379 		.ascii	"chSysUnlock\000"
 3489      73556E6C 
 3489      6F636B00 
 3490              		.section	.rodata.__func__.7721,"a",%progbits
 3491              		.align	2
 3492              		.type	__func__.7721, %object
 3493              		.size	__func__.7721, 12
 3494              	__func__.7721:
 3495 0000 63685468 		.ascii	"chThdStartI\000"
 3495      64537461 
 3495      72744900 
 3496              		.ident	"GCC: (GNU Tools for Arm Embedded Processors 7-2017-q4-major) 7.2.1 20170904 (release) [ARM
ARM GAS  /var/folders/d2/nstgp4h54kz7g1l847x_b8wc0000gn/T//ccvTRJsx.s 			page 63

