ARM GAS  /var/folders/d2/nstgp4h54kz7g1l847x_b8wc0000gn/T//ccULTsvw.s 			page 1


   1              		.cpu cortex-m4
   2              		.eabi_attribute 27, 1
   3              		.eabi_attribute 28, 1
   4              		.eabi_attribute 20, 1
   5              		.eabi_attribute 21, 1
   6              		.eabi_attribute 23, 3
   7              		.eabi_attribute 24, 1
   8              		.eabi_attribute 25, 1
   9              		.eabi_attribute 26, 1
  10              		.eabi_attribute 30, 2
  11              		.eabi_attribute 34, 1
  12              		.eabi_attribute 18, 4
  13              		.file	"usbcfg.c"
  14              		.text
  15              	.Ltext0:
  16              		.cfi_sections	.debug_frame
  17              		.section	.text.get_descriptor,"ax",%progbits
  18              		.align	1
  19              		.p2align 4,,15
  20              		.syntax unified
  21              		.thumb
  22              		.thumb_func
  23              		.fpu fpv4-sp-d16
  24              		.type	get_descriptor, %function
  25              	get_descriptor:
  26              	.LFB256:
  27              		.file 1 "../e-puck2_main-processor/src/usbcfg.c"
  28              		.loc 1 199 0
  29              		.cfi_startproc
  30              		@ args = 0, pretend = 0, frame = 8
  31              		@ frame_needed = 0, uses_anonymous_args = 0
  32              	.LVL0:
  33 0000 00B5     		push	{lr}
  34              		.cfi_def_cfa_offset 4
  35              		.cfi_offset 14, -4
  36 0002 0F4B     		ldr	r3, .L12
  37              	.LVL1:
  38 0004 83B0     		sub	sp, sp, #12
  39              		.cfi_def_cfa_offset 16
  40              		.loc 1 199 0
  41 0006 1868     		ldr	r0, [r3]
  42              	.LVL2:
  43 0008 0190     		str	r0, [sp, #4]
  44              		.loc 1 203 0
  45 000a 0229     		cmp	r1, #2
  46 000c 0CD0     		beq	.L3
  47 000e 0329     		cmp	r1, #3
  48 0010 0CD0     		beq	.L4
  49 0012 0129     		cmp	r1, #1
  50              		.loc 1 215 0
  51 0014 0B48     		ldr	r0, .L12+4
  52 0016 18BF     		it	ne
  53 0018 0020     		movne	r0, #0
  54              	.L1:
  55              		.loc 1 216 0
  56 001a 019A     		ldr	r2, [sp, #4]
  57              	.LVL3:
ARM GAS  /var/folders/d2/nstgp4h54kz7g1l847x_b8wc0000gn/T//ccULTsvw.s 			page 2


  58 001c 1B68     		ldr	r3, [r3]
  59 001e 9A42     		cmp	r2, r3
  60 0020 0BD1     		bne	.L11
  61 0022 03B0     		add	sp, sp, #12
  62              		.cfi_remember_state
  63              		.cfi_def_cfa_offset 4
  64              		@ sp needed
  65 0024 5DF804FB 		ldr	pc, [sp], #4
  66              	.LVL4:
  67              	.L3:
  68              		.cfi_restore_state
  69              		.loc 1 208 0
  70 0028 0748     		ldr	r0, .L12+8
  71 002a F6E7     		b	.L1
  72              	.L4:
  73              		.loc 1 211 0
  74 002c 032A     		cmp	r2, #3
  75              		.loc 1 212 0
  76 002e 96BF     		itet	ls
  77 0030 0648     		ldrls	r0, .L12+12
  78              		.loc 1 215 0
  79 0032 0020     		movhi	r0, #0
  80              		.loc 1 212 0
  81 0034 00EBC200 		addls	r0, r0, r2, lsl #3
  82 0038 EFE7     		b	.L1
  83              	.LVL5:
  84              	.L11:
  85              		.loc 1 216 0
  86 003a FFF7FEFF 		bl	__stack_chk_fail
  87              	.LVL6:
  88              	.L13:
  89 003e 00BF     		.align	2
  90              	.L12:
  91 0040 00000000 		.word	__stack_chk_guard
  92 0044 00000000 		.word	.LANCHOR0
  93 0048 00000000 		.word	.LANCHOR1
  94 004c 00000000 		.word	.LANCHOR2
  95              		.cfi_endproc
  96              	.LFE256:
  97              		.size	get_descriptor, .-get_descriptor
  98              		.section	.text.usb_event,"ax",%progbits
  99              		.align	1
 100              		.p2align 4,,15
 101              		.syntax unified
 102              		.thumb
 103              		.thumb_func
 104              		.fpu fpv4-sp-d16
 105              		.type	usb_event, %function
 106              	usb_event:
 107              	.LFB257:
 108              		.loc 1 269 0
 109              		.cfi_startproc
 110              		@ args = 0, pretend = 0, frame = 8
 111              		@ frame_needed = 0, uses_anonymous_args = 0
 112              	.LVL7:
 113 0000 70B5     		push	{r4, r5, r6, lr}
 114              		.cfi_def_cfa_offset 16
ARM GAS  /var/folders/d2/nstgp4h54kz7g1l847x_b8wc0000gn/T//ccULTsvw.s 			page 3


 115              		.cfi_offset 4, -16
 116              		.cfi_offset 5, -12
 117              		.cfi_offset 6, -8
 118              		.cfi_offset 14, -4
 119 0002 154C     		ldr	r4, .L20
 120 0004 82B0     		sub	sp, sp, #8
 121              		.cfi_def_cfa_offset 24
 122              		.loc 1 269 0
 123 0006 2368     		ldr	r3, [r4]
 124 0008 0193     		str	r3, [sp, #4]
 125              		.loc 1 272 0
 126 000a 0229     		cmp	r1, #2
 127 000c 1CD1     		bne	.L14
 128 000e 0D46     		mov	r5, r1
 129 0010 0646     		mov	r6, r0
 130              	.LVL8:
 131              	.LBB62:
 132              	.LBB63:
 133              	.LBB64:
 134              	.LBB65:
 135              	.LBB66:
 136              	.LBB67:
 137              	.LBB68:
 138              	.LBB69:
 139              		.file 2 "../e-puck2_main-processor/ChibiOS//os/ext/CMSIS/include/core_cmFunc.h"
 140              		.loc 2 546 0
 141 0012 2023     		movs	r3, #32
 142              		.syntax unified
 143              	@ 546 "../e-puck2_main-processor/ChibiOS//os/ext/CMSIS/include/core_cmFunc.h" 1
 144 0014 83F31188 		MSR basepri, r3
 145              	@ 0 "" 2
 146              	.LVL9:
 147              		.thumb
 148              		.syntax unified
 149              	.LBE69:
 150              	.LBE68:
 151              	.LBE67:
 152              	.LBE66:
 153              		.file 3 "../e-puck2_main-processor/ChibiOS//os/rt/include/chsys.h"
 154              		.loc 3 389 0
 155 0018 FFF7FEFF 		bl	_stats_start_measure_crit_isr
 156              	.LVL10:
 157              		.loc 3 390 0
 158 001c FFF7FEFF 		bl	_dbg_check_lock_from_isr
 159              	.LVL11:
 160              	.LBE65:
 161              	.LBE64:
 162              		.loc 1 285 0
 163 0020 3046     		mov	r0, r6
 164 0022 0E4A     		ldr	r2, .L20+4
 165 0024 0121     		movs	r1, #1
 166 0026 FFF7FEFF 		bl	usbInitEndpointI
 167              	.LVL12:
 168              		.loc 1 286 0
 169 002a 2946     		mov	r1, r5
 170 002c 0C4A     		ldr	r2, .L20+8
 171 002e 3046     		mov	r0, r6
ARM GAS  /var/folders/d2/nstgp4h54kz7g1l847x_b8wc0000gn/T//ccULTsvw.s 			page 4


 172 0030 FFF7FEFF 		bl	usbInitEndpointI
 173              	.LVL13:
 174              		.loc 1 289 0
 175 0034 0B48     		ldr	r0, .L20+12
 176 0036 FFF7FEFF 		bl	sduConfigureHookI
 177              	.LVL14:
 178              	.LBB70:
 179              	.LBB71:
 180              		.loc 3 408 0
 181 003a FFF7FEFF 		bl	_dbg_check_unlock_from_isr
 182              	.LVL15:
 183              		.loc 3 409 0
 184 003e FFF7FEFF 		bl	_stats_stop_measure_crit_isr
 185              	.LVL16:
 186              	.LBB72:
 187              	.LBB73:
 188              	.LBB74:
 189              	.LBB75:
 190              		.loc 2 546 0
 191 0042 0023     		movs	r3, #0
 192              		.syntax unified
 193              	@ 546 "../e-puck2_main-processor/ChibiOS//os/ext/CMSIS/include/core_cmFunc.h" 1
 194 0044 83F31188 		MSR basepri, r3
 195              	@ 0 "" 2
 196              	.LVL17:
 197              		.thumb
 198              		.syntax unified
 199              	.L14:
 200              	.LBE75:
 201              	.LBE74:
 202              	.LBE73:
 203              	.LBE72:
 204              	.LBE71:
 205              	.LBE70:
 206              	.LBE63:
 207              	.LBE62:
 208              		.loc 1 304 0
 209 0048 019A     		ldr	r2, [sp, #4]
 210 004a 2368     		ldr	r3, [r4]
 211 004c 9A42     		cmp	r2, r3
 212 004e 01D1     		bne	.L19
 213 0050 02B0     		add	sp, sp, #8
 214              		.cfi_remember_state
 215              		.cfi_def_cfa_offset 16
 216              		@ sp needed
 217 0052 70BD     		pop	{r4, r5, r6, pc}
 218              	.L19:
 219              		.cfi_restore_state
 220 0054 FFF7FEFF 		bl	__stack_chk_fail
 221              	.LVL18:
 222              	.L21:
 223              		.align	2
 224              	.L20:
 225 0058 00000000 		.word	__stack_chk_guard
 226 005c 00000000 		.word	.LANCHOR3
 227 0060 00000000 		.word	.LANCHOR4
 228 0064 00000000 		.word	.LANCHOR5
ARM GAS  /var/folders/d2/nstgp4h54kz7g1l847x_b8wc0000gn/T//ccULTsvw.s 			page 5


 229              		.cfi_endproc
 230              	.LFE257:
 231              		.size	usb_event, .-usb_event
 232              		.section	.text.usb_start,"ax",%progbits
 233              		.align	1
 234              		.p2align 4,,15
 235              		.global	usb_start
 236              		.syntax unified
 237              		.thumb
 238              		.thumb_func
 239              		.fpu fpv4-sp-d16
 240              		.type	usb_start, %function
 241              	usb_start:
 242              	.LFB258:
 243              		.loc 1 327 0
 244              		.cfi_startproc
 245              		@ args = 0, pretend = 0, frame = 8
 246              		@ frame_needed = 0, uses_anonymous_args = 0
 247 0000 30B5     		push	{r4, r5, lr}
 248              		.cfi_def_cfa_offset 12
 249              		.cfi_offset 4, -12
 250              		.cfi_offset 5, -8
 251              		.cfi_offset 14, -4
 252 0002 134D     		ldr	r5, .L26
 253              		.loc 1 336 0
 254 0004 134C     		ldr	r4, .L26+4
 255              		.loc 1 327 0
 256 0006 2B68     		ldr	r3, [r5]
 257              		.loc 1 328 0
 258 0008 1348     		ldr	r0, .L26+8
 259              		.loc 1 327 0
 260 000a 83B0     		sub	sp, sp, #12
 261              		.cfi_def_cfa_offset 24
 262              		.loc 1 327 0
 263 000c 0193     		str	r3, [sp, #4]
 264              		.loc 1 328 0
 265 000e FFF7FEFF 		bl	sduObjectInit
 266              	.LVL19:
 267              		.loc 1 329 0
 268 0012 1249     		ldr	r1, .L26+12
 269 0014 1048     		ldr	r0, .L26+8
 270 0016 FFF7FEFF 		bl	sduStart
 271              	.LVL20:
 272              		.loc 1 336 0
 273 001a 226D     		ldr	r2, [r4, #80]
 274 001c 936B     		ldr	r3, [r2, #56]
 275 001e 23F40023 		bic	r3, r3, #524288
 276 0022 9363     		str	r3, [r2, #56]
 277              		.loc 1 337 0
 278 0024 4FF47A70 		mov	r0, #1000
 279 0028 FFF7FEFF 		bl	chThdSleep
 280              	.LVL21:
 281              		.loc 1 338 0
 282 002c 2046     		mov	r0, r4
 283 002e 0C49     		ldr	r1, .L26+16
 284 0030 FFF7FEFF 		bl	usbStart
 285              	.LVL22:
ARM GAS  /var/folders/d2/nstgp4h54kz7g1l847x_b8wc0000gn/T//ccULTsvw.s 			page 6


 286              		.loc 1 339 0
 287 0034 226D     		ldr	r2, [r4, #80]
 288 0036 936B     		ldr	r3, [r2, #56]
 289 0038 43F40023 		orr	r3, r3, #524288
 290 003c 9363     		str	r3, [r2, #56]
 291              		.loc 1 341 0
 292 003e 019A     		ldr	r2, [sp, #4]
 293 0040 2B68     		ldr	r3, [r5]
 294 0042 9A42     		cmp	r2, r3
 295 0044 01D1     		bne	.L25
 296 0046 03B0     		add	sp, sp, #12
 297              		.cfi_remember_state
 298              		.cfi_def_cfa_offset 12
 299              		@ sp needed
 300 0048 30BD     		pop	{r4, r5, pc}
 301              	.L25:
 302              		.cfi_restore_state
 303 004a FFF7FEFF 		bl	__stack_chk_fail
 304              	.LVL23:
 305              	.L27:
 306 004e 00BF     		.align	2
 307              	.L26:
 308 0050 00000000 		.word	__stack_chk_guard
 309 0054 00000000 		.word	USBD1
 310 0058 00000000 		.word	.LANCHOR5
 311 005c 00000000 		.word	.LANCHOR6
 312 0060 00000000 		.word	.LANCHOR7
 313              		.cfi_endproc
 314              	.LFE258:
 315              		.size	usb_start, .-usb_start
 316              		.global	serusbcfg
 317              		.global	usbcfg
 318              		.global	SDU1
 319              		.section	.bss.SDU1,"aw",%nobits
 320              		.align	2
 321              		.set	.LANCHOR5,. + 0
 322              		.type	SDU1, %object
 323              		.size	SDU1, 600
 324              	SDU1:
 325 0000 00000000 		.space	600
 325      00000000 
 325      00000000 
 325      00000000 
 325      00000000 
 326              		.section	.bss.ep1instate,"aw",%nobits
 327              		.align	2
 328              		.type	ep1instate, %object
 329              		.size	ep1instate, 20
 330              	ep1instate:
 331 0000 00000000 		.space	20
 331      00000000 
 331      00000000 
 331      00000000 
 331      00000000 
 332              		.section	.bss.ep1outstate,"aw",%nobits
 333              		.align	2
 334              		.type	ep1outstate, %object
ARM GAS  /var/folders/d2/nstgp4h54kz7g1l847x_b8wc0000gn/T//ccULTsvw.s 			page 7


 335              		.size	ep1outstate, 20
 336              	ep1outstate:
 337 0000 00000000 		.space	20
 337      00000000 
 337      00000000 
 337      00000000 
 337      00000000 
 338              		.section	.bss.ep2instate,"aw",%nobits
 339              		.align	2
 340              		.type	ep2instate, %object
 341              		.size	ep2instate, 20
 342              	ep2instate:
 343 0000 00000000 		.space	20
 343      00000000 
 343      00000000 
 343      00000000 
 343      00000000 
 344              		.section	.rodata.ep1config,"a",%progbits
 345              		.align	2
 346              		.set	.LANCHOR3,. + 0
 347              		.type	ep1config, %object
 348              		.size	ep1config, 36
 349              	ep1config:
 350 0000 02000000 		.word	2
 351 0004 00000000 		.word	0
 352 0008 00000000 		.word	sduDataTransmitted
 353 000c 00000000 		.word	sduDataReceived
 354 0010 4000     		.short	64
 355 0012 4000     		.short	64
 356 0014 00000000 		.word	ep1instate
 357 0018 00000000 		.word	ep1outstate
 358 001c 0200     		.short	2
 359 001e 0000     		.space	2
 360 0020 00000000 		.word	0
 361              		.section	.rodata.ep2config,"a",%progbits
 362              		.align	2
 363              		.set	.LANCHOR4,. + 0
 364              		.type	ep2config, %object
 365              		.size	ep2config, 36
 366              	ep2config:
 367 0000 03000000 		.word	3
 368 0004 00000000 		.word	0
 369 0008 00000000 		.word	sduInterruptTransmitted
 370 000c 00000000 		.word	0
 371 0010 1000     		.short	16
 372 0012 0000     		.short	0
 373 0014 00000000 		.word	ep2instate
 374 0018 00000000 		.word	0
 375 001c 0100     		.short	1
 376 001e 0000     		.space	2
 377 0020 00000000 		.word	0
 378              		.section	.rodata.serusbcfg,"a",%progbits
 379              		.align	2
 380              		.set	.LANCHOR6,. + 0
 381              		.type	serusbcfg, %object
 382              		.size	serusbcfg, 8
 383              	serusbcfg:
ARM GAS  /var/folders/d2/nstgp4h54kz7g1l847x_b8wc0000gn/T//ccULTsvw.s 			page 8


 384 0000 00000000 		.word	USBD1
 385 0004 01       		.byte	1
 386 0005 01       		.byte	1
 387 0006 02       		.byte	2
 388 0007 00       		.space	1
 389              		.section	.rodata.usbcfg,"a",%progbits
 390              		.align	2
 391              		.set	.LANCHOR7,. + 0
 392              		.type	usbcfg, %object
 393              		.size	usbcfg, 16
 394              	usbcfg:
 395 0000 00000000 		.word	usb_event
 396 0004 00000000 		.word	get_descriptor
 397 0008 00000000 		.word	sduRequestsHook
 398 000c 00000000 		.word	0
 399              		.section	.rodata.vcom_configuration_descriptor,"a",%progbits
 400              		.align	2
 401              		.set	.LANCHOR1,. + 0
 402              		.type	vcom_configuration_descriptor, %object
 403              		.size	vcom_configuration_descriptor, 8
 404              	vcom_configuration_descriptor:
 405 0000 43000000 		.word	67
 406 0004 00000000 		.word	vcom_configuration_descriptor_data
 407              		.section	.rodata.vcom_configuration_descriptor_data,"a",%progbits
 408              		.align	2
 409              		.type	vcom_configuration_descriptor_data, %object
 410              		.size	vcom_configuration_descriptor_data, 67
 411              	vcom_configuration_descriptor_data:
 412 0000 09       		.byte	9
 413 0001 02       		.byte	2
 414 0002 43       		.byte	67
 415 0003 00       		.byte	0
 416 0004 02       		.byte	2
 417 0005 01       		.byte	1
 418 0006 00       		.byte	0
 419 0007 C0       		.byte	-64
 420 0008 32       		.byte	50
 421 0009 09       		.byte	9
 422 000a 04       		.byte	4
 423 000b 00       		.byte	0
 424 000c 00       		.byte	0
 425 000d 01       		.byte	1
 426 000e 02       		.byte	2
 427 000f 02       		.byte	2
 428 0010 01       		.byte	1
 429 0011 00       		.byte	0
 430 0012 05       		.byte	5
 431 0013 24       		.byte	36
 432 0014 00       		.byte	0
 433 0015 10       		.byte	16
 434 0016 01       		.byte	1
 435 0017 05       		.byte	5
 436 0018 24       		.byte	36
 437 0019 01       		.byte	1
 438 001a 00       		.byte	0
 439 001b 01       		.byte	1
 440 001c 04       		.byte	4
ARM GAS  /var/folders/d2/nstgp4h54kz7g1l847x_b8wc0000gn/T//ccULTsvw.s 			page 9


 441 001d 24       		.byte	36
 442 001e 02       		.byte	2
 443 001f 02       		.byte	2
 444 0020 05       		.byte	5
 445 0021 24       		.byte	36
 446 0022 06       		.byte	6
 447 0023 00       		.byte	0
 448 0024 01       		.byte	1
 449 0025 07       		.byte	7
 450 0026 05       		.byte	5
 451 0027 82       		.byte	-126
 452 0028 03       		.byte	3
 453 0029 08       		.byte	8
 454 002a 00       		.byte	0
 455 002b FF       		.byte	-1
 456 002c 09       		.byte	9
 457 002d 04       		.byte	4
 458 002e 01       		.byte	1
 459 002f 00       		.byte	0
 460 0030 02       		.byte	2
 461 0031 0A       		.byte	10
 462 0032 00       		.byte	0
 463 0033 00       		.byte	0
 464 0034 00       		.byte	0
 465 0035 07       		.byte	7
 466 0036 05       		.byte	5
 467 0037 01       		.byte	1
 468 0038 02       		.byte	2
 469 0039 40       		.byte	64
 470 003a 00       		.byte	0
 471 003b 00       		.byte	0
 472 003c 07       		.byte	7
 473 003d 05       		.byte	5
 474 003e 81       		.byte	-127
 475 003f 02       		.byte	2
 476 0040 40       		.byte	64
 477 0041 00       		.byte	0
 478 0042 00       		.byte	0
 479              		.section	.rodata.vcom_device_descriptor,"a",%progbits
 480              		.align	2
 481              		.set	.LANCHOR0,. + 0
 482              		.type	vcom_device_descriptor, %object
 483              		.size	vcom_device_descriptor, 8
 484              	vcom_device_descriptor:
 485 0000 12000000 		.word	18
 486 0004 00000000 		.word	vcom_device_descriptor_data
 487              		.section	.rodata.vcom_device_descriptor_data,"a",%progbits
 488              		.align	2
 489              		.type	vcom_device_descriptor_data, %object
 490              		.size	vcom_device_descriptor_data, 18
 491              	vcom_device_descriptor_data:
 492 0000 12       		.byte	18
 493 0001 01       		.byte	1
 494 0002 10       		.byte	16
 495 0003 01       		.byte	1
 496 0004 02       		.byte	2
 497 0005 00       		.byte	0
ARM GAS  /var/folders/d2/nstgp4h54kz7g1l847x_b8wc0000gn/T//ccULTsvw.s 			page 10


 498 0006 00       		.byte	0
 499 0007 40       		.byte	64
 500 0008 83       		.byte	-125
 501 0009 04       		.byte	4
 502 000a 40       		.byte	64
 503 000b 57       		.byte	87
 504 000c 00       		.byte	0
 505 000d 02       		.byte	2
 506 000e 01       		.byte	1
 507 000f 02       		.byte	2
 508 0010 03       		.byte	3
 509 0011 01       		.byte	1
 510              		.section	.rodata.vcom_string0,"a",%progbits
 511              		.align	2
 512              		.type	vcom_string0, %object
 513              		.size	vcom_string0, 4
 514              	vcom_string0:
 515 0000 04       		.byte	4
 516 0001 03       		.byte	3
 517 0002 09       		.byte	9
 518 0003 04       		.byte	4
 519              		.section	.rodata.vcom_string1,"a",%progbits
 520              		.align	2
 521              		.type	vcom_string1, %object
 522              		.size	vcom_string1, 38
 523              	vcom_string1:
 524 0000 26       		.byte	38
 525 0001 03       		.byte	3
 526 0002 53       		.byte	83
 527 0003 00       		.byte	0
 528 0004 54       		.byte	84
 529 0005 00       		.byte	0
 530 0006 4D       		.byte	77
 531 0007 00       		.byte	0
 532 0008 69       		.byte	105
 533 0009 00       		.byte	0
 534 000a 63       		.byte	99
 535 000b 00       		.byte	0
 536 000c 72       		.byte	114
 537 000d 00       		.byte	0
 538 000e 6F       		.byte	111
 539 000f 00       		.byte	0
 540 0010 65       		.byte	101
 541 0011 00       		.byte	0
 542 0012 6C       		.byte	108
 543 0013 00       		.byte	0
 544 0014 65       		.byte	101
 545 0015 00       		.byte	0
 546 0016 63       		.byte	99
 547 0017 00       		.byte	0
 548 0018 74       		.byte	116
 549 0019 00       		.byte	0
 550 001a 72       		.byte	114
 551 001b 00       		.byte	0
 552 001c 6F       		.byte	111
 553 001d 00       		.byte	0
 554 001e 6E       		.byte	110
ARM GAS  /var/folders/d2/nstgp4h54kz7g1l847x_b8wc0000gn/T//ccULTsvw.s 			page 11


 555 001f 00       		.byte	0
 556 0020 69       		.byte	105
 557 0021 00       		.byte	0
 558 0022 63       		.byte	99
 559 0023 00       		.byte	0
 560 0024 73       		.byte	115
 561 0025 00       		.byte	0
 562              		.section	.rodata.vcom_string2,"a",%progbits
 563              		.align	2
 564              		.type	vcom_string2, %object
 565              		.size	vcom_string2, 36
 566              	vcom_string2:
 567 0000 24       		.byte	36
 568 0001 03       		.byte	3
 569 0002 65       		.byte	101
 570 0003 00       		.byte	0
 571 0004 2D       		.byte	45
 572 0005 00       		.byte	0
 573 0006 70       		.byte	112
 574 0007 00       		.byte	0
 575 0008 75       		.byte	117
 576 0009 00       		.byte	0
 577 000a 63       		.byte	99
 578 000b 00       		.byte	0
 579 000c 6B       		.byte	107
 580 000d 00       		.byte	0
 581 000e 32       		.byte	50
 582 000f 00       		.byte	0
 583 0010 20       		.byte	32
 584 0011 00       		.byte	0
 585 0012 53       		.byte	83
 586 0013 00       		.byte	0
 587 0014 54       		.byte	84
 588 0015 00       		.byte	0
 589 0016 4D       		.byte	77
 590 0017 00       		.byte	0
 591 0018 33       		.byte	51
 592 0019 00       		.byte	0
 593 001a 32       		.byte	50
 594 001b 00       		.byte	0
 595 001c 46       		.byte	70
 596 001d 00       		.byte	0
 597 001e 34       		.byte	52
 598 001f 00       		.byte	0
 599 0020 30       		.byte	48
 600 0021 00       		.byte	0
 601 0022 37       		.byte	55
 602 0023 00       		.byte	0
 603              		.section	.rodata.vcom_string3,"a",%progbits
 604              		.align	2
 605              		.type	vcom_string3, %object
 606              		.size	vcom_string3, 8
 607              	vcom_string3:
 608 0000 08       		.byte	8
 609 0001 03       		.byte	3
 610 0002 33       		.byte	51
 611 0003 00       		.byte	0
ARM GAS  /var/folders/d2/nstgp4h54kz7g1l847x_b8wc0000gn/T//ccULTsvw.s 			page 12


 612 0004 30       		.byte	48
 613 0005 00       		.byte	0
 614 0006 31       		.byte	49
 615 0007 00       		.byte	0
 616              		.section	.rodata.vcom_strings,"a",%progbits
 617              		.align	2
 618              		.set	.LANCHOR2,. + 0
 619              		.type	vcom_strings, %object
 620              		.size	vcom_strings, 32
 621              	vcom_strings:
 622 0000 04000000 		.word	4
 623 0004 00000000 		.word	vcom_string0
 624 0008 26000000 		.word	38
 625 000c 00000000 		.word	vcom_string1
 626 0010 24000000 		.word	36
 627 0014 00000000 		.word	vcom_string2
 628 0018 08000000 		.word	8
 629 001c 00000000 		.word	vcom_string3
 630              		.text
 631              	.Letext0:
 632              		.file 4 "/Applications/Eclipse_e-puck2.app/Contents/Eclipse_e-puck2/Tools/gcc-arm-none-eabi-7-2017
 633              		.file 5 "/Applications/Eclipse_e-puck2.app/Contents/Eclipse_e-puck2/Tools/gcc-arm-none-eabi-7-2017
 634              		.file 6 "/Applications/Eclipse_e-puck2.app/Contents/Eclipse_e-puck2/Tools/gcc-arm-none-eabi-7-2017
 635              		.file 7 "../e-puck2_main-processor/ChibiOS//os/rt/ports/ARMCMx/compilers/GCC/chtypes.h"
 636              		.file 8 "../e-puck2_main-processor/ChibiOS//os/rt/include/chsystypes.h"
 637              		.file 9 "../e-puck2_main-processor/ChibiOS//os/rt/include/chschd.h"
 638              		.file 10 "../e-puck2_main-processor/ChibiOS//os/ext/CMSIS/include/core_cm4.h"
 639              		.file 11 "../e-puck2_main-processor/ChibiOS//os/ext/CMSIS/ST/system_stm32f4xx.h"
 640              		.file 12 "../e-puck2_main-processor/ChibiOS//os/ext/CMSIS/ST/stm32f407xx.h"
 641              		.file 13 "../e-puck2_main-processor/ChibiOS//os/rt/ports/ARMCMx/chcore.h"
 642              		.file 14 "../e-puck2_main-processor/ChibiOS//os/rt/ports/ARMCMx/chcore_v7m.h"
 643              		.file 15 "../e-puck2_main-processor/ChibiOS//os/rt/include/chdebug.h"
 644              		.file 16 "../e-puck2_main-processor/ChibiOS//os/rt/include/chtm.h"
 645              		.file 17 "../e-puck2_main-processor/ChibiOS//os/rt/include/chstats.h"
 646              		.file 18 "../e-puck2_main-processor/ChibiOS//os/rt/include/chsem.h"
 647              		.file 19 "../e-puck2_main-processor/ChibiOS//os/rt/include/chmtx.h"
 648              		.file 20 "../e-puck2_main-processor/ChibiOS//os/rt/include/chregistry.h"
 649              		.file 21 "../e-puck2_main-processor/ChibiOS//os/rt/include/chevents.h"
 650              		.file 22 "../e-puck2_main-processor/ChibiOS//os/rt/include/chqueues.h"
 651              		.file 23 "../e-puck2_main-processor/ChibiOS//os/hal/ports/STM32/STM32F4xx/stm32_dma.h"
 652              		.file 24 "../e-puck2_main-processor/ChibiOS//os/hal/include/hal_ioblock.h"
 653              		.file 25 "../e-puck2_main-processor/ChibiOS//os/hal/ports/STM32/LLD/GPIOv2/pal_lld.h"
 654              		.file 26 "../e-puck2_main-processor/ChibiOS//os/hal/include/adc.h"
 655              		.file 27 "../e-puck2_main-processor/ChibiOS//os/hal/ports/STM32/STM32F4xx/adc_lld.h"
 656              		.file 28 "../e-puck2_main-processor/ChibiOS//os/hal/include/can.h"
 657              		.file 29 "../e-puck2_main-processor/ChibiOS//os/hal/ports/STM32/LLD/can_lld.h"
 658              		.file 30 "../e-puck2_main-processor/ChibiOS//os/hal/include/dac.h"
 659              		.file 31 "../e-puck2_main-processor/ChibiOS//os/hal/ports/STM32/LLD/DACv1/dac_lld.h"
 660              		.file 32 "../e-puck2_main-processor/ChibiOS//os/hal/include/ext.h"
 661              		.file 33 "../e-puck2_main-processor/ChibiOS//os/hal/ports/STM32/LLD/ext_lld.h"
 662              		.file 34 "../e-puck2_main-processor/ChibiOS//os/hal/include/gpt.h"
 663              		.file 35 "../e-puck2_main-processor/ChibiOS//os/hal/ports/STM32/LLD/TIMv1/gpt_lld.h"
 664              		.file 36 "../e-puck2_main-processor/ChibiOS//os/hal/ports/STM32/LLD/TIMv1/stm32_tim.h"
 665              		.file 37 "../e-puck2_main-processor/ChibiOS//os/hal/include/i2c.h"
 666              		.file 38 "../e-puck2_main-processor/ChibiOS//os/hal/ports/STM32/LLD/I2Cv1/i2c_lld.h"
 667              		.file 39 "../e-puck2_main-processor/ChibiOS//os/hal/include/i2s.h"
 668              		.file 40 "../e-puck2_main-processor/ChibiOS//os/hal/ports/STM32/LLD/SPIv1/i2s_lld.h"
ARM GAS  /var/folders/d2/nstgp4h54kz7g1l847x_b8wc0000gn/T//ccULTsvw.s 			page 13


 669              		.file 41 "../e-puck2_main-processor/ChibiOS//os/hal/include/pwm.h"
 670              		.file 42 "../e-puck2_main-processor/ChibiOS//os/hal/ports/STM32/LLD/TIMv1/pwm_lld.h"
 671              		.file 43 "../e-puck2_main-processor/ChibiOS//os/hal/include/serial.h"
 672              		.file 44 "../e-puck2_main-processor/ChibiOS//os/hal/ports/STM32/LLD/USARTv1/serial_lld.h"
 673              		.file 45 "../e-puck2_main-processor/ChibiOS//os/hal/include/sdc.h"
 674              		.file 46 "../e-puck2_main-processor/ChibiOS//os/hal/ports/STM32/LLD/sdc_lld.h"
 675              		.file 47 "../e-puck2_main-processor/ChibiOS//os/hal/include/spi.h"
 676              		.file 48 "../e-puck2_main-processor/ChibiOS//os/hal/ports/STM32/LLD/SPIv1/spi_lld.h"
 677              		.file 49 "../e-puck2_main-processor/ChibiOS//os/hal/include/usb.h"
 678              		.file 50 "../e-puck2_main-processor/ChibiOS//os/hal/ports/STM32/LLD/OTGv1/usb_lld.h"
 679              		.file 51 "../e-puck2_main-processor/ChibiOS//os/hal/ports/STM32/LLD/OTGv1/stm32_otg.h"
 680              		.file 52 "../e-puck2_main-processor/ChibiOS//os/hal/include/serial_usb.h"
 681              		.file 53 "../e-puck2_main-processor/ChibiOS//os/rt/include/chthreads.h"