ARM GAS  /var/folders/d2/nstgp4h54kz7g1l847x_b8wc0000gn/T//ccYOrd8F.s 			page 1


   1              		.cpu cortex-m4
   2              		.eabi_attribute 27, 1
   3              		.eabi_attribute 28, 1
   4              		.eabi_attribute 20, 1
   5              		.eabi_attribute 21, 1
   6              		.eabi_attribute 23, 3
   7              		.eabi_attribute 24, 1
   8              		.eabi_attribute 25, 1
   9              		.eabi_attribute 26, 1
  10              		.eabi_attribute 30, 6
  11              		.eabi_attribute 34, 1
  12              		.eabi_attribute 18, 4
  13              		.file	"usbcfg.c"
  14              		.section	.text.port_lock,"ax",%progbits
  15              		.align	1
  16              		.syntax unified
  17              		.thumb
  18              		.thumb_func
  19              		.fpu fpv4-sp-d16
  20              		.type	port_lock, %function
  21              	port_lock:
  22              		@ args = 0, pretend = 0, frame = 8
  23              		@ frame_needed = 1, uses_anonymous_args = 0
  24              		@ link register save eliminated.
  25 0000 80B4     		push	{r7}
  26 0002 83B0     		sub	sp, sp, #12
  27 0004 00AF     		add	r7, sp, #0
  28 0006 2023     		movs	r3, #32
  29 0008 7B60     		str	r3, [r7, #4]
  30 000a 7B68     		ldr	r3, [r7, #4]
  31              		.syntax unified
  32              	@ 546 "../e-puck2_main-processor/ChibiOS//os/ext/CMSIS/include/core_cmFunc.h" 1
  33 000c 83F31188 		MSR basepri, r3
  34              	@ 0 "" 2
  35              		.thumb
  36              		.syntax unified
  37 0010 00BF     		nop
  38 0012 0C37     		adds	r7, r7, #12
  39 0014 BD46     		mov	sp, r7
  40              		@ sp needed
  41 0016 5DF8047B 		ldr	r7, [sp], #4
  42 001a 7047     		bx	lr
  43              		.size	port_lock, .-port_lock
  44              		.section	.text.port_unlock,"ax",%progbits
  45              		.align	1
  46              		.syntax unified
  47              		.thumb
  48              		.thumb_func
  49              		.fpu fpv4-sp-d16
  50              		.type	port_unlock, %function
  51              	port_unlock:
  52              		@ args = 0, pretend = 0, frame = 8
  53              		@ frame_needed = 1, uses_anonymous_args = 0
  54              		@ link register save eliminated.
  55 0000 80B4     		push	{r7}
  56 0002 83B0     		sub	sp, sp, #12
  57 0004 00AF     		add	r7, sp, #0
ARM GAS  /var/folders/d2/nstgp4h54kz7g1l847x_b8wc0000gn/T//ccYOrd8F.s 			page 2


  58 0006 0023     		movs	r3, #0
  59 0008 7B60     		str	r3, [r7, #4]
  60 000a 7B68     		ldr	r3, [r7, #4]
  61              		.syntax unified
  62              	@ 546 "../e-puck2_main-processor/ChibiOS//os/ext/CMSIS/include/core_cmFunc.h" 1
  63 000c 83F31188 		MSR basepri, r3
  64              	@ 0 "" 2
  65              		.thumb
  66              		.syntax unified
  67 0010 00BF     		nop
  68 0012 0C37     		adds	r7, r7, #12
  69 0014 BD46     		mov	sp, r7
  70              		@ sp needed
  71 0016 5DF8047B 		ldr	r7, [sp], #4
  72 001a 7047     		bx	lr
  73              		.size	port_unlock, .-port_unlock
  74              		.section	.text.port_lock_from_isr,"ax",%progbits
  75              		.align	1
  76              		.syntax unified
  77              		.thumb
  78              		.thumb_func
  79              		.fpu fpv4-sp-d16
  80              		.type	port_lock_from_isr, %function
  81              	port_lock_from_isr:
  82              		@ args = 0, pretend = 0, frame = 0
  83              		@ frame_needed = 1, uses_anonymous_args = 0
  84 0000 80B5     		push	{r7, lr}
  85 0002 00AF     		add	r7, sp, #0
  86 0004 FFF7FEFF 		bl	port_lock
  87 0008 00BF     		nop
  88 000a 80BD     		pop	{r7, pc}
  89              		.size	port_lock_from_isr, .-port_lock_from_isr
  90              		.section	.text.port_unlock_from_isr,"ax",%progbits
  91              		.align	1
  92              		.syntax unified
  93              		.thumb
  94              		.thumb_func
  95              		.fpu fpv4-sp-d16
  96              		.type	port_unlock_from_isr, %function
  97              	port_unlock_from_isr:
  98              		@ args = 0, pretend = 0, frame = 0
  99              		@ frame_needed = 1, uses_anonymous_args = 0
 100 0000 80B5     		push	{r7, lr}
 101 0002 00AF     		add	r7, sp, #0
 102 0004 FFF7FEFF 		bl	port_unlock
 103 0008 00BF     		nop
 104 000a 80BD     		pop	{r7, pc}
 105              		.size	port_unlock_from_isr, .-port_unlock_from_isr
 106              		.section	.text.chSysLockFromISR,"ax",%progbits
 107              		.align	1
 108              		.syntax unified
 109              		.thumb
 110              		.thumb_func
 111              		.fpu fpv4-sp-d16
 112              		.type	chSysLockFromISR, %function
 113              	chSysLockFromISR:
 114              		@ args = 0, pretend = 0, frame = 0
ARM GAS  /var/folders/d2/nstgp4h54kz7g1l847x_b8wc0000gn/T//ccYOrd8F.s 			page 3


 115              		@ frame_needed = 1, uses_anonymous_args = 0
 116 0000 80B5     		push	{r7, lr}
 117 0002 00AF     		add	r7, sp, #0
 118 0004 FFF7FEFF 		bl	port_lock_from_isr
 119 0008 FFF7FEFF 		bl	_stats_start_measure_crit_isr
 120 000c FFF7FEFF 		bl	_dbg_check_lock_from_isr
 121 0010 00BF     		nop
 122 0012 80BD     		pop	{r7, pc}
 123              		.size	chSysLockFromISR, .-chSysLockFromISR
 124              		.section	.text.chSysUnlockFromISR,"ax",%progbits
 125              		.align	1
 126              		.syntax unified
 127              		.thumb
 128              		.thumb_func
 129              		.fpu fpv4-sp-d16
 130              		.type	chSysUnlockFromISR, %function
 131              	chSysUnlockFromISR:
 132              		@ args = 0, pretend = 0, frame = 0
 133              		@ frame_needed = 1, uses_anonymous_args = 0
 134 0000 80B5     		push	{r7, lr}
 135 0002 00AF     		add	r7, sp, #0
 136 0004 FFF7FEFF 		bl	_dbg_check_unlock_from_isr
 137 0008 FFF7FEFF 		bl	_stats_stop_measure_crit_isr
 138 000c FFF7FEFF 		bl	port_unlock_from_isr
 139 0010 00BF     		nop
 140 0012 80BD     		pop	{r7, pc}
 141              		.size	chSysUnlockFromISR, .-chSysUnlockFromISR
 142              		.global	SDU1
 143              		.section	.bss.SDU1,"aw",%nobits
 144              		.align	2
 145              		.type	SDU1, %object
 146              		.size	SDU1, 600
 147              	SDU1:
 148 0000 00000000 		.space	600
 148      00000000 
 148      00000000 
 148      00000000 
 148      00000000 
 149              		.section	.rodata.vcom_device_descriptor_data,"a",%progbits
 150              		.align	2
 151              		.type	vcom_device_descriptor_data, %object
 152              		.size	vcom_device_descriptor_data, 18
 153              	vcom_device_descriptor_data:
 154 0000 12       		.byte	18
 155 0001 01       		.byte	1
 156 0002 10       		.byte	16
 157 0003 01       		.byte	1
 158 0004 02       		.byte	2
 159 0005 00       		.byte	0
 160 0006 00       		.byte	0
 161 0007 40       		.byte	64
 162 0008 83       		.byte	-125
 163 0009 04       		.byte	4
 164 000a 40       		.byte	64
 165 000b 57       		.byte	87
 166 000c 00       		.byte	0
 167 000d 02       		.byte	2
ARM GAS  /var/folders/d2/nstgp4h54kz7g1l847x_b8wc0000gn/T//ccYOrd8F.s 			page 4


 168 000e 01       		.byte	1
 169 000f 02       		.byte	2
 170 0010 03       		.byte	3
 171 0011 01       		.byte	1
 172              		.section	.rodata.vcom_device_descriptor,"a",%progbits
 173              		.align	2
 174              		.type	vcom_device_descriptor, %object
 175              		.size	vcom_device_descriptor, 8
 176              	vcom_device_descriptor:
 177 0000 12000000 		.word	18
 178 0004 00000000 		.word	vcom_device_descriptor_data
 179              		.section	.rodata.vcom_configuration_descriptor_data,"a",%progbits
 180              		.align	2
 181              		.type	vcom_configuration_descriptor_data, %object
 182              		.size	vcom_configuration_descriptor_data, 67
 183              	vcom_configuration_descriptor_data:
 184 0000 09       		.byte	9
 185 0001 02       		.byte	2
 186 0002 43       		.byte	67
 187 0003 00       		.byte	0
 188 0004 02       		.byte	2
 189 0005 01       		.byte	1
 190 0006 00       		.byte	0
 191 0007 C0       		.byte	-64
 192 0008 32       		.byte	50
 193 0009 09       		.byte	9
 194 000a 04       		.byte	4
 195 000b 00       		.byte	0
 196 000c 00       		.byte	0
 197 000d 01       		.byte	1
 198 000e 02       		.byte	2
 199 000f 02       		.byte	2
 200 0010 01       		.byte	1
 201 0011 00       		.byte	0
 202 0012 05       		.byte	5
 203 0013 24       		.byte	36
 204 0014 00       		.byte	0
 205 0015 10       		.byte	16
 206 0016 01       		.byte	1
 207 0017 05       		.byte	5
 208 0018 24       		.byte	36
 209 0019 01       		.byte	1
 210 001a 00       		.byte	0
 211 001b 01       		.byte	1
 212 001c 04       		.byte	4
 213 001d 24       		.byte	36
 214 001e 02       		.byte	2
 215 001f 02       		.byte	2
 216 0020 05       		.byte	5
 217 0021 24       		.byte	36
 218 0022 06       		.byte	6
 219 0023 00       		.byte	0
 220 0024 01       		.byte	1
 221 0025 07       		.byte	7
 222 0026 05       		.byte	5
 223 0027 82       		.byte	-126
 224 0028 03       		.byte	3
ARM GAS  /var/folders/d2/nstgp4h54kz7g1l847x_b8wc0000gn/T//ccYOrd8F.s 			page 5


 225 0029 08       		.byte	8
 226 002a 00       		.byte	0
 227 002b FF       		.byte	-1
 228 002c 09       		.byte	9
 229 002d 04       		.byte	4
 230 002e 01       		.byte	1
 231 002f 00       		.byte	0
 232 0030 02       		.byte	2
 233 0031 0A       		.byte	10
 234 0032 00       		.byte	0
 235 0033 00       		.byte	0
 236 0034 00       		.byte	0
 237 0035 07       		.byte	7
 238 0036 05       		.byte	5
 239 0037 01       		.byte	1
 240 0038 02       		.byte	2
 241 0039 40       		.byte	64
 242 003a 00       		.byte	0
 243 003b 00       		.byte	0
 244 003c 07       		.byte	7
 245 003d 05       		.byte	5
 246 003e 81       		.byte	-127
 247 003f 02       		.byte	2
 248 0040 40       		.byte	64
 249 0041 00       		.byte	0
 250 0042 00       		.byte	0
 251              		.section	.rodata.vcom_configuration_descriptor,"a",%progbits
 252              		.align	2
 253              		.type	vcom_configuration_descriptor, %object
 254              		.size	vcom_configuration_descriptor, 8
 255              	vcom_configuration_descriptor:
 256 0000 43000000 		.word	67
 257 0004 00000000 		.word	vcom_configuration_descriptor_data
 258              		.section	.rodata.vcom_string0,"a",%progbits
 259              		.align	2
 260              		.type	vcom_string0, %object
 261              		.size	vcom_string0, 4
 262              	vcom_string0:
 263 0000 04       		.byte	4
 264 0001 03       		.byte	3
 265 0002 09       		.byte	9
 266 0003 04       		.byte	4
 267              		.section	.rodata.vcom_string1,"a",%progbits
 268              		.align	2
 269              		.type	vcom_string1, %object
 270              		.size	vcom_string1, 38
 271              	vcom_string1:
 272 0000 26       		.byte	38
 273 0001 03       		.byte	3
 274 0002 53       		.byte	83
 275 0003 00       		.byte	0
 276 0004 54       		.byte	84
 277 0005 00       		.byte	0
 278 0006 4D       		.byte	77
 279 0007 00       		.byte	0
 280 0008 69       		.byte	105
 281 0009 00       		.byte	0
ARM GAS  /var/folders/d2/nstgp4h54kz7g1l847x_b8wc0000gn/T//ccYOrd8F.s 			page 6


 282 000a 63       		.byte	99
 283 000b 00       		.byte	0
 284 000c 72       		.byte	114
 285 000d 00       		.byte	0
 286 000e 6F       		.byte	111
 287 000f 00       		.byte	0
 288 0010 65       		.byte	101
 289 0011 00       		.byte	0
 290 0012 6C       		.byte	108
 291 0013 00       		.byte	0
 292 0014 65       		.byte	101
 293 0015 00       		.byte	0
 294 0016 63       		.byte	99
 295 0017 00       		.byte	0
 296 0018 74       		.byte	116
 297 0019 00       		.byte	0
 298 001a 72       		.byte	114
 299 001b 00       		.byte	0
 300 001c 6F       		.byte	111
 301 001d 00       		.byte	0
 302 001e 6E       		.byte	110
 303 001f 00       		.byte	0
 304 0020 69       		.byte	105
 305 0021 00       		.byte	0
 306 0022 63       		.byte	99
 307 0023 00       		.byte	0
 308 0024 73       		.byte	115
 309 0025 00       		.byte	0
 310              		.section	.rodata.vcom_string2,"a",%progbits
 311              		.align	2
 312              		.type	vcom_string2, %object
 313              		.size	vcom_string2, 36
 314              	vcom_string2:
 315 0000 24       		.byte	36
 316 0001 03       		.byte	3
 317 0002 65       		.byte	101
 318 0003 00       		.byte	0
 319 0004 2D       		.byte	45
 320 0005 00       		.byte	0
 321 0006 70       		.byte	112
 322 0007 00       		.byte	0
 323 0008 75       		.byte	117
 324 0009 00       		.byte	0
 325 000a 63       		.byte	99
 326 000b 00       		.byte	0
 327 000c 6B       		.byte	107
 328 000d 00       		.byte	0
 329 000e 32       		.byte	50
 330 000f 00       		.byte	0
 331 0010 20       		.byte	32
 332 0011 00       		.byte	0
 333 0012 53       		.byte	83
 334 0013 00       		.byte	0
 335 0014 54       		.byte	84
 336 0015 00       		.byte	0
 337 0016 4D       		.byte	77
 338 0017 00       		.byte	0
ARM GAS  /var/folders/d2/nstgp4h54kz7g1l847x_b8wc0000gn/T//ccYOrd8F.s 			page 7


 339 0018 33       		.byte	51
 340 0019 00       		.byte	0
 341 001a 32       		.byte	50
 342 001b 00       		.byte	0
 343 001c 46       		.byte	70
 344 001d 00       		.byte	0
 345 001e 34       		.byte	52
 346 001f 00       		.byte	0
 347 0020 30       		.byte	48
 348 0021 00       		.byte	0
 349 0022 37       		.byte	55
 350 0023 00       		.byte	0
 351              		.section	.rodata.vcom_string3,"a",%progbits
 352              		.align	2
 353              		.type	vcom_string3, %object
 354              		.size	vcom_string3, 8
 355              	vcom_string3:
 356 0000 08       		.byte	8
 357 0001 03       		.byte	3
 358 0002 33       		.byte	51
 359 0003 00       		.byte	0
 360 0004 30       		.byte	48
 361 0005 00       		.byte	0
 362 0006 31       		.byte	49
 363 0007 00       		.byte	0
 364              		.section	.rodata.vcom_strings,"a",%progbits
 365              		.align	2
 366              		.type	vcom_strings, %object
 367              		.size	vcom_strings, 32
 368              	vcom_strings:
 369 0000 04000000 		.word	4
 370 0004 00000000 		.word	vcom_string0
 371 0008 26000000 		.word	38
 372 000c 00000000 		.word	vcom_string1
 373 0010 24000000 		.word	36
 374 0014 00000000 		.word	vcom_string2
 375 0018 08000000 		.word	8
 376 001c 00000000 		.word	vcom_string3
 377              		.section	.text.get_descriptor,"ax",%progbits
 378              		.align	1
 379              		.syntax unified
 380              		.thumb
 381              		.thumb_func
 382              		.fpu fpv4-sp-d16
 383              		.type	get_descriptor, %function
 384              	get_descriptor:
 385              		@ args = 0, pretend = 0, frame = 8
 386              		@ frame_needed = 1, uses_anonymous_args = 0
 387              		@ link register save eliminated.
 388 0000 80B4     		push	{r7}
 389 0002 83B0     		sub	sp, sp, #12
 390 0004 00AF     		add	r7, sp, #0
 391 0006 7860     		str	r0, [r7, #4]
 392 0008 0846     		mov	r0, r1
 393 000a 1146     		mov	r1, r2
 394 000c 1A46     		mov	r2, r3
 395 000e 0346     		mov	r3, r0
ARM GAS  /var/folders/d2/nstgp4h54kz7g1l847x_b8wc0000gn/T//ccYOrd8F.s 			page 8


 396 0010 FB70     		strb	r3, [r7, #3]
 397 0012 0B46     		mov	r3, r1
 398 0014 BB70     		strb	r3, [r7, #2]
 399 0016 1346     		mov	r3, r2	@ movhi
 400 0018 3B80     		strh	r3, [r7]	@ movhi
 401 001a FB78     		ldrb	r3, [r7, #3]	@ zero_extendqisi2
 402 001c 022B     		cmp	r3, #2
 403 001e 05D0     		beq	.L9
 404 0020 032B     		cmp	r3, #3
 405 0022 05D0     		beq	.L10
 406 0024 012B     		cmp	r3, #1
 407 0026 0BD1     		bne	.L8
 408 0028 094B     		ldr	r3, .L13
 409 002a 0AE0     		b	.L12
 410              	.L9:
 411 002c 094B     		ldr	r3, .L13+4
 412 002e 08E0     		b	.L12
 413              	.L10:
 414 0030 BB78     		ldrb	r3, [r7, #2]	@ zero_extendqisi2
 415 0032 032B     		cmp	r3, #3
 416 0034 04D8     		bhi	.L8
 417 0036 BB78     		ldrb	r3, [r7, #2]	@ zero_extendqisi2
 418 0038 DB00     		lsls	r3, r3, #3
 419 003a 074A     		ldr	r2, .L13+8
 420 003c 1344     		add	r3, r3, r2
 421 003e 00E0     		b	.L12
 422              	.L8:
 423 0040 0023     		movs	r3, #0
 424              	.L12:
 425 0042 1846     		mov	r0, r3
 426 0044 0C37     		adds	r7, r7, #12
 427 0046 BD46     		mov	sp, r7
 428              		@ sp needed
 429 0048 5DF8047B 		ldr	r7, [sp], #4
 430 004c 7047     		bx	lr
 431              	.L14:
 432 004e 00BF     		.align	2
 433              	.L13:
 434 0050 00000000 		.word	vcom_device_descriptor
 435 0054 00000000 		.word	vcom_configuration_descriptor
 436 0058 00000000 		.word	vcom_strings
 437              		.size	get_descriptor, .-get_descriptor
 438              		.section	.bss.ep1instate,"aw",%nobits
 439              		.align	2
 440              		.type	ep1instate, %object
 441              		.size	ep1instate, 20
 442              	ep1instate:
 443 0000 00000000 		.space	20
 443      00000000 
 443      00000000 
 443      00000000 
 443      00000000 
 444              		.section	.bss.ep1outstate,"aw",%nobits
 445              		.align	2
 446              		.type	ep1outstate, %object
 447              		.size	ep1outstate, 20
 448              	ep1outstate:
ARM GAS  /var/folders/d2/nstgp4h54kz7g1l847x_b8wc0000gn/T//ccYOrd8F.s 			page 9


 449 0000 00000000 		.space	20
 449      00000000 
 449      00000000 
 449      00000000 
 449      00000000 
 450              		.section	.rodata.ep1config,"a",%progbits
 451              		.align	2
 452              		.type	ep1config, %object
 453              		.size	ep1config, 36
 454              	ep1config:
 455 0000 02000000 		.word	2
 456 0004 00000000 		.word	0
 457 0008 00000000 		.word	sduDataTransmitted
 458 000c 00000000 		.word	sduDataReceived
 459 0010 4000     		.short	64
 460 0012 4000     		.short	64
 461 0014 00000000 		.word	ep1instate
 462 0018 00000000 		.word	ep1outstate
 463 001c 0200     		.short	2
 464 001e 0000     		.space	2
 465 0020 00000000 		.word	0
 466              		.section	.bss.ep2instate,"aw",%nobits
 467              		.align	2
 468              		.type	ep2instate, %object
 469              		.size	ep2instate, 20
 470              	ep2instate:
 471 0000 00000000 		.space	20
 471      00000000 
 471      00000000 
 471      00000000 
 471      00000000 
 472              		.section	.rodata.ep2config,"a",%progbits
 473              		.align	2
 474              		.type	ep2config, %object
 475              		.size	ep2config, 36
 476              	ep2config:
 477 0000 03000000 		.word	3
 478 0004 00000000 		.word	0
 479 0008 00000000 		.word	sduInterruptTransmitted
 480 000c 00000000 		.word	0
 481 0010 1000     		.short	16
 482 0012 0000     		.short	0
 483 0014 00000000 		.word	ep2instate
 484 0018 00000000 		.word	0
 485 001c 0100     		.short	1
 486 001e 0000     		.space	2
 487 0020 00000000 		.word	0
 488              		.section	.text.usb_event,"ax",%progbits
 489              		.align	1
 490              		.syntax unified
 491              		.thumb
 492              		.thumb_func
 493              		.fpu fpv4-sp-d16
 494              		.type	usb_event, %function
 495              	usb_event:
 496              		@ args = 0, pretend = 0, frame = 8
 497              		@ frame_needed = 1, uses_anonymous_args = 0
ARM GAS  /var/folders/d2/nstgp4h54kz7g1l847x_b8wc0000gn/T//ccYOrd8F.s 			page 10


 498 0000 80B5     		push	{r7, lr}
 499 0002 82B0     		sub	sp, sp, #8
 500 0004 00AF     		add	r7, sp, #0
 501 0006 7860     		str	r0, [r7, #4]
 502 0008 0B46     		mov	r3, r1
 503 000a FB70     		strb	r3, [r7, #3]
 504 000c FB78     		ldrb	r3, [r7, #3]	@ zero_extendqisi2
 505 000e 052B     		cmp	r3, #5
 506 0010 20D8     		bhi	.L25
 507 0012 01A2     		adr	r2, .L18
 508 0014 52F823F0 		ldr	pc, [r2, r3, lsl #2]
 509              		.p2align 2
 510              	.L18:
 511 0018 55000000 		.word	.L25+1
 512 001c 55000000 		.word	.L25+1
 513 0020 31000000 		.word	.L20+1
 514 0024 55000000 		.word	.L25+1
 515 0028 55000000 		.word	.L25+1
 516 002c 55000000 		.word	.L25+1
 517              		.p2align 1
 518              	.L20:
 519 0030 FFF7FEFF 		bl	chSysLockFromISR
 520 0034 094A     		ldr	r2, .L26
 521 0036 0121     		movs	r1, #1
 522 0038 7868     		ldr	r0, [r7, #4]
 523 003a FFF7FEFF 		bl	usbInitEndpointI
 524 003e 084A     		ldr	r2, .L26+4
 525 0040 0221     		movs	r1, #2
 526 0042 7868     		ldr	r0, [r7, #4]
 527 0044 FFF7FEFF 		bl	usbInitEndpointI
 528 0048 0648     		ldr	r0, .L26+8
 529 004a FFF7FEFF 		bl	sduConfigureHookI
 530 004e FFF7FEFF 		bl	chSysUnlockFromISR
 531 0052 00E0     		b	.L15
 532              	.L25:
 533 0054 00BF     		nop
 534              	.L15:
 535 0056 0837     		adds	r7, r7, #8
 536 0058 BD46     		mov	sp, r7
 537              		@ sp needed
 538 005a 80BD     		pop	{r7, pc}
 539              	.L27:
 540              		.align	2
 541              	.L26:
 542 005c 00000000 		.word	ep1config
 543 0060 00000000 		.word	ep2config
 544 0064 00000000 		.word	SDU1
 545              		.size	usb_event, .-usb_event
 546              		.global	usbcfg
 547              		.section	.rodata.usbcfg,"a",%progbits
 548              		.align	2
 549              		.type	usbcfg, %object
 550              		.size	usbcfg, 16
 551              	usbcfg:
 552 0000 00000000 		.word	usb_event
 553 0004 00000000 		.word	get_descriptor
 554 0008 00000000 		.word	sduRequestsHook
ARM GAS  /var/folders/d2/nstgp4h54kz7g1l847x_b8wc0000gn/T//ccYOrd8F.s 			page 11


 555 000c 00000000 		.word	0
 556              		.global	serusbcfg
 557              		.section	.rodata.serusbcfg,"a",%progbits
 558              		.align	2
 559              		.type	serusbcfg, %object
 560              		.size	serusbcfg, 8
 561              	serusbcfg:
 562 0000 00000000 		.word	USBD1
 563 0004 01       		.byte	1
 564 0005 01       		.byte	1
 565 0006 02       		.byte	2
 566 0007 00       		.space	1
 567              		.section	.text.usb_start,"ax",%progbits
 568              		.align	1
 569              		.global	usb_start
 570              		.syntax unified
 571              		.thumb
 572              		.thumb_func
 573              		.fpu fpv4-sp-d16
 574              		.type	usb_start, %function
 575              	usb_start:
 576              		@ args = 0, pretend = 0, frame = 0
 577              		@ frame_needed = 1, uses_anonymous_args = 0
 578 0000 80B5     		push	{r7, lr}
 579 0002 00AF     		add	r7, sp, #0
 580 0004 1048     		ldr	r0, .L29
 581 0006 FFF7FEFF 		bl	sduObjectInit
 582 000a 1049     		ldr	r1, .L29+4
 583 000c 0E48     		ldr	r0, .L29
 584 000e FFF7FEFF 		bl	sduStart
 585 0012 0F4B     		ldr	r3, .L29+8
 586 0014 1B6D     		ldr	r3, [r3, #80]
 587 0016 9A6B     		ldr	r2, [r3, #56]
 588 0018 0D4B     		ldr	r3, .L29+8
 589 001a 1B6D     		ldr	r3, [r3, #80]
 590 001c 22F40022 		bic	r2, r2, #524288
 591 0020 9A63     		str	r2, [r3, #56]
 592 0022 4FF47A70 		mov	r0, #1000
 593 0026 FFF7FEFF 		bl	chThdSleep
 594 002a 094B     		ldr	r3, .L29+8
 595 002c 0949     		ldr	r1, .L29+12
 596 002e 1846     		mov	r0, r3
 597 0030 FFF7FEFF 		bl	usbStart
 598 0034 064B     		ldr	r3, .L29+8
 599 0036 1B6D     		ldr	r3, [r3, #80]
 600 0038 9A6B     		ldr	r2, [r3, #56]
 601 003a 054B     		ldr	r3, .L29+8
 602 003c 1B6D     		ldr	r3, [r3, #80]
 603 003e 42F40022 		orr	r2, r2, #524288
 604 0042 9A63     		str	r2, [r3, #56]
 605 0044 00BF     		nop
 606 0046 80BD     		pop	{r7, pc}
 607              	.L30:
 608              		.align	2
 609              	.L29:
 610 0048 00000000 		.word	SDU1
 611 004c 00000000 		.word	serusbcfg
ARM GAS  /var/folders/d2/nstgp4h54kz7g1l847x_b8wc0000gn/T//ccYOrd8F.s 			page 12


 612 0050 00000000 		.word	USBD1
 613 0054 00000000 		.word	usbcfg
 614              		.size	usb_start, .-usb_start
 615              		.ident	"GCC: (GNU Tools for Arm Embedded Processors 7-2017-q4-major) 7.2.1 20170904 (release) [ARM
ARM GAS  /var/folders/d2/nstgp4h54kz7g1l847x_b8wc0000gn/T//ccYOrd8F.s 			page 13


DEFINED SYMBOLS
                            *ABS*:0000000000000000 usbcfg.c
/var/folders/d2/nstgp4h54kz7g1l847x_b8wc0000gn/T//ccYOrd8F.s:15     .text.port_lock:0000000000000000 $t
/var/folders/d2/nstgp4h54kz7g1l847x_b8wc0000gn/T//ccYOrd8F.s:21     .text.port_lock:0000000000000000 port_lock
/var/folders/d2/nstgp4h54kz7g1l847x_b8wc0000gn/T//ccYOrd8F.s:45     .text.port_unlock:0000000000000000 $t
/var/folders/d2/nstgp4h54kz7g1l847x_b8wc0000gn/T//ccYOrd8F.s:51     .text.port_unlock:0000000000000000 port_unlock
/var/folders/d2/nstgp4h54kz7g1l847x_b8wc0000gn/T//ccYOrd8F.s:75     .text.port_lock_from_isr:0000000000000000 $t
/var/folders/d2/nstgp4h54kz7g1l847x_b8wc0000gn/T//ccYOrd8F.s:81     .text.port_lock_from_isr:0000000000000000 port_lock_from_isr
/var/folders/d2/nstgp4h54kz7g1l847x_b8wc0000gn/T//ccYOrd8F.s:91     .text.port_unlock_from_isr:0000000000000000 $t
/var/folders/d2/nstgp4h54kz7g1l847x_b8wc0000gn/T//ccYOrd8F.s:97     .text.port_unlock_from_isr:0000000000000000 port_unlock_from_isr
/var/folders/d2/nstgp4h54kz7g1l847x_b8wc0000gn/T//ccYOrd8F.s:107    .text.chSysLockFromISR:0000000000000000 $t
/var/folders/d2/nstgp4h54kz7g1l847x_b8wc0000gn/T//ccYOrd8F.s:113    .text.chSysLockFromISR:0000000000000000 chSysLockFromISR
/var/folders/d2/nstgp4h54kz7g1l847x_b8wc0000gn/T//ccYOrd8F.s:125    .text.chSysUnlockFromISR:0000000000000000 $t
/var/folders/d2/nstgp4h54kz7g1l847x_b8wc0000gn/T//ccYOrd8F.s:131    .text.chSysUnlockFromISR:0000000000000000 chSysUnlockFromISR
/var/folders/d2/nstgp4h54kz7g1l847x_b8wc0000gn/T//ccYOrd8F.s:147    .bss.SDU1:0000000000000000 SDU1
/var/folders/d2/nstgp4h54kz7g1l847x_b8wc0000gn/T//ccYOrd8F.s:144    .bss.SDU1:0000000000000000 $d
/var/folders/d2/nstgp4h54kz7g1l847x_b8wc0000gn/T//ccYOrd8F.s:150    .rodata.vcom_device_descriptor_data:0000000000000000 $d
/var/folders/d2/nstgp4h54kz7g1l847x_b8wc0000gn/T//ccYOrd8F.s:153    .rodata.vcom_device_descriptor_data:0000000000000000 vcom_device_descriptor_data
/var/folders/d2/nstgp4h54kz7g1l847x_b8wc0000gn/T//ccYOrd8F.s:173    .rodata.vcom_device_descriptor:0000000000000000 $d
/var/folders/d2/nstgp4h54kz7g1l847x_b8wc0000gn/T//ccYOrd8F.s:176    .rodata.vcom_device_descriptor:0000000000000000 vcom_device_descriptor
/var/folders/d2/nstgp4h54kz7g1l847x_b8wc0000gn/T//ccYOrd8F.s:180    .rodata.vcom_configuration_descriptor_data:0000000000000000 $d
/var/folders/d2/nstgp4h54kz7g1l847x_b8wc0000gn/T//ccYOrd8F.s:183    .rodata.vcom_configuration_descriptor_data:0000000000000000 vcom_configuration_descriptor_data
/var/folders/d2/nstgp4h54kz7g1l847x_b8wc0000gn/T//ccYOrd8F.s:252    .rodata.vcom_configuration_descriptor:0000000000000000 $d
/var/folders/d2/nstgp4h54kz7g1l847x_b8wc0000gn/T//ccYOrd8F.s:255    .rodata.vcom_configuration_descriptor:0000000000000000 vcom_configuration_descriptor
/var/folders/d2/nstgp4h54kz7g1l847x_b8wc0000gn/T//ccYOrd8F.s:259    .rodata.vcom_string0:0000000000000000 $d
/var/folders/d2/nstgp4h54kz7g1l847x_b8wc0000gn/T//ccYOrd8F.s:262    .rodata.vcom_string0:0000000000000000 vcom_string0
/var/folders/d2/nstgp4h54kz7g1l847x_b8wc0000gn/T//ccYOrd8F.s:268    .rodata.vcom_string1:0000000000000000 $d
/var/folders/d2/nstgp4h54kz7g1l847x_b8wc0000gn/T//ccYOrd8F.s:271    .rodata.vcom_string1:0000000000000000 vcom_string1
/var/folders/d2/nstgp4h54kz7g1l847x_b8wc0000gn/T//ccYOrd8F.s:311    .rodata.vcom_string2:0000000000000000 $d
/var/folders/d2/nstgp4h54kz7g1l847x_b8wc0000gn/T//ccYOrd8F.s:314    .rodata.vcom_string2:0000000000000000 vcom_string2
/var/folders/d2/nstgp4h54kz7g1l847x_b8wc0000gn/T//ccYOrd8F.s:352    .rodata.vcom_string3:0000000000000000 $d
/var/folders/d2/nstgp4h54kz7g1l847x_b8wc0000gn/T//ccYOrd8F.s:355    .rodata.vcom_string3:0000000000000000 vcom_string3
/var/folders/d2/nstgp4h54kz7g1l847x_b8wc0000gn/T//ccYOrd8F.s:365    .rodata.vcom_strings:0000000000000000 $d
/var/folders/d2/nstgp4h54kz7g1l847x_b8wc0000gn/T//ccYOrd8F.s:368    .rodata.vcom_strings:0000000000000000 vcom_strings
/var/folders/d2/nstgp4h54kz7g1l847x_b8wc0000gn/T//ccYOrd8F.s:378    .text.get_descriptor:0000000000000000 $t
/var/folders/d2/nstgp4h54kz7g1l847x_b8wc0000gn/T//ccYOrd8F.s:384    .text.get_descriptor:0000000000000000 get_descriptor
/var/folders/d2/nstgp4h54kz7g1l847x_b8wc0000gn/T//ccYOrd8F.s:434    .text.get_descriptor:0000000000000050 $d
/var/folders/d2/nstgp4h54kz7g1l847x_b8wc0000gn/T//ccYOrd8F.s:439    .bss.ep1instate:0000000000000000 $d
/var/folders/d2/nstgp4h54kz7g1l847x_b8wc0000gn/T//ccYOrd8F.s:442    .bss.ep1instate:0000000000000000 ep1instate
/var/folders/d2/nstgp4h54kz7g1l847x_b8wc0000gn/T//ccYOrd8F.s:445    .bss.ep1outstate:0000000000000000 $d
/var/folders/d2/nstgp4h54kz7g1l847x_b8wc0000gn/T//ccYOrd8F.s:448    .bss.ep1outstate:0000000000000000 ep1outstate
/var/folders/d2/nstgp4h54kz7g1l847x_b8wc0000gn/T//ccYOrd8F.s:451    .rodata.ep1config:0000000000000000 $d
/var/folders/d2/nstgp4h54kz7g1l847x_b8wc0000gn/T//ccYOrd8F.s:454    .rodata.ep1config:0000000000000000 ep1config
/var/folders/d2/nstgp4h54kz7g1l847x_b8wc0000gn/T//ccYOrd8F.s:467    .bss.ep2instate:0000000000000000 $d
/var/folders/d2/nstgp4h54kz7g1l847x_b8wc0000gn/T//ccYOrd8F.s:470    .bss.ep2instate:0000000000000000 ep2instate
/var/folders/d2/nstgp4h54kz7g1l847x_b8wc0000gn/T//ccYOrd8F.s:473    .rodata.ep2config:0000000000000000 $d
/var/folders/d2/nstgp4h54kz7g1l847x_b8wc0000gn/T//ccYOrd8F.s:476    .rodata.ep2config:0000000000000000 ep2config
/var/folders/d2/nstgp4h54kz7g1l847x_b8wc0000gn/T//ccYOrd8F.s:489    .text.usb_event:0000000000000000 $t
/var/folders/d2/nstgp4h54kz7g1l847x_b8wc0000gn/T//ccYOrd8F.s:495    .text.usb_event:0000000000000000 usb_event
/var/folders/d2/nstgp4h54kz7g1l847x_b8wc0000gn/T//ccYOrd8F.s:511    .text.usb_event:0000000000000018 $d
/var/folders/d2/nstgp4h54kz7g1l847x_b8wc0000gn/T//ccYOrd8F.s:517    .text.usb_event:0000000000000030 $t
/var/folders/d2/nstgp4h54kz7g1l847x_b8wc0000gn/T//ccYOrd8F.s:542    .text.usb_event:000000000000005c $d
/var/folders/d2/nstgp4h54kz7g1l847x_b8wc0000gn/T//ccYOrd8F.s:551    .rodata.usbcfg:0000000000000000 usbcfg
/var/folders/d2/nstgp4h54kz7g1l847x_b8wc0000gn/T//ccYOrd8F.s:548    .rodata.usbcfg:0000000000000000 $d
/var/folders/d2/nstgp4h54kz7g1l847x_b8wc0000gn/T//ccYOrd8F.s:561    .rodata.serusbcfg:0000000000000000 serusbcfg
/var/folders/d2/nstgp4h54kz7g1l847x_b8wc0000gn/T//ccYOrd8F.s:558    .rodata.serusbcfg:0000000000000000 $d
/var/folders/d2/nstgp4h54kz7g1l847x_b8wc0000gn/T//ccYOrd8F.s:568    .text.usb_start:0000000000000000 $t
ARM GAS  /var/folders/d2/nstgp4h54kz7g1l847x_b8wc0000gn/T//ccYOrd8F.s 			page 14


/var/folders/d2/nstgp4h54kz7g1l847x_b8wc0000gn/T//ccYOrd8F.s:575    .text.usb_start:0000000000000000 usb_start
/var/folders/d2/nstgp4h54kz7g1l847x_b8wc0000gn/T//ccYOrd8F.s:610    .text.usb_start:0000000000000048 $d

UNDEFINED SYMBOLS
_stats_start_measure_crit_isr
_dbg_check_lock_from_isr
_dbg_check_unlock_from_isr
_stats_stop_measure_crit_isr
sduDataTransmitted
sduDataReceived
sduInterruptTransmitted
usbInitEndpointI
sduConfigureHookI
sduRequestsHook
USBD1
sduObjectInit
sduStart
chThdSleep
usbStart
