ARM GAS  /var/folders/d2/nstgp4h54kz7g1l847x_b8wc0000gn/T//cc2apEbl.s 			page 1


   1              		.cpu cortex-m4
   2              		.eabi_attribute 27, 1
   3              		.eabi_attribute 28, 1
   4              		.eabi_attribute 20, 1
   5              		.eabi_attribute 21, 1
   6              		.eabi_attribute 23, 3
   7              		.eabi_attribute 24, 1
   8              		.eabi_attribute 25, 1
   9              		.eabi_attribute 26, 1
  10              		.eabi_attribute 30, 2
  11              		.eabi_attribute 34, 1
  12              		.eabi_attribute 18, 4
  13              		.file	"vl53l0x_api_core.c"
  14              		.text
  15              	.Ltext0:
  16              		.cfi_sections	.debug_frame
  17              		.section	.text.VL53L0X_encode_timeout.part.0,"ax",%progbits
  18              		.align	1
  19              		.p2align 4,,15
  20              		.syntax unified
  21              		.thumb
  22              		.thumb_func
  23              		.fpu fpv4-sp-d16
  24              		.type	VL53L0X_encode_timeout.part.0, %function
  25              	VL53L0X_encode_timeout.part.0:
  26              	.LFB28:
  27              		.file 1 "../e-puck2_main-processor/src/sensors/VL53L0X/Api/core/src/vl53l0x_api_core.c"
  28              		.loc 1 500 0
  29              		.cfi_startproc
  30              		@ args = 0, pretend = 0, frame = 8
  31              		@ frame_needed = 0, uses_anonymous_args = 0
  32              	.LVL0:
  33 0000 10B5     		push	{r4, lr}
  34              		.cfi_def_cfa_offset 8
  35              		.cfi_offset 4, -8
  36              		.cfi_offset 14, -4
  37 0002 0E49     		ldr	r1, .L10
  38 0004 82B0     		sub	sp, sp, #8
  39              		.cfi_def_cfa_offset 16
  40              		.loc 1 500 0
  41 0006 0B68     		ldr	r3, [r1]
  42 0008 0193     		str	r3, [sp, #4]
  43              		.loc 1 511 0
  44 000a 0138     		subs	r0, r0, #1
  45              	.LVL1:
  46              		.loc 1 513 0
  47 000c 30F0FF03 		bics	r3, r0, #255
  48 0010 09D0     		beq	.L2
  49              		.loc 1 508 0
  50 0012 0023     		movs	r3, #0
  51              	.LVL2:
  52              	.L3:
  53              		.loc 1 514 0
  54 0014 4008     		lsrs	r0, r0, #1
  55              	.LVL3:
  56              		.loc 1 515 0
  57 0016 0133     		adds	r3, r3, #1
ARM GAS  /var/folders/d2/nstgp4h54kz7g1l847x_b8wc0000gn/T//cc2apEbl.s 			page 2


  58              	.LVL4:
  59              		.loc 1 513 0
  60 0018 20F0FF02 		bic	r2, r0, #255
  61              		.loc 1 515 0
  62 001c 9BB2     		uxth	r3, r3
  63              	.LVL5:
  64              		.loc 1 513 0
  65 001e 002A     		cmp	r2, #0
  66 0020 F8D1     		bne	.L3
  67 0022 1B02     		lsls	r3, r3, #8
  68              	.LVL6:
  69 0024 9BB2     		uxth	r3, r3
  70              	.L2:
  71              	.LVL7:
  72              		.loc 1 524 0
  73 0026 019C     		ldr	r4, [sp, #4]
  74 0028 0A68     		ldr	r2, [r1]
  75              		.loc 1 518 0
  76 002a 1844     		add	r0, r0, r3
  77              	.LVL8:
  78              		.loc 1 524 0
  79 002c 9442     		cmp	r4, r2
  80 002e 80B2     		uxth	r0, r0
  81 0030 01D1     		bne	.L9
  82 0032 02B0     		add	sp, sp, #8
  83              		.cfi_remember_state
  84              		.cfi_def_cfa_offset 8
  85              		@ sp needed
  86 0034 10BD     		pop	{r4, pc}
  87              	.L9:
  88              		.cfi_restore_state
  89 0036 FFF7FEFF 		bl	__stack_chk_fail
  90              	.LVL9:
  91              	.L11:
  92 003a 00BF     		.align	2
  93              	.L10:
  94 003c 00000000 		.word	__stack_chk_guard
  95              		.cfi_endproc
  96              	.LFE28:
  97              		.size	VL53L0X_encode_timeout.part.0, .-VL53L0X_encode_timeout.part.0
  98              		.section	.text.set_sequence_step_timeout.part.1,"ax",%progbits
  99              		.align	1
 100              		.p2align 4,,15
 101              		.syntax unified
 102              		.thumb
 103              		.thumb_func
 104              		.fpu fpv4-sp-d16
 105              		.type	set_sequence_step_timeout.part.1, %function
 106              	set_sequence_step_timeout.part.1:
 107              	.LFB29:
 108              		.loc 1 688 0
 109              		.cfi_startproc
 110              		@ args = 0, pretend = 0, frame = 16
 111              		@ frame_needed = 0, uses_anonymous_args = 0
 112              	.LVL10:
 113 0000 2DE9F043 		push	{r4, r5, r6, r7, r8, r9, lr}
 114              		.cfi_def_cfa_offset 28
ARM GAS  /var/folders/d2/nstgp4h54kz7g1l847x_b8wc0000gn/T//cc2apEbl.s 			page 3


 115              		.cfi_offset 4, -28
 116              		.cfi_offset 5, -24
 117              		.cfi_offset 6, -20
 118              		.cfi_offset 7, -16
 119              		.cfi_offset 8, -12
 120              		.cfi_offset 9, -8
 121              		.cfi_offset 14, -4
 122 0004 4B4E     		ldr	r6, .L29
 123 0006 85B0     		sub	sp, sp, #20
 124              		.cfi_def_cfa_offset 48
 125              		.loc 1 688 0
 126 0008 3368     		ldr	r3, [r6]
 127 000a 0393     		str	r3, [sp, #12]
 128              		.loc 1 733 0
 129 000c 0329     		cmp	r1, #3
 130              		.loc 1 688 0
 131 000e 1746     		mov	r7, r2
 132 0010 0546     		mov	r5, r0
 133              		.loc 1 733 0
 134 0012 57D0     		beq	.L24
 135              		.loc 1 763 0
 136 0014 0429     		cmp	r1, #4
 137 0016 40F08780 		bne	.L20
 138              		.loc 1 771 0
 139 001a 01A9     		add	r1, sp, #4
 140              	.LVL11:
 141 001c FFF7FEFF 		bl	VL53L0X_GetSequenceStepEnables
 142              	.LVL12:
 143              		.loc 1 774 0
 144 0020 9DF80700 		ldrb	r0, [sp, #7]	@ zero_extendqisi2
 145 0024 78BB     		cbnz	r0, .L25
 146              		.loc 1 773 0
 147 0026 8046     		mov	r8, r0
 148 0028 0DF10109 		add	r9, sp, #1
 149              	.LVL13:
 150              	.L16:
 151              		.loc 1 797 0
 152 002c 4A46     		mov	r2, r9
 153 002e 0121     		movs	r1, #1
 154 0030 2846     		mov	r0, r5
 155 0032 FFF7FEFF 		bl	VL53L0X_GetVcselPulsePeriod
 156              	.LVL14:
 157              		.loc 1 801 0
 158 0036 0446     		mov	r4, r0
 159 0038 E8B9     		cbnz	r0, .L15
 160              	.LVL15:
 161              	.LBB108:
 162              	.LBB109:
 163              	.LBB110:
 164              	.LBB111:
 165              		.loc 1 494 0
 166 003a 9DF80120 		ldrb	r2, [sp, #1]	@ zero_extendqisi2
 167              		.loc 1 493 0
 168 003e 3E4B     		ldr	r3, .L29+4
 169              	.LBE111:
 170              	.LBE110:
 171              		.loc 1 555 0
ARM GAS  /var/folders/d2/nstgp4h54kz7g1l847x_b8wc0000gn/T//cc2apEbl.s 			page 4


 172 0040 3E48     		ldr	r0, .L29+8
 173              	.LVL16:
 174              	.LBB113:
 175              	.LBB112:
 176              		.loc 1 493 0
 177 0042 03FB02F3 		mul	r3, r3, r2
 178              	.LBE112:
 179              	.LBE113:
 180              		.loc 1 551 0
 181 0046 03F5FA73 		add	r3, r3, #500
 182              	.LVL17:
 183              		.loc 1 555 0
 184 004a A0FB0323 		umull	r2, r3, r0, r3
 185 004e DA09     		lsrs	r2, r3, #7
 186              		.loc 1 554 0
 187 0050 4FF47A70 		mov	r0, #1000
 188              		.loc 1 551 0
 189 0054 9B09     		lsrs	r3, r3, #6
 190              		.loc 1 555 0
 191 0056 00FB0720 		mla	r0, r0, r7, r2
 192              		.loc 1 553 0
 193 005a B0FBF3F0 		udiv	r0, r0, r3
 194              	.LVL18:
 195              	.LBE109:
 196              	.LBE108:
 197              	.LBB114:
 198              	.LBB115:
 199              		.loc 1 510 0
 200 005e 10EB0800 		adds	r0, r0, r8
 201              	.LVL19:
 202 0062 5DD1     		bne	.L26
 203              		.loc 1 506 0
 204 0064 0246     		mov	r2, r0
 205              	.LVL20:
 206              	.L17:
 207              	.LBE115:
 208              	.LBE114:
 209              		.loc 1 814 0
 210 0066 7121     		movs	r1, #113
 211 0068 2846     		mov	r0, r5
 212 006a FFF7FEFF 		bl	VL53L0X_WrWord
 213              	.LVL21:
 214              		.loc 1 818 0
 215 006e 0446     		mov	r4, r0
 216 0070 08B9     		cbnz	r0, .L15
 217              		.loc 1 819 0
 218 0072 C5F8DC70 		str	r7, [r5, #220]
 219              	.LVL22:
 220              	.L15:
 221              		.loc 1 830 0
 222 0076 039A     		ldr	r2, [sp, #12]
 223 0078 3368     		ldr	r3, [r6]
 224 007a 9A42     		cmp	r2, r3
 225 007c 2046     		mov	r0, r4
 226 007e 56D1     		bne	.L27
 227 0080 05B0     		add	sp, sp, #20
 228              		.cfi_remember_state
ARM GAS  /var/folders/d2/nstgp4h54kz7g1l847x_b8wc0000gn/T//cc2apEbl.s 			page 5


 229              		.cfi_def_cfa_offset 28
 230              		@ sp needed
 231 0082 BDE8F083 		pop	{r4, r5, r6, r7, r8, r9, pc}
 232              	.LVL23:
 233              	.L25:
 234              		.cfi_restore_state
 235              		.loc 1 777 0
 236 0086 0DF10109 		add	r9, sp, #1
 237 008a 4A46     		mov	r2, r9
 238 008c 0021     		movs	r1, #0
 239 008e 2846     		mov	r0, r5
 240 0090 FFF7FEFF 		bl	VL53L0X_GetVcselPulsePeriod
 241              	.LVL24:
 242              		.loc 1 783 0
 243 0094 0446     		mov	r4, r0
 244 0096 0028     		cmp	r0, #0
 245 0098 EDD1     		bne	.L15
 246              		.loc 1 784 0
 247 009a 0DF10202 		add	r2, sp, #2
 248 009e 5121     		movs	r1, #81
 249 00a0 2846     		mov	r0, r5
 250              	.LVL25:
 251 00a2 FFF7FEFF 		bl	VL53L0X_RdWord
 252              	.LVL26:
 253              		.loc 1 787 0
 254 00a6 BDF80230 		ldrh	r3, [sp, #2]
 255              	.LBB117:
 256              	.LBB118:
 257              		.loc 1 534 0
 258 00aa 5FFA83F8 		uxtb	r8, r3
 259              		.loc 1 535 0
 260 00ae 1B0A     		lsrs	r3, r3, #8
 261 00b0 08FA03F8 		lsl	r8, r8, r3
 262              		.loc 1 534 0
 263 00b4 08F10108 		add	r8, r8, #1
 264              	.LBE118:
 265              	.LBE117:
 266              		.loc 1 786 0
 267 00b8 1FFA88F8 		uxth	r8, r8
 268              	.LVL27:
 269              		.loc 1 795 0
 270 00bc 0446     		mov	r4, r0
 271 00be 0028     		cmp	r0, #0
 272 00c0 B4D0     		beq	.L16
 273 00c2 D8E7     		b	.L15
 274              	.LVL28:
 275              	.L24:
 276              		.loc 1 736 0
 277 00c4 0DF10102 		add	r2, sp, #1
 278              	.LVL29:
 279 00c8 0021     		movs	r1, #0
 280              	.LVL30:
 281 00ca FFF7FEFF 		bl	VL53L0X_GetVcselPulsePeriod
 282              	.LVL31:
 283              	.LBB119:
 284              	.LBB120:
 285              	.LBB121:
ARM GAS  /var/folders/d2/nstgp4h54kz7g1l847x_b8wc0000gn/T//cc2apEbl.s 			page 6


 286              	.LBB122:
 287              		.loc 1 494 0
 288 00ce 9DF80120 		ldrb	r2, [sp, #1]	@ zero_extendqisi2
 289              		.loc 1 493 0
 290 00d2 194B     		ldr	r3, .L29+4
 291              	.LBE122:
 292              	.LBE121:
 293              	.LBE120:
 294              	.LBE119:
 295              		.loc 1 736 0
 296 00d4 0446     		mov	r4, r0
 297              	.LVL32:
 298              	.LBB126:
 299              	.LBB125:
 300              	.LBB124:
 301              	.LBB123:
 302              		.loc 1 493 0
 303 00d6 03FB02F3 		mul	r3, r3, r2
 304              	.LBE123:
 305              	.LBE124:
 306              		.loc 1 555 0
 307 00da 1848     		ldr	r0, .L29+8
 308              		.loc 1 551 0
 309 00dc 03F5FA73 		add	r3, r3, #500
 310              	.LVL33:
 311              		.loc 1 555 0
 312 00e0 A0FB0323 		umull	r2, r3, r0, r3
 313              	.LVL34:
 314 00e4 DA09     		lsrs	r2, r3, #7
 315              		.loc 1 554 0
 316 00e6 4FF47A70 		mov	r0, #1000
 317              		.loc 1 551 0
 318 00ea 9B09     		lsrs	r3, r3, #6
 319              		.loc 1 555 0
 320 00ec 00FB0720 		mla	r0, r0, r7, r2
 321              		.loc 1 553 0
 322 00f0 B0FBF3F0 		udiv	r0, r0, r3
 323 00f4 80B2     		uxth	r0, r0
 324              	.LVL35:
 325              	.LBE125:
 326              	.LBE126:
 327              	.LBB127:
 328              	.LBB128:
 329              		.loc 1 510 0
 330 00f6 80B9     		cbnz	r0, .L28
 331              	.LVL36:
 332              	.L14:
 333              	.LBE128:
 334              	.LBE127:
 335              		.loc 1 743 0
 336 00f8 ADF80200 		strh	r0, [sp, #2]	@ movhi
 337              		.loc 1 746 0
 338 00fc A5F8D800 		strh	r0, [r5, #216]	@ movhi
 339              		.loc 1 751 0
 340 0100 002C     		cmp	r4, #0
 341 0102 B8D1     		bne	.L15
 342              		.loc 1 752 0
ARM GAS  /var/folders/d2/nstgp4h54kz7g1l847x_b8wc0000gn/T//cc2apEbl.s 			page 7


 343 0104 0246     		mov	r2, r0
 344 0106 5121     		movs	r1, #81
 345 0108 2846     		mov	r0, r5
 346 010a FFF7FEFF 		bl	VL53L0X_WrWord
 347              	.LVL37:
 348              		.loc 1 757 0
 349 010e 0446     		mov	r4, r0
 350 0110 0028     		cmp	r0, #0
 351 0112 B0D1     		bne	.L15
 352              		.loc 1 758 0
 353 0114 C5F8E470 		str	r7, [r5, #228]
 354 0118 ADE7     		b	.L15
 355              	.LVL38:
 356              	.L28:
 357              	.LBB130:
 358              	.LBB129:
 359 011a FFF7FEFF 		bl	VL53L0X_encode_timeout.part.0
 360              	.LVL39:
 361 011e EBE7     		b	.L14
 362              	.LVL40:
 363              	.L26:
 364              	.LBE129:
 365              	.LBE130:
 366              	.LBB131:
 367              	.LBB116:
 368 0120 FFF7FEFF 		bl	VL53L0X_encode_timeout.part.0
 369              	.LVL41:
 370 0124 0246     		mov	r2, r0
 371 0126 9EE7     		b	.L17
 372              	.LVL42:
 373              	.L20:
 374              	.LBE116:
 375              	.LBE131:
 376              		.loc 1 826 0
 377 0128 6FF00304 		mvn	r4, #3
 378 012c A3E7     		b	.L15
 379              	.LVL43:
 380              	.L27:
 381              		.loc 1 830 0
 382 012e FFF7FEFF 		bl	__stack_chk_fail
 383              	.LVL44:
 384              	.L30:
 385 0132 00BF     		.align	2
 386              	.L29:
 387 0134 00000000 		.word	__stack_chk_guard
 388 0138 002F3A00 		.word	3813120
 389 013c D34D6210 		.word	274877907
 390              		.cfi_endproc
 391              	.LFE29:
 392              		.size	set_sequence_step_timeout.part.1, .-set_sequence_step_timeout.part.1
 393              		.section	.text.VL53L0X_reverse_bytes,"ax",%progbits
 394              		.align	1
 395              		.p2align 4,,15
 396              		.global	VL53L0X_reverse_bytes
 397              		.syntax unified
 398              		.thumb
 399              		.thumb_func
ARM GAS  /var/folders/d2/nstgp4h54kz7g1l847x_b8wc0000gn/T//cc2apEbl.s 			page 8


 400              		.fpu fpv4-sp-d16
 401              		.type	VL53L0X_reverse_bytes, %function
 402              	VL53L0X_reverse_bytes:
 403              	.LFB3:
 404              		.loc 1 45 0
 405              		.cfi_startproc
 406              		@ args = 0, pretend = 0, frame = 8
 407              		@ frame_needed = 0, uses_anonymous_args = 0
 408              	.LVL45:
 409 0000 30B5     		push	{r4, r5, lr}
 410              		.cfi_def_cfa_offset 12
 411              		.cfi_offset 4, -12
 412              		.cfi_offset 5, -8
 413              		.cfi_offset 14, -4
 414 0002 0D4D     		ldr	r5, .L41
 415 0004 83B0     		sub	sp, sp, #12
 416              		.cfi_def_cfa_offset 24
 417              		.loc 1 45 0
 418 0006 2B68     		ldr	r3, [r5]
 419 0008 0193     		str	r3, [sp, #4]
 420              	.LVL46:
 421              		.loc 1 52 0
 422 000a 4C08     		lsrs	r4, r1, #1
 423              	.LVL47:
 424 000c 0AD0     		beq	.L32
 425 000e 431E     		subs	r3, r0, #1
 426 0010 1C44     		add	r4, r4, r3
 427              	.LVL48:
 428 0012 0844     		add	r0, r0, r1
 429              	.LVL49:
 430              	.L33:
 431              		.loc 1 54 0 discriminator 3
 432 0014 13F8012F 		ldrb	r2, [r3, #1]!	@ zero_extendqisi2
 433              	.LVL50:
 434              		.loc 1 55 0 discriminator 3
 435 0018 10F8011D 		ldrb	r1, [r0, #-1]!	@ zero_extendqisi2
 436              	.LVL51:
 437 001c 1970     		strb	r1, [r3]
 438              		.loc 1 52 0 discriminator 3
 439 001e A342     		cmp	r3, r4
 440              		.loc 1 56 0 discriminator 3
 441 0020 0270     		strb	r2, [r0]
 442              	.LVL52:
 443              		.loc 1 52 0 discriminator 3
 444 0022 F7D1     		bne	.L33
 445              	.LVL53:
 446              	.L32:
 447              		.loc 1 59 0
 448 0024 019A     		ldr	r2, [sp, #4]
 449 0026 2B68     		ldr	r3, [r5]
 450 0028 9A42     		cmp	r2, r3
 451 002a 4FF00000 		mov	r0, #0
 452 002e 01D1     		bne	.L40
 453 0030 03B0     		add	sp, sp, #12
 454              		.cfi_remember_state
 455              		.cfi_def_cfa_offset 12
 456              		@ sp needed
ARM GAS  /var/folders/d2/nstgp4h54kz7g1l847x_b8wc0000gn/T//cc2apEbl.s 			page 9


 457 0032 30BD     		pop	{r4, r5, pc}
 458              	.L40:
 459              		.cfi_restore_state
 460 0034 FFF7FEFF 		bl	__stack_chk_fail
 461              	.LVL54:
 462              	.L42:
 463              		.align	2
 464              	.L41:
 465 0038 00000000 		.word	__stack_chk_guard
 466              		.cfi_endproc
 467              	.LFE3:
 468              		.size	VL53L0X_reverse_bytes, .-VL53L0X_reverse_bytes
 469              		.section	.text.VL53L0X_measurement_poll_for_completion,"ax",%progbits
 470              		.align	1
 471              		.p2align 4,,15
 472              		.global	VL53L0X_measurement_poll_for_completion
 473              		.syntax unified
 474              		.thumb
 475              		.thumb_func
 476              		.fpu fpv4-sp-d16
 477              		.type	VL53L0X_measurement_poll_for_completion, %function
 478              	VL53L0X_measurement_poll_for_completion:
 479              	.LFB4:
 480              		.loc 1 62 0
 481              		.cfi_startproc
 482              		@ args = 0, pretend = 0, frame = 8
 483              		@ frame_needed = 0, uses_anonymous_args = 0
 484              	.LVL55:
 485 0000 F0B5     		push	{r4, r5, r6, r7, lr}
 486              		.cfi_def_cfa_offset 20
 487              		.cfi_offset 4, -20
 488              		.cfi_offset 5, -16
 489              		.cfi_offset 6, -12
 490              		.cfi_offset 7, -8
 491              		.cfi_offset 14, -4
 492 0002 134F     		ldr	r7, .L54
 493 0004 83B0     		sub	sp, sp, #12
 494              		.cfi_def_cfa_offset 32
 495              		.loc 1 64 0
 496 0006 02AE     		add	r6, sp, #8
 497 0008 0022     		movs	r2, #0
 498              		.loc 1 62 0
 499 000a 3B68     		ldr	r3, [r7]
 500              		.loc 1 64 0
 501 000c 06F8052D 		strb	r2, [r6, #-5]!
 502              		.loc 1 62 0
 503 0010 0546     		mov	r5, r0
 504 0012 0193     		str	r3, [sp, #4]
 505              	.LVL56:
 506              		.loc 1 64 0
 507 0014 4FF4FA64 		mov	r4, #2000
 508 0018 08E0     		b	.L45
 509              	.LVL57:
 510              	.L52:
 511              		.loc 1 76 0
 512 001a 9DF80330 		ldrb	r3, [sp, #3]	@ zero_extendqisi2
 513 001e 012B     		cmp	r3, #1
ARM GAS  /var/folders/d2/nstgp4h54kz7g1l847x_b8wc0000gn/T//cc2apEbl.s 			page 10


 514 0020 0AD0     		beq	.L44
 515              	.LVL58:
 516              		.loc 1 80 0
 517 0022 013C     		subs	r4, r4, #1
 518              	.LVL59:
 519 0024 0ED0     		beq	.L47
 520              		.loc 1 85 0
 521 0026 2846     		mov	r0, r5
 522              	.LVL60:
 523 0028 FFF7FEFF 		bl	VL53L0X_PollingDelay
 524              	.LVL61:
 525              	.L45:
 526              		.loc 1 72 0
 527 002c 3146     		mov	r1, r6
 528 002e 2846     		mov	r0, r5
 529 0030 FFF7FEFF 		bl	VL53L0X_GetMeasurementDataReady
 530              	.LVL62:
 531              		.loc 1 73 0
 532 0034 0028     		cmp	r0, #0
 533 0036 F0D0     		beq	.L52
 534              	.LVL63:
 535              	.L44:
 536              		.loc 1 91 0
 537 0038 019A     		ldr	r2, [sp, #4]
 538 003a 3B68     		ldr	r3, [r7]
 539 003c 9A42     		cmp	r2, r3
 540 003e 04D1     		bne	.L53
 541 0040 03B0     		add	sp, sp, #12
 542              		.cfi_remember_state
 543              		.cfi_def_cfa_offset 20
 544              		@ sp needed
 545 0042 F0BD     		pop	{r4, r5, r6, r7, pc}
 546              	.LVL64:
 547              	.L47:
 548              		.cfi_restore_state
 549              		.loc 1 81 0
 550 0044 6FF00600 		mvn	r0, #6
 551              	.LVL65:
 552 0048 F6E7     		b	.L44
 553              	.LVL66:
 554              	.L53:
 555              		.loc 1 91 0
 556 004a FFF7FEFF 		bl	__stack_chk_fail
 557              	.LVL67:
 558              	.L55:
 559 004e 00BF     		.align	2
 560              	.L54:
 561 0050 00000000 		.word	__stack_chk_guard
 562              		.cfi_endproc
 563              	.LFE4:
 564              		.size	VL53L0X_measurement_poll_for_completion, .-VL53L0X_measurement_poll_for_completion
 565              		.section	.text.VL53L0X_decode_vcsel_period,"ax",%progbits
 566              		.align	1
 567              		.p2align 4,,15
 568              		.global	VL53L0X_decode_vcsel_period
 569              		.syntax unified
 570              		.thumb
ARM GAS  /var/folders/d2/nstgp4h54kz7g1l847x_b8wc0000gn/T//cc2apEbl.s 			page 11


 571              		.thumb_func
 572              		.fpu fpv4-sp-d16
 573              		.type	VL53L0X_decode_vcsel_period, %function
 574              	VL53L0X_decode_vcsel_period:
 575              	.LFB5:
 576              		.loc 1 95 0
 577              		.cfi_startproc
 578              		@ args = 0, pretend = 0, frame = 8
 579              		@ frame_needed = 0, uses_anonymous_args = 0
 580              	.LVL68:
 581 0000 00B5     		push	{lr}
 582              		.cfi_def_cfa_offset 4
 583              		.cfi_offset 14, -4
 584 0002 084B     		ldr	r3, .L60
 585 0004 83B0     		sub	sp, sp, #12
 586              		.cfi_def_cfa_offset 16
 587              		.loc 1 95 0
 588 0006 1A68     		ldr	r2, [r3]
 589 0008 0192     		str	r2, [sp, #4]
 590              	.LVL69:
 591              		.loc 1 106 0
 592 000a 019A     		ldr	r2, [sp, #4]
 593 000c 1B68     		ldr	r3, [r3]
 594 000e 9A42     		cmp	r2, r3
 595 0010 06D1     		bne	.L59
 596 0012 0130     		adds	r0, r0, #1
 597              	.LVL70:
 598 0014 4000     		lsls	r0, r0, #1
 599 0016 00F0FE00 		and	r0, r0, #254
 600 001a 03B0     		add	sp, sp, #12
 601              		.cfi_remember_state
 602              		.cfi_def_cfa_offset 4
 603              		@ sp needed
 604 001c 5DF804FB 		ldr	pc, [sp], #4
 605              	.LVL71:
 606              	.L59:
 607              		.cfi_restore_state
 608 0020 FFF7FEFF 		bl	__stack_chk_fail
 609              	.LVL72:
 610              	.L61:
 611              		.align	2
 612              	.L60:
 613 0024 00000000 		.word	__stack_chk_guard
 614              		.cfi_endproc
 615              	.LFE5:
 616              		.size	VL53L0X_decode_vcsel_period, .-VL53L0X_decode_vcsel_period
 617              		.section	.text.VL53L0X_encode_vcsel_period,"ax",%progbits
 618              		.align	1
 619              		.p2align 4,,15
 620              		.global	VL53L0X_encode_vcsel_period
 621              		.syntax unified
 622              		.thumb
 623              		.thumb_func
 624              		.fpu fpv4-sp-d16
 625              		.type	VL53L0X_encode_vcsel_period, %function
 626              	VL53L0X_encode_vcsel_period:
 627              	.LFB6:
ARM GAS  /var/folders/d2/nstgp4h54kz7g1l847x_b8wc0000gn/T//cc2apEbl.s 			page 12


 628              		.loc 1 109 0
 629              		.cfi_startproc
 630              		@ args = 0, pretend = 0, frame = 8
 631              		@ frame_needed = 0, uses_anonymous_args = 0
 632              	.LVL73:
 633 0000 00B5     		push	{lr}
 634              		.cfi_def_cfa_offset 4
 635              		.cfi_offset 14, -4
 636 0002 084B     		ldr	r3, .L66
 637 0004 83B0     		sub	sp, sp, #12
 638              		.cfi_def_cfa_offset 16
 639              		.loc 1 109 0
 640 0006 1A68     		ldr	r2, [r3]
 641 0008 0192     		str	r2, [sp, #4]
 642              	.LVL74:
 643              		.loc 1 120 0
 644 000a 019A     		ldr	r2, [sp, #4]
 645 000c 1B68     		ldr	r3, [r3]
 646 000e 9A42     		cmp	r2, r3
 647 0010 05D1     		bne	.L65
 648 0012 4008     		lsrs	r0, r0, #1
 649              	.LVL75:
 650 0014 0138     		subs	r0, r0, #1
 651 0016 C0B2     		uxtb	r0, r0
 652 0018 03B0     		add	sp, sp, #12
 653              		.cfi_remember_state
 654              		.cfi_def_cfa_offset 4
 655              		@ sp needed
 656 001a 5DF804FB 		ldr	pc, [sp], #4
 657              	.LVL76:
 658              	.L65:
 659              		.cfi_restore_state
 660 001e FFF7FEFF 		bl	__stack_chk_fail
 661              	.LVL77:
 662              	.L67:
 663 0022 00BF     		.align	2
 664              	.L66:
 665 0024 00000000 		.word	__stack_chk_guard
 666              		.cfi_endproc
 667              	.LFE6:
 668              		.size	VL53L0X_encode_vcsel_period, .-VL53L0X_encode_vcsel_period
 669              		.section	.text.VL53L0X_isqrt,"ax",%progbits
 670              		.align	1
 671              		.p2align 4,,15
 672              		.global	VL53L0X_isqrt
 673              		.syntax unified
 674              		.thumb
 675              		.thumb_func
 676              		.fpu fpv4-sp-d16
 677              		.type	VL53L0X_isqrt, %function
 678              	VL53L0X_isqrt:
 679              	.LFB7:
 680              		.loc 1 124 0
 681              		.cfi_startproc
 682              		@ args = 0, pretend = 0, frame = 8
 683              		@ frame_needed = 0, uses_anonymous_args = 0
 684              	.LVL78:
ARM GAS  /var/folders/d2/nstgp4h54kz7g1l847x_b8wc0000gn/T//cc2apEbl.s 			page 13


 685 0000 10B5     		push	{r4, lr}
 686              		.cfi_def_cfa_offset 8
 687              		.cfi_offset 4, -8
 688              		.cfi_offset 14, -4
 689 0002 114C     		ldr	r4, .L82
 690 0004 82B0     		sub	sp, sp, #8
 691              		.cfi_def_cfa_offset 16
 692              		.loc 1 124 0
 693 0006 2368     		ldr	r3, [r4]
 694 0008 0193     		str	r3, [sp, #4]
 695              	.LVL79:
 696              		.loc 1 137 0
 697 000a B0F1804F 		cmp	r0, #1073741824
 698              		.loc 1 132 0
 699 000e 4FF08043 		mov	r3, #1073741824
 700              		.loc 1 137 0
 701 0012 03D2     		bcs	.L69
 702              	.LVL80:
 703              	.L70:
 704              		.loc 1 138 0
 705 0014 9B08     		lsrs	r3, r3, #2
 706              	.LVL81:
 707              		.loc 1 137 0
 708 0016 9842     		cmp	r0, r3
 709 0018 FCD3     		bcc	.L70
 710              		.loc 1 141 0
 711 001a 83B1     		cbz	r3, .L80
 712              	.LVL82:
 713              	.L69:
 714              		.loc 1 132 0
 715 001c 0022     		movs	r2, #0
 716              	.LVL83:
 717              	.L73:
 718              		.loc 1 142 0
 719 001e D118     		adds	r1, r2, r3
 720 0020 8142     		cmp	r1, r0
 721 0022 4FEA5202 		lsr	r2, r2, #1
 722              	.LVL84:
 723              		.loc 1 143 0
 724 0026 9CBF     		itt	ls
 725 0028 401A     		subls	r0, r0, r1
 726              	.LVL85:
 727              		.loc 1 144 0
 728 002a D218     		addls	r2, r2, r3
 729              	.LVL86:
 730              		.loc 1 141 0
 731 002c 9B08     		lsrs	r3, r3, #2
 732              	.LVL87:
 733 002e F6D1     		bne	.L73
 734              	.LVL88:
 735              	.L68:
 736              		.loc 1 152 0
 737 0030 0199     		ldr	r1, [sp, #4]
 738 0032 2368     		ldr	r3, [r4]
 739              	.LVL89:
 740 0034 9942     		cmp	r1, r3
 741 0036 1046     		mov	r0, r2
ARM GAS  /var/folders/d2/nstgp4h54kz7g1l847x_b8wc0000gn/T//cc2apEbl.s 			page 14


 742              	.LVL90:
 743 0038 03D1     		bne	.L81
 744 003a 02B0     		add	sp, sp, #8
 745              		.cfi_remember_state
 746              		.cfi_def_cfa_offset 8
 747              		@ sp needed
 748 003c 10BD     		pop	{r4, pc}
 749              	.LVL91:
 750              	.L80:
 751              		.cfi_restore_state
 752              		.loc 1 131 0
 753 003e 1A46     		mov	r2, r3
 754              		.loc 1 151 0
 755 0040 F6E7     		b	.L68
 756              	.LVL92:
 757              	.L81:
 758              		.loc 1 152 0
 759 0042 FFF7FEFF 		bl	__stack_chk_fail
 760              	.LVL93:
 761              	.L83:
 762 0046 00BF     		.align	2
 763              	.L82:
 764 0048 00000000 		.word	__stack_chk_guard
 765              		.cfi_endproc
 766              	.LFE7:
 767              		.size	VL53L0X_isqrt, .-VL53L0X_isqrt
 768              		.section	.text.VL53L0X_quadrature_sum,"ax",%progbits
 769              		.align	1
 770              		.p2align 4,,15
 771              		.global	VL53L0X_quadrature_sum
 772              		.syntax unified
 773              		.thumb
 774              		.thumb_func
 775              		.fpu fpv4-sp-d16
 776              		.type	VL53L0X_quadrature_sum, %function
 777              	VL53L0X_quadrature_sum:
 778              	.LFB8:
 779              		.loc 1 156 0
 780              		.cfi_startproc
 781              		@ args = 0, pretend = 0, frame = 8
 782              		@ frame_needed = 0, uses_anonymous_args = 0
 783              	.LVL94:
 784 0000 10B5     		push	{r4, lr}
 785              		.cfi_def_cfa_offset 8
 786              		.cfi_offset 4, -8
 787              		.cfi_offset 14, -4
 788 0002 174C     		ldr	r4, .L100
 789 0004 82B0     		sub	sp, sp, #8
 790              		.cfi_def_cfa_offset 16
 791              		.loc 1 156 0
 792 0006 2368     		ldr	r3, [r4]
 793 0008 0193     		str	r3, [sp, #4]
 794              	.LVL95:
 795              		.loc 1 169 0
 796 000a B0F5803F 		cmp	r0, #65536
 797 000e 1AD2     		bcs	.L92
 798              		.loc 1 169 0 is_stmt 0 discriminator 1
ARM GAS  /var/folders/d2/nstgp4h54kz7g1l847x_b8wc0000gn/T//cc2apEbl.s 			page 15


 799 0010 B1F5803F 		cmp	r1, #65536
 800 0014 17D2     		bcs	.L92
 801              		.loc 1 172 0 is_stmt 1
 802 0016 01FB01F1 		mul	r1, r1, r1
 803              	.LVL96:
 804 001a 00FB0011 		mla	r1, r0, r0, r1
 805              	.LVL97:
 806              	.LBB132:
 807              	.LBB133:
 808              		.loc 1 137 0
 809 001e B1F1804F 		cmp	r1, #1073741824
 810              		.loc 1 132 0
 811 0022 4FF08043 		mov	r3, #1073741824
 812              		.loc 1 137 0
 813 0026 03D2     		bcs	.L86
 814              	.LVL98:
 815              	.L87:
 816              		.loc 1 138 0
 817 0028 9B08     		lsrs	r3, r3, #2
 818              	.LVL99:
 819              		.loc 1 137 0
 820 002a 9942     		cmp	r1, r3
 821 002c FCD3     		bcc	.L87
 822              		.loc 1 141 0
 823 002e 93B1     		cbz	r3, .L98
 824              	.LVL100:
 825              	.L86:
 826              		.loc 1 132 0
 827 0030 0020     		movs	r0, #0
 828              	.LVL101:
 829              	.L89:
 830              		.loc 1 142 0
 831 0032 C218     		adds	r2, r0, r3
 832 0034 8A42     		cmp	r2, r1
 833 0036 4FEA5000 		lsr	r0, r0, #1
 834              	.LVL102:
 835              		.loc 1 143 0
 836 003a 9CBF     		itt	ls
 837 003c 891A     		subls	r1, r1, r2
 838              	.LVL103:
 839              		.loc 1 144 0
 840 003e C018     		addls	r0, r0, r3
 841              	.LVL104:
 842              		.loc 1 141 0
 843 0040 9B08     		lsrs	r3, r3, #2
 844              	.LVL105:
 845 0042 F6D1     		bne	.L89
 846 0044 01E0     		b	.L84
 847              	.LVL106:
 848              	.L92:
 849              	.LBE133:
 850              	.LBE132:
 851              		.loc 1 170 0
 852 0046 4FF6FF70 		movw	r0, #65535
 853              	.LVL107:
 854              	.L84:
 855              		.loc 1 175 0
ARM GAS  /var/folders/d2/nstgp4h54kz7g1l847x_b8wc0000gn/T//cc2apEbl.s 			page 16


 856 004a 019A     		ldr	r2, [sp, #4]
 857 004c 2368     		ldr	r3, [r4]
 858 004e 9A42     		cmp	r2, r3
 859 0050 03D1     		bne	.L99
 860 0052 02B0     		add	sp, sp, #8
 861              		.cfi_remember_state
 862              		.cfi_def_cfa_offset 8
 863              		@ sp needed
 864 0054 10BD     		pop	{r4, pc}
 865              	.LVL108:
 866              	.L98:
 867              		.cfi_restore_state
 868              	.LBB135:
 869              	.LBB134:
 870              		.loc 1 131 0
 871 0056 1846     		mov	r0, r3
 872              	.LVL109:
 873              	.LBE134:
 874              	.LBE135:
 875              		.loc 1 174 0
 876 0058 F7E7     		b	.L84
 877              	.LVL110:
 878              	.L99:
 879              		.loc 1 175 0
 880 005a FFF7FEFF 		bl	__stack_chk_fail
 881              	.LVL111:
 882              	.L101:
 883 005e 00BF     		.align	2
 884              	.L100:
 885 0060 00000000 		.word	__stack_chk_guard
 886              		.cfi_endproc
 887              	.LFE8:
 888              		.size	VL53L0X_quadrature_sum, .-VL53L0X_quadrature_sum
 889              		.section	.text.VL53L0X_device_read_strobe,"ax",%progbits
 890              		.align	1
 891              		.p2align 4,,15
 892              		.global	VL53L0X_device_read_strobe
 893              		.syntax unified
 894              		.thumb
 895              		.thumb_func
 896              		.fpu fpv4-sp-d16
 897              		.type	VL53L0X_device_read_strobe, %function
 898              	VL53L0X_device_read_strobe:
 899              	.LFB9:
 900              		.loc 1 179 0
 901              		.cfi_startproc
 902              		@ args = 0, pretend = 0, frame = 8
 903              		@ frame_needed = 0, uses_anonymous_args = 0
 904              	.LVL112:
 905 0000 F0B5     		push	{r4, r5, r6, r7, lr}
 906              		.cfi_def_cfa_offset 20
 907              		.cfi_offset 4, -20
 908              		.cfi_offset 5, -16
 909              		.cfi_offset 6, -12
 910              		.cfi_offset 7, -8
 911              		.cfi_offset 14, -4
 912 0002 174F     		ldr	r7, .L111
ARM GAS  /var/folders/d2/nstgp4h54kz7g1l847x_b8wc0000gn/T//cc2apEbl.s 			page 17


 913 0004 83B0     		sub	sp, sp, #12
 914              		.cfi_def_cfa_offset 32
 915              		.loc 1 179 0
 916 0006 3B68     		ldr	r3, [r7]
 917 0008 0193     		str	r3, [sp, #4]
 918              	.LVL113:
 919              		.loc 1 185 0
 920 000a 0022     		movs	r2, #0
 921 000c 8321     		movs	r1, #131
 922              		.loc 1 179 0
 923 000e 0646     		mov	r6, r0
 924              		.loc 1 185 0
 925 0010 FFF7FEFF 		bl	VL53L0X_WrByte
 926              	.LVL114:
 927              		.loc 1 189 0
 928 0014 0446     		mov	r4, r0
 929 0016 80B9     		cbnz	r0, .L103
 930 0018 4FF4FA65 		mov	r5, #2000
 931 001c 02E0     		b	.L104
 932              	.LVL115:
 933              	.L109:
 934              		.loc 1 193 0 discriminator 1
 935 001e 60B9     		cbnz	r0, .L103
 936              	.LVL116:
 937              		.loc 1 197 0
 938 0020 013D     		subs	r5, r5, #1
 939              	.LVL117:
 940 0022 17D0     		beq	.L108
 941              	.LVL118:
 942              	.L104:
 943              		.loc 1 192 0
 944 0024 0DF10302 		add	r2, sp, #3
 945 0028 8321     		movs	r1, #131
 946 002a 3046     		mov	r0, r6
 947              	.LVL119:
 948 002c FFF7FEFF 		bl	VL53L0X_RdByte
 949              	.LVL120:
 950              		.loc 1 193 0
 951 0030 9DF80330 		ldrb	r3, [sp, #3]	@ zero_extendqisi2
 952              		.loc 1 192 0
 953 0034 0446     		mov	r4, r0
 954              	.LVL121:
 955              		.loc 1 193 0
 956 0036 002B     		cmp	r3, #0
 957 0038 F1D0     		beq	.L109
 958              	.LVL122:
 959              	.L103:
 960              		.loc 1 204 0
 961 003a 0122     		movs	r2, #1
 962 003c 3046     		mov	r0, r6
 963 003e 8321     		movs	r1, #131
 964 0040 FFF7FEFF 		bl	VL53L0X_WrByte
 965              	.LVL123:
 966              		.loc 1 209 0
 967 0044 019A     		ldr	r2, [sp, #4]
 968 0046 3B68     		ldr	r3, [r7]
 969              		.loc 1 204 0
ARM GAS  /var/folders/d2/nstgp4h54kz7g1l847x_b8wc0000gn/T//cc2apEbl.s 			page 18


 970 0048 2043     		orrs	r0, r0, r4
 971              	.LVL124:
 972              		.loc 1 209 0
 973 004a 9A42     		cmp	r2, r3
 974 004c 40B2     		sxtb	r0, r0
 975 004e 04D1     		bne	.L110
 976 0050 03B0     		add	sp, sp, #12
 977              		.cfi_remember_state
 978              		.cfi_def_cfa_offset 20
 979              		@ sp needed
 980 0052 F0BD     		pop	{r4, r5, r6, r7, pc}
 981              	.LVL125:
 982              	.L108:
 983              		.cfi_restore_state
 984              		.loc 1 200 0
 985 0054 6FF00604 		mvn	r4, #6
 986 0058 EFE7     		b	.L103
 987              	.LVL126:
 988              	.L110:
 989              		.loc 1 209 0
 990 005a FFF7FEFF 		bl	__stack_chk_fail
 991              	.LVL127:
 992              	.L112:
 993 005e 00BF     		.align	2
 994              	.L111:
 995 0060 00000000 		.word	__stack_chk_guard
 996              		.cfi_endproc
 997              	.LFE9:
 998              		.size	VL53L0X_device_read_strobe, .-VL53L0X_device_read_strobe
 999              		.section	.text.VL53L0X_get_info_from_device,"ax",%progbits
 1000              		.align	1
 1001              		.p2align 4,,15
 1002              		.global	VL53L0X_get_info_from_device
 1003              		.syntax unified
 1004              		.thumb
 1005              		.thumb_func
 1006              		.fpu fpv4-sp-d16
 1007              		.type	VL53L0X_get_info_from_device, %function
 1008              	VL53L0X_get_info_from_device:
 1009              	.LFB10:
 1010              		.loc 1 212 0
 1011              		.cfi_startproc
 1012              		@ args = 0, pretend = 0, frame = 64
 1013              		@ frame_needed = 0, uses_anonymous_args = 0
 1014              	.LVL128:
 1015 0000 2DE9F04F 		push	{r4, r5, r6, r7, r8, r9, r10, fp, lr}
 1016              		.cfi_def_cfa_offset 36
 1017              		.cfi_offset 4, -36
 1018              		.cfi_offset 5, -32
 1019              		.cfi_offset 6, -28
 1020              		.cfi_offset 7, -24
 1021              		.cfi_offset 8, -20
 1022              		.cfi_offset 9, -16
 1023              		.cfi_offset 10, -12
 1024              		.cfi_offset 11, -8
 1025              		.cfi_offset 14, -4
 1026 0004 DFF8B485 		ldr	r8, .L150
ARM GAS  /var/folders/d2/nstgp4h54kz7g1l847x_b8wc0000gn/T//cc2apEbl.s 			page 19


 1027              		.loc 1 238 0
 1028 0008 90F8F060 		ldrb	r6, [r0, #240]	@ zero_extendqisi2
 1029              		.loc 1 212 0
 1030 000c D8F80030 		ldr	r3, [r8]
 1031 0010 91B0     		sub	sp, sp, #68
 1032              		.cfi_def_cfa_offset 104
 1033              		.loc 1 221 0
 1034 0012 4FF0000B 		mov	fp, #0
 1035              		.loc 1 243 0
 1036 0016 072E     		cmp	r6, #7
 1037              		.loc 1 212 0
 1038 0018 0F93     		str	r3, [sp, #60]
 1039              	.LVL129:
 1040              		.loc 1 222 0
 1041 001a CDE906BB 		strd	fp, fp, [sp, #24]
 1042              	.LVL130:
 1043              		.loc 1 243 0
 1044 001e 0AD1     		bne	.L144
 1045 0020 5C46     		mov	r4, fp
 1046              	.LVL131:
 1047              	.L114:
 1048              		.loc 1 475 0
 1049 0022 0F9A     		ldr	r2, [sp, #60]
 1050 0024 D8F80030 		ldr	r3, [r8]
 1051 0028 9A42     		cmp	r2, r3
 1052 002a 2046     		mov	r0, r4
 1053 002c 40F0C482 		bne	.L145
 1054 0030 11B0     		add	sp, sp, #68
 1055              		.cfi_remember_state
 1056              		.cfi_def_cfa_offset 36
 1057              		@ sp needed
 1058 0032 BDE8F08F 		pop	{r4, r5, r6, r7, r8, r9, r10, fp, pc}
 1059              	.LVL132:
 1060              	.L144:
 1061              		.cfi_restore_state
 1062 0036 0F46     		mov	r7, r1
 1063              		.loc 1 245 0
 1064 0038 0122     		movs	r2, #1
 1065 003a 8021     		movs	r1, #128
 1066              	.LVL133:
 1067 003c 0546     		mov	r5, r0
 1068 003e FFF7FEFF 		bl	VL53L0X_WrByte
 1069              	.LVL134:
 1070              		.loc 1 246 0
 1071 0042 0122     		movs	r2, #1
 1072              		.loc 1 245 0
 1073 0044 8146     		mov	r9, r0
 1074              	.LVL135:
 1075              		.loc 1 246 0
 1076 0046 FF21     		movs	r1, #255
 1077 0048 2846     		mov	r0, r5
 1078 004a FFF7FEFF 		bl	VL53L0X_WrByte
 1079              	.LVL136:
 1080              		.loc 1 247 0
 1081 004e 5A46     		mov	r2, fp
 1082              		.loc 1 246 0
 1083 0050 49EA0009 		orr	r9, r9, r0
ARM GAS  /var/folders/d2/nstgp4h54kz7g1l847x_b8wc0000gn/T//cc2apEbl.s 			page 20


 1084              	.LVL137:
 1085              		.loc 1 247 0
 1086 0054 5946     		mov	r1, fp
 1087 0056 2846     		mov	r0, r5
 1088 0058 FFF7FEFF 		bl	VL53L0X_WrByte
 1089              	.LVL138:
 1090              		.loc 1 246 0
 1091 005c 4FFA89F9 		sxtb	r9, r9
 1092              	.LVL139:
 1093              		.loc 1 249 0
 1094 0060 0622     		movs	r2, #6
 1095              		.loc 1 247 0
 1096 0062 49EA0009 		orr	r9, r9, r0
 1097              	.LVL140:
 1098              		.loc 1 249 0
 1099 0066 FF21     		movs	r1, #255
 1100 0068 2846     		mov	r0, r5
 1101 006a FFF7FEFF 		bl	VL53L0X_WrByte
 1102              	.LVL141:
 1103              		.loc 1 247 0
 1104 006e 4FFA89F9 		sxtb	r9, r9
 1105              	.LVL142:
 1106              		.loc 1 249 0
 1107 0072 49EA0009 		orr	r9, r9, r0
 1108              	.LVL143:
 1109              		.loc 1 250 0
 1110 0076 0DF11102 		add	r2, sp, #17
 1111 007a 8321     		movs	r1, #131
 1112 007c 2846     		mov	r0, r5
 1113 007e FFF7FEFF 		bl	VL53L0X_RdByte
 1114              	.LVL144:
 1115              		.loc 1 251 0
 1116 0082 9DF81120 		ldrb	r2, [sp, #17]	@ zero_extendqisi2
 1117              		.loc 1 249 0
 1118 0086 4FFA89F9 		sxtb	r9, r9
 1119              	.LVL145:
 1120              		.loc 1 250 0
 1121 008a 49EA0009 		orr	r9, r9, r0
 1122              	.LVL146:
 1123              		.loc 1 251 0
 1124 008e 42F00402 		orr	r2, r2, #4
 1125 0092 8321     		movs	r1, #131
 1126 0094 2846     		mov	r0, r5
 1127 0096 FFF7FEFF 		bl	VL53L0X_WrByte
 1128              	.LVL147:
 1129              		.loc 1 250 0
 1130 009a 4FFA89F9 		sxtb	r9, r9
 1131              	.LVL148:
 1132              		.loc 1 252 0
 1133 009e 0722     		movs	r2, #7
 1134              		.loc 1 251 0
 1135 00a0 49EA0009 		orr	r9, r9, r0
 1136              	.LVL149:
 1137              		.loc 1 252 0
 1138 00a4 FF21     		movs	r1, #255
 1139 00a6 2846     		mov	r0, r5
 1140 00a8 FFF7FEFF 		bl	VL53L0X_WrByte
ARM GAS  /var/folders/d2/nstgp4h54kz7g1l847x_b8wc0000gn/T//cc2apEbl.s 			page 21


 1141              	.LVL150:
 1142              		.loc 1 251 0
 1143 00ac 4FFA89F9 		sxtb	r9, r9
 1144              	.LVL151:
 1145              		.loc 1 253 0
 1146 00b0 0122     		movs	r2, #1
 1147 00b2 8121     		movs	r1, #129
 1148              		.loc 1 252 0
 1149 00b4 49EA0009 		orr	r9, r9, r0
 1150              	.LVL152:
 1151              		.loc 1 253 0
 1152 00b8 2846     		mov	r0, r5
 1153 00ba FFF7FEFF 		bl	VL53L0X_WrByte
 1154              	.LVL153:
 1155              		.loc 1 252 0
 1156 00be 4FFA89F9 		sxtb	r9, r9
 1157              	.LVL154:
 1158              		.loc 1 253 0
 1159 00c2 49EA0009 		orr	r9, r9, r0
 1160              	.LVL155:
 1161              		.loc 1 255 0
 1162 00c6 2846     		mov	r0, r5
 1163 00c8 FFF7FEFF 		bl	VL53L0X_PollingDelay
 1164              	.LVL156:
 1165              		.loc 1 253 0
 1166 00cc 4FFA89F9 		sxtb	r9, r9
 1167              	.LVL157:
 1168              		.loc 1 255 0
 1169 00d0 49EA0009 		orr	r9, r9, r0
 1170              	.LVL158:
 1171              		.loc 1 257 0
 1172 00d4 0122     		movs	r2, #1
 1173 00d6 8021     		movs	r1, #128
 1174 00d8 2846     		mov	r0, r5
 1175 00da FFF7FEFF 		bl	VL53L0X_WrByte
 1176              	.LVL159:
 1177              		.loc 1 255 0
 1178 00de 4FFA89F9 		sxtb	r9, r9
 1179              	.LVL160:
 1180              		.loc 1 257 0
 1181 00e2 49EA0000 		orr	r0, r9, r0
 1182              		.loc 1 259 0
 1183 00e6 17F0010A 		ands	r10, r7, #1
 1184              		.loc 1 257 0
 1185 00ea 44B2     		sxtb	r4, r0
 1186              	.LVL161:
 1187              		.loc 1 259 0
 1188 00ec 13D0     		beq	.L127
 1189              		.loc 1 259 0 is_stmt 0 discriminator 1
 1190 00ee F307     		lsls	r3, r6, #31
 1191 00f0 40F1FE81 		bpl	.L146
 1192              		.loc 1 291 0 is_stmt 1
 1193 00f4 17F00203 		ands	r3, r7, #2
 1194              		.loc 1 219 0
 1195 00f8 CDE901BB 		strd	fp, fp, [sp, #4]
 1196              	.LVL162:
 1197              		.loc 1 291 0
ARM GAS  /var/folders/d2/nstgp4h54kz7g1l847x_b8wc0000gn/T//cc2apEbl.s 			page 22


 1198 00fc 0093     		str	r3, [sp]
 1199 00fe 10D1     		bne	.L147
 1200              	.L116:
 1201              		.loc 1 356 0
 1202 0100 17F0040B 		ands	fp, r7, #4
 1203 0104 00F0EA80 		beq	.L129
 1204              		.loc 1 356 0 is_stmt 0 discriminator 1
 1205 0108 7007     		lsls	r0, r6, #29
 1206 010a 40F16B81 		bpl	.L148
 1207              		.loc 1 227 0 is_stmt 1
 1208 010e 0023     		movs	r3, #0
 1209 0110 0393     		str	r3, [sp, #12]
 1210              		.loc 1 226 0
 1211 0112 9946     		mov	r9, r3
 1212 0114 E5E0     		b	.L117
 1213              	.LVL163:
 1214              	.L127:
 1215              		.loc 1 219 0
 1216 0116 CDE901AA 		strd	r10, r10, [sp, #4]
 1217              	.LVL164:
 1218              	.L115:
 1219              		.loc 1 291 0
 1220 011a 17F00203 		ands	r3, r7, #2
 1221 011e 0093     		str	r3, [sp]
 1222 0120 EED0     		beq	.L116
 1223              	.L147:
 1224              		.loc 1 291 0 is_stmt 0 discriminator 1
 1225 0122 16F00209 		ands	r9, r6, #2
 1226 0126 EBD1     		bne	.L116
 1227              		.loc 1 294 0 is_stmt 1
 1228 0128 0222     		movs	r2, #2
 1229 012a 9421     		movs	r1, #148
 1230 012c 2846     		mov	r0, r5
 1231 012e FFF7FEFF 		bl	VL53L0X_WrByte
 1232              	.LVL165:
 1233 0132 8346     		mov	fp, r0
 1234              	.LVL166:
 1235              		.loc 1 295 0
 1236 0134 2846     		mov	r0, r5
 1237 0136 FFF7FEFF 		bl	VL53L0X_device_read_strobe
 1238              	.LVL167:
 1239 013a 4BEA0000 		orr	r0, fp, r0
 1240 013e 0443     		orrs	r4, r4, r0
 1241              	.LVL168:
 1242              		.loc 1 296 0
 1243 0140 0DF11202 		add	r2, sp, #18
 1244 0144 9021     		movs	r1, #144
 1245 0146 2846     		mov	r0, r5
 1246 0148 FFF7FEFF 		bl	VL53L0X_RdByte
 1247              	.LVL169:
 1248              		.loc 1 295 0
 1249 014c 64B2     		sxtb	r4, r4
 1250              	.LVL170:
 1251              		.loc 1 298 0
 1252 014e 7B22     		movs	r2, #123
 1253 0150 9421     		movs	r1, #148
 1254              		.loc 1 296 0
ARM GAS  /var/folders/d2/nstgp4h54kz7g1l847x_b8wc0000gn/T//cc2apEbl.s 			page 23


 1255 0152 0443     		orrs	r4, r4, r0
 1256              	.LVL171:
 1257              		.loc 1 298 0
 1258 0154 2846     		mov	r0, r5
 1259 0156 FFF7FEFF 		bl	VL53L0X_WrByte
 1260              	.LVL172:
 1261              		.loc 1 296 0
 1262 015a 64B2     		sxtb	r4, r4
 1263              	.LVL173:
 1264              		.loc 1 298 0
 1265 015c 0443     		orrs	r4, r4, r0
 1266              	.LVL174:
 1267              		.loc 1 299 0
 1268 015e 2846     		mov	r0, r5
 1269 0160 FFF7FEFF 		bl	VL53L0X_device_read_strobe
 1270              	.LVL175:
 1271              		.loc 1 298 0
 1272 0164 64B2     		sxtb	r4, r4
 1273              	.LVL176:
 1274              		.loc 1 300 0
 1275 0166 0DF11302 		add	r2, sp, #19
 1276              		.loc 1 299 0
 1277 016a 0443     		orrs	r4, r4, r0
 1278              	.LVL177:
 1279              		.loc 1 300 0
 1280 016c 9021     		movs	r1, #144
 1281 016e 2846     		mov	r0, r5
 1282 0170 FFF7FEFF 		bl	VL53L0X_RdByte
 1283              	.LVL178:
 1284              		.loc 1 299 0
 1285 0174 64B2     		sxtb	r4, r4
 1286              	.LVL179:
 1287              		.loc 1 302 0
 1288 0176 7722     		movs	r2, #119
 1289 0178 9421     		movs	r1, #148
 1290              		.loc 1 300 0
 1291 017a 0443     		orrs	r4, r4, r0
 1292              	.LVL180:
 1293              		.loc 1 302 0
 1294 017c 2846     		mov	r0, r5
 1295 017e FFF7FEFF 		bl	VL53L0X_WrByte
 1296              	.LVL181:
 1297              		.loc 1 300 0
 1298 0182 64B2     		sxtb	r4, r4
 1299              	.LVL182:
 1300              		.loc 1 302 0
 1301 0184 0443     		orrs	r4, r4, r0
 1302              	.LVL183:
 1303              		.loc 1 303 0
 1304 0186 2846     		mov	r0, r5
 1305 0188 FFF7FEFF 		bl	VL53L0X_device_read_strobe
 1306              	.LVL184:
 1307              		.loc 1 302 0
 1308 018c 64B2     		sxtb	r4, r4
 1309              	.LVL185:
 1310              		.loc 1 303 0
 1311 018e 0443     		orrs	r4, r4, r0
ARM GAS  /var/folders/d2/nstgp4h54kz7g1l847x_b8wc0000gn/T//cc2apEbl.s 			page 24


 1312              	.LVL186:
 1313              		.loc 1 304 0
 1314 0190 05AA     		add	r2, sp, #20
 1315 0192 9021     		movs	r1, #144
 1316 0194 2846     		mov	r0, r5
 1317 0196 FFF7FEFF 		bl	VL53L0X_RdDWord
 1318              	.LVL187:
 1319              		.loc 1 306 0
 1320 019a 059B     		ldr	r3, [sp, #20]
 1321              		.loc 1 303 0
 1322 019c 64B2     		sxtb	r4, r4
 1323              	.LVL188:
 1324              		.loc 1 311 0
 1325 019e DA00     		lsls	r2, r3, #3
 1326              		.loc 1 307 0
 1327 01a0 C3F38641 		ubfx	r1, r3, #18, #7
 1328              		.loc 1 304 0
 1329 01a4 0443     		orrs	r4, r4, r0
 1330              	.LVL189:
 1331              		.loc 1 311 0
 1332 01a6 02F07802 		and	r2, r2, #120
 1333              		.loc 1 308 0
 1334 01aa C3F3C620 		ubfx	r0, r3, #11, #7
 1335              		.loc 1 306 0
 1336 01ae 4FEA536C 		lsr	ip, r3, #25
 1337              		.loc 1 311 0
 1338 01b2 8DF81120 		strb	r2, [sp, #17]
 1339              		.loc 1 309 0
 1340 01b6 C3F30613 		ubfx	r3, r3, #4, #7
 1341              		.loc 1 313 0
 1342 01ba 7822     		movs	r2, #120
 1343              		.loc 1 307 0
 1344 01bc 8DF82910 		strb	r1, [sp, #41]
 1345              		.loc 1 308 0
 1346 01c0 8DF82A00 		strb	r0, [sp, #42]
 1347              		.loc 1 313 0
 1348 01c4 9421     		movs	r1, #148
 1349 01c6 2846     		mov	r0, r5
 1350              		.loc 1 306 0
 1351 01c8 8DF828C0 		strb	ip, [sp, #40]
 1352              		.loc 1 309 0
 1353 01cc 8DF82B30 		strb	r3, [sp, #43]
 1354              		.loc 1 313 0
 1355 01d0 FFF7FEFF 		bl	VL53L0X_WrByte
 1356              	.LVL190:
 1357              		.loc 1 304 0
 1358 01d4 64B2     		sxtb	r4, r4
 1359              	.LVL191:
 1360              		.loc 1 313 0
 1361 01d6 0443     		orrs	r4, r4, r0
 1362              	.LVL192:
 1363              		.loc 1 314 0
 1364 01d8 2846     		mov	r0, r5
 1365 01da FFF7FEFF 		bl	VL53L0X_device_read_strobe
 1366              	.LVL193:
 1367              		.loc 1 313 0
 1368 01de 64B2     		sxtb	r4, r4
ARM GAS  /var/folders/d2/nstgp4h54kz7g1l847x_b8wc0000gn/T//cc2apEbl.s 			page 25


 1369              	.LVL194:
 1370              		.loc 1 315 0
 1371 01e0 05AA     		add	r2, sp, #20
 1372              		.loc 1 314 0
 1373 01e2 0443     		orrs	r4, r4, r0
 1374              	.LVL195:
 1375              		.loc 1 315 0
 1376 01e4 9021     		movs	r1, #144
 1377 01e6 2846     		mov	r0, r5
 1378 01e8 FFF7FEFF 		bl	VL53L0X_RdDWord
 1379              	.LVL196:
 1380              		.loc 1 318 0
 1381 01ec 059B     		ldr	r3, [sp, #20]
 1382              		.loc 1 317 0
 1383 01ee 9DF811C0 		ldrb	ip, [sp, #17]	@ zero_extendqisi2
 1384              		.loc 1 324 0
 1385 01f2 9901     		lsls	r1, r3, #6
 1386 01f4 01F04001 		and	r1, r1, #64
 1387              		.loc 1 314 0
 1388 01f8 64B2     		sxtb	r4, r4
 1389              	.LVL197:
 1390              		.loc 1 319 0
 1391 01fa C3F38652 		ubfx	r2, r3, #22, #7
 1392              		.loc 1 315 0
 1393 01fe 0443     		orrs	r4, r4, r0
 1394              	.LVL198:
 1395              		.loc 1 324 0
 1396 0200 8DF81110 		strb	r1, [sp, #17]
 1397              		.loc 1 321 0
 1398 0204 C3F30620 		ubfx	r0, r3, #8, #7
 1399              		.loc 1 320 0
 1400 0208 C3F3C631 		ubfx	r1, r3, #15, #7
 1401              		.loc 1 317 0
 1402 020c 0CEB537C 		add	ip, ip, r3, lsr #29
 1403              		.loc 1 319 0
 1404 0210 8DF82D20 		strb	r2, [sp, #45]
 1405              		.loc 1 322 0
 1406 0214 C3F34603 		ubfx	r3, r3, #1, #7
 1407              		.loc 1 326 0
 1408 0218 7922     		movs	r2, #121
 1409              		.loc 1 320 0
 1410 021a 8DF82E10 		strb	r1, [sp, #46]
 1411              		.loc 1 321 0
 1412 021e 8DF82F00 		strb	r0, [sp, #47]
 1413              		.loc 1 326 0
 1414 0222 9421     		movs	r1, #148
 1415 0224 2846     		mov	r0, r5
 1416              		.loc 1 317 0
 1417 0226 8DF82CC0 		strb	ip, [sp, #44]
 1418              		.loc 1 322 0
 1419 022a 8DF83030 		strb	r3, [sp, #48]
 1420              		.loc 1 326 0
 1421 022e FFF7FEFF 		bl	VL53L0X_WrByte
 1422              	.LVL199:
 1423              		.loc 1 315 0
 1424 0232 64B2     		sxtb	r4, r4
 1425              	.LVL200:
ARM GAS  /var/folders/d2/nstgp4h54kz7g1l847x_b8wc0000gn/T//cc2apEbl.s 			page 26


 1426              		.loc 1 326 0
 1427 0234 0443     		orrs	r4, r4, r0
 1428              	.LVL201:
 1429              		.loc 1 328 0
 1430 0236 2846     		mov	r0, r5
 1431 0238 FFF7FEFF 		bl	VL53L0X_device_read_strobe
 1432              	.LVL202:
 1433              		.loc 1 326 0
 1434 023c 64B2     		sxtb	r4, r4
 1435              	.LVL203:
 1436              		.loc 1 330 0
 1437 023e 05AA     		add	r2, sp, #20
 1438              		.loc 1 328 0
 1439 0240 0443     		orrs	r4, r4, r0
 1440              	.LVL204:
 1441              		.loc 1 330 0
 1442 0242 9021     		movs	r1, #144
 1443 0244 2846     		mov	r0, r5
 1444 0246 FFF7FEFF 		bl	VL53L0X_RdDWord
 1445              	.LVL205:
 1446              		.loc 1 333 0
 1447 024a 059B     		ldr	r3, [sp, #20]
 1448              		.loc 1 332 0
 1449 024c 9DF81120 		ldrb	r2, [sp, #17]	@ zero_extendqisi2
 1450              		.loc 1 328 0
 1451 0250 64B2     		sxtb	r4, r4
 1452              	.LVL206:
 1453              		.loc 1 332 0
 1454 0252 02EB9362 		add	r2, r2, r3, lsr #26
 1455              		.loc 1 334 0
 1456 0256 C3F3C641 		ubfx	r1, r3, #19, #7
 1457              		.loc 1 338 0
 1458 025a 4FEA830C 		lsl	ip, r3, #2
 1459              		.loc 1 330 0
 1460 025e 0443     		orrs	r4, r4, r0
 1461              	.LVL207:
 1462              		.loc 1 335 0
 1463 0260 C3F30630 		ubfx	r0, r3, #12, #7
 1464              		.loc 1 338 0
 1465 0264 0CF07C0C 		and	ip, ip, #124
 1466              		.loc 1 336 0
 1467 0268 C3F34613 		ubfx	r3, r3, #5, #7
 1468              		.loc 1 332 0
 1469 026c 8DF83120 		strb	r2, [sp, #49]
 1470              		.loc 1 334 0
 1471 0270 8DF83210 		strb	r1, [sp, #50]
 1472              		.loc 1 340 0
 1473 0274 7A22     		movs	r2, #122
 1474 0276 9421     		movs	r1, #148
 1475              		.loc 1 335 0
 1476 0278 8DF83300 		strb	r0, [sp, #51]
 1477              		.loc 1 340 0
 1478 027c 2846     		mov	r0, r5
 1479              		.loc 1 338 0
 1480 027e 8DF811C0 		strb	ip, [sp, #17]
 1481              		.loc 1 336 0
 1482 0282 8DF83430 		strb	r3, [sp, #52]
ARM GAS  /var/folders/d2/nstgp4h54kz7g1l847x_b8wc0000gn/T//cc2apEbl.s 			page 27


 1483              		.loc 1 340 0
 1484 0286 FFF7FEFF 		bl	VL53L0X_WrByte
 1485              	.LVL208:
 1486              		.loc 1 330 0
 1487 028a 64B2     		sxtb	r4, r4
 1488              	.LVL209:
 1489              		.loc 1 340 0
 1490 028c 0443     		orrs	r4, r4, r0
 1491              	.LVL210:
 1492              		.loc 1 342 0
 1493 028e 2846     		mov	r0, r5
 1494 0290 FFF7FEFF 		bl	VL53L0X_device_read_strobe
 1495              	.LVL211:
 1496              		.loc 1 340 0
 1497 0294 64B2     		sxtb	r4, r4
 1498              	.LVL212:
 1499              		.loc 1 344 0
 1500 0296 05AA     		add	r2, sp, #20
 1501              		.loc 1 342 0
 1502 0298 0443     		orrs	r4, r4, r0
 1503              	.LVL213:
 1504              		.loc 1 344 0
 1505 029a 9021     		movs	r1, #144
 1506 029c 2846     		mov	r0, r5
 1507 029e FFF7FEFF 		bl	VL53L0X_RdDWord
 1508              	.LVL214:
 1509              		.loc 1 347 0
 1510 02a2 059B     		ldr	r3, [sp, #20]
 1511              		.loc 1 346 0
 1512 02a4 9DF81120 		ldrb	r2, [sp, #17]	@ zero_extendqisi2
 1513              		.loc 1 352 0
 1514 02a8 8DF83A90 		strb	r9, [sp, #58]
 1515              		.loc 1 342 0
 1516 02ac 64B2     		sxtb	r4, r4
 1517              	.LVL215:
 1518              		.loc 1 346 0
 1519 02ae 02EB9372 		add	r2, r2, r3, lsr #30
 1520              		.loc 1 348 0
 1521 02b2 C3F3C65E 		ubfx	lr, r3, #23, #7
 1522              		.loc 1 349 0
 1523 02b6 C3F3064C 		ubfx	ip, r3, #16, #7
 1524              		.loc 1 350 0
 1525 02ba C3F34621 		ubfx	r1, r3, #9, #7
 1526              		.loc 1 344 0
 1527 02be 0443     		orrs	r4, r4, r0
 1528              	.LVL216:
 1529              		.loc 1 351 0
 1530 02c0 C3F38603 		ubfx	r3, r3, #2, #7
 1531              		.loc 1 344 0
 1532 02c4 64B2     		sxtb	r4, r4
 1533              	.LVL217:
 1534              		.loc 1 346 0
 1535 02c6 8DF83520 		strb	r2, [sp, #53]
 1536              		.loc 1 348 0
 1537 02ca 8DF836E0 		strb	lr, [sp, #54]
 1538              		.loc 1 349 0
 1539 02ce 8DF837C0 		strb	ip, [sp, #55]
ARM GAS  /var/folders/d2/nstgp4h54kz7g1l847x_b8wc0000gn/T//cc2apEbl.s 			page 28


 1540              		.loc 1 350 0
 1541 02d2 8DF83810 		strb	r1, [sp, #56]
 1542              		.loc 1 351 0
 1543 02d6 8DF83930 		strb	r3, [sp, #57]
 1544 02da 11E7     		b	.L116
 1545              	.L129:
 1546              		.loc 1 227 0
 1547 02dc CDF80CB0 		str	fp, [sp, #12]
 1548              		.loc 1 226 0
 1549 02e0 D946     		mov	r9, fp
 1550              	.LVL218:
 1551              	.L117:
 1552              		.loc 1 396 0
 1553 02e2 0022     		movs	r2, #0
 1554 02e4 8121     		movs	r1, #129
 1555 02e6 2846     		mov	r0, r5
 1556 02e8 FFF7FEFF 		bl	VL53L0X_WrByte
 1557              	.LVL219:
 1558              		.loc 1 397 0
 1559 02ec 0622     		movs	r2, #6
 1560              		.loc 1 396 0
 1561 02ee 0443     		orrs	r4, r4, r0
 1562              	.LVL220:
 1563              		.loc 1 397 0
 1564 02f0 FF21     		movs	r1, #255
 1565 02f2 2846     		mov	r0, r5
 1566 02f4 FFF7FEFF 		bl	VL53L0X_WrByte
 1567              	.LVL221:
 1568              		.loc 1 396 0
 1569 02f8 64B2     		sxtb	r4, r4
 1570              	.LVL222:
 1571              		.loc 1 398 0
 1572 02fa 0DF11102 		add	r2, sp, #17
 1573              		.loc 1 397 0
 1574 02fe 0443     		orrs	r4, r4, r0
 1575              	.LVL223:
 1576              		.loc 1 398 0
 1577 0300 8321     		movs	r1, #131
 1578 0302 2846     		mov	r0, r5
 1579 0304 FFF7FEFF 		bl	VL53L0X_RdByte
 1580              	.LVL224:
 1581              		.loc 1 399 0
 1582 0308 9DF81120 		ldrb	r2, [sp, #17]	@ zero_extendqisi2
 1583              		.loc 1 397 0
 1584 030c 64B2     		sxtb	r4, r4
 1585              	.LVL225:
 1586              		.loc 1 398 0
 1587 030e 0443     		orrs	r4, r4, r0
 1588              	.LVL226:
 1589              		.loc 1 399 0
 1590 0310 02F0FB02 		and	r2, r2, #251
 1591 0314 8321     		movs	r1, #131
 1592 0316 2846     		mov	r0, r5
 1593 0318 FFF7FEFF 		bl	VL53L0X_WrByte
 1594              	.LVL227:
 1595              		.loc 1 398 0
 1596 031c 64B2     		sxtb	r4, r4
ARM GAS  /var/folders/d2/nstgp4h54kz7g1l847x_b8wc0000gn/T//cc2apEbl.s 			page 29


 1597              	.LVL228:
 1598              		.loc 1 400 0
 1599 031e 0122     		movs	r2, #1
 1600              		.loc 1 399 0
 1601 0320 0443     		orrs	r4, r4, r0
 1602              	.LVL229:
 1603              		.loc 1 400 0
 1604 0322 FF21     		movs	r1, #255
 1605 0324 2846     		mov	r0, r5
 1606 0326 FFF7FEFF 		bl	VL53L0X_WrByte
 1607              	.LVL230:
 1608              		.loc 1 399 0
 1609 032a 64B2     		sxtb	r4, r4
 1610              	.LVL231:
 1611              		.loc 1 401 0
 1612 032c 0122     		movs	r2, #1
 1613              		.loc 1 400 0
 1614 032e 0443     		orrs	r4, r4, r0
 1615              	.LVL232:
 1616              		.loc 1 401 0
 1617 0330 0021     		movs	r1, #0
 1618 0332 2846     		mov	r0, r5
 1619 0334 FFF7FEFF 		bl	VL53L0X_WrByte
 1620              	.LVL233:
 1621              		.loc 1 400 0
 1622 0338 64B2     		sxtb	r4, r4
 1623              	.LVL234:
 1624              		.loc 1 403 0
 1625 033a 0022     		movs	r2, #0
 1626              		.loc 1 401 0
 1627 033c 0443     		orrs	r4, r4, r0
 1628              	.LVL235:
 1629              		.loc 1 403 0
 1630 033e FF21     		movs	r1, #255
 1631 0340 2846     		mov	r0, r5
 1632 0342 FFF7FEFF 		bl	VL53L0X_WrByte
 1633              	.LVL236:
 1634              		.loc 1 401 0
 1635 0346 64B2     		sxtb	r4, r4
 1636              	.LVL237:
 1637              		.loc 1 403 0
 1638 0348 0443     		orrs	r4, r4, r0
 1639              	.LVL238:
 1640              		.loc 1 404 0
 1641 034a 0022     		movs	r2, #0
 1642 034c 8021     		movs	r1, #128
 1643 034e 2846     		mov	r0, r5
 1644 0350 FFF7FEFF 		bl	VL53L0X_WrByte
 1645              	.LVL239:
 1646              		.loc 1 403 0
 1647 0354 64B2     		sxtb	r4, r4
 1648              	.LVL240:
 1649              		.loc 1 404 0
 1650 0356 0443     		orrs	r4, r4, r0
 1651              	.LVL241:
 1652 0358 64B2     		sxtb	r4, r4
 1653              	.LVL242:
ARM GAS  /var/folders/d2/nstgp4h54kz7g1l847x_b8wc0000gn/T//cc2apEbl.s 			page 30


 1654              		.loc 1 407 0
 1655 035a 002C     		cmp	r4, #0
 1656 035c 7FF461AE 		bne	.L114
 1657              		.loc 1 410 0
 1658 0360 BAF1000F 		cmp	r10, #0
 1659 0364 14D0     		beq	.L119
 1660              		.loc 1 410 0 is_stmt 0 discriminator 1
 1661 0366 F107     		lsls	r1, r6, #31
 1662 0368 12D4     		bmi	.L119
 1663              		.loc 1 412 0 is_stmt 1
 1664 036a 9DF80430 		ldrb	r3, [sp, #4]	@ zero_extendqisi2
 1665 036e 85F81331 		strb	r3, [r5, #275]
 1666              		.loc 1 415 0
 1667 0372 9DF80830 		ldrb	r3, [sp, #8]	@ zero_extendqisi2
 1668 0376 85F81431 		strb	r3, [r5, #276]
 1669              	.LVL243:
 1670 037a 08A9     		add	r1, sp, #32
 1671 037c 05F59572 		add	r2, r5, #298
 1672 0380 05F5987C 		add	ip, r5, #304
 1673              	.LVL244:
 1674              	.L120:
 1675              		.loc 1 420 0 discriminator 3
 1676 0384 11F8013B 		ldrb	r3, [r1], #1	@ zero_extendqisi2
 1677              	.LVL245:
 1678              		.loc 1 419 0 discriminator 3
 1679 0388 02F8013B 		strb	r3, [r2], #1
 1680              	.LVL246:
 1681              		.loc 1 418 0 discriminator 3
 1682 038c 6245     		cmp	r2, ip
 1683 038e F9D1     		bne	.L120
 1684              	.LVL247:
 1685              	.L119:
 1686              		.loc 1 424 0
 1687 0390 009B     		ldr	r3, [sp]
 1688 0392 73B1     		cbz	r3, .L121
 1689              		.loc 1 424 0 is_stmt 0 discriminator 1
 1690 0394 B207     		lsls	r2, r6, #30
 1691 0396 0CD4     		bmi	.L121
 1692              		.loc 1 426 0 is_stmt 1
 1693 0398 9DF81210 		ldrb	r1, [sp, #18]	@ zero_extendqisi2
 1694              		.loc 1 429 0
 1695 039c 9DF81320 		ldrb	r2, [sp, #19]	@ zero_extendqisi2
 1696              		.loc 1 426 0
 1697 03a0 85F8F110 		strb	r1, [r5, #241]
 1698              		.loc 1 429 0
 1699 03a4 85F8F220 		strb	r2, [r5, #242]
 1700              	.LVL248:
 1701              		.loc 1 434 0
 1702 03a8 0AA9     		add	r1, sp, #40
 1703 03aa 05F1F300 		add	r0, r5, #243
 1704              	.LVL249:
 1705 03ae FFF7FEFF 		bl	strcpy
 1706              	.LVL250:
 1707              	.L121:
 1708              		.loc 1 438 0
 1709 03b2 BBF1000F 		cmp	fp, #0
 1710 03b6 11D0     		beq	.L122
ARM GAS  /var/folders/d2/nstgp4h54kz7g1l847x_b8wc0000gn/T//cc2apEbl.s 			page 31


 1711              		.loc 1 438 0 is_stmt 0 discriminator 1
 1712 03b8 7307     		lsls	r3, r6, #29
 1713 03ba 0FD4     		bmi	.L122
 1714              		.loc 1 446 0 is_stmt 1
 1715 03bc 039B     		ldr	r3, [sp, #12]
 1716              		.loc 1 440 0
 1717 03be 069A     		ldr	r2, [sp, #24]
 1718 03c0 C5F81821 		str	r2, [r5, #280]
 1719              		.loc 1 446 0
 1720 03c4 5B02     		lsls	r3, r3, #9
 1721              		.loc 1 450 0
 1722 03c6 C5F82031 		str	r3, [r5, #288]
 1723              		.loc 1 443 0
 1724 03ca 079B     		ldr	r3, [sp, #28]
 1725 03cc C5F81C31 		str	r3, [r5, #284]
 1726              	.LVL251:
 1727              		.loc 1 455 0
 1728 03d0 B9F1000F 		cmp	r9, #0
 1729 03d4 40F0E380 		bne	.L149
 1730 03d8 4B46     		mov	r3, r9
 1731              	.LVL252:
 1732              	.L123:
 1733              		.loc 1 464 0
 1734 03da EB60     		str	r3, [r5, #12]
 1735              	.LVL253:
 1736              	.L122:
 1737              		.loc 1 468 0
 1738 03dc 3E43     		orrs	r6, r6, r7
 1739              	.LVL254:
 1740              		.loc 1 469 0
 1741 03de 85F8F060 		strb	r6, [r5, #240]
 1742 03e2 1EE6     		b	.L114
 1743              	.LVL255:
 1744              	.L148:
 1745              		.loc 1 359 0
 1746 03e4 7B22     		movs	r2, #123
 1747 03e6 9421     		movs	r1, #148
 1748 03e8 2846     		mov	r0, r5
 1749 03ea FFF7FEFF 		bl	VL53L0X_WrByte
 1750              	.LVL256:
 1751 03ee 8146     		mov	r9, r0
 1752              	.LVL257:
 1753              		.loc 1 360 0
 1754 03f0 2846     		mov	r0, r5
 1755 03f2 FFF7FEFF 		bl	VL53L0X_device_read_strobe
 1756              	.LVL258:
 1757 03f6 49EA0000 		orr	r0, r9, r0
 1758 03fa 0443     		orrs	r4, r4, r0
 1759              	.LVL259:
 1760              		.loc 1 361 0
 1761 03fc 06AA     		add	r2, sp, #24
 1762 03fe 9021     		movs	r1, #144
 1763 0400 2846     		mov	r0, r5
 1764 0402 FFF7FEFF 		bl	VL53L0X_RdDWord
 1765              	.LVL260:
 1766              		.loc 1 360 0
 1767 0406 64B2     		sxtb	r4, r4
ARM GAS  /var/folders/d2/nstgp4h54kz7g1l847x_b8wc0000gn/T//cc2apEbl.s 			page 32


 1768              	.LVL261:
 1769              		.loc 1 363 0
 1770 0408 7C22     		movs	r2, #124
 1771 040a 9421     		movs	r1, #148
 1772              		.loc 1 361 0
 1773 040c 0443     		orrs	r4, r4, r0
 1774              	.LVL262:
 1775              		.loc 1 363 0
 1776 040e 2846     		mov	r0, r5
 1777 0410 FFF7FEFF 		bl	VL53L0X_WrByte
 1778              	.LVL263:
 1779              		.loc 1 361 0
 1780 0414 64B2     		sxtb	r4, r4
 1781              	.LVL264:
 1782              		.loc 1 363 0
 1783 0416 0443     		orrs	r4, r4, r0
 1784              	.LVL265:
 1785              		.loc 1 364 0
 1786 0418 2846     		mov	r0, r5
 1787 041a FFF7FEFF 		bl	VL53L0X_device_read_strobe
 1788              	.LVL266:
 1789              		.loc 1 363 0
 1790 041e 64B2     		sxtb	r4, r4
 1791              	.LVL267:
 1792              		.loc 1 365 0
 1793 0420 07AA     		add	r2, sp, #28
 1794              		.loc 1 364 0
 1795 0422 0443     		orrs	r4, r4, r0
 1796              	.LVL268:
 1797              		.loc 1 365 0
 1798 0424 9021     		movs	r1, #144
 1799 0426 2846     		mov	r0, r5
 1800 0428 FFF7FEFF 		bl	VL53L0X_RdDWord
 1801              	.LVL269:
 1802              		.loc 1 364 0
 1803 042c 64B2     		sxtb	r4, r4
 1804              	.LVL270:
 1805              		.loc 1 367 0
 1806 042e 7322     		movs	r2, #115
 1807 0430 9421     		movs	r1, #148
 1808              		.loc 1 365 0
 1809 0432 0443     		orrs	r4, r4, r0
 1810              	.LVL271:
 1811              		.loc 1 367 0
 1812 0434 2846     		mov	r0, r5
 1813 0436 FFF7FEFF 		bl	VL53L0X_WrByte
 1814              	.LVL272:
 1815              		.loc 1 365 0
 1816 043a 64B2     		sxtb	r4, r4
 1817              	.LVL273:
 1818              		.loc 1 367 0
 1819 043c 0443     		orrs	r4, r4, r0
 1820              	.LVL274:
 1821              		.loc 1 368 0
 1822 043e 2846     		mov	r0, r5
 1823 0440 FFF7FEFF 		bl	VL53L0X_device_read_strobe
 1824              	.LVL275:
ARM GAS  /var/folders/d2/nstgp4h54kz7g1l847x_b8wc0000gn/T//cc2apEbl.s 			page 33


 1825              		.loc 1 367 0
 1826 0444 64B2     		sxtb	r4, r4
 1827              	.LVL276:
 1828              		.loc 1 368 0
 1829 0446 0443     		orrs	r4, r4, r0
 1830              	.LVL277:
 1831              		.loc 1 369 0
 1832 0448 05AA     		add	r2, sp, #20
 1833 044a 9021     		movs	r1, #144
 1834 044c 2846     		mov	r0, r5
 1835 044e FFF7FEFF 		bl	VL53L0X_RdDWord
 1836              	.LVL278:
 1837              		.loc 1 372 0
 1838 0452 059A     		ldr	r2, [sp, #20]
 1839              		.loc 1 368 0
 1840 0454 64B2     		sxtb	r4, r4
 1841              	.LVL279:
 1842              		.loc 1 372 0
 1843 0456 1302     		lsls	r3, r2, #8
 1844              		.loc 1 374 0
 1845 0458 9421     		movs	r1, #148
 1846 045a 7422     		movs	r2, #116
 1847              		.loc 1 369 0
 1848 045c 0443     		orrs	r4, r4, r0
 1849              	.LVL280:
 1850              		.loc 1 374 0
 1851 045e 2846     		mov	r0, r5
 1852              		.loc 1 371 0
 1853 0460 1FFA83F9 		uxth	r9, r3
 1854              		.loc 1 374 0
 1855 0464 FFF7FEFF 		bl	VL53L0X_WrByte
 1856              	.LVL281:
 1857              		.loc 1 369 0
 1858 0468 64B2     		sxtb	r4, r4
 1859              	.LVL282:
 1860              		.loc 1 374 0
 1861 046a 0443     		orrs	r4, r4, r0
 1862              	.LVL283:
 1863              		.loc 1 375 0
 1864 046c 2846     		mov	r0, r5
 1865 046e FFF7FEFF 		bl	VL53L0X_device_read_strobe
 1866              	.LVL284:
 1867              		.loc 1 374 0
 1868 0472 64B2     		sxtb	r4, r4
 1869              	.LVL285:
 1870              		.loc 1 376 0
 1871 0474 05AA     		add	r2, sp, #20
 1872              		.loc 1 375 0
 1873 0476 0443     		orrs	r4, r4, r0
 1874              	.LVL286:
 1875              		.loc 1 376 0
 1876 0478 9021     		movs	r1, #144
 1877 047a 2846     		mov	r0, r5
 1878 047c FFF7FEFF 		bl	VL53L0X_RdDWord
 1879              	.LVL287:
 1880              		.loc 1 379 0
 1881 0480 9DF81730 		ldrb	r3, [sp, #23]	@ zero_extendqisi2
ARM GAS  /var/folders/d2/nstgp4h54kz7g1l847x_b8wc0000gn/T//cc2apEbl.s 			page 34


 1882              		.loc 1 375 0
 1883 0484 64B2     		sxtb	r4, r4
 1884              	.LVL288:
 1885              		.loc 1 378 0
 1886 0486 43EA0903 		orr	r3, r3, r9
 1887              		.loc 1 381 0
 1888 048a 7522     		movs	r2, #117
 1889 048c 9421     		movs	r1, #148
 1890              		.loc 1 376 0
 1891 048e 0443     		orrs	r4, r4, r0
 1892              	.LVL289:
 1893              		.loc 1 381 0
 1894 0490 2846     		mov	r0, r5
 1895              		.loc 1 378 0
 1896 0492 0393     		str	r3, [sp, #12]
 1897              		.loc 1 381 0
 1898 0494 FFF7FEFF 		bl	VL53L0X_WrByte
 1899              	.LVL290:
 1900              		.loc 1 376 0
 1901 0498 64B2     		sxtb	r4, r4
 1902              	.LVL291:
 1903              		.loc 1 381 0
 1904 049a 0443     		orrs	r4, r4, r0
 1905              	.LVL292:
 1906              		.loc 1 382 0
 1907 049c 2846     		mov	r0, r5
 1908 049e FFF7FEFF 		bl	VL53L0X_device_read_strobe
 1909              	.LVL293:
 1910              		.loc 1 381 0
 1911 04a2 64B2     		sxtb	r4, r4
 1912              	.LVL294:
 1913              		.loc 1 383 0
 1914 04a4 05AA     		add	r2, sp, #20
 1915              		.loc 1 382 0
 1916 04a6 0443     		orrs	r4, r4, r0
 1917              	.LVL295:
 1918              		.loc 1 383 0
 1919 04a8 9021     		movs	r1, #144
 1920 04aa 2846     		mov	r0, r5
 1921 04ac FFF7FEFF 		bl	VL53L0X_RdDWord
 1922              	.LVL296:
 1923              		.loc 1 386 0
 1924 04b0 059A     		ldr	r2, [sp, #20]
 1925              		.loc 1 382 0
 1926 04b2 64B2     		sxtb	r4, r4
 1927              	.LVL297:
 1928              		.loc 1 388 0
 1929 04b4 9421     		movs	r1, #148
 1930              		.loc 1 383 0
 1931 04b6 0443     		orrs	r4, r4, r0
 1932              	.LVL298:
 1933              		.loc 1 386 0
 1934 04b8 4FEA0229 		lsl	r9, r2, #8
 1935              		.loc 1 388 0
 1936 04bc 2846     		mov	r0, r5
 1937 04be 7622     		movs	r2, #118
 1938 04c0 FFF7FEFF 		bl	VL53L0X_WrByte
ARM GAS  /var/folders/d2/nstgp4h54kz7g1l847x_b8wc0000gn/T//cc2apEbl.s 			page 35


 1939              	.LVL299:
 1940              		.loc 1 383 0
 1941 04c4 64B2     		sxtb	r4, r4
 1942              	.LVL300:
 1943              		.loc 1 388 0
 1944 04c6 0443     		orrs	r4, r4, r0
 1945              	.LVL301:
 1946              		.loc 1 389 0
 1947 04c8 2846     		mov	r0, r5
 1948 04ca FFF7FEFF 		bl	VL53L0X_device_read_strobe
 1949              	.LVL302:
 1950              		.loc 1 388 0
 1951 04ce 64B2     		sxtb	r4, r4
 1952              		.loc 1 390 0
 1953 04d0 05AA     		add	r2, sp, #20
 1954              		.loc 1 389 0
 1955 04d2 0443     		orrs	r4, r4, r0
 1956              		.loc 1 390 0
 1957 04d4 9021     		movs	r1, #144
 1958 04d6 2846     		mov	r0, r5
 1959 04d8 FFF7FEFF 		bl	VL53L0X_RdDWord
 1960              	.LVL303:
 1961              		.loc 1 389 0
 1962 04dc 64B2     		sxtb	r4, r4
 1963              		.loc 1 393 0
 1964 04de 9DF81720 		ldrb	r2, [sp, #23]	@ zero_extendqisi2
 1965              		.loc 1 385 0
 1966 04e2 1FFA89F9 		uxth	r9, r9
 1967              	.LVL304:
 1968              		.loc 1 390 0
 1969 04e6 0443     		orrs	r4, r4, r0
 1970              	.LVL305:
 1971 04e8 64B2     		sxtb	r4, r4
 1972              	.LVL306:
 1973              		.loc 1 392 0
 1974 04ea 42EA0909 		orr	r9, r2, r9
 1975              	.LVL307:
 1976 04ee F8E6     		b	.L117
 1977              	.LVL308:
 1978              	.L146:
 1979              		.loc 1 261 0
 1980 04f0 6B22     		movs	r2, #107
 1981 04f2 9421     		movs	r1, #148
 1982 04f4 2846     		mov	r0, r5
 1983 04f6 FFF7FEFF 		bl	VL53L0X_WrByte
 1984              	.LVL309:
 1985 04fa 8146     		mov	r9, r0
 1986              	.LVL310:
 1987              		.loc 1 262 0
 1988 04fc 2846     		mov	r0, r5
 1989 04fe FFF7FEFF 		bl	VL53L0X_device_read_strobe
 1990              	.LVL311:
 1991 0502 49EA0000 		orr	r0, r9, r0
 1992 0506 0443     		orrs	r4, r4, r0
 1993              	.LVL312:
 1994              		.loc 1 263 0
 1995 0508 05AA     		add	r2, sp, #20
ARM GAS  /var/folders/d2/nstgp4h54kz7g1l847x_b8wc0000gn/T//cc2apEbl.s 			page 36


 1996 050a 9021     		movs	r1, #144
 1997 050c 2846     		mov	r0, r5
 1998 050e FFF7FEFF 		bl	VL53L0X_RdDWord
 1999              	.LVL313:
 2000              		.loc 1 265 0
 2001 0512 DDF814C0 		ldr	ip, [sp, #20]
 2002              		.loc 1 262 0
 2003 0516 64B2     		sxtb	r4, r4
 2004              	.LVL314:
 2005              		.loc 1 265 0
 2006 0518 CCF30623 		ubfx	r3, ip, #8, #7
 2007              		.loc 1 268 0
 2008 051c 2422     		movs	r2, #36
 2009 051e 9421     		movs	r1, #148
 2010              		.loc 1 263 0
 2011 0520 0443     		orrs	r4, r4, r0
 2012              	.LVL315:
 2013              		.loc 1 265 0
 2014 0522 0193     		str	r3, [sp, #4]
 2015              		.loc 1 268 0
 2016 0524 2846     		mov	r0, r5
 2017              		.loc 1 266 0
 2018 0526 CCF3C033 		ubfx	r3, ip, #15, #1
 2019 052a 0293     		str	r3, [sp, #8]
 2020              		.loc 1 268 0
 2021 052c FFF7FEFF 		bl	VL53L0X_WrByte
 2022              	.LVL316:
 2023              		.loc 1 263 0
 2024 0530 64B2     		sxtb	r4, r4
 2025              	.LVL317:
 2026              		.loc 1 268 0
 2027 0532 0443     		orrs	r4, r4, r0
 2028              	.LVL318:
 2029              		.loc 1 269 0
 2030 0534 2846     		mov	r0, r5
 2031 0536 FFF7FEFF 		bl	VL53L0X_device_read_strobe
 2032              	.LVL319:
 2033              		.loc 1 268 0
 2034 053a 64B2     		sxtb	r4, r4
 2035              	.LVL320:
 2036              		.loc 1 270 0
 2037 053c 05AA     		add	r2, sp, #20
 2038              		.loc 1 269 0
 2039 053e 0443     		orrs	r4, r4, r0
 2040              	.LVL321:
 2041              		.loc 1 270 0
 2042 0540 9021     		movs	r1, #144
 2043 0542 2846     		mov	r0, r5
 2044 0544 FFF7FEFF 		bl	VL53L0X_RdDWord
 2045              	.LVL322:
 2046              		.loc 1 273 0
 2047 0548 059B     		ldr	r3, [sp, #20]
 2048              		.loc 1 279 0
 2049 054a 8DF82330 		strb	r3, [sp, #35]
 2050              		.loc 1 273 0
 2051 054e 190E     		lsrs	r1, r3, #24
 2052              		.loc 1 269 0
ARM GAS  /var/folders/d2/nstgp4h54kz7g1l847x_b8wc0000gn/T//cc2apEbl.s 			page 37


 2053 0550 64B2     		sxtb	r4, r4
 2054              	.LVL323:
 2055              		.loc 1 275 0
 2056 0552 4FEA134C 		lsr	ip, r3, #16
 2057              		.loc 1 281 0
 2058 0556 2522     		movs	r2, #37
 2059              		.loc 1 277 0
 2060 0558 1B0A     		lsrs	r3, r3, #8
 2061              		.loc 1 270 0
 2062 055a 0443     		orrs	r4, r4, r0
 2063              	.LVL324:
 2064              		.loc 1 273 0
 2065 055c 8DF82010 		strb	r1, [sp, #32]
 2066              		.loc 1 281 0
 2067 0560 2846     		mov	r0, r5
 2068 0562 9421     		movs	r1, #148
 2069              		.loc 1 277 0
 2070 0564 8DF82230 		strb	r3, [sp, #34]
 2071              		.loc 1 275 0
 2072 0568 8DF821C0 		strb	ip, [sp, #33]
 2073              		.loc 1 281 0
 2074 056c FFF7FEFF 		bl	VL53L0X_WrByte
 2075              	.LVL325:
 2076              		.loc 1 270 0
 2077 0570 64B2     		sxtb	r4, r4
 2078              	.LVL326:
 2079              		.loc 1 281 0
 2080 0572 0443     		orrs	r4, r4, r0
 2081              	.LVL327:
 2082              		.loc 1 282 0
 2083 0574 2846     		mov	r0, r5
 2084 0576 FFF7FEFF 		bl	VL53L0X_device_read_strobe
 2085              	.LVL328:
 2086              		.loc 1 281 0
 2087 057a 64B2     		sxtb	r4, r4
 2088              	.LVL329:
 2089              		.loc 1 283 0
 2090 057c 05AA     		add	r2, sp, #20
 2091              		.loc 1 282 0
 2092 057e 0443     		orrs	r4, r4, r0
 2093              	.LVL330:
 2094              		.loc 1 283 0
 2095 0580 9021     		movs	r1, #144
 2096 0582 2846     		mov	r0, r5
 2097 0584 FFF7FEFF 		bl	VL53L0X_RdDWord
 2098              	.LVL331:
 2099              		.loc 1 285 0
 2100 0588 059B     		ldr	r3, [sp, #20]
 2101              		.loc 1 282 0
 2102 058a 64B2     		sxtb	r4, r4
 2103              	.LVL332:
 2104              		.loc 1 285 0
 2105 058c 1A0E     		lsrs	r2, r3, #24
 2106              		.loc 1 283 0
 2107 058e 0443     		orrs	r4, r4, r0
 2108              	.LVL333:
 2109              		.loc 1 287 0
ARM GAS  /var/folders/d2/nstgp4h54kz7g1l847x_b8wc0000gn/T//cc2apEbl.s 			page 38


 2110 0590 1B0C     		lsrs	r3, r3, #16
 2111              		.loc 1 283 0
 2112 0592 64B2     		sxtb	r4, r4
 2113              	.LVL334:
 2114              		.loc 1 285 0
 2115 0594 8DF82420 		strb	r2, [sp, #36]
 2116              		.loc 1 287 0
 2117 0598 8DF82530 		strb	r3, [sp, #37]
 2118 059c BDE5     		b	.L115
 2119              	.LVL335:
 2120              	.L149:
 2121              		.loc 1 456 0
 2122 059e A9F5C853 		sub	r3, r9, #6400
 2123              	.LVL336:
 2124              		.loc 1 460 0
 2125 05a2 4FF47A79 		mov	r9, #1000
 2126              	.LVL337:
 2127 05a6 09FB03F9 		mul	r9, r9, r3
 2128 05aa 4FEA1919 		lsr	r9, r9, #4
 2129              		.loc 1 461 0
 2130 05ae C9F10009 		rsb	r9, r9, #0
 2131 05b2 0FFA89F3 		sxth	r3, r9
 2132              	.LVL338:
 2133 05b6 10E7     		b	.L123
 2134              	.LVL339:
 2135              	.L145:
 2136              		.loc 1 475 0
 2137 05b8 FFF7FEFF 		bl	__stack_chk_fail
 2138              	.LVL340:
 2139              	.L151:
 2140              		.align	2
 2141              	.L150:
 2142 05bc 00000000 		.word	__stack_chk_guard
 2143              		.cfi_endproc
 2144              	.LFE10:
 2145              		.size	VL53L0X_get_info_from_device, .-VL53L0X_get_info_from_device
 2146              		.section	.text.VL53L0X_calc_macro_period_ps,"ax",%progbits
 2147              		.align	1
 2148              		.p2align 4,,15
 2149              		.global	VL53L0X_calc_macro_period_ps
 2150              		.syntax unified
 2151              		.thumb
 2152              		.thumb_func
 2153              		.fpu fpv4-sp-d16
 2154              		.type	VL53L0X_calc_macro_period_ps, %function
 2155              	VL53L0X_calc_macro_period_ps:
 2156              	.LFB11:
 2157              		.loc 1 479 0
 2158              		.cfi_startproc
 2159              		@ args = 0, pretend = 0, frame = 8
 2160              		@ frame_needed = 0, uses_anonymous_args = 0
 2161              	.LVL341:
 2162 0000 00B5     		push	{lr}
 2163              		.cfi_def_cfa_offset 4
 2164              		.cfi_offset 14, -4
 2165 0002 084B     		ldr	r3, .L156
 2166              		.loc 1 493 0
ARM GAS  /var/folders/d2/nstgp4h54kz7g1l847x_b8wc0000gn/T//cc2apEbl.s 			page 39


 2167 0004 0848     		ldr	r0, .L156+4
 2168              	.LVL342:
 2169              		.loc 1 479 0
 2170 0006 1A68     		ldr	r2, [r3]
 2171 0008 83B0     		sub	sp, sp, #12
 2172              		.cfi_def_cfa_offset 16
 2173              		.loc 1 498 0
 2174 000a 00FB01F0 		mul	r0, r0, r1
 2175              		.loc 1 479 0
 2176 000e 0192     		str	r2, [sp, #4]
 2177              	.LVL343:
 2178              		.loc 1 498 0
 2179 0010 019A     		ldr	r2, [sp, #4]
 2180 0012 1B68     		ldr	r3, [r3]
 2181 0014 9A42     		cmp	r2, r3
 2182 0016 02D1     		bne	.L155
 2183 0018 03B0     		add	sp, sp, #12
 2184              		.cfi_remember_state
 2185              		.cfi_def_cfa_offset 4
 2186              		@ sp needed
 2187 001a 5DF804FB 		ldr	pc, [sp], #4
 2188              	.L155:
 2189              		.cfi_restore_state
 2190 001e FFF7FEFF 		bl	__stack_chk_fail
 2191              	.LVL344:
 2192              	.L157:
 2193 0022 00BF     		.align	2
 2194              	.L156:
 2195 0024 00000000 		.word	__stack_chk_guard
 2196 0028 002F3A00 		.word	3813120
 2197              		.cfi_endproc
 2198              	.LFE11:
 2199              		.size	VL53L0X_calc_macro_period_ps, .-VL53L0X_calc_macro_period_ps
 2200              		.section	.text.VL53L0X_encode_timeout,"ax",%progbits
 2201              		.align	1
 2202              		.p2align 4,,15
 2203              		.global	VL53L0X_encode_timeout
 2204              		.syntax unified
 2205              		.thumb
 2206              		.thumb_func
 2207              		.fpu fpv4-sp-d16
 2208              		.type	VL53L0X_encode_timeout, %function
 2209              	VL53L0X_encode_timeout:
 2210              	.LFB12:
 2211              		.loc 1 501 0
 2212              		.cfi_startproc
 2213              		@ args = 0, pretend = 0, frame = 8
 2214              		@ frame_needed = 0, uses_anonymous_args = 0
 2215              	.LVL345:
 2216 0000 00B5     		push	{lr}
 2217              		.cfi_def_cfa_offset 4
 2218              		.cfi_offset 14, -4
 2219 0002 0A4B     		ldr	r3, .L164
 2220 0004 83B0     		sub	sp, sp, #12
 2221              		.cfi_def_cfa_offset 16
 2222              		.loc 1 501 0
 2223 0006 1A68     		ldr	r2, [r3]
ARM GAS  /var/folders/d2/nstgp4h54kz7g1l847x_b8wc0000gn/T//cc2apEbl.s 			page 40


 2224 0008 0192     		str	r2, [sp, #4]
 2225              	.LVL346:
 2226 000a 019A     		ldr	r2, [sp, #4]
 2227 000c 1B68     		ldr	r3, [r3]
 2228              		.loc 1 510 0
 2229 000e 30B1     		cbz	r0, .L159
 2230 0010 9A42     		cmp	r2, r3
 2231 0012 09D1     		bne	.L163
 2232              		.loc 1 524 0
 2233 0014 03B0     		add	sp, sp, #12
 2234              		.cfi_remember_state
 2235              		.cfi_def_cfa_offset 4
 2236              		@ sp needed
 2237 0016 5DF804EB 		ldr	lr, [sp], #4
 2238              		.cfi_restore 14
 2239              		.cfi_def_cfa_offset 0
 2240 001a FFF7FEBF 		b	VL53L0X_encode_timeout.part.0
 2241              	.LVL347:
 2242              	.L159:
 2243              		.cfi_restore_state
 2244 001e 9A42     		cmp	r2, r3
 2245 0020 02D1     		bne	.L163
 2246 0022 03B0     		add	sp, sp, #12
 2247              		.cfi_remember_state
 2248              		.cfi_def_cfa_offset 4
 2249              		@ sp needed
 2250 0024 5DF804FB 		ldr	pc, [sp], #4
 2251              	.LVL348:
 2252              	.L163:
 2253              		.cfi_restore_state
 2254 0028 FFF7FEFF 		bl	__stack_chk_fail
 2255              	.LVL349:
 2256              	.L165:
 2257              		.align	2
 2258              	.L164:
 2259 002c 00000000 		.word	__stack_chk_guard
 2260              		.cfi_endproc
 2261              	.LFE12:
 2262              		.size	VL53L0X_encode_timeout, .-VL53L0X_encode_timeout
 2263              		.section	.text.VL53L0X_decode_timeout,"ax",%progbits
 2264              		.align	1
 2265              		.p2align 4,,15
 2266              		.global	VL53L0X_decode_timeout
 2267              		.syntax unified
 2268              		.thumb
 2269              		.thumb_func
 2270              		.fpu fpv4-sp-d16
 2271              		.type	VL53L0X_decode_timeout, %function
 2272              	VL53L0X_decode_timeout:
 2273              	.LFB13:
 2274              		.loc 1 527 0
 2275              		.cfi_startproc
 2276              		@ args = 0, pretend = 0, frame = 8
 2277              		@ frame_needed = 0, uses_anonymous_args = 0
 2278              	.LVL350:
 2279 0000 00B5     		push	{lr}
 2280              		.cfi_def_cfa_offset 4
ARM GAS  /var/folders/d2/nstgp4h54kz7g1l847x_b8wc0000gn/T//cc2apEbl.s 			page 41


 2281              		.cfi_offset 14, -4
 2282 0002 094B     		ldr	r3, .L170
 2283 0004 83B0     		sub	sp, sp, #12
 2284              		.cfi_def_cfa_offset 16
 2285              		.loc 1 527 0
 2286 0006 1A68     		ldr	r2, [r3]
 2287 0008 0192     		str	r2, [sp, #4]
 2288              	.LVL351:
 2289              		.loc 1 538 0
 2290 000a 0199     		ldr	r1, [sp, #4]
 2291 000c 1A68     		ldr	r2, [r3]
 2292              		.loc 1 534 0
 2293 000e C3B2     		uxtb	r3, r0
 2294              		.loc 1 538 0
 2295 0010 9142     		cmp	r1, r2
 2296              		.loc 1 535 0
 2297 0012 4FEA1020 		lsr	r0, r0, #8
 2298              	.LVL352:
 2299 0016 03FA00F0 		lsl	r0, r3, r0
 2300              		.loc 1 538 0
 2301 001a 03D1     		bne	.L169
 2302 001c 0130     		adds	r0, r0, #1
 2303 001e 03B0     		add	sp, sp, #12
 2304              		.cfi_remember_state
 2305              		.cfi_def_cfa_offset 4
 2306              		@ sp needed
 2307 0020 5DF804FB 		ldr	pc, [sp], #4
 2308              	.L169:
 2309              		.cfi_restore_state
 2310 0024 FFF7FEFF 		bl	__stack_chk_fail
 2311              	.LVL353:
 2312              	.L171:
 2313              		.align	2
 2314              	.L170:
 2315 0028 00000000 		.word	__stack_chk_guard
 2316              		.cfi_endproc
 2317              	.LFE13:
 2318              		.size	VL53L0X_decode_timeout, .-VL53L0X_decode_timeout
 2319              		.section	.text.VL53L0X_calc_timeout_mclks,"ax",%progbits
 2320              		.align	1
 2321              		.p2align 4,,15
 2322              		.global	VL53L0X_calc_timeout_mclks
 2323              		.syntax unified
 2324              		.thumb
 2325              		.thumb_func
 2326              		.fpu fpv4-sp-d16
 2327              		.type	VL53L0X_calc_timeout_mclks, %function
 2328              	VL53L0X_calc_timeout_mclks:
 2329              	.LFB14:
 2330              		.loc 1 545 0
 2331              		.cfi_startproc
 2332              		@ args = 0, pretend = 0, frame = 8
 2333              		@ frame_needed = 0, uses_anonymous_args = 0
 2334              	.LVL354:
 2335 0000 30B5     		push	{r4, r5, lr}
 2336              		.cfi_def_cfa_offset 12
 2337              		.cfi_offset 4, -12
ARM GAS  /var/folders/d2/nstgp4h54kz7g1l847x_b8wc0000gn/T//cc2apEbl.s 			page 42


 2338              		.cfi_offset 5, -8
 2339              		.cfi_offset 14, -4
 2340 0002 0E4C     		ldr	r4, .L176
 2341              	.LBB136:
 2342              	.LBB137:
 2343              		.loc 1 493 0
 2344 0004 0E4B     		ldr	r3, .L176+4
 2345              	.LBE137:
 2346              	.LBE136:
 2347              		.loc 1 545 0
 2348 0006 2068     		ldr	r0, [r4]
 2349              	.LVL355:
 2350              		.loc 1 555 0
 2351 0008 0E4D     		ldr	r5, .L176+8
 2352              		.loc 1 545 0
 2353 000a 83B0     		sub	sp, sp, #12
 2354              		.cfi_def_cfa_offset 24
 2355              		.loc 1 545 0
 2356 000c 0190     		str	r0, [sp, #4]
 2357              	.LVL356:
 2358              	.LBB139:
 2359              	.LBB138:
 2360              		.loc 1 493 0
 2361 000e 03FB02F0 		mul	r0, r3, r2
 2362              	.LBE138:
 2363              	.LBE139:
 2364              		.loc 1 551 0
 2365 0012 00F5FA70 		add	r0, r0, #500
 2366              	.LVL357:
 2367              		.loc 1 555 0
 2368 0016 A5FB0030 		umull	r3, r0, r5, r0
 2369              	.LVL358:
 2370              		.loc 1 558 0
 2371 001a 019D     		ldr	r5, [sp, #4]
 2372 001c 2268     		ldr	r2, [r4]
 2373              	.LVL359:
 2374              		.loc 1 554 0
 2375 001e 4FF47A73 		mov	r3, #1000
 2376              		.loc 1 555 0
 2377 0022 C409     		lsrs	r4, r0, #7
 2378              		.loc 1 558 0
 2379 0024 9542     		cmp	r5, r2
 2380              		.loc 1 551 0
 2381 0026 4FEA9010 		lsr	r0, r0, #6
 2382              		.loc 1 555 0
 2383 002a 03FB0141 		mla	r1, r3, r1, r4
 2384              	.LVL360:
 2385              		.loc 1 558 0
 2386 002e B1FBF0F0 		udiv	r0, r1, r0
 2387 0032 01D1     		bne	.L175
 2388 0034 03B0     		add	sp, sp, #12
 2389              		.cfi_remember_state
 2390              		.cfi_def_cfa_offset 12
 2391              		@ sp needed
 2392 0036 30BD     		pop	{r4, r5, pc}
 2393              	.L175:
 2394              		.cfi_restore_state
ARM GAS  /var/folders/d2/nstgp4h54kz7g1l847x_b8wc0000gn/T//cc2apEbl.s 			page 43


 2395 0038 FFF7FEFF 		bl	__stack_chk_fail
 2396              	.LVL361:
 2397              	.L177:
 2398              		.align	2
 2399              	.L176:
 2400 003c 00000000 		.word	__stack_chk_guard
 2401 0040 002F3A00 		.word	3813120
 2402 0044 D34D6210 		.word	274877907
 2403              		.cfi_endproc
 2404              	.LFE14:
 2405              		.size	VL53L0X_calc_timeout_mclks, .-VL53L0X_calc_timeout_mclks
 2406              		.section	.text.VL53L0X_calc_timeout_us,"ax",%progbits
 2407              		.align	1
 2408              		.p2align 4,,15
 2409              		.global	VL53L0X_calc_timeout_us
 2410              		.syntax unified
 2411              		.thumb
 2412              		.thumb_func
 2413              		.fpu fpv4-sp-d16
 2414              		.type	VL53L0X_calc_timeout_us, %function
 2415              	VL53L0X_calc_timeout_us:
 2416              	.LFB15:
 2417              		.loc 1 564 0
 2418              		.cfi_startproc
 2419              		@ args = 0, pretend = 0, frame = 8
 2420              		@ frame_needed = 0, uses_anonymous_args = 0
 2421              	.LVL362:
 2422 0000 30B5     		push	{r4, r5, lr}
 2423              		.cfi_def_cfa_offset 12
 2424              		.cfi_offset 4, -12
 2425              		.cfi_offset 5, -8
 2426              		.cfi_offset 14, -4
 2427              	.LBB140:
 2428              	.LBB141:
 2429              		.loc 1 493 0
 2430 0002 0E4B     		ldr	r3, .L182
 2431              	.LBE141:
 2432              	.LBE140:
 2433              		.loc 1 570 0
 2434 0004 0E4C     		ldr	r4, .L182+4
 2435              		.loc 1 564 0
 2436 0006 0F4D     		ldr	r5, .L182+8
 2437              	.LBB143:
 2438              	.LBB142:
 2439              		.loc 1 493 0
 2440 0008 03FB02F3 		mul	r3, r3, r2
 2441              	.LBE142:
 2442              	.LBE143:
 2443              		.loc 1 564 0
 2444 000c 83B0     		sub	sp, sp, #12
 2445              		.cfi_def_cfa_offset 24
 2446              		.loc 1 570 0
 2447 000e 03F5FA73 		add	r3, r3, #500
 2448 0012 A4FB0323 		umull	r2, r3, r4, r3
 2449              	.LVL363:
 2450              		.loc 1 564 0
 2451 0016 2A68     		ldr	r2, [r5]
ARM GAS  /var/folders/d2/nstgp4h54kz7g1l847x_b8wc0000gn/T//cc2apEbl.s 			page 44


 2452 0018 0192     		str	r2, [sp, #4]
 2453              	.LVL364:
 2454              		.loc 1 570 0
 2455 001a 9B09     		lsrs	r3, r3, #6
 2456              		.loc 1 573 0
 2457 001c 01FB03F0 		mul	r0, r1, r3
 2458              	.LVL365:
 2459              		.loc 1 576 0
 2460 0020 019A     		ldr	r2, [sp, #4]
 2461 0022 2B68     		ldr	r3, [r5]
 2462              		.loc 1 573 0
 2463 0024 00F5FA70 		add	r0, r0, #500
 2464              		.loc 1 576 0
 2465 0028 9A42     		cmp	r2, r3
 2466              		.loc 1 572 0
 2467 002a A4FB0010 		umull	r1, r0, r4, r0
 2468              	.LVL366:
 2469              		.loc 1 576 0
 2470 002e 02D1     		bne	.L181
 2471 0030 8009     		lsrs	r0, r0, #6
 2472 0032 03B0     		add	sp, sp, #12
 2473              		.cfi_remember_state
 2474              		.cfi_def_cfa_offset 12
 2475              		@ sp needed
 2476 0034 30BD     		pop	{r4, r5, pc}
 2477              	.L181:
 2478              		.cfi_restore_state
 2479 0036 FFF7FEFF 		bl	__stack_chk_fail
 2480              	.LVL367:
 2481              	.L183:
 2482 003a 00BF     		.align	2
 2483              	.L182:
 2484 003c 002F3A00 		.word	3813120
 2485 0040 D34D6210 		.word	274877907
 2486 0044 00000000 		.word	__stack_chk_guard
 2487              		.cfi_endproc
 2488              	.LFE15:
 2489              		.size	VL53L0X_calc_timeout_us, .-VL53L0X_calc_timeout_us
 2490              		.section	.text.get_sequence_step_timeout,"ax",%progbits
 2491              		.align	1
 2492              		.p2align 4,,15
 2493              		.global	get_sequence_step_timeout
 2494              		.syntax unified
 2495              		.thumb
 2496              		.thumb_func
 2497              		.fpu fpv4-sp-d16
 2498              		.type	get_sequence_step_timeout, %function
 2499              	get_sequence_step_timeout:
 2500              	.LFB16:
 2501              		.loc 1 582 0
 2502              		.cfi_startproc
 2503              		@ args = 0, pretend = 0, frame = 24
 2504              		@ frame_needed = 0, uses_anonymous_args = 0
 2505              	.LVL368:
 2506 0000 2DE9F043 		push	{r4, r5, r6, r7, r8, r9, lr}
 2507              		.cfi_def_cfa_offset 28
 2508              		.cfi_offset 4, -28
ARM GAS  /var/folders/d2/nstgp4h54kz7g1l847x_b8wc0000gn/T//cc2apEbl.s 			page 45


 2509              		.cfi_offset 5, -24
 2510              		.cfi_offset 6, -20
 2511              		.cfi_offset 7, -16
 2512              		.cfi_offset 8, -12
 2513              		.cfi_offset 9, -8
 2514              		.cfi_offset 14, -4
 2515 0004 5D4D     		ldr	r5, .L208
 2516 0006 87B0     		sub	sp, sp, #28
 2517              		.cfi_def_cfa_offset 56
 2518              		.loc 1 585 0
 2519 0008 0024     		movs	r4, #0
 2520              		.loc 1 582 0
 2521 000a 2B68     		ldr	r3, [r5]
 2522 000c 0593     		str	r3, [sp, #20]
 2523              	.LVL369:
 2524              		.loc 1 594 0
 2525 000e 0229     		cmp	r1, #2
 2526              		.loc 1 582 0
 2527 0010 1646     		mov	r6, r2
 2528              		.loc 1 585 0
 2529 0012 8DF80740 		strb	r4, [sp, #7]
 2530              	.LVL370:
 2531              		.loc 1 587 0
 2532 0016 ADF80840 		strh	r4, [sp, #8]	@ movhi
 2533              	.LVL371:
 2534              		.loc 1 582 0
 2535 001a 0746     		mov	r7, r0
 2536              		.loc 1 594 0
 2537 001c 0DD9     		bls	.L203
 2538              		.loc 1 611 0
 2539 001e 0329     		cmp	r1, #3
 2540 0020 4FD0     		beq	.L204
 2541              		.loc 1 638 0
 2542 0022 0429     		cmp	r1, #4
 2543 0024 2AD0     		beq	.L205
 2544              		.loc 1 583 0
 2545 0026 2046     		mov	r0, r4
 2546              	.LVL372:
 2547              	.L187:
 2548              		.loc 1 682 0
 2549 0028 3460     		str	r4, [r6]
 2550              		.loc 1 685 0
 2551 002a 059A     		ldr	r2, [sp, #20]
 2552 002c 2B68     		ldr	r3, [r5]
 2553 002e 9A42     		cmp	r2, r3
 2554 0030 40F0A180 		bne	.L206
 2555 0034 07B0     		add	sp, sp, #28
 2556              		.cfi_remember_state
 2557              		.cfi_def_cfa_offset 28
 2558              		@ sp needed
 2559 0036 BDE8F083 		pop	{r4, r5, r6, r7, r8, r9, pc}
 2560              	.LVL373:
 2561              	.L203:
 2562              		.cfi_restore_state
 2563              		.loc 1 598 0
 2564 003a 2146     		mov	r1, r4
 2565              	.LVL374:
ARM GAS  /var/folders/d2/nstgp4h54kz7g1l847x_b8wc0000gn/T//cc2apEbl.s 			page 46


 2566 003c 0DF10602 		add	r2, sp, #6
 2567              	.LVL375:
 2568 0040 FFF7FEFF 		bl	VL53L0X_GetVcselPulsePeriod
 2569              	.LVL376:
 2570              		.loc 1 601 0
 2571 0044 28B9     		cbnz	r0, .L186
 2572              		.loc 1 602 0
 2573 0046 3846     		mov	r0, r7
 2574              	.LVL377:
 2575 0048 0DF10702 		add	r2, sp, #7
 2576 004c 4621     		movs	r1, #70
 2577 004e FFF7FEFF 		bl	VL53L0X_RdByte
 2578              	.LVL378:
 2579              	.L186:
 2580              	.LBB144:
 2581              	.LBB145:
 2582              	.LBB146:
 2583              	.LBB147:
 2584              		.loc 1 494 0
 2585 0052 9DF80610 		ldrb	r1, [sp, #6]	@ zero_extendqisi2
 2586              		.loc 1 493 0
 2587 0056 4A4B     		ldr	r3, .L208+4
 2588              	.LBE147:
 2589              	.LBE146:
 2590              		.loc 1 570 0
 2591 0058 4A4A     		ldr	r2, .L208+8
 2592              	.LBE145:
 2593              	.LBE144:
 2594              	.LBB151:
 2595              	.LBB152:
 2596              		.loc 1 534 0
 2597 005a 9DF80740 		ldrb	r4, [sp, #7]	@ zero_extendqisi2
 2598              	.LBE152:
 2599              	.LBE151:
 2600              	.LBB153:
 2601              	.LBB150:
 2602              	.LBB149:
 2603              	.LBB148:
 2604              		.loc 1 493 0
 2605 005e 03FB01F3 		mul	r3, r3, r1
 2606              	.LBE148:
 2607              	.LBE149:
 2608              		.loc 1 570 0
 2609 0062 03F5FA73 		add	r3, r3, #500
 2610 0066 A2FB0313 		umull	r1, r3, r2, r3
 2611 006a 9B09     		lsrs	r3, r3, #6
 2612              		.loc 1 573 0
 2613 006c 04FB0333 		mla	r3, r4, r3, r3
 2614 0070 03F5FA74 		add	r4, r3, #500
 2615              		.loc 1 572 0
 2616 0074 A2FB0434 		umull	r3, r4, r2, r4
 2617 0078 A409     		lsrs	r4, r4, #6
 2618              	.LVL379:
 2619              	.LBE150:
 2620              	.LBE153:
 2621 007a D5E7     		b	.L187
 2622              	.LVL380:
ARM GAS  /var/folders/d2/nstgp4h54kz7g1l847x_b8wc0000gn/T//cc2apEbl.s 			page 47


 2623              	.L205:
 2624              		.loc 1 640 0
 2625 007c 03A9     		add	r1, sp, #12
 2626              	.LVL381:
 2627 007e FFF7FEFF 		bl	VL53L0X_GetSequenceStepEnables
 2628              	.LVL382:
 2629              		.loc 1 643 0
 2630 0082 9DF80F30 		ldrb	r3, [sp, #15]	@ zero_extendqisi2
 2631 0086 002B     		cmp	r3, #0
 2632 0088 48D0     		beq	.L196
 2633              		.loc 1 645 0
 2634 008a 0DF10609 		add	r9, sp, #6
 2635 008e 4A46     		mov	r2, r9
 2636 0090 2146     		mov	r1, r4
 2637 0092 3846     		mov	r0, r7
 2638 0094 FFF7FEFF 		bl	VL53L0X_GetVcselPulsePeriod
 2639              	.LVL383:
 2640              		.loc 1 651 0
 2641 0098 0028     		cmp	r0, #0
 2642 009a 4CD0     		beq	.L207
 2643              	.LVL384:
 2644              	.L191:
 2645              	.LBB154:
 2646              	.LBB155:
 2647              	.LBB156:
 2648              	.LBB157:
 2649              		.loc 1 494 0
 2650 009c 9DF80610 		ldrb	r1, [sp, #6]	@ zero_extendqisi2
 2651              		.loc 1 493 0
 2652 00a0 374B     		ldr	r3, .L208+4
 2653              	.LBE157:
 2654              	.LBE156:
 2655              		.loc 1 570 0
 2656 00a2 384A     		ldr	r2, .L208+8
 2657              	.LBB159:
 2658              	.LBB158:
 2659              		.loc 1 493 0
 2660 00a4 03FB01F3 		mul	r3, r3, r1
 2661              	.LBE158:
 2662              	.LBE159:
 2663              		.loc 1 570 0
 2664 00a8 03F5FA73 		add	r3, r3, #500
 2665 00ac A2FB0313 		umull	r1, r3, r2, r3
 2666 00b0 9B09     		lsrs	r3, r3, #6
 2667              		.loc 1 573 0
 2668 00b2 04FB03F4 		mul	r4, r4, r3
 2669 00b6 04F5FA74 		add	r4, r4, #500
 2670              		.loc 1 572 0
 2671 00ba A2FB0434 		umull	r3, r4, r2, r4
 2672 00be A409     		lsrs	r4, r4, #6
 2673              	.LVL385:
 2674 00c0 B2E7     		b	.L187
 2675              	.LVL386:
 2676              	.L204:
 2677              	.LBE155:
 2678              	.LBE154:
 2679              		.loc 1 613 0
ARM GAS  /var/folders/d2/nstgp4h54kz7g1l847x_b8wc0000gn/T//cc2apEbl.s 			page 48


 2680 00c2 0DF10602 		add	r2, sp, #6
 2681              	.LVL387:
 2682 00c6 2146     		mov	r1, r4
 2683              	.LVL388:
 2684 00c8 FFF7FEFF 		bl	VL53L0X_GetVcselPulsePeriod
 2685              	.LVL389:
 2686              		.loc 1 618 0
 2687 00cc 0028     		cmp	r0, #0
 2688 00ce ABD1     		bne	.L187
 2689              		.loc 1 621 0
 2690 00d0 0146     		mov	r1, r0
 2691 00d2 0DF10602 		add	r2, sp, #6
 2692 00d6 3846     		mov	r0, r7
 2693              	.LVL390:
 2694 00d8 FFF7FEFF 		bl	VL53L0X_GetVcselPulsePeriod
 2695              	.LVL391:
 2696              		.loc 1 625 0
 2697 00dc 20B9     		cbnz	r0, .L189
 2698              		.loc 1 626 0
 2699 00de 3846     		mov	r0, r7
 2700              	.LVL392:
 2701 00e0 02AA     		add	r2, sp, #8
 2702 00e2 5121     		movs	r1, #81
 2703 00e4 FFF7FEFF 		bl	VL53L0X_RdWord
 2704              	.LVL393:
 2705              	.L189:
 2706              		.loc 1 631 0
 2707 00e8 BDF80810 		ldrh	r1, [sp, #8]
 2708              	.LVL394:
 2709              	.LBB160:
 2710              	.LBB161:
 2711              	.LBB162:
 2712              	.LBB163:
 2713              		.loc 1 494 0
 2714 00ec 9DF80670 		ldrb	r7, [sp, #6]	@ zero_extendqisi2
 2715              	.LVL395:
 2716              		.loc 1 493 0
 2717 00f0 234C     		ldr	r4, .L208+4
 2718              	.LBE163:
 2719              	.LBE162:
 2720              		.loc 1 570 0
 2721 00f2 244A     		ldr	r2, .L208+8
 2722              	.LBE161:
 2723              	.LBE160:
 2724              	.LBB169:
 2725              	.LBB170:
 2726              		.loc 1 534 0
 2727 00f4 CBB2     		uxtb	r3, r1
 2728              	.LBE170:
 2729              	.LBE169:
 2730              	.LBB173:
 2731              	.LBB166:
 2732              	.LBB165:
 2733              	.LBB164:
 2734              		.loc 1 493 0
 2735 00f6 04FB07F4 		mul	r4, r4, r7
 2736              	.LBE164:
ARM GAS  /var/folders/d2/nstgp4h54kz7g1l847x_b8wc0000gn/T//cc2apEbl.s 			page 49


 2737              	.LBE165:
 2738              	.LBE166:
 2739              	.LBE173:
 2740              	.LBB174:
 2741              	.LBB171:
 2742              		.loc 1 535 0
 2743 00fa 090A     		lsrs	r1, r1, #8
 2744              	.LVL396:
 2745 00fc 8B40     		lsls	r3, r3, r1
 2746              	.LBE171:
 2747              	.LBE174:
 2748              	.LBB175:
 2749              	.LBB167:
 2750              		.loc 1 570 0
 2751 00fe 04F5FA74 		add	r4, r4, #500
 2752              	.LBE167:
 2753              	.LBE175:
 2754              	.LBB176:
 2755              	.LBB172:
 2756              		.loc 1 534 0
 2757 0102 0133     		adds	r3, r3, #1
 2758              	.LBE172:
 2759              	.LBE176:
 2760              	.LBB177:
 2761              	.LBB168:
 2762              		.loc 1 570 0
 2763 0104 A2FB0414 		umull	r1, r4, r2, r4
 2764              		.loc 1 573 0
 2765 0108 9BB2     		uxth	r3, r3
 2766              		.loc 1 570 0
 2767 010a A409     		lsrs	r4, r4, #6
 2768              		.loc 1 573 0
 2769 010c 04FB03F4 		mul	r4, r4, r3
 2770 0110 04F5FA74 		add	r4, r4, #500
 2771              		.loc 1 572 0
 2772 0114 A2FB0434 		umull	r3, r4, r2, r4
 2773 0118 A409     		lsrs	r4, r4, #6
 2774              	.LVL397:
 2775 011a 85E7     		b	.L187
 2776              	.LVL398:
 2777              	.L196:
 2778              	.LBE168:
 2779              	.LBE177:
 2780              		.loc 1 641 0
 2781 011c 9846     		mov	r8, r3
 2782 011e 0DF10609 		add	r9, sp, #6
 2783              	.LVL399:
 2784              	.L190:
 2785              		.loc 1 662 0
 2786 0122 4A46     		mov	r2, r9
 2787 0124 0121     		movs	r1, #1
 2788 0126 3846     		mov	r0, r7
 2789 0128 FFF7FEFF 		bl	VL53L0X_GetVcselPulsePeriod
 2790              	.LVL400:
 2791              		.loc 1 668 0
 2792 012c 98B1     		cbz	r0, .L192
 2793              	.L202:
ARM GAS  /var/folders/d2/nstgp4h54kz7g1l847x_b8wc0000gn/T//cc2apEbl.s 			page 50


 2794 012e C8F10004 		rsb	r4, r8, #0
 2795 0132 A4B2     		uxth	r4, r4
 2796 0134 B2E7     		b	.L191
 2797              	.LVL401:
 2798              	.L207:
 2799              		.loc 1 652 0
 2800 0136 02AA     		add	r2, sp, #8
 2801 0138 5121     		movs	r1, #81
 2802 013a 3846     		mov	r0, r7
 2803              	.LVL402:
 2804 013c FFF7FEFF 		bl	VL53L0X_RdWord
 2805              	.LVL403:
 2806              		.loc 1 655 0
 2807 0140 BDF80830 		ldrh	r3, [sp, #8]
 2808              	.LBB178:
 2809              	.LBB179:
 2810              		.loc 1 534 0
 2811 0144 DCB2     		uxtb	r4, r3
 2812              		.loc 1 535 0
 2813 0146 1B0A     		lsrs	r3, r3, #8
 2814 0148 9C40     		lsls	r4, r4, r3
 2815              		.loc 1 534 0
 2816 014a 0134     		adds	r4, r4, #1
 2817              	.LBE179:
 2818              	.LBE178:
 2819              		.loc 1 655 0
 2820 014c 1FFA84F8 		uxth	r8, r4
 2821              	.LVL404:
 2822              		.loc 1 660 0
 2823 0150 0028     		cmp	r0, #0
 2824 0152 E6D0     		beq	.L190
 2825 0154 EBE7     		b	.L202
 2826              	.LVL405:
 2827              	.L192:
 2828              		.loc 1 669 0
 2829 0156 3846     		mov	r0, r7
 2830              	.LVL406:
 2831 0158 0DF10A02 		add	r2, sp, #10
 2832 015c 7121     		movs	r1, #113
 2833 015e FFF7FEFF 		bl	VL53L0X_RdWord
 2834              	.LVL407:
 2835              		.loc 1 672 0
 2836 0162 BDF80A30 		ldrh	r3, [sp, #10]
 2837              	.LVL408:
 2838              	.LBB180:
 2839              	.LBB181:
 2840              		.loc 1 534 0
 2841 0166 DCB2     		uxtb	r4, r3
 2842              		.loc 1 535 0
 2843 0168 1B0A     		lsrs	r3, r3, #8
 2844              	.LVL409:
 2845 016a 9C40     		lsls	r4, r4, r3
 2846              		.loc 1 534 0
 2847 016c 0134     		adds	r4, r4, #1
 2848 016e A4EB0804 		sub	r4, r4, r8
 2849 0172 A4B2     		uxth	r4, r4
 2850 0174 92E7     		b	.L191
ARM GAS  /var/folders/d2/nstgp4h54kz7g1l847x_b8wc0000gn/T//cc2apEbl.s 			page 51


 2851              	.LVL410:
 2852              	.L206:
 2853              	.LBE181:
 2854              	.LBE180:
 2855              		.loc 1 685 0
 2856 0176 FFF7FEFF 		bl	__stack_chk_fail
 2857              	.LVL411:
 2858              	.L209:
 2859 017a 00BF     		.align	2
 2860              	.L208:
 2861 017c 00000000 		.word	__stack_chk_guard
 2862 0180 002F3A00 		.word	3813120
 2863 0184 D34D6210 		.word	274877907
 2864              		.cfi_endproc
 2865              	.LFE16:
 2866              		.size	get_sequence_step_timeout, .-get_sequence_step_timeout
 2867              		.section	.text.set_sequence_step_timeout,"ax",%progbits
 2868              		.align	1
 2869              		.p2align 4,,15
 2870              		.global	set_sequence_step_timeout
 2871              		.syntax unified
 2872              		.thumb
 2873              		.thumb_func
 2874              		.fpu fpv4-sp-d16
 2875              		.type	set_sequence_step_timeout, %function
 2876              	set_sequence_step_timeout:
 2877              	.LFB17:
 2878              		.loc 1 691 0
 2879              		.cfi_startproc
 2880              		@ args = 0, pretend = 0, frame = 8
 2881              		@ frame_needed = 0, uses_anonymous_args = 0
 2882              	.LVL412:
 2883 0000 70B5     		push	{r4, r5, r6, lr}
 2884              		.cfi_def_cfa_offset 16
 2885              		.cfi_offset 4, -16
 2886              		.cfi_offset 5, -12
 2887              		.cfi_offset 6, -8
 2888              		.cfi_offset 14, -4
 2889 0002 1E4C     		ldr	r4, .L219
 2890 0004 82B0     		sub	sp, sp, #8
 2891              		.cfi_def_cfa_offset 24
 2892              		.loc 1 691 0
 2893 0006 2368     		ldr	r3, [r4]
 2894 0008 0193     		str	r3, [sp, #4]
 2895              	.LVL413:
 2896              		.loc 1 702 0
 2897 000a 0229     		cmp	r1, #2
 2898 000c 07D9     		bls	.L217
 2899 000e FFF7FEFF 		bl	set_sequence_step_timeout.part.1
 2900              	.LVL414:
 2901              	.L212:
 2902              		.loc 1 830 0
 2903 0012 019A     		ldr	r2, [sp, #4]
 2904 0014 2368     		ldr	r3, [r4]
 2905 0016 9A42     		cmp	r2, r3
 2906 0018 2DD1     		bne	.L218
 2907 001a 02B0     		add	sp, sp, #8
ARM GAS  /var/folders/d2/nstgp4h54kz7g1l847x_b8wc0000gn/T//cc2apEbl.s 			page 52


 2908              		.cfi_remember_state
 2909              		.cfi_def_cfa_offset 16
 2910              		@ sp needed
 2911 001c 70BD     		pop	{r4, r5, r6, pc}
 2912              	.LVL415:
 2913              	.L217:
 2914              		.cfi_restore_state
 2915 001e 1546     		mov	r5, r2
 2916              		.loc 1 706 0
 2917 0020 0021     		movs	r1, #0
 2918              	.LVL416:
 2919 0022 0DF10302 		add	r2, sp, #3
 2920              	.LVL417:
 2921 0026 0646     		mov	r6, r0
 2922 0028 FFF7FEFF 		bl	VL53L0X_GetVcselPulsePeriod
 2923              	.LVL418:
 2924              		.loc 1 710 0
 2925 002c 0028     		cmp	r0, #0
 2926 002e F0D1     		bne	.L212
 2927              	.LVL419:
 2928              	.LBB182:
 2929              	.LBB183:
 2930              	.LBB184:
 2931              	.LBB185:
 2932              		.loc 1 494 0
 2933 0030 9DF80310 		ldrb	r1, [sp, #3]	@ zero_extendqisi2
 2934              		.loc 1 493 0
 2935 0034 124B     		ldr	r3, .L219+4
 2936              	.LBE185:
 2937              	.LBE184:
 2938              		.loc 1 555 0
 2939 0036 134A     		ldr	r2, .L219+8
 2940              	.LBB187:
 2941              	.LBB186:
 2942              		.loc 1 493 0
 2943 0038 03FB01F3 		mul	r3, r3, r1
 2944              	.LBE186:
 2945              	.LBE187:
 2946              		.loc 1 551 0
 2947 003c 03F5FA73 		add	r3, r3, #500
 2948              	.LVL420:
 2949              		.loc 1 555 0
 2950 0040 A2FB0323 		umull	r2, r3, r2, r3
 2951              	.LVL421:
 2952 0044 DA09     		lsrs	r2, r3, #7
 2953              		.loc 1 554 0
 2954 0046 4FF47A71 		mov	r1, #1000
 2955              	.LVL422:
 2956              		.loc 1 551 0
 2957 004a 9B09     		lsrs	r3, r3, #6
 2958              		.loc 1 555 0
 2959 004c 01FB0525 		mla	r5, r1, r5, r2
 2960              	.LVL423:
 2961              		.loc 1 553 0
 2962 0050 B5FBF3F5 		udiv	r5, r5, r3
 2963              	.LVL424:
 2964              	.LBE183:
ARM GAS  /var/folders/d2/nstgp4h54kz7g1l847x_b8wc0000gn/T//cc2apEbl.s 			page 53


 2965              	.LBE182:
 2966              		.loc 1 715 0
 2967 0054 ABB2     		uxth	r3, r5
 2968 0056 B3F5807F 		cmp	r3, #256
 2969 005a 09D8     		bhi	.L215
 2970              		.loc 1 718 0
 2971 005c 013D     		subs	r5, r5, #1
 2972              	.LVL425:
 2973 005e EAB2     		uxtb	r2, r5
 2974              	.LVL426:
 2975 0060 93B2     		uxth	r3, r2
 2976              	.LVL427:
 2977              	.L213:
 2978              		.loc 1 721 0
 2979 0062 A6F8D830 		strh	r3, [r6, #216]	@ movhi
 2980              		.loc 1 727 0
 2981 0066 3046     		mov	r0, r6
 2982              	.LVL428:
 2983 0068 4621     		movs	r1, #70
 2984              	.LVL429:
 2985 006a FFF7FEFF 		bl	VL53L0X_WrByte
 2986              	.LVL430:
 2987 006e D0E7     		b	.L212
 2988              	.LVL431:
 2989              	.L215:
 2990 0070 FF23     		movs	r3, #255
 2991              		.loc 1 716 0
 2992 0072 1A46     		mov	r2, r3
 2993 0074 F5E7     		b	.L213
 2994              	.LVL432:
 2995              	.L218:
 2996              		.loc 1 830 0
 2997 0076 FFF7FEFF 		bl	__stack_chk_fail
 2998              	.LVL433:
 2999              	.L220:
 3000 007a 00BF     		.align	2
 3001              	.L219:
 3002 007c 00000000 		.word	__stack_chk_guard
 3003 0080 002F3A00 		.word	3813120
 3004 0084 D34D6210 		.word	274877907
 3005              		.cfi_endproc
 3006              	.LFE17:
 3007              		.size	set_sequence_step_timeout, .-set_sequence_step_timeout
 3008              		.section	.text.VL53L0X_set_vcsel_pulse_period,"ax",%progbits
 3009              		.align	1
 3010              		.p2align 4,,15
 3011              		.global	VL53L0X_set_vcsel_pulse_period
 3012              		.syntax unified
 3013              		.thumb
 3014              		.thumb_func
 3015              		.fpu fpv4-sp-d16
 3016              		.type	VL53L0X_set_vcsel_pulse_period, %function
 3017              	VL53L0X_set_vcsel_pulse_period:
 3018              	.LFB18:
 3019              		.loc 1 834 0
 3020              		.cfi_startproc
 3021              		@ args = 0, pretend = 0, frame = 32
ARM GAS  /var/folders/d2/nstgp4h54kz7g1l847x_b8wc0000gn/T//cc2apEbl.s 			page 54


 3022              		@ frame_needed = 0, uses_anonymous_args = 0
 3023              	.LVL434:
 3024 0000 2DE9F041 		push	{r4, r5, r6, r7, r8, lr}
 3025              		.cfi_def_cfa_offset 24
 3026              		.cfi_offset 4, -24
 3027              		.cfi_offset 5, -20
 3028              		.cfi_offset 6, -16
 3029              		.cfi_offset 7, -12
 3030              		.cfi_offset 8, -8
 3031              		.cfi_offset 14, -4
 3032 0004 864E     		ldr	r6, .L270
 3033 0006 88B0     		sub	sp, sp, #32
 3034              		.cfi_def_cfa_offset 56
 3035              		.loc 1 834 0
 3036 0008 1746     		mov	r7, r2
 3037 000a 3368     		ldr	r3, [r6]
 3038 000c 0793     		str	r3, [sp, #28]
 3039              	.LVL435:
 3040              		.loc 1 845 0
 3041 000e 0022     		movs	r2, #0
 3042              	.LVL436:
 3043              		.loc 1 849 0
 3044 0010 17F00108 		ands	r8, r7, #1
 3045              		.loc 1 845 0
 3046 0014 8DF80F20 		strb	r2, [sp, #15]
 3047              		.loc 1 849 0
 3048 0018 4BD1     		bne	.L245
 3049 001a 0546     		mov	r5, r0
 3050              		.loc 1 852 0
 3051 001c 61BB     		cbnz	r1, .L223
 3052              		.loc 1 852 0 is_stmt 0 discriminator 1
 3053 001e A7F10C03 		sub	r3, r7, #12
 3054 0022 062B     		cmp	r3, #6
 3055 0024 45D8     		bhi	.L245
 3056              		.loc 1 872 0 is_stmt 1
 3057 0026 0C2F     		cmp	r7, #12
 3058 0028 46D0     		beq	.L259
 3059              		.loc 1 880 0
 3060 002a 0E2F     		cmp	r7, #14
 3061 002c 50D0     		beq	.L260
 3062              		.loc 1 888 0
 3063 002e 102F     		cmp	r7, #16
 3064 0030 50D0     		beq	.L261
 3065              		.loc 1 896 0
 3066 0032 122F     		cmp	r7, #18
 3067 0034 78D0     		beq	.L262
 3068              	.LVL437:
 3069              	.L230:
 3070              	.LBB188:
 3071              	.LBB189:
 3072              		.loc 1 117 0
 3073 0036 7B08     		lsrs	r3, r7, #1
 3074 0038 013B     		subs	r3, r3, #1
 3075              	.LBE189:
 3076              	.LBE188:
 3077              		.loc 1 1004 0
 3078 003a 05AA     		add	r2, sp, #20
ARM GAS  /var/folders/d2/nstgp4h54kz7g1l847x_b8wc0000gn/T//cc2apEbl.s 			page 55


 3079 003c 0321     		movs	r1, #3
 3080 003e 2846     		mov	r0, r5
 3081              	.LBB193:
 3082              	.LBB190:
 3083              		.loc 1 117 0
 3084 0040 DCB2     		uxtb	r4, r3
 3085              	.LVL438:
 3086              	.LBE190:
 3087              	.LBE193:
 3088              		.loc 1 1004 0
 3089 0042 FFF7FEFF 		bl	get_sequence_step_timeout
 3090              	.LVL439:
 3091              		.loc 1 1008 0
 3092 0046 0028     		cmp	r0, #0
 3093 0048 46D0     		beq	.L263
 3094              	.L236:
 3095              		.loc 1 1030 0
 3096 004a 85F8E870 		strb	r7, [r5, #232]
 3097              	.L237:
 3098              		.loc 1 1062 0
 3099 004e 58B9     		cbnz	r0, .L222
 3100              	.LVL440:
 3101              		.loc 1 1067 0
 3102 0050 6969     		ldr	r1, [r5, #20]
 3103 0052 2846     		mov	r0, r5
 3104              	.LVL441:
 3105 0054 FFF7FEFF 		bl	VL53L0X_SetMeasurementTimingBudgetMicroSeconds
 3106              	.LVL442:
 3107              		.loc 1 1074 0
 3108 0058 30B9     		cbnz	r0, .L222
 3109              		.loc 1 1075 0
 3110 005a 0246     		mov	r2, r0
 3111 005c 0123     		movs	r3, #1
 3112 005e 2846     		mov	r0, r5
 3113              	.LVL443:
 3114 0060 0DF10F01 		add	r1, sp, #15
 3115 0064 FFF7FEFF 		bl	VL53L0X_perform_phase_calibration
 3116              	.LVL444:
 3117              	.L222:
 3118              		.loc 1 1079 0
 3119 0068 079A     		ldr	r2, [sp, #28]
 3120 006a 3368     		ldr	r3, [r6]
 3121 006c 9A42     		cmp	r2, r3
 3122 006e 40F0D580 		bne	.L264
 3123 0072 08B0     		add	sp, sp, #32
 3124              		.cfi_remember_state
 3125              		.cfi_def_cfa_offset 24
 3126              		@ sp needed
 3127 0074 BDE8F081 		pop	{r4, r5, r6, r7, r8, pc}
 3128              	.LVL445:
 3129              	.L223:
 3130              		.cfi_restore_state
 3131              		.loc 1 856 0
 3132 0078 0129     		cmp	r1, #1
 3133 007a 1AD1     		bne	.L245
 3134              		.loc 1 856 0 is_stmt 0 discriminator 1
 3135 007c A7F10802 		sub	r2, r7, #8
ARM GAS  /var/folders/d2/nstgp4h54kz7g1l847x_b8wc0000gn/T//cc2apEbl.s 			page 56


 3136 0080 062A     		cmp	r2, #6
 3137 0082 16D8     		bhi	.L245
 3138              		.loc 1 907 0 is_stmt 1
 3139 0084 082F     		cmp	r7, #8
 3140 0086 51D0     		beq	.L265
 3141              		.loc 1 926 0
 3142 0088 0A2F     		cmp	r7, #10
 3143 008a 00F08280 		beq	.L266
 3144              		.loc 1 945 0
 3145 008e 0C2F     		cmp	r7, #12
 3146 0090 00F0A080 		beq	.L267
 3147              		.loc 1 964 0
 3148 0094 0E2F     		cmp	r7, #14
 3149 0096 00F0AF80 		beq	.L268
 3150              	.LVL446:
 3151              	.L235:
 3152              	.LBB194:
 3153              	.LBB191:
 3154              		.loc 1 117 0
 3155 009a 7B08     		lsrs	r3, r7, #1
 3156 009c 013B     		subs	r3, r3, #1
 3157              	.LBE191:
 3158              	.LBE194:
 3159              		.loc 1 1036 0
 3160 009e 04AA     		add	r2, sp, #16
 3161 00a0 0421     		movs	r1, #4
 3162 00a2 2846     		mov	r0, r5
 3163              	.LBB195:
 3164              	.LBB192:
 3165              		.loc 1 117 0
 3166 00a4 DCB2     		uxtb	r4, r3
 3167              	.LVL447:
 3168              	.LBE192:
 3169              	.LBE195:
 3170              		.loc 1 1036 0
 3171 00a6 FFF7FEFF 		bl	get_sequence_step_timeout
 3172              	.LVL448:
 3173              		.loc 1 1040 0
 3174 00aa 80B3     		cbz	r0, .L269
 3175              	.LVL449:
 3176              	.L238:
 3177              		.loc 1 1051 0
 3178 00ac 85F8E070 		strb	r7, [r5, #224]
 3179              		.loc 1 1055 0
 3180 00b0 CDE7     		b	.L237
 3181              	.LVL450:
 3182              	.L245:
 3183 00b2 6FF00300 		mvn	r0, #3
 3184              	.LVL451:
 3185 00b6 D7E7     		b	.L222
 3186              	.LVL452:
 3187              	.L259:
 3188              		.loc 1 874 0
 3189 00b8 1822     		movs	r2, #24
 3190              	.L256:
 3191              		.loc 1 890 0
 3192 00ba 5721     		movs	r1, #87
ARM GAS  /var/folders/d2/nstgp4h54kz7g1l847x_b8wc0000gn/T//cc2apEbl.s 			page 57


 3193              	.LVL453:
 3194 00bc FFF7FEFF 		bl	VL53L0X_WrByte
 3195              	.LVL454:
 3196              		.loc 1 893 0
 3197 00c0 0822     		movs	r2, #8
 3198 00c2 5621     		movs	r1, #86
 3199 00c4 2846     		mov	r0, r5
 3200 00c6 FFF7FEFF 		bl	VL53L0X_WrByte
 3201              	.LVL455:
 3202              		.loc 1 989 0
 3203 00ca 0028     		cmp	r0, #0
 3204 00cc CCD1     		bne	.L222
 3205 00ce B2E7     		b	.L230
 3206              	.LVL456:
 3207              	.L260:
 3208              		.loc 1 882 0
 3209 00d0 3022     		movs	r2, #48
 3210 00d2 F2E7     		b	.L256
 3211              	.L261:
 3212              		.loc 1 890 0
 3213 00d4 4022     		movs	r2, #64
 3214 00d6 F0E7     		b	.L256
 3215              	.LVL457:
 3216              	.L263:
 3217              		.loc 1 1009 0
 3218 00d8 06AA     		add	r2, sp, #24
 3219 00da 0221     		movs	r1, #2
 3220 00dc 2846     		mov	r0, r5
 3221              	.LVL458:
 3222 00de FFF7FEFF 		bl	get_sequence_step_timeout
 3223              	.LVL459:
 3224              		.loc 1 1013 0
 3225 00e2 0028     		cmp	r0, #0
 3226 00e4 B1D1     		bne	.L236
 3227              		.loc 1 1014 0
 3228 00e6 2246     		mov	r2, r4
 3229 00e8 5021     		movs	r1, #80
 3230 00ea 2846     		mov	r0, r5
 3231              	.LVL460:
 3232 00ec FFF7FEFF 		bl	VL53L0X_WrByte
 3233              	.LVL461:
 3234              		.loc 1 1019 0
 3235 00f0 0028     		cmp	r0, #0
 3236 00f2 AAD1     		bne	.L236
 3237              	.LVL462:
 3238              	.LBB196:
 3239              	.LBB197:
 3240 00f4 059A     		ldr	r2, [sp, #20]
 3241 00f6 0321     		movs	r1, #3
 3242 00f8 2846     		mov	r0, r5
 3243              	.LVL463:
 3244 00fa FFF7FEFF 		bl	set_sequence_step_timeout.part.1
 3245              	.LVL464:
 3246              	.LBE197:
 3247              	.LBE196:
 3248              		.loc 1 1025 0
 3249 00fe 0028     		cmp	r0, #0
ARM GAS  /var/folders/d2/nstgp4h54kz7g1l847x_b8wc0000gn/T//cc2apEbl.s 			page 58


 3250 0100 A3D1     		bne	.L236
 3251              		.loc 1 1026 0
 3252 0102 069A     		ldr	r2, [sp, #24]
 3253 0104 0221     		movs	r1, #2
 3254 0106 2846     		mov	r0, r5
 3255              	.LVL465:
 3256 0108 FFF7FEFF 		bl	set_sequence_step_timeout
 3257              	.LVL466:
 3258 010c 9DE7     		b	.L236
 3259              	.L269:
 3260              		.loc 1 1041 0
 3261 010e 2246     		mov	r2, r4
 3262 0110 7021     		movs	r1, #112
 3263 0112 2846     		mov	r0, r5
 3264              	.LVL467:
 3265 0114 FFF7FEFF 		bl	VL53L0X_WrByte
 3266              	.LVL468:
 3267              		.loc 1 1046 0
 3268 0118 0028     		cmp	r0, #0
 3269 011a C7D1     		bne	.L238
 3270              	.LVL469:
 3271              	.LBB198:
 3272              	.LBB199:
 3273 011c 049A     		ldr	r2, [sp, #16]
 3274 011e 0421     		movs	r1, #4
 3275 0120 2846     		mov	r0, r5
 3276              	.LVL470:
 3277 0122 FFF7FEFF 		bl	set_sequence_step_timeout.part.1
 3278              	.LVL471:
 3279 0126 C1E7     		b	.L238
 3280              	.LVL472:
 3281              	.L262:
 3282              	.LBE199:
 3283              	.LBE198:
 3284              		.loc 1 898 0
 3285 0128 5022     		movs	r2, #80
 3286 012a C6E7     		b	.L256
 3287              	.L265:
 3288 012c 0191     		str	r1, [sp, #4]
 3289              		.loc 1 909 0
 3290 012e 1022     		movs	r2, #16
 3291 0130 4821     		movs	r1, #72
 3292              	.LVL473:
 3293 0132 FFF7FEFF 		bl	VL53L0X_WrByte
 3294              	.LVL474:
 3295              		.loc 1 912 0
 3296 0136 3A46     		mov	r2, r7
 3297 0138 4721     		movs	r1, #71
 3298 013a 2846     		mov	r0, r5
 3299 013c FFF7FEFF 		bl	VL53L0X_WrByte
 3300              	.LVL475:
 3301              		.loc 1 916 0
 3302 0140 0222     		movs	r2, #2
 3303              		.loc 1 912 0
 3304 0142 0446     		mov	r4, r0
 3305              	.LVL476:
 3306              		.loc 1 916 0
ARM GAS  /var/folders/d2/nstgp4h54kz7g1l847x_b8wc0000gn/T//cc2apEbl.s 			page 59


 3307 0144 3221     		movs	r1, #50
 3308 0146 2846     		mov	r0, r5
 3309 0148 FFF7FEFF 		bl	VL53L0X_WrByte
 3310              	.LVL477:
 3311              		.loc 1 918 0
 3312 014c 0C22     		movs	r2, #12
 3313              		.loc 1 916 0
 3314 014e 0443     		orrs	r4, r4, r0
 3315              	.LVL478:
 3316              		.loc 1 918 0
 3317 0150 3021     		movs	r1, #48
 3318 0152 2846     		mov	r0, r5
 3319 0154 FFF7FEFF 		bl	VL53L0X_WrByte
 3320              	.LVL479:
 3321              		.loc 1 921 0
 3322 0158 019B     		ldr	r3, [sp, #4]
 3323              		.loc 1 916 0
 3324 015a 64B2     		sxtb	r4, r4
 3325              	.LVL480:
 3326              		.loc 1 921 0
 3327 015c 1A46     		mov	r2, r3
 3328              		.loc 1 918 0
 3329 015e 0443     		orrs	r4, r4, r0
 3330              	.LVL481:
 3331              		.loc 1 921 0
 3332 0160 FF21     		movs	r1, #255
 3333 0162 2846     		mov	r0, r5
 3334 0164 FFF7FEFF 		bl	VL53L0X_WrByte
 3335              	.LVL482:
 3336              		.loc 1 918 0
 3337 0168 64B2     		sxtb	r4, r4
 3338              	.LVL483:
 3339              		.loc 1 922 0
 3340 016a 3022     		movs	r2, #48
 3341              	.L258:
 3342              		.loc 1 978 0
 3343 016c 0443     		orrs	r4, r4, r0
 3344              	.LVL484:
 3345              		.loc 1 979 0
 3346 016e 3021     		movs	r1, #48
 3347 0170 2846     		mov	r0, r5
 3348 0172 FFF7FEFF 		bl	VL53L0X_WrByte
 3349              	.LVL485:
 3350              		.loc 1 978 0
 3351 0176 64B2     		sxtb	r4, r4
 3352              	.LVL486:
 3353              		.loc 1 979 0
 3354 0178 0443     		orrs	r4, r4, r0
 3355              	.LVL487:
 3356              		.loc 1 982 0
 3357 017a 4246     		mov	r2, r8
 3358 017c FF21     		movs	r1, #255
 3359 017e 2846     		mov	r0, r5
 3360 0180 FFF7FEFF 		bl	VL53L0X_WrByte
 3361              	.LVL488:
 3362              		.loc 1 979 0
 3363 0184 64B2     		sxtb	r4, r4
ARM GAS  /var/folders/d2/nstgp4h54kz7g1l847x_b8wc0000gn/T//cc2apEbl.s 			page 60


 3364              	.LVL489:
 3365              		.loc 1 982 0
 3366 0186 2043     		orrs	r0, r0, r4
 3367 0188 40B2     		sxtb	r0, r0
 3368              	.LVL490:
 3369              		.loc 1 989 0
 3370 018a 0028     		cmp	r0, #0
 3371 018c 7FF46CAF 		bne	.L222
 3372 0190 83E7     		b	.L235
 3373              	.LVL491:
 3374              	.L266:
 3375 0192 0191     		str	r1, [sp, #4]
 3376              		.loc 1 928 0
 3377 0194 2822     		movs	r2, #40
 3378 0196 4821     		movs	r1, #72
 3379              	.LVL492:
 3380 0198 FFF7FEFF 		bl	VL53L0X_WrByte
 3381              	.LVL493:
 3382              		.loc 1 931 0
 3383 019c 0822     		movs	r2, #8
 3384 019e 4721     		movs	r1, #71
 3385 01a0 2846     		mov	r0, r5
 3386 01a2 FFF7FEFF 		bl	VL53L0X_WrByte
 3387              	.LVL494:
 3388              		.loc 1 935 0
 3389 01a6 0322     		movs	r2, #3
 3390              		.loc 1 931 0
 3391 01a8 0446     		mov	r4, r0
 3392              	.LVL495:
 3393              		.loc 1 935 0
 3394 01aa 3221     		movs	r1, #50
 3395 01ac 2846     		mov	r0, r5
 3396 01ae FFF7FEFF 		bl	VL53L0X_WrByte
 3397              	.LVL496:
 3398              		.loc 1 937 0
 3399 01b2 0922     		movs	r2, #9
 3400              	.L257:
 3401              		.loc 1 973 0
 3402 01b4 0443     		orrs	r4, r4, r0
 3403              	.LVL497:
 3404              		.loc 1 975 0
 3405 01b6 3021     		movs	r1, #48
 3406 01b8 2846     		mov	r0, r5
 3407 01ba FFF7FEFF 		bl	VL53L0X_WrByte
 3408              	.LVL498:
 3409              		.loc 1 978 0
 3410 01be 019B     		ldr	r3, [sp, #4]
 3411              		.loc 1 973 0
 3412 01c0 64B2     		sxtb	r4, r4
 3413              	.LVL499:
 3414              		.loc 1 978 0
 3415 01c2 1A46     		mov	r2, r3
 3416              		.loc 1 975 0
 3417 01c4 0443     		orrs	r4, r4, r0
 3418              	.LVL500:
 3419              		.loc 1 978 0
 3420 01c6 FF21     		movs	r1, #255
ARM GAS  /var/folders/d2/nstgp4h54kz7g1l847x_b8wc0000gn/T//cc2apEbl.s 			page 61


 3421 01c8 2846     		mov	r0, r5
 3422 01ca FFF7FEFF 		bl	VL53L0X_WrByte
 3423              	.LVL501:
 3424              		.loc 1 975 0
 3425 01ce 64B2     		sxtb	r4, r4
 3426              	.LVL502:
 3427              		.loc 1 979 0
 3428 01d0 2022     		movs	r2, #32
 3429 01d2 CBE7     		b	.L258
 3430              	.LVL503:
 3431              	.L267:
 3432 01d4 0191     		str	r1, [sp, #4]
 3433              		.loc 1 947 0
 3434 01d6 3822     		movs	r2, #56
 3435 01d8 4821     		movs	r1, #72
 3436              	.LVL504:
 3437 01da FFF7FEFF 		bl	VL53L0X_WrByte
 3438              	.LVL505:
 3439              		.loc 1 950 0
 3440 01de 0822     		movs	r2, #8
 3441 01e0 4721     		movs	r1, #71
 3442 01e2 2846     		mov	r0, r5
 3443 01e4 FFF7FEFF 		bl	VL53L0X_WrByte
 3444              	.LVL506:
 3445              		.loc 1 954 0
 3446 01e8 0322     		movs	r2, #3
 3447              		.loc 1 950 0
 3448 01ea 0446     		mov	r4, r0
 3449              	.LVL507:
 3450              		.loc 1 954 0
 3451 01ec 3221     		movs	r1, #50
 3452 01ee 2846     		mov	r0, r5
 3453 01f0 FFF7FEFF 		bl	VL53L0X_WrByte
 3454              	.LVL508:
 3455              		.loc 1 956 0
 3456 01f4 0822     		movs	r2, #8
 3457 01f6 DDE7     		b	.L257
 3458              	.LVL509:
 3459              	.L268:
 3460              		.loc 1 966 0
 3461 01f8 4822     		movs	r2, #72
 3462 01fa 0191     		str	r1, [sp, #4]
 3463 01fc 1146     		mov	r1, r2
 3464              	.LVL510:
 3465 01fe FFF7FEFF 		bl	VL53L0X_WrByte
 3466              	.LVL511:
 3467              		.loc 1 969 0
 3468 0202 0822     		movs	r2, #8
 3469 0204 4721     		movs	r1, #71
 3470 0206 2846     		mov	r0, r5
 3471 0208 FFF7FEFF 		bl	VL53L0X_WrByte
 3472              	.LVL512:
 3473              		.loc 1 973 0
 3474 020c 0322     		movs	r2, #3
 3475              		.loc 1 969 0
 3476 020e 0446     		mov	r4, r0
 3477              	.LVL513:
ARM GAS  /var/folders/d2/nstgp4h54kz7g1l847x_b8wc0000gn/T//cc2apEbl.s 			page 62


 3478              		.loc 1 973 0
 3479 0210 3221     		movs	r1, #50
 3480 0212 2846     		mov	r0, r5
 3481 0214 FFF7FEFF 		bl	VL53L0X_WrByte
 3482              	.LVL514:
 3483              		.loc 1 975 0
 3484 0218 0722     		movs	r2, #7
 3485 021a CBE7     		b	.L257
 3486              	.LVL515:
 3487              	.L264:
 3488              		.loc 1 1079 0
 3489 021c FFF7FEFF 		bl	__stack_chk_fail
 3490              	.LVL516:
 3491              	.L271:
 3492              		.align	2
 3493              	.L270:
 3494 0220 00000000 		.word	__stack_chk_guard
 3495              		.cfi_endproc
 3496              	.LFE18:
 3497              		.size	VL53L0X_set_vcsel_pulse_period, .-VL53L0X_set_vcsel_pulse_period
 3498              		.section	.text.VL53L0X_get_vcsel_pulse_period,"ax",%progbits
 3499              		.align	1
 3500              		.p2align 4,,15
 3501              		.global	VL53L0X_get_vcsel_pulse_period
 3502              		.syntax unified
 3503              		.thumb
 3504              		.thumb_func
 3505              		.fpu fpv4-sp-d16
 3506              		.type	VL53L0X_get_vcsel_pulse_period, %function
 3507              	VL53L0X_get_vcsel_pulse_period:
 3508              	.LFB19:
 3509              		.loc 1 1083 0
 3510              		.cfi_startproc
 3511              		@ args = 0, pretend = 0, frame = 8
 3512              		@ frame_needed = 0, uses_anonymous_args = 0
 3513              	.LVL517:
 3514 0000 30B5     		push	{r4, r5, lr}
 3515              		.cfi_def_cfa_offset 12
 3516              		.cfi_offset 4, -12
 3517              		.cfi_offset 5, -8
 3518              		.cfi_offset 14, -4
 3519 0002 124C     		ldr	r4, .L282
 3520 0004 83B0     		sub	sp, sp, #12
 3521              		.cfi_def_cfa_offset 24
 3522              		.loc 1 1083 0
 3523 0006 2368     		ldr	r3, [r4]
 3524 0008 0193     		str	r3, [sp, #4]
 3525              	.LVL518:
 3526 000a 1546     		mov	r5, r2
 3527              		.loc 1 1087 0
 3528 000c B1B1     		cbz	r1, .L274
 3529 000e 0129     		cmp	r1, #1
 3530 0010 07D0     		beq	.L275
 3531              		.loc 1 1099 0
 3532 0012 6FF00300 		mvn	r0, #3
 3533              	.LVL519:
 3534              	.L273:
ARM GAS  /var/folders/d2/nstgp4h54kz7g1l847x_b8wc0000gn/T//cc2apEbl.s 			page 63


 3535              		.loc 1 1107 0
 3536 0016 019A     		ldr	r2, [sp, #4]
 3537 0018 2368     		ldr	r3, [r4]
 3538 001a 9A42     		cmp	r2, r3
 3539 001c 14D1     		bne	.L281
 3540 001e 03B0     		add	sp, sp, #12
 3541              		.cfi_remember_state
 3542              		.cfi_def_cfa_offset 12
 3543              		@ sp needed
 3544 0020 30BD     		pop	{r4, r5, pc}
 3545              	.LVL520:
 3546              	.L275:
 3547              		.cfi_restore_state
 3548              		.loc 1 1094 0
 3549 0022 0DF10302 		add	r2, sp, #3
 3550              	.LVL521:
 3551 0026 7021     		movs	r1, #112
 3552              	.LVL522:
 3553 0028 FFF7FEFF 		bl	VL53L0X_RdByte
 3554              	.LVL523:
 3555              	.L276:
 3556              		.loc 1 1102 0
 3557 002c 0028     		cmp	r0, #0
 3558 002e F2D1     		bne	.L273
 3559              	.LBB200:
 3560              	.LBB201:
 3561              		.loc 1 103 0
 3562 0030 9DF80330 		ldrb	r3, [sp, #3]	@ zero_extendqisi2
 3563 0034 0133     		adds	r3, r3, #1
 3564 0036 5B00     		lsls	r3, r3, #1
 3565              	.LBE201:
 3566              	.LBE200:
 3567              		.loc 1 1103 0
 3568 0038 2B70     		strb	r3, [r5]
 3569 003a ECE7     		b	.L273
 3570              	.LVL524:
 3571              	.L274:
 3572              		.loc 1 1089 0
 3573 003c 0DF10302 		add	r2, sp, #3
 3574              	.LVL525:
 3575 0040 5021     		movs	r1, #80
 3576              	.LVL526:
 3577 0042 FFF7FEFF 		bl	VL53L0X_RdByte
 3578              	.LVL527:
 3579              		.loc 1 1092 0
 3580 0046 F1E7     		b	.L276
 3581              	.LVL528:
 3582              	.L281:
 3583              		.loc 1 1107 0
 3584 0048 FFF7FEFF 		bl	__stack_chk_fail
 3585              	.LVL529:
 3586              	.L283:
 3587              		.align	2
 3588              	.L282:
 3589 004c 00000000 		.word	__stack_chk_guard
 3590              		.cfi_endproc
 3591              	.LFE19:
ARM GAS  /var/folders/d2/nstgp4h54kz7g1l847x_b8wc0000gn/T//cc2apEbl.s 			page 64


 3592              		.size	VL53L0X_get_vcsel_pulse_period, .-VL53L0X_get_vcsel_pulse_period
 3593              		.section	.text.VL53L0X_set_measurement_timing_budget_micro_seconds,"ax",%progbits
 3594              		.align	1
 3595              		.p2align 4,,15
 3596              		.global	VL53L0X_set_measurement_timing_budget_micro_seconds
 3597              		.syntax unified
 3598              		.thumb
 3599              		.thumb_func
 3600              		.fpu fpv4-sp-d16
 3601              		.type	VL53L0X_set_measurement_timing_budget_micro_seconds, %function
 3602              	VL53L0X_set_measurement_timing_budget_micro_seconds:
 3603              	.LFB20:
 3604              		.loc 1 1113 0
 3605              		.cfi_startproc
 3606              		@ args = 0, pretend = 0, frame = 24
 3607              		@ frame_needed = 0, uses_anonymous_args = 0
 3608              	.LVL530:
 3609 0000 2DE9F041 		push	{r4, r5, r6, r7, r8, lr}
 3610              		.cfi_def_cfa_offset 24
 3611              		.cfi_offset 4, -24
 3612              		.cfi_offset 5, -20
 3613              		.cfi_offset 6, -16
 3614              		.cfi_offset 7, -12
 3615              		.cfi_offset 8, -8
 3616              		.cfi_offset 14, -4
 3617 0004 384D     		ldr	r5, .L317
 3618 0006 86B0     		sub	sp, sp, #24
 3619              		.cfi_def_cfa_offset 48
 3620              		.loc 1 1113 0
 3621 0008 2B68     		ldr	r3, [r5]
 3622 000a 0593     		str	r3, [sp, #20]
 3623              	.LVL531:
 3624 000c 0E46     		mov	r6, r1
 3625              		.loc 1 1131 0
 3626 000e 44F61F63 		movw	r3, #19999
 3627              		.loc 1 1117 0
 3628 0012 4FF4FA61 		mov	r1, #2000
 3629              	.LVL532:
 3630              		.loc 1 1125 0
 3631 0016 0022     		movs	r2, #0
 3632              		.loc 1 1131 0
 3633 0018 9E42     		cmp	r6, r3
 3634              		.loc 1 1125 0
 3635 001a CDE90112 		strd	r1, r2, [sp, #4]
 3636              	.LVL533:
 3637              		.loc 1 1131 0
 3638 001e 5BD9     		bls	.L290
 3639              	.LVL534:
 3640              		.loc 1 1141 0
 3641 0020 03A9     		add	r1, sp, #12
 3642 0022 0746     		mov	r7, r0
 3643 0024 FFF7FEFF 		bl	VL53L0X_GetSequenceStepEnables
 3644              	.LVL535:
 3645              		.loc 1 1143 0
 3646 0028 0446     		mov	r4, r0
 3647 002a C0B9     		cbnz	r0, .L286
 3648              		.loc 1 1143 0 is_stmt 0 discriminator 1
ARM GAS  /var/folders/d2/nstgp4h54kz7g1l847x_b8wc0000gn/T//cc2apEbl.s 			page 65


 3649 002c 9DF80C30 		ldrb	r3, [sp, #12]	@ zero_extendqisi2
 3650              		.loc 1 1137 0 is_stmt 1 discriminator 1
 3651 0030 A6F63638 		subw	r8, r6, #2870
 3652              	.LVL536:
 3653              		.loc 1 1143 0 discriminator 1
 3654 0034 DBB9     		cbnz	r3, .L287
 3655              		.loc 1 1144 0
 3656 0036 9DF80D30 		ldrb	r3, [sp, #13]	@ zero_extendqisi2
 3657 003a C3B9     		cbnz	r3, .L287
 3658              		.loc 1 1145 0
 3659 003c 9DF80E30 		ldrb	r3, [sp, #14]	@ zero_extendqisi2
 3660 0040 ABB9     		cbnz	r3, .L287
 3661              	.LVL537:
 3662              	.L288:
 3663              		.loc 1 1214 0
 3664 0042 9DF80F30 		ldrb	r3, [sp, #15]	@ zero_extendqisi2
 3665 0046 A3BB     		cbnz	r3, .L313
 3666              	.LVL538:
 3667              	.L292:
 3668              		.loc 1 1234 0 discriminator 1
 3669 0048 9DF81030 		ldrb	r3, [sp, #16]	@ zero_extendqisi2
 3670 004c 3BB1     		cbz	r3, .L286
 3671              	.LVL539:
 3672              	.LBB202:
 3673              	.LBB203:
 3674 004e A8F22622 		subw	r2, r8, #550
 3675              	.LVL540:
 3676 0052 0421     		movs	r1, #4
 3677 0054 3846     		mov	r0, r7
 3678 0056 FFF7FEFF 		bl	set_sequence_step_timeout.part.1
 3679              	.LVL541:
 3680              	.LBE203:
 3681              	.LBE202:
 3682              		.loc 1 1251 0
 3683 005a 7E61     		str	r6, [r7, #20]
 3684              	.LBB205:
 3685              	.LBB204:
 3686 005c 0446     		mov	r4, r0
 3687              	.LVL542:
 3688              	.L286:
 3689              	.LBE204:
 3690              	.LBE205:
 3691              		.loc 1 1259 0
 3692 005e 059A     		ldr	r2, [sp, #20]
 3693 0060 2B68     		ldr	r3, [r5]
 3694 0062 9A42     		cmp	r2, r3
 3695 0064 2046     		mov	r0, r4
 3696 0066 3DD1     		bne	.L314
 3697 0068 06B0     		add	sp, sp, #24
 3698              		.cfi_remember_state
 3699              		.cfi_def_cfa_offset 24
 3700              		@ sp needed
 3701 006a BDE8F081 		pop	{r4, r5, r6, r7, r8, pc}
 3702              	.LVL543:
 3703              	.L287:
 3704              		.cfi_restore_state
 3705              		.loc 1 1149 0
ARM GAS  /var/folders/d2/nstgp4h54kz7g1l847x_b8wc0000gn/T//cc2apEbl.s 			page 66


 3706 006e 01AA     		add	r2, sp, #4
 3707 0070 0221     		movs	r1, #2
 3708 0072 3846     		mov	r0, r7
 3709              	.LVL544:
 3710 0074 FFF7FEFF 		bl	get_sequence_step_timeout
 3711              	.LVL545:
 3712              		.loc 1 1156 0
 3713 0078 30BB     		cbnz	r0, .L295
 3714              		.loc 1 1160 0
 3715 007a 9DF80C30 		ldrb	r3, [sp, #12]	@ zero_extendqisi2
 3716 007e 33B1     		cbz	r3, .L289
 3717              		.loc 1 1162 0
 3718 0080 019B     		ldr	r3, [sp, #4]
 3719 0082 03F24E23 		addw	r3, r3, #590
 3720              	.LVL546:
 3721              		.loc 1 1165 0
 3722 0086 9845     		cmp	r8, r3
 3723 0088 26D9     		bls	.L290
 3724              		.loc 1 1167 0
 3725 008a A8EB0308 		sub	r8, r8, r3
 3726              	.LVL547:
 3727              	.L289:
 3728              		.loc 1 1181 0
 3729 008e 9DF80E30 		ldrb	r3, [sp, #14]	@ zero_extendqisi2
 3730 0092 DBB9     		cbnz	r3, .L315
 3731              		.loc 1 1193 0
 3732 0094 9DF80D30 		ldrb	r3, [sp, #13]	@ zero_extendqisi2
 3733 0098 002B     		cmp	r3, #0
 3734 009a D2D0     		beq	.L288
 3735              		.loc 1 1195 0
 3736 009c 019B     		ldr	r3, [sp, #4]
 3737 009e 03F52573 		add	r3, r3, #660
 3738              	.LVL548:
 3739              		.loc 1 1198 0
 3740 00a2 9845     		cmp	r8, r3
 3741 00a4 18D9     		bls	.L290
 3742              	.L312:
 3743              		.loc 1 1200 0
 3744 00a6 A8EB0308 		sub	r8, r8, r3
 3745              	.LVL549:
 3746              		.loc 1 1214 0
 3747 00aa 9DF80F30 		ldrb	r3, [sp, #15]	@ zero_extendqisi2
 3748              	.LVL550:
 3749 00ae 002B     		cmp	r3, #0
 3750 00b0 CAD0     		beq	.L292
 3751              	.LVL551:
 3752              	.L313:
 3753              		.loc 1 1218 0
 3754 00b2 02AA     		add	r2, sp, #8
 3755 00b4 0321     		movs	r1, #3
 3756 00b6 3846     		mov	r0, r7
 3757 00b8 FFF7FEFF 		bl	get_sequence_step_timeout
 3758              	.LVL552:
 3759              		.loc 1 1222 0
 3760 00bc 029B     		ldr	r3, [sp, #8]
 3761 00be 03F52573 		add	r3, r3, #660
 3762              	.LVL553:
ARM GAS  /var/folders/d2/nstgp4h54kz7g1l847x_b8wc0000gn/T//cc2apEbl.s 			page 67


 3763              		.loc 1 1225 0
 3764 00c2 4345     		cmp	r3, r8
 3765 00c4 08D2     		bcs	.L290
 3766              	.LVL554:
 3767              		.loc 1 1234 0
 3768 00c6 50B1     		cbz	r0, .L316
 3769              	.LVL555:
 3770              	.L295:
 3771 00c8 0446     		mov	r4, r0
 3772 00ca C8E7     		b	.L286
 3773              	.LVL556:
 3774              	.L315:
 3775              		.loc 1 1183 0
 3776 00cc 019B     		ldr	r3, [sp, #4]
 3777 00ce 03F2B223 		addw	r3, r3, #690
 3778 00d2 5B00     		lsls	r3, r3, #1
 3779              	.LVL557:
 3780              		.loc 1 1186 0
 3781 00d4 9845     		cmp	r8, r3
 3782 00d6 E6D8     		bhi	.L312
 3783              	.LVL558:
 3784              	.L290:
 3785              		.loc 1 1134 0
 3786 00d8 6FF00304 		mvn	r4, #3
 3787 00dc BFE7     		b	.L286
 3788              	.LVL559:
 3789              	.L316:
 3790              		.loc 1 1226 0
 3791 00de A8EB0308 		sub	r8, r8, r3
 3792              	.LVL560:
 3793 00e2 B1E7     		b	.L292
 3794              	.LVL561:
 3795              	.L314:
 3796              		.loc 1 1259 0
 3797 00e4 FFF7FEFF 		bl	__stack_chk_fail
 3798              	.LVL562:
 3799              	.L318:
 3800              		.align	2
 3801              	.L317:
 3802 00e8 00000000 		.word	__stack_chk_guard
 3803              		.cfi_endproc
 3804              	.LFE20:
 3805              		.size	VL53L0X_set_measurement_timing_budget_micro_seconds, .-VL53L0X_set_measurement_timing_budget
 3806              		.section	.text.VL53L0X_get_measurement_timing_budget_micro_seconds,"ax",%progbits
 3807              		.align	1
 3808              		.p2align 4,,15
 3809              		.global	VL53L0X_get_measurement_timing_budget_micro_seconds
 3810              		.syntax unified
 3811              		.thumb
 3812              		.thumb_func
 3813              		.fpu fpv4-sp-d16
 3814              		.type	VL53L0X_get_measurement_timing_budget_micro_seconds, %function
 3815              	VL53L0X_get_measurement_timing_budget_micro_seconds:
 3816              	.LFB21:
 3817              		.loc 1 1263 0
 3818              		.cfi_startproc
 3819              		@ args = 0, pretend = 0, frame = 24
ARM GAS  /var/folders/d2/nstgp4h54kz7g1l847x_b8wc0000gn/T//cc2apEbl.s 			page 68


 3820              		@ frame_needed = 0, uses_anonymous_args = 0
 3821              	.LVL563:
 3822 0000 F0B5     		push	{r4, r5, r6, r7, lr}
 3823              		.cfi_def_cfa_offset 20
 3824              		.cfi_offset 4, -20
 3825              		.cfi_offset 5, -16
 3826              		.cfi_offset 6, -12
 3827              		.cfi_offset 7, -8
 3828              		.cfi_offset 14, -4
 3829 0002 374E     		ldr	r6, .L349
 3830 0004 87B0     		sub	sp, sp, #28
 3831              		.cfi_def_cfa_offset 48
 3832              		.loc 1 1263 0
 3833 0006 0D46     		mov	r5, r1
 3834              		.loc 1 1281 0
 3835 0008 40F63633 		movw	r3, #2870
 3836              		.loc 1 1263 0
 3837 000c 3168     		ldr	r1, [r6]
 3838              	.LVL564:
 3839 000e 0591     		str	r1, [sp, #20]
 3840              	.LVL565:
 3841              		.loc 1 1281 0
 3842 0010 2B60     		str	r3, [r5]
 3843              		.loc 1 1267 0
 3844 0012 4FF4FA62 		mov	r2, #2000
 3845              		.loc 1 1275 0
 3846 0016 0023     		movs	r3, #0
 3847              		.loc 1 1283 0
 3848 0018 03A9     		add	r1, sp, #12
 3849              		.loc 1 1275 0
 3850 001a CDE90123 		strd	r2, r3, [sp, #4]
 3851              		.loc 1 1263 0
 3852 001e 0746     		mov	r7, r0
 3853              		.loc 1 1283 0
 3854 0020 FFF7FEFF 		bl	VL53L0X_GetSequenceStepEnables
 3855              	.LVL566:
 3856              		.loc 1 1285 0
 3857 0024 0446     		mov	r4, r0
 3858 0026 E8B9     		cbnz	r0, .L320
 3859              		.loc 1 1291 0
 3860 0028 9DF80C30 		ldrb	r3, [sp, #12]	@ zero_extendqisi2
 3861 002c 0BBB     		cbnz	r3, .L321
 3862              		.loc 1 1291 0 is_stmt 0 discriminator 1
 3863 002e 9DF80D30 		ldrb	r3, [sp, #13]	@ zero_extendqisi2
 3864 0032 F3B9     		cbnz	r3, .L321
 3865              		.loc 1 1292 0 is_stmt 1
 3866 0034 9DF80E30 		ldrb	r3, [sp, #14]	@ zero_extendqisi2
 3867 0038 DBB9     		cbnz	r3, .L321
 3868              	.LVL567:
 3869              	.L325:
 3870              		.loc 1 1319 0
 3871 003a 9DF80F30 		ldrb	r3, [sp, #15]	@ zero_extendqisi2
 3872 003e 63B1     		cbz	r3, .L329
 3873              		.loc 1 1320 0
 3874 0040 02AA     		add	r2, sp, #8
 3875 0042 0321     		movs	r1, #3
 3876 0044 3846     		mov	r0, r7
ARM GAS  /var/folders/d2/nstgp4h54kz7g1l847x_b8wc0000gn/T//cc2apEbl.s 			page 69


 3877 0046 FFF7FEFF 		bl	get_sequence_step_timeout
 3878              	.LVL568:
 3879              		.loc 1 1324 0
 3880 004a 029A     		ldr	r2, [sp, #8]
 3881              		.loc 1 1323 0
 3882 004c 2B68     		ldr	r3, [r5]
 3883              		.loc 1 1324 0
 3884 004e 02F52572 		add	r2, r2, #660
 3885              		.loc 1 1323 0
 3886 0052 1344     		add	r3, r3, r2
 3887 0054 2B60     		str	r3, [r5]
 3888              		.loc 1 1329 0
 3889 0056 0028     		cmp	r0, #0
 3890 0058 35D1     		bne	.L332
 3891              	.LVL569:
 3892              	.L329:
 3893              		.loc 1 1330 0
 3894 005a 9DF81030 		ldrb	r3, [sp, #16]	@ zero_extendqisi2
 3895 005e 2BBB     		cbnz	r3, .L326
 3896 0060 2B68     		ldr	r3, [r5]
 3897              	.L327:
 3898              		.loc 1 1341 0
 3899 0062 7B61     		str	r3, [r7, #20]
 3900              	.L320:
 3901              		.loc 1 1348 0
 3902 0064 059A     		ldr	r2, [sp, #20]
 3903 0066 3368     		ldr	r3, [r6]
 3904 0068 9A42     		cmp	r2, r3
 3905 006a 2046     		mov	r0, r4
 3906 006c 35D1     		bne	.L347
 3907 006e 07B0     		add	sp, sp, #28
 3908              		.cfi_remember_state
 3909              		.cfi_def_cfa_offset 20
 3910              		@ sp needed
 3911 0070 F0BD     		pop	{r4, r5, r6, r7, pc}
 3912              	.LVL570:
 3913              	.L321:
 3914              		.cfi_restore_state
 3915              		.loc 1 1295 0
 3916 0072 01AA     		add	r2, sp, #4
 3917 0074 0221     		movs	r1, #2
 3918 0076 3846     		mov	r0, r7
 3919              	.LVL571:
 3920 0078 FFF7FEFF 		bl	get_sequence_step_timeout
 3921              	.LVL572:
 3922              		.loc 1 1299 0
 3923 007c 18BB     		cbnz	r0, .L332
 3924              		.loc 1 1300 0
 3925 007e 9DF80C30 		ldrb	r3, [sp, #12]	@ zero_extendqisi2
 3926 0082 2BB1     		cbz	r3, .L323
 3927              		.loc 1 1302 0
 3928 0084 019A     		ldr	r2, [sp, #4]
 3929              		.loc 1 1301 0
 3930 0086 2B68     		ldr	r3, [r5]
 3931              		.loc 1 1302 0
 3932 0088 02F24E22 		addw	r2, r2, #590
 3933              		.loc 1 1301 0
ARM GAS  /var/folders/d2/nstgp4h54kz7g1l847x_b8wc0000gn/T//cc2apEbl.s 			page 70


 3934 008c 1344     		add	r3, r3, r2
 3935 008e 2B60     		str	r3, [r5]
 3936              	.L323:
 3937              		.loc 1 1306 0
 3938 0090 9DF80E30 		ldrb	r3, [sp, #14]	@ zero_extendqisi2
 3939 0094 CBB9     		cbnz	r3, .L348
 3940              		.loc 1 1310 0
 3941 0096 9DF80D30 		ldrb	r3, [sp, #13]	@ zero_extendqisi2
 3942 009a 002B     		cmp	r3, #0
 3943 009c CDD0     		beq	.L325
 3944              		.loc 1 1312 0
 3945 009e 019A     		ldr	r2, [sp, #4]
 3946              		.loc 1 1311 0
 3947 00a0 2B68     		ldr	r3, [r5]
 3948              		.loc 1 1312 0
 3949 00a2 02F52572 		add	r2, r2, #660
 3950              		.loc 1 1311 0
 3951 00a6 1344     		add	r3, r3, r2
 3952 00a8 2B60     		str	r3, [r5]
 3953              	.LVL573:
 3954 00aa C6E7     		b	.L325
 3955              	.LVL574:
 3956              	.L326:
 3957              		.loc 1 1331 0
 3958 00ac 6A46     		mov	r2, sp
 3959 00ae 0421     		movs	r1, #4
 3960 00b0 3846     		mov	r0, r7
 3961 00b2 FFF7FEFF 		bl	get_sequence_step_timeout
 3962              	.LVL575:
 3963              		.loc 1 1335 0
 3964 00b6 009A     		ldr	r2, [sp]
 3965              		.loc 1 1334 0
 3966 00b8 2B68     		ldr	r3, [r5]
 3967              		.loc 1 1335 0
 3968 00ba 02F22622 		addw	r2, r2, #550
 3969              		.loc 1 1334 0
 3970 00be 1344     		add	r3, r3, r2
 3971 00c0 2B60     		str	r3, [r5]
 3972              		.loc 1 1340 0
 3973 00c2 0028     		cmp	r0, #0
 3974 00c4 CDD0     		beq	.L327
 3975              	.L332:
 3976 00c6 0446     		mov	r4, r0
 3977 00c8 CCE7     		b	.L320
 3978              	.L348:
 3979              		.loc 1 1308 0
 3980 00ca 019A     		ldr	r2, [sp, #4]
 3981              		.loc 1 1307 0
 3982 00cc 2B68     		ldr	r3, [r5]
 3983              		.loc 1 1308 0
 3984 00ce 02F2B222 		addw	r2, r2, #690
 3985              		.loc 1 1307 0
 3986 00d2 03EB4203 		add	r3, r3, r2, lsl #1
 3987 00d6 2B60     		str	r3, [r5]
 3988              	.LVL576:
 3989 00d8 AFE7     		b	.L325
 3990              	.LVL577:
ARM GAS  /var/folders/d2/nstgp4h54kz7g1l847x_b8wc0000gn/T//cc2apEbl.s 			page 71


 3991              	.L347:
 3992              		.loc 1 1348 0
 3993 00da FFF7FEFF 		bl	__stack_chk_fail
 3994              	.LVL578:
 3995              	.L350:
 3996 00de 00BF     		.align	2
 3997              	.L349:
 3998 00e0 00000000 		.word	__stack_chk_guard
 3999              		.cfi_endproc
 4000              	.LFE21:
 4001              		.size	VL53L0X_get_measurement_timing_budget_micro_seconds, .-VL53L0X_get_measurement_timing_budget
 4002              		.section	.text.VL53L0X_load_tuning_settings,"ax",%progbits
 4003              		.align	1
 4004              		.p2align 4,,15
 4005              		.global	VL53L0X_load_tuning_settings
 4006              		.syntax unified
 4007              		.thumb
 4008              		.thumb_func
 4009              		.fpu fpv4-sp-d16
 4010              		.type	VL53L0X_load_tuning_settings, %function
 4011              	VL53L0X_load_tuning_settings:
 4012              	.LFB22:
 4013              		.loc 1 1354 0
 4014              		.cfi_startproc
 4015              		@ args = 0, pretend = 0, frame = 8
 4016              		@ frame_needed = 0, uses_anonymous_args = 0
 4017              	.LVL579:
 4018 0000 F0B5     		push	{r4, r5, r6, r7, lr}
 4019              		.cfi_def_cfa_offset 20
 4020              		.cfi_offset 4, -20
 4021              		.cfi_offset 5, -16
 4022              		.cfi_offset 6, -12
 4023              		.cfi_offset 7, -8
 4024              		.cfi_offset 14, -4
 4025 0002 324F     		ldr	r7, .L376
 4026              		.loc 1 1370 0
 4027 0004 0B78     		ldrb	r3, [r1]	@ zero_extendqisi2
 4028              		.loc 1 1354 0
 4029 0006 3A68     		ldr	r2, [r7]
 4030 0008 83B0     		sub	sp, sp, #12
 4031              		.cfi_def_cfa_offset 32
 4032              		.loc 1 1354 0
 4033 000a 0192     		str	r2, [sp, #4]
 4034              	.LVL580:
 4035              		.loc 1 1370 0
 4036 000c 002B     		cmp	r3, #0
 4037 000e 42D0     		beq	.L353
 4038 0010 0D46     		mov	r5, r1
 4039 0012 0646     		mov	r6, r0
 4040              		.loc 1 1368 0
 4041 0014 0024     		movs	r4, #0
 4042              	.LVL581:
 4043              	.L352:
 4044 0016 621C     		adds	r2, r4, #1
 4045              	.LVL582:
 4046              	.L363:
 4047              		.loc 1 1374 0
ARM GAS  /var/folders/d2/nstgp4h54kz7g1l847x_b8wc0000gn/T//cc2apEbl.s 			page 72


 4048 0018 FF2B     		cmp	r3, #255
 4049 001a 09D0     		beq	.L373
 4050              		.loc 1 1416 0
 4051 001c 042B     		cmp	r3, #4
 4052 001e 0ED9     		bls	.L374
 4053              	.LVL583:
 4054              	.L367:
 4055              		.loc 1 1430 0
 4056 0020 6FF00300 		mvn	r0, #3
 4057              	.LVL584:
 4058              	.L355:
 4059              		.loc 1 1436 0
 4060 0024 019A     		ldr	r2, [sp, #4]
 4061 0026 3B68     		ldr	r3, [r7]
 4062 0028 9A42     		cmp	r2, r3
 4063 002a 4CD1     		bne	.L375
 4064 002c 03B0     		add	sp, sp, #12
 4065              		.cfi_remember_state
 4066              		.cfi_def_cfa_offset 20
 4067              		@ sp needed
 4068 002e F0BD     		pop	{r4, r5, r6, r7, pc}
 4069              	.LVL585:
 4070              	.L373:
 4071              		.cfi_restore_state
 4072              		.loc 1 1378 0
 4073 0030 AB5C     		ldrb	r3, [r5, r2]	@ zero_extendqisi2
 4074              	.LVL586:
 4075 0032 032B     		cmp	r3, #3
 4076 0034 F4D8     		bhi	.L367
 4077 0036 DFE803F0 		tbb	[pc, r3]
 4078              	.L357:
 4079 003a 3B       		.byte	(.L356-.L357)/2
 4080 003b 30       		.byte	(.L358-.L357)/2
 4081 003c 24       		.byte	(.L359-.L357)/2
 4082 003d 19       		.byte	(.L360-.L357)/2
 4083              	.LVL587:
 4084              		.p2align 1
 4085              	.L374:
 4086              		.loc 1 1417 0
 4087 003e A95C     		ldrb	r1, [r5, r2]	@ zero_extendqisi2
 4088              	.LVL588:
 4089              		.loc 1 1418 0
 4090 0040 541C     		adds	r4, r2, #1
 4091              	.LVL589:
 4092 0042 6846     		mov	r0, sp
 4093 0044 2A44     		add	r2, r2, r5
 4094 0046 0DEB030E 		add	lr, sp, r3
 4095              	.LVL590:
 4096              	.L362:
 4097              		.loc 1 1421 0 discriminator 3
 4098 004a 12F801CF 		ldrb	ip, [r2, #1]!	@ zero_extendqisi2
 4099 004e 00F801CB 		strb	ip, [r0], #1
 4100              		.loc 1 1420 0 discriminator 3
 4101 0052 7045     		cmp	r0, lr
 4102 0054 F9D1     		bne	.L362
 4103 0056 1C44     		add	r4, r4, r3
 4104              		.loc 1 1426 0
ARM GAS  /var/folders/d2/nstgp4h54kz7g1l847x_b8wc0000gn/T//cc2apEbl.s 			page 73


 4105 0058 6A46     		mov	r2, sp
 4106 005a 3046     		mov	r0, r6
 4107 005c FFF7FEFF 		bl	VL53L0X_WriteMulti
 4108              	.LVL591:
 4109              		.loc 1 1370 0
 4110 0060 2B5D     		ldrb	r3, [r5, r4]	@ zero_extendqisi2
 4111 0062 002B     		cmp	r3, #0
 4112 0064 DED0     		beq	.L355
 4113              		.loc 1 1370 0 is_stmt 0 discriminator 1
 4114 0066 0028     		cmp	r0, #0
 4115 0068 D5D0     		beq	.L352
 4116 006a DBE7     		b	.L355
 4117              	.LVL592:
 4118              	.L360:
 4119 006c AB18     		adds	r3, r5, r2
 4120              	.LVL593:
 4121              		.loc 1 1409 0 is_stmt 1
 4122 006e 5878     		ldrb	r0, [r3, #1]	@ zero_extendqisi2
 4123 0070 9978     		ldrb	r1, [r3, #2]	@ zero_extendqisi2
 4124 0072 01EB0021 		add	r1, r1, r0, lsl #8
 4125              		.loc 1 1410 0
 4126 0076 A6F83C11 		strh	r1, [r6, #316]	@ movhi
 4127              	.LVL594:
 4128              		.loc 1 1370 0
 4129 007a DB78     		ldrb	r3, [r3, #3]	@ zero_extendqisi2
 4130 007c 5BB1     		cbz	r3, .L353
 4131              	.LVL595:
 4132              	.L361:
 4133 007e 0432     		adds	r2, r2, #4
 4134 0080 CAE7     		b	.L363
 4135              	.LVL596:
 4136              	.L359:
 4137 0082 AB18     		adds	r3, r5, r2
 4138              	.LVL597:
 4139              		.loc 1 1401 0
 4140 0084 5878     		ldrb	r0, [r3, #1]	@ zero_extendqisi2
 4141 0086 9978     		ldrb	r1, [r3, #2]	@ zero_extendqisi2
 4142 0088 01EB0021 		add	r1, r1, r0, lsl #8
 4143              		.loc 1 1402 0
 4144 008c A6F83811 		strh	r1, [r6, #312]	@ movhi
 4145              	.LVL598:
 4146              		.loc 1 1370 0
 4147 0090 DB78     		ldrb	r3, [r3, #3]	@ zero_extendqisi2
 4148 0092 002B     		cmp	r3, #0
 4149 0094 F3D1     		bne	.L361
 4150              	.LVL599:
 4151              	.L353:
 4152              		.loc 1 1355 0
 4153 0096 0020     		movs	r0, #0
 4154 0098 C4E7     		b	.L355
 4155              	.LVL600:
 4156              	.L358:
 4157 009a AB18     		adds	r3, r5, r2
 4158              	.LVL601:
 4159              		.loc 1 1392 0
 4160 009c 5878     		ldrb	r0, [r3, #1]	@ zero_extendqisi2
 4161 009e 9978     		ldrb	r1, [r3, #2]	@ zero_extendqisi2
ARM GAS  /var/folders/d2/nstgp4h54kz7g1l847x_b8wc0000gn/T//cc2apEbl.s 			page 74


 4162 00a0 01EB0021 		add	r1, r1, r0, lsl #8
 4163              		.loc 1 1393 0
 4164 00a4 A6F83611 		strh	r1, [r6, #310]	@ movhi
 4165              	.LVL602:
 4166              		.loc 1 1370 0
 4167 00a8 DB78     		ldrb	r3, [r3, #3]	@ zero_extendqisi2
 4168 00aa 002B     		cmp	r3, #0
 4169 00ac E7D1     		bne	.L361
 4170 00ae F2E7     		b	.L353
 4171              	.LVL603:
 4172              	.L356:
 4173 00b0 AB18     		adds	r3, r5, r2
 4174              	.LVL604:
 4175              		.loc 1 1384 0
 4176 00b2 5878     		ldrb	r0, [r3, #1]	@ zero_extendqisi2
 4177 00b4 9978     		ldrb	r1, [r3, #2]	@ zero_extendqisi2
 4178 00b6 01EB0021 		add	r1, r1, r0, lsl #8
 4179              		.loc 1 1385 0
 4180 00ba A6F83411 		strh	r1, [r6, #308]	@ movhi
 4181              	.LVL605:
 4182              		.loc 1 1370 0
 4183 00be DB78     		ldrb	r3, [r3, #3]	@ zero_extendqisi2
 4184 00c0 002B     		cmp	r3, #0
 4185 00c2 DCD1     		bne	.L361
 4186 00c4 E7E7     		b	.L353
 4187              	.LVL606:
 4188              	.L375:
 4189              		.loc 1 1436 0
 4190 00c6 FFF7FEFF 		bl	__stack_chk_fail
 4191              	.LVL607:
 4192              	.L377:
 4193 00ca 00BF     		.align	2
 4194              	.L376:
 4195 00cc 00000000 		.word	__stack_chk_guard
 4196              		.cfi_endproc
 4197              	.LFE22:
 4198              		.size	VL53L0X_load_tuning_settings, .-VL53L0X_load_tuning_settings
 4199              		.section	.text.VL53L0X_get_total_xtalk_rate,"ax",%progbits
 4200              		.align	1
 4201              		.p2align 4,,15
 4202              		.global	VL53L0X_get_total_xtalk_rate
 4203              		.syntax unified
 4204              		.thumb
 4205              		.thumb_func
 4206              		.fpu fpv4-sp-d16
 4207              		.type	VL53L0X_get_total_xtalk_rate, %function
 4208              	VL53L0X_get_total_xtalk_rate:
 4209              	.LFB23:
 4210              		.loc 1 1441 0
 4211              		.cfi_startproc
 4212              		@ args = 0, pretend = 0, frame = 8
 4213              		@ frame_needed = 0, uses_anonymous_args = 0
 4214              	.LVL608:
 4215 0000 F0B5     		push	{r4, r5, r6, r7, lr}
 4216              		.cfi_def_cfa_offset 20
 4217              		.cfi_offset 4, -20
 4218              		.cfi_offset 5, -16
ARM GAS  /var/folders/d2/nstgp4h54kz7g1l847x_b8wc0000gn/T//cc2apEbl.s 			page 75


 4219              		.cfi_offset 6, -12
 4220              		.cfi_offset 7, -8
 4221              		.cfi_offset 14, -4
 4222 0002 1546     		mov	r5, r2
 4223 0004 0F4C     		ldr	r4, .L386
 4224 0006 83B0     		sub	sp, sp, #12
 4225              		.cfi_def_cfa_offset 32
 4226              		.loc 1 1448 0
 4227 0008 0022     		movs	r2, #0
 4228              	.LVL609:
 4229              		.loc 1 1441 0
 4230 000a 2368     		ldr	r3, [r4]
 4231              		.loc 1 1448 0
 4232 000c 2A60     		str	r2, [r5]
 4233              		.loc 1 1441 0
 4234 000e 0F46     		mov	r7, r1
 4235              		.loc 1 1450 0
 4236 0010 0DF10301 		add	r1, sp, #3
 4237              	.LVL610:
 4238              		.loc 1 1441 0
 4239 0014 0193     		str	r3, [sp, #4]
 4240              	.LVL611:
 4241 0016 0646     		mov	r6, r0
 4242              		.loc 1 1450 0
 4243 0018 FFF7FEFF 		bl	VL53L0X_GetXTalkCompensationEnable
 4244              	.LVL612:
 4245              		.loc 1 1451 0
 4246 001c 48B9     		cbnz	r0, .L379
 4247              		.loc 1 1453 0
 4248 001e 9DF80330 		ldrb	r3, [sp, #3]	@ zero_extendqisi2
 4249 0022 33B1     		cbz	r3, .L379
 4250              	.LVL613:
 4251              	.LBB208:
 4252              	.LBB209:
 4253              		.loc 1 1462 0
 4254 0024 BA8A     		ldrh	r2, [r7, #20]
 4255              		.loc 1 1461 0
 4256 0026 336A     		ldr	r3, [r6, #32]
 4257 0028 03FB02F3 		mul	r3, r3, r2
 4258              	.LVL614:
 4259              		.loc 1 1467 0
 4260 002c 8033     		adds	r3, r3, #128
 4261              	.LVL615:
 4262 002e 1B0A     		lsrs	r3, r3, #8
 4263              	.LVL616:
 4264              		.loc 1 1466 0
 4265 0030 2B60     		str	r3, [r5]
 4266              	.LVL617:
 4267              	.L379:
 4268              	.LBE209:
 4269              	.LBE208:
 4270              		.loc 1 1472 0
 4271 0032 019A     		ldr	r2, [sp, #4]
 4272 0034 2368     		ldr	r3, [r4]
 4273 0036 9A42     		cmp	r2, r3
 4274 0038 01D1     		bne	.L385
 4275 003a 03B0     		add	sp, sp, #12
ARM GAS  /var/folders/d2/nstgp4h54kz7g1l847x_b8wc0000gn/T//cc2apEbl.s 			page 76


 4276              		.cfi_remember_state
 4277              		.cfi_def_cfa_offset 20
 4278              		@ sp needed
 4279 003c F0BD     		pop	{r4, r5, r6, r7, pc}
 4280              	.LVL618:
 4281              	.L385:
 4282              		.cfi_restore_state
 4283 003e FFF7FEFF 		bl	__stack_chk_fail
 4284              	.LVL619:
 4285              	.L387:
 4286 0042 00BF     		.align	2
 4287              	.L386:
 4288 0044 00000000 		.word	__stack_chk_guard
 4289              		.cfi_endproc
 4290              	.LFE23:
 4291              		.size	VL53L0X_get_total_xtalk_rate, .-VL53L0X_get_total_xtalk_rate
 4292              		.section	.text.VL53L0X_get_total_signal_rate,"ax",%progbits
 4293              		.align	1
 4294              		.p2align 4,,15
 4295              		.global	VL53L0X_get_total_signal_rate
 4296              		.syntax unified
 4297              		.thumb
 4298              		.thumb_func
 4299              		.fpu fpv4-sp-d16
 4300              		.type	VL53L0X_get_total_signal_rate, %function
 4301              	VL53L0X_get_total_signal_rate:
 4302              	.LFB24:
 4303              		.loc 1 1477 0
 4304              		.cfi_startproc
 4305              		@ args = 0, pretend = 0, frame = 8
 4306              		@ frame_needed = 0, uses_anonymous_args = 0
 4307              	.LVL620:
 4308 0000 30B5     		push	{r4, r5, lr}
 4309              		.cfi_def_cfa_offset 12
 4310              		.cfi_offset 4, -12
 4311              		.cfi_offset 5, -8
 4312              		.cfi_offset 14, -4
 4313 0002 1446     		mov	r4, r2
 4314 0004 0A4D     		ldr	r5, .L393
 4315              		.loc 1 1484 0
 4316 0006 CA68     		ldr	r2, [r1, #12]
 4317              	.LVL621:
 4318              		.loc 1 1477 0
 4319 0008 2B68     		ldr	r3, [r5]
 4320              		.loc 1 1483 0
 4321 000a 2260     		str	r2, [r4]
 4322              		.loc 1 1477 0
 4323 000c 83B0     		sub	sp, sp, #12
 4324              		.cfi_def_cfa_offset 24
 4325              		.loc 1 1486 0
 4326 000e 6A46     		mov	r2, sp
 4327              		.loc 1 1477 0
 4328 0010 0193     		str	r3, [sp, #4]
 4329              	.LVL622:
 4330              		.loc 1 1486 0
 4331 0012 FFF7FEFF 		bl	VL53L0X_get_total_xtalk_rate
 4332              	.LVL623:
ARM GAS  /var/folders/d2/nstgp4h54kz7g1l847x_b8wc0000gn/T//cc2apEbl.s 			page 77


 4333              		.loc 1 1489 0
 4334 0016 18B9     		cbnz	r0, .L389
 4335              		.loc 1 1490 0
 4336 0018 2368     		ldr	r3, [r4]
 4337 001a 009A     		ldr	r2, [sp]
 4338 001c 1344     		add	r3, r3, r2
 4339 001e 2360     		str	r3, [r4]
 4340              	.L389:
 4341              		.loc 1 1493 0
 4342 0020 019A     		ldr	r2, [sp, #4]
 4343 0022 2B68     		ldr	r3, [r5]
 4344 0024 9A42     		cmp	r2, r3
 4345 0026 01D1     		bne	.L392
 4346 0028 03B0     		add	sp, sp, #12
 4347              		.cfi_remember_state
 4348              		.cfi_def_cfa_offset 12
 4349              		@ sp needed
 4350 002a 30BD     		pop	{r4, r5, pc}
 4351              	.LVL624:
 4352              	.L392:
 4353              		.cfi_restore_state
 4354 002c FFF7FEFF 		bl	__stack_chk_fail
 4355              	.LVL625:
 4356              	.L394:
 4357              		.align	2
 4358              	.L393:
 4359 0030 00000000 		.word	__stack_chk_guard
 4360              		.cfi_endproc
 4361              	.LFE24:
 4362              		.size	VL53L0X_get_total_signal_rate, .-VL53L0X_get_total_signal_rate
 4363              		.section	.text.VL53L0X_calc_dmax,"ax",%progbits
 4364              		.align	1
 4365              		.p2align 4,,15
 4366              		.global	VL53L0X_calc_dmax
 4367              		.syntax unified
 4368              		.thumb
 4369              		.thumb_func
 4370              		.fpu fpv4-sp-d16
 4371              		.type	VL53L0X_calc_dmax, %function
 4372              	VL53L0X_calc_dmax:
 4373              	.LFB25:
 4374              		.loc 1 1504 0
 4375              		.cfi_startproc
 4376              		@ args = 16, pretend = 0, frame = 8
 4377              		@ frame_needed = 0, uses_anonymous_args = 0
 4378              	.LVL626:
 4379 0000 F0B5     		push	{r4, r5, r6, r7, lr}
 4380              		.cfi_def_cfa_offset 20
 4381              		.cfi_offset 4, -20
 4382              		.cfi_offset 5, -16
 4383              		.cfi_offset 6, -12
 4384              		.cfi_offset 7, -8
 4385              		.cfi_offset 14, -4
 4386              		.loc 1 1531 0
 4387 0002 B0F85461 		ldrh	r6, [r0, #340]
 4388              		.loc 1 1538 0
 4389 0006 D0F85851 		ldr	r5, [r0, #344]
ARM GAS  /var/folders/d2/nstgp4h54kz7g1l847x_b8wc0000gn/T//cc2apEbl.s 			page 78


 4390              		.loc 1 1504 0
 4391 000a 4E4C     		ldr	r4, .L427
 4392              		.loc 1 1538 0
 4393 000c 05FB06F5 		mul	r5, r5, r6
 4394              		.loc 1 1504 0
 4395 0010 83B0     		sub	sp, sp, #12
 4396              		.cfi_def_cfa_offset 32
 4397              		.loc 1 1541 0
 4398 0012 8035     		adds	r5, r5, #128
 4399              		.loc 1 1504 0
 4400 0014 2068     		ldr	r0, [r4]
 4401              	.LVL627:
 4402 0016 0190     		str	r0, [sp, #4]
 4403              	.LVL628:
 4404              		.loc 1 1541 0
 4405 0018 2D0A     		lsrs	r5, r5, #8
 4406              	.LVL629:
 4407              		.loc 1 1542 0
 4408 001a 05FB06F5 		mul	r5, r5, r6
 4409              	.LVL630:
 4410              		.loc 1 1504 0
 4411 001e DDE908E7 		ldrd	lr, r7, [sp, #32]
 4412 0022 DDE90A60 		ldrd	r6, r0, [sp, #40]
 4413              	.LVL631:
 4414              		.loc 1 1545 0
 4415 0026 5AB1     		cbz	r2, .L396
 4416              	.LVL632:
 4417              		.loc 1 1549 0
 4418 0028 8902     		lsls	r1, r1, #10
 4419              	.LVL633:
 4420              		.loc 1 1552 0
 4421 002a 01EB5201 		add	r1, r1, r2, lsr #1
 4422              	.LVL634:
 4423              		.loc 1 1556 0
 4424 002e B1FBF2F2 		udiv	r2, r1, r2
 4425              	.LVL635:
 4426              		.loc 1 1560 0
 4427 0032 02EB4202 		add	r2, r2, r2, lsl #1
 4428              	.LVL636:
 4429              		.loc 1 1563 0
 4430 0036 02FB02F2 		mul	r2, r2, r2
 4431              	.LVL637:
 4432              		.loc 1 1566 0
 4433 003a 02F50042 		add	r2, r2, #32768
 4434              	.LVL638:
 4435 003e 120C     		lsrs	r2, r2, #16
 4436              	.LVL639:
 4437              	.L396:
 4438              		.loc 1 1582 0
 4439 0040 07F50041 		add	r1, r7, #32768
 4440 0044 090C     		lsrs	r1, r1, #16
 4441              		.loc 1 1583 0
 4442 0046 DFF80CC1 		ldr	ip, .L427+16
 4443 004a 0331     		adds	r1, r1, #3
 4444              		.loc 1 1569 0
 4445 004c 0EFB03F3 		mul	r3, lr, r3
 4446              	.LVL640:
ARM GAS  /var/folders/d2/nstgp4h54kz7g1l847x_b8wc0000gn/T//cc2apEbl.s 			page 79


 4447              		.loc 1 1583 0
 4448 0050 ACFB01E1 		umull	lr, r1, ip, r1
 4449 0054 8908     		lsrs	r1, r1, #2
 4450              		.loc 1 1572 0
 4451 0056 03F50043 		add	r3, r3, #32768
 4452              	.LVL641:
 4453              		.loc 1 1585 0
 4454 005a C1EBC101 		rsb	r1, r1, r1, lsl #3
 4455              		.loc 1 1572 0
 4456 005e 1B0C     		lsrs	r3, r3, #16
 4457              	.LVL642:
 4458              		.loc 1 1587 0
 4459 0060 B1F5803F 		cmp	r1, #65536
 4460              		.loc 1 1575 0
 4461 0064 03FB03F3 		mul	r3, r3, r3
 4462              	.LVL643:
 4463              		.loc 1 1587 0
 4464 0068 62D2     		bcs	.L409
 4465              		.loc 1 1595 0
 4466 006a F91C     		adds	r1, r7, #3
 4467 006c ACFB0171 		umull	r7, r1, ip, r1
 4468 0070 8908     		lsrs	r1, r1, #2
 4469              	.LVL644:
 4470              		.loc 1 1597 0
 4471 0072 C1EBC101 		rsb	r1, r1, r1, lsl #3
 4472              	.LVL645:
 4473              		.loc 1 1600 0
 4474 0076 01F50041 		add	r1, r1, #32768
 4475 007a 090C     		lsrs	r1, r1, #16
 4476              	.LVL646:
 4477              		.loc 1 1602 0
 4478 007c 01FB01F1 		mul	r1, r1, r1
 4479              	.LVL647:
 4480              	.L397:
 4481              		.loc 1 1631 0
 4482 0080 03EB5603 		add	r3, r3, r6, lsr #1
 4483              	.LVL648:
 4484 0084 0B44     		add	r3, r3, r1
 4485              	.LVL649:
 4486              		.loc 1 1632 0
 4487 0086 B3FBF6F3 		udiv	r3, r3, r6
 4488              	.LVL650:
 4489              		.loc 1 1635 0
 4490 008a 9B03     		lsls	r3, r3, #14
 4491              	.LVL651:
 4492              		.loc 1 1639 0
 4493 008c 2E4F     		ldr	r7, .L427+4
 4494              		.loc 1 1638 0
 4495 008e 7F33     		adds	r3, r3, #127
 4496              	.LVL652:
 4497              		.loc 1 1639 0
 4498 0090 5B08     		lsrs	r3, r3, #1
 4499              	.LVL653:
 4500 0092 A7FB0313 		umull	r1, r3, r7, r3
 4501              	.LVL654:
 4502 0096 9B09     		lsrs	r3, r3, #6
 4503              	.LVL655:
ARM GAS  /var/folders/d2/nstgp4h54kz7g1l847x_b8wc0000gn/T//cc2apEbl.s 			page 80


 4504              		.loc 1 1642 0
 4505 0098 03FB02F2 		mul	r2, r3, r2
 4506              	.LVL656:
 4507              		.loc 1 1651 0
 4508 009c 2B49     		ldr	r1, .L427+8
 4509 009e 02F5FA72 		add	r2, r2, #500
 4510              	.LVL657:
 4511 00a2 A1FB0232 		umull	r3, r2, r1, r2
 4512              	.LVL658:
 4513 00a6 9209     		lsrs	r2, r2, #6
 4514              	.LVL659:
 4515              		.loc 1 1652 0
 4516 00a8 1201     		lsls	r2, r2, #4
 4517              	.LVL660:
 4518              		.loc 1 1654 0
 4519 00aa 02F5FA72 		add	r2, r2, #500
 4520              	.LVL661:
 4521 00ae A1FB0231 		umull	r3, r1, r1, r2
 4522              		.loc 1 1661 0
 4523 00b2 05F12007 		add	r7, r5, #32
 4524              		.loc 1 1654 0
 4525 00b6 8909     		lsrs	r1, r1, #6
 4526              	.LVL662:
 4527              		.loc 1 1661 0
 4528 00b8 BF09     		lsrs	r7, r7, #6
 4529              	.LVL663:
 4530              	.LBB210:
 4531              	.LBB211:
 4532              		.loc 1 132 0
 4533 00ba 4FF08043 		mov	r3, #1073741824
 4534              	.LVL664:
 4535              	.L398:
 4536              		.loc 1 138 0
 4537 00be 9B08     		lsrs	r3, r3, #2
 4538              	.LVL665:
 4539              		.loc 1 137 0
 4540 00c0 9F42     		cmp	r7, r3
 4541 00c2 FCD3     		bcc	.L398
 4542              		.loc 1 141 0
 4543 00c4 002B     		cmp	r3, #0
 4544 00c6 38D0     		beq	.L410
 4545              		.loc 1 131 0
 4546 00c8 0026     		movs	r6, #0
 4547              	.LVL666:
 4548              	.L401:
 4549              		.loc 1 142 0
 4550 00ca 03EB060C 		add	ip, r3, r6
 4551 00ce BC45     		cmp	ip, r7
 4552 00d0 4FEA5606 		lsr	r6, r6, #1
 4553              	.LVL667:
 4554              		.loc 1 143 0
 4555 00d4 9CBF     		itt	ls
 4556 00d6 A7EB0C07 		subls	r7, r7, ip
 4557              	.LVL668:
 4558              		.loc 1 144 0
 4559 00da F618     		addls	r6, r6, r3
 4560              	.LVL669:
ARM GAS  /var/folders/d2/nstgp4h54kz7g1l847x_b8wc0000gn/T//cc2apEbl.s 			page 81


 4561              		.loc 1 141 0
 4562 00dc 9B08     		lsrs	r3, r3, #2
 4563              	.LVL670:
 4564 00de F4D1     		bne	.L401
 4565              	.LVL671:
 4566              	.L399:
 4567              	.LBE211:
 4568              	.LBE210:
 4569              		.loc 1 1669 0
 4570 00e0 49B1     		cbz	r1, .L402
 4571              		.loc 1 1670 0
 4572 00e2 1A4B     		ldr	r3, .L427+8
 4573 00e4 A3FB0232 		umull	r3, r2, r3, r2
 4574 00e8 05EBD212 		add	r2, r5, r2, lsr #7
 4575 00ec B2FBF1F1 		udiv	r1, r2, r1
 4576              	.LVL672:
 4577              	.LBB214:
 4578              	.LBB215:
 4579              		.loc 1 137 0
 4580 00f0 B1F1804F 		cmp	r1, #1073741824
 4581 00f4 1ED2     		bcs	.L411
 4582              	.LVL673:
 4583              	.L402:
 4584              	.LBE215:
 4585              	.LBE214:
 4586              	.LBB218:
 4587              	.LBB212:
 4588              		.loc 1 131 0
 4589 00f6 4FF08043 		mov	r3, #1073741824
 4590              	.L404:
 4591              	.LVL674:
 4592              	.LBE212:
 4593              	.LBE218:
 4594              	.LBB219:
 4595              	.LBB216:
 4596              		.loc 1 138 0
 4597 00fa 9B08     		lsrs	r3, r3, #2
 4598              	.LVL675:
 4599              		.loc 1 137 0
 4600 00fc 8B42     		cmp	r3, r1
 4601 00fe FCD8     		bhi	.L404
 4602              	.LVL676:
 4603              		.loc 1 141 0
 4604 0100 6BB1     		cbz	r3, .L405
 4605              	.LVL677:
 4606              	.L403:
 4607              		.loc 1 132 0
 4608 0102 0022     		movs	r2, #0
 4609              	.LVL678:
 4610              	.L407:
 4611              		.loc 1 142 0
 4612 0104 D518     		adds	r5, r2, r3
 4613 0106 8D42     		cmp	r5, r1
 4614 0108 4FEA5202 		lsr	r2, r2, #1
 4615              	.LVL679:
 4616              		.loc 1 143 0
 4617 010c 9CBF     		itt	ls
ARM GAS  /var/folders/d2/nstgp4h54kz7g1l847x_b8wc0000gn/T//cc2apEbl.s 			page 82


 4618 010e 491B     		subls	r1, r1, r5
 4619              	.LVL680:
 4620              		.loc 1 144 0
 4621 0110 D218     		addls	r2, r2, r3
 4622              	.LVL681:
 4623              		.loc 1 141 0
 4624 0112 9B08     		lsrs	r3, r3, #2
 4625              	.LVL682:
 4626 0114 F6D1     		bne	.L407
 4627 0116 B242     		cmp	r2, r6
 4628 0118 1346     		mov	r3, r2
 4629              	.LVL683:
 4630 011a 28BF     		it	cs
 4631 011c 3346     		movcs	r3, r6
 4632              	.LVL684:
 4633              	.L405:
 4634 011e 0360     		str	r3, [r0]
 4635              	.LVL685:
 4636              	.LBE216:
 4637              	.LBE219:
 4638              		.loc 1 1684 0
 4639 0120 019A     		ldr	r2, [sp, #4]
 4640 0122 2368     		ldr	r3, [r4]
 4641 0124 9A42     		cmp	r2, r3
 4642 0126 4FF00000 		mov	r0, #0
 4643 012a 08D1     		bne	.L426
 4644 012c 03B0     		add	sp, sp, #12
 4645              		.cfi_remember_state
 4646              		.cfi_def_cfa_offset 20
 4647              		@ sp needed
 4648 012e F0BD     		pop	{r4, r5, r6, r7, pc}
 4649              	.LVL686:
 4650              	.L409:
 4651              		.cfi_restore_state
 4652              		.loc 1 1588 0
 4653 0130 0749     		ldr	r1, .L427+12
 4654 0132 A5E7     		b	.L397
 4655              	.LVL687:
 4656              	.L411:
 4657              	.LBB220:
 4658              	.LBB217:
 4659              		.loc 1 132 0
 4660 0134 4FF08043 		mov	r3, #1073741824
 4661 0138 E3E7     		b	.L403
 4662              	.LVL688:
 4663              	.L410:
 4664              	.LBE217:
 4665              	.LBE220:
 4666              	.LBB221:
 4667              	.LBB213:
 4668              		.loc 1 131 0
 4669 013a 1E46     		mov	r6, r3
 4670 013c D0E7     		b	.L399
 4671              	.LVL689:
 4672              	.L426:
 4673              	.LBE213:
 4674              	.LBE221:
ARM GAS  /var/folders/d2/nstgp4h54kz7g1l847x_b8wc0000gn/T//cc2apEbl.s 			page 83


 4675              		.loc 1 1684 0
 4676 013e FFF7FEFF 		bl	__stack_chk_fail
 4677              	.LVL690:
 4678              	.L428:
 4679 0142 00BF     		.align	2
 4680              	.L427:
 4681 0144 00000000 		.word	__stack_chk_guard
 4682 0148 09040281 		.word	-2130574327
 4683 014c D34D6210 		.word	274877907
 4684 0150 0000F0FF 		.word	-1048576
 4685 0154 ABAAAAAA 		.word	-1431655765
 4686              		.cfi_endproc
 4687              	.LFE25:
 4688              		.size	VL53L0X_calc_dmax, .-VL53L0X_calc_dmax
 4689              		.section	.text.VL53L0X_calc_sigma_estimate,"ax",%progbits
 4690              		.align	1
 4691              		.p2align 4,,15
 4692              		.global	VL53L0X_calc_sigma_estimate
 4693              		.syntax unified
 4694              		.thumb
 4695              		.thumb_func
 4696              		.fpu fpv4-sp-d16
 4697              		.type	VL53L0X_calc_sigma_estimate, %function
 4698              	VL53L0X_calc_sigma_estimate:
 4699              	.LFB26:
 4700              		.loc 1 1691 0
 4701              		.cfi_startproc
 4702              		@ args = 0, pretend = 0, frame = 40
 4703              		@ frame_needed = 0, uses_anonymous_args = 0
 4704              	.LVL691:
 4705 0000 2DE9F04F 		push	{r4, r5, r6, r7, r8, r9, r10, fp, lr}
 4706              		.cfi_def_cfa_offset 36
 4707              		.cfi_offset 4, -36
 4708              		.cfi_offset 5, -32
 4709              		.cfi_offset 6, -28
 4710              		.cfi_offset 7, -24
 4711              		.cfi_offset 8, -20
 4712              		.cfi_offset 9, -16
 4713              		.cfi_offset 10, -12
 4714              		.cfi_offset 11, -8
 4715              		.cfi_offset 14, -4
 4716 0004 C24F     		ldr	r7, .L477
 4717              		.loc 1 1749 0
 4718 0006 056A     		ldr	r5, [r0, #32]
 4719              		.loc 1 1691 0
 4720 0008 3E68     		ldr	r6, [r7]
 4721 000a 8FB0     		sub	sp, sp, #60
 4722              		.cfi_def_cfa_offset 96
 4723              		.loc 1 1691 0
 4724 000c 0446     		mov	r4, r0
 4725 000e 0492     		str	r2, [sp, #16]
 4726              	.LBB222:
 4727              	.LBB223:
 4728              		.loc 1 1486 0
 4729 0010 0CAA     		add	r2, sp, #48
 4730              	.LVL692:
 4731              	.LBE223:
ARM GAS  /var/folders/d2/nstgp4h54kz7g1l847x_b8wc0000gn/T//cc2apEbl.s 			page 84


 4732              	.LBE222:
 4733              		.loc 1 1749 0
 4734 0012 0B95     		str	r5, [sp, #44]
 4735              		.loc 1 1691 0
 4736 0014 0593     		str	r3, [sp, #20]
 4737 0016 0D46     		mov	r5, r1
 4738 0018 0D96     		str	r6, [sp, #52]
 4739              	.LVL693:
 4740              		.loc 1 1760 0
 4741 001a D1E903B8 		ldrd	fp, r8, [r1, #12]
 4742              	.LVL694:
 4743              	.LBB226:
 4744              	.LBB224:
 4745              		.loc 1 1486 0
 4746 001e FFF7FEFF 		bl	VL53L0X_get_total_xtalk_rate
 4747              	.LVL695:
 4748              		.loc 1 1489 0
 4749 0022 0028     		cmp	r0, #0
 4750 0024 40F06481 		bne	.L453
 4751              		.loc 1 1490 0
 4752 0028 0C9E     		ldr	r6, [sp, #48]
 4753 002a 5E44     		add	r6, r6, fp
 4754              	.LVL696:
 4755              	.L430:
 4756              	.LBE224:
 4757              	.LBE226:
 4758              		.loc 1 1766 0
 4759 002c 0BAA     		add	r2, sp, #44
 4760 002e 2946     		mov	r1, r5
 4761 0030 2046     		mov	r0, r4
 4762 0032 FFF7FEFF 		bl	VL53L0X_get_total_xtalk_rate
 4763              	.LVL697:
 4764              		.loc 1 1781 0
 4765 0036 0028     		cmp	r0, #0
 4766 0038 40F05381 		bne	.L431
 4767              	.LVL698:
 4768              		.loc 1 1787 0
 4769 003c 94F8E020 		ldrb	r2, [r4, #224]	@ zero_extendqisi2
 4770              	.LVL699:
 4771              		.loc 1 1773 0
 4772 0040 4FF47A7E 		mov	lr, #1000
 4773 0044 0EFB06F3 		mul	r3, lr, r6
 4774              	.LVL700:
 4775              		.loc 1 1805 0
 4776 0048 082A     		cmp	r2, #8
 4777              		.loc 1 1774 0
 4778 004a 03F50043 		add	r3, r3, #32768
 4779              	.LVL701:
 4780              		.loc 1 1805 0
 4781 004e 14BF     		ite	ne
 4782 0050 4FF0030C 		movne	ip, #3
 4783 0054 4FF0020C 		moveq	ip, #2
 4784              	.LVL702:
 4785              		.loc 1 1833 0
 4786 0058 190C     		lsrs	r1, r3, #16
 4787 005a 0791     		str	r1, [sp, #28]
 4788 005c 00F04A81 		beq	.L475
ARM GAS  /var/folders/d2/nstgp4h54kz7g1l847x_b8wc0000gn/T//cc2apEbl.s 			page 85


 4789              	.LVL703:
 4790              		.loc 1 1784 0
 4791 0060 D4F8DC10 		ldr	r1, [r4, #220]
 4792              	.LBB227:
 4793              	.LBB228:
 4794              	.LBB229:
 4795              	.LBB230:
 4796              		.loc 1 494 0
 4797 0064 94F8E800 		ldrb	r0, [r4, #232]	@ zero_extendqisi2
 4798              	.LVL704:
 4799              	.LBE230:
 4800              	.LBE229:
 4801              	.LBE228:
 4802              	.LBE227:
 4803              		.loc 1 1784 0
 4804 0068 0691     		str	r1, [sp, #24]
 4805              	.LBB238:
 4806              	.LBB239:
 4807              	.LBB240:
 4808              	.LBB241:
 4809              		.loc 1 493 0
 4810 006a AA49     		ldr	r1, .L477+4
 4811              	.LBE241:
 4812              	.LBE240:
 4813              	.LBE239:
 4814              	.LBE238:
 4815              	.LBB250:
 4816              	.LBB233:
 4817              		.loc 1 555 0
 4818 006c DFF8BC92 		ldr	r9, .L477+28
 4819              	.LBE233:
 4820              	.LBE250:
 4821              		.loc 1 1794 0
 4822 0070 D4F8E4A0 		ldr	r10, [r4, #228]
 4823              	.LBB251:
 4824              	.LBB244:
 4825              	.LBB243:
 4826              	.LBB242:
 4827              		.loc 1 493 0
 4828 0074 01FB02F2 		mul	r2, r1, r2
 4829              	.LVL705:
 4830              	.LBE242:
 4831              	.LBE243:
 4832              	.LBE244:
 4833              	.LBE251:
 4834              	.LBB252:
 4835              	.LBB234:
 4836              	.LBB232:
 4837              	.LBB231:
 4838 0078 01FB00F1 		mul	r1, r1, r0
 4839              	.LBE231:
 4840              	.LBE232:
 4841              		.loc 1 551 0
 4842 007c 01F5FA71 		add	r1, r1, #500
 4843              		.loc 1 555 0
 4844 0080 A9FB0101 		umull	r0, r1, r9, r1
 4845              	.LBE234:
ARM GAS  /var/folders/d2/nstgp4h54kz7g1l847x_b8wc0000gn/T//cc2apEbl.s 			page 86


 4846              	.LBE252:
 4847              	.LBB253:
 4848              	.LBB245:
 4849              		.loc 1 551 0
 4850 0084 02F5FA72 		add	r2, r2, #500
 4851              		.loc 1 555 0
 4852 0088 A9FB0202 		umull	r0, r2, r9, r2
 4853              	.LBE245:
 4854              	.LBE253:
 4855              	.LBB254:
 4856              	.LBB235:
 4857 008c C809     		lsrs	r0, r1, #7
 4858 008e 0890     		str	r0, [sp, #32]
 4859              	.LBE235:
 4860              	.LBE254:
 4861              	.LBB255:
 4862              	.LBB246:
 4863 0090 D009     		lsrs	r0, r2, #7
 4864 0092 0990     		str	r0, [sp, #36]
 4865              	.LBE246:
 4866              	.LBE255:
 4867              	.LBB256:
 4868              	.LBB236:
 4869 0094 0898     		ldr	r0, [sp, #32]
 4870              		.loc 1 551 0
 4871 0096 8909     		lsrs	r1, r1, #6
 4872              		.loc 1 555 0
 4873 0098 0EFB0A00 		mla	r0, lr, r10, r0
 4874              		.loc 1 553 0
 4875 009c B0FBF1F1 		udiv	r1, r0, r1
 4876              	.LBE236:
 4877              	.LBE256:
 4878              	.LBB257:
 4879              	.LBB247:
 4880              		.loc 1 555 0
 4881 00a0 0698     		ldr	r0, [sp, #24]
 4882              	.LBE247:
 4883              	.LBE257:
 4884              	.LBB258:
 4885              	.LBB237:
 4886              		.loc 1 553 0
 4887 00a2 0891     		str	r1, [sp, #32]
 4888              	.LBE237:
 4889              	.LBE258:
 4890              	.LBB259:
 4891              	.LBB248:
 4892              		.loc 1 555 0
 4893 00a4 0146     		mov	r1, r0
 4894 00a6 0998     		ldr	r0, [sp, #36]
 4895 00a8 0EFB010E 		mla	lr, lr, r1, r0
 4896              	.LBE248:
 4897              	.LBE259:
 4898              		.loc 1 1809 0
 4899 00ac 0899     		ldr	r1, [sp, #32]
 4900              	.LBB260:
 4901              	.LBB249:
 4902              		.loc 1 551 0
ARM GAS  /var/folders/d2/nstgp4h54kz7g1l847x_b8wc0000gn/T//cc2apEbl.s 			page 87


 4903 00ae 9209     		lsrs	r2, r2, #6
 4904              		.loc 1 553 0
 4905 00b0 BEFBF2F2 		udiv	r2, lr, r2
 4906              	.LBE249:
 4907              	.LBE260:
 4908              		.loc 1 1809 0
 4909 00b4 1144     		add	r1, r1, r2
 4910              		.loc 1 1808 0
 4911 00b6 C902     		lsls	r1, r1, #11
 4912 00b8 0CFB01F2 		mul	r2, ip, r1
 4913              		.loc 1 1810 0
 4914 00bc 02F5FA72 		add	r2, r2, #500
 4915 00c0 A9FB0212 		umull	r1, r2, r9, r2
 4916 00c4 9209     		lsrs	r2, r2, #6
 4917              		.loc 1 1811 0
 4918 00c6 40F27761 		movw	r1, #1655
 4919 00ca 01FB02F2 		mul	r2, r1, r2
 4920              		.loc 1 1812 0
 4921 00ce 02F5FA72 		add	r2, r2, #500
 4922              		.loc 1 1815 0
 4923 00d2 06F18001 		add	r1, r6, #128
 4924              	.LVL706:
 4925              		.loc 1 1812 0
 4926 00d6 A9FB0229 		umull	r2, r9, r9, r2
 4927 00da 4FEA9919 		lsr	r9, r9, #6
 4928              		.loc 1 1815 0
 4929 00de 080A     		lsrs	r0, r1, #8
 4930              		.loc 1 1818 0
 4931 00e0 09FB00F0 		mul	r0, r9, r0
 4932              		.loc 1 1758 0
 4933 00e4 4FF47A72 		mov	r2, #1000
 4934              		.loc 1 1822 0
 4935 00e8 8030     		adds	r0, r0, #128
 4936              		.loc 1 1838 0
 4937 00ea 000A     		lsrs	r0, r0, #8
 4938              		.loc 1 1758 0
 4939 00ec 02FB08F8 		mul	r8, r2, r8
 4940 00f0 894A     		ldr	r2, .L477+8
 4941              		.loc 1 1844 0
 4942 00f2 079E     		ldr	r6, [sp, #28]
 4943 00f4 18BF     		it	ne
 4944 00f6 00EB4000 		addne	r0, r0, r0, lsl #1
 4945 00fa 4FEA1848 		lsr	r8, r8, #16
 4946 00fe 14BF     		ite	ne
 4947 0100 8000     		lslne	r0, r0, #2
 4948 0102 0C20     		moveq	r0, #12
 4949 0104 4FEA0848 		lsl	r8, r8, #16
 4950 0108 B8FBF6F8 		udiv	r8, r8, r6
 4951              	.LVL707:
 4952 010c 9045     		cmp	r8, r2
 4953 010e 28BF     		it	cs
 4954 0110 9046     		movcs	r8, r2
 4955              	.LVL708:
 4956              		.loc 1 1850 0
 4957 0112 4FF4167C 		mov	ip, #600
 4958              	.LVL709:
 4959 0116 0CFB08F6 		mul	r6, ip, r8
ARM GAS  /var/folders/d2/nstgp4h54kz7g1l847x_b8wc0000gn/T//cc2apEbl.s 			page 88


 4960              	.LVL710:
 4961              	.LBB261:
 4962              	.LBB262:
 4963              		.loc 1 132 0
 4964 011a 4FF08042 		mov	r2, #1073741824
 4965              	.LVL711:
 4966              	.L435:
 4967              		.loc 1 138 0
 4968 011e 9208     		lsrs	r2, r2, #2
 4969              	.LVL712:
 4970              		.loc 1 137 0
 4971 0120 8242     		cmp	r2, r0
 4972 0122 FCD8     		bhi	.L435
 4973              		.loc 1 131 0
 4974 0124 4FF0000C 		mov	ip, #0
 4975              	.LVL713:
 4976              	.L437:
 4977              		.loc 1 142 0
 4978 0128 0CEB020E 		add	lr, ip, r2
 4979 012c 8645     		cmp	lr, r0
 4980 012e 4FEA5C0C 		lsr	ip, ip, #1
 4981              	.LVL714:
 4982              		.loc 1 143 0
 4983 0132 9CBF     		itt	ls
 4984 0134 A0EB0E00 		subls	r0, r0, lr
 4985              	.LVL715:
 4986              		.loc 1 144 0
 4987 0138 9444     		addls	ip, ip, r2
 4988              	.LVL716:
 4989              		.loc 1 141 0
 4990 013a 9208     		lsrs	r2, r2, #2
 4991              	.LVL717:
 4992 013c F4D1     		bne	.L437
 4993              	.LVL718:
 4994              	.LBE262:
 4995              	.LBE261:
 4996              		.loc 1 1776 0
 4997 013e 0B98     		ldr	r0, [sp, #44]
 4998              		.loc 1 1865 0
 4999 0140 DFF8E8E1 		ldr	lr, .L477+28
 5000              		.loc 1 1776 0
 5001 0144 4FF47A78 		mov	r8, #1000
 5002 0148 08FB00F0 		mul	r0, r8, r0
 5003              		.loc 1 1866 0
 5004 014c B0F5481F 		cmp	r0, #3276800
 5005 0150 28BF     		it	cs
 5006 0152 4FF44810 		movcs	r0, #3276800
 5007              		.loc 1 1865 0
 5008 0156 1B0C     		lsrs	r3, r3, #16
 5009              	.LVL719:
 5010              		.loc 1 1866 0
 5011 0158 4000     		lsls	r0, r0, #1
 5012              		.loc 1 1865 0
 5013 015a 1B04     		lsls	r3, r3, #16
 5014              		.loc 1 1866 0
 5015 015c C0F5FA70 		rsb	r0, r0, #500
 5016 0160 1844     		add	r0, r0, r3
ARM GAS  /var/folders/d2/nstgp4h54kz7g1l847x_b8wc0000gn/T//cc2apEbl.s 			page 89


 5017              		.loc 1 1865 0
 5018 0162 AEFB0080 		umull	r8, r0, lr, r0
 5019              		.loc 1 1869 0
 5020 0166 03F5FA73 		add	r3, r3, #500
 5021              		.loc 1 1881 0
 5022 016a 95F81880 		ldrb	r8, [r5, #24]	@ zero_extendqisi2
 5023              		.loc 1 1855 0
 5024 016e 2D89     		ldrh	r5, [r5, #8]
 5025              	.LVL720:
 5026              		.loc 1 1865 0
 5027 0170 8009     		lsrs	r0, r0, #6
 5028              		.loc 1 1869 0
 5029 0172 AEFB03E3 		umull	lr, r3, lr, r3
 5030              		.loc 1 1873 0
 5031 0176 0002     		lsls	r0, r0, #8
 5032              		.loc 1 1869 0
 5033 0178 9B09     		lsrs	r3, r3, #6
 5034              		.loc 1 1852 0
 5035 017a 4FEA4C0C 		lsl	ip, ip, #1
 5036              	.LVL721:
 5037              		.loc 1 1876 0
 5038 017e B0FBF3F3 		udiv	r3, r0, r3
 5039              	.LVL722:
 5040              		.loc 1 1881 0
 5041 0182 B8F1000F 		cmp	r8, #0
 5042 0186 40F0BD80 		bne	.L456
 5043              		.loc 1 1855 0
 5044 018a 6448     		ldr	r0, .L477+12
 5045              		.loc 1 1885 0
 5046 018c DFF8A081 		ldr	r8, .L477+32
 5047              		.loc 1 1855 0
 5048 0190 00FB05F5 		mul	r5, r0, r5
 5049              	.LVL723:
 5050              		.loc 1 1885 0
 5051 0194 A8FB0505 		umull	r0, r5, r8, r5
 5052              		.loc 1 1879 0
 5053 0198 1B02     		lsls	r3, r3, #8
 5054              	.LVL724:
 5055              		.loc 1 1885 0
 5056 019a AD0A     		lsrs	r5, r5, #10
 5057              	.LVL725:
 5058              		.loc 1 1892 0
 5059 019c C3F58033 		rsb	r3, r3, #65536
 5060              	.LVL726:
 5061 01a0 05FB03F3 		mul	r3, r5, r3
 5062              		.loc 1 1895 0
 5063 01a4 03F50043 		add	r3, r3, #32768
 5064 01a8 1B0C     		lsrs	r3, r3, #16
 5065              	.LVL727:
 5066              		.loc 1 1898 0
 5067 01aa 03F58033 		add	r3, r3, #65536
 5068              	.LVL728:
 5069              		.loc 1 1905 0
 5070 01ae 5B08     		lsrs	r3, r3, #1
 5071              	.LVL729:
 5072              		.loc 1 1907 0
 5073 01b0 03FB03F3 		mul	r3, r3, r3
ARM GAS  /var/folders/d2/nstgp4h54kz7g1l847x_b8wc0000gn/T//cc2apEbl.s 			page 90


 5074              	.LVL730:
 5075              		.loc 1 1910 0
 5076 01b4 9B0B     		lsrs	r3, r3, #14
 5077              	.LVL731:
 5078 01b6 4FF44875 		mov	r5, #800
 5079 01ba 05FB03F5 		mul	r5, r5, r3
 5080 01be 05F50045 		add	r5, r5, #32768
 5081 01c2 2D0C     		lsrs	r5, r5, #16
 5082 01c4 05FB05F0 		mul	r0, r5, r5
 5083              	.LVL732:
 5084              	.L438:
 5085              		.loc 1 1925 0
 5086 01c8 06F50045 		add	r5, r6, #32768
 5087 01cc 2D0C     		lsrs	r5, r5, #16
 5088              	.LVL733:
 5089              		.loc 1 1931 0
 5090 01ce 05FB0505 		mla	r5, r5, r5, r0
 5091              	.LVL734:
 5092              	.LBB263:
 5093              	.LBB264:
 5094              		.loc 1 137 0
 5095 01d2 B5F1804F 		cmp	r5, #1073741824
 5096              		.loc 1 132 0
 5097 01d6 4FF08040 		mov	r0, #1073741824
 5098              		.loc 1 137 0
 5099 01da 02D2     		bcs	.L442
 5100              	.LVL735:
 5101              	.L440:
 5102              		.loc 1 138 0
 5103 01dc 8008     		lsrs	r0, r0, #2
 5104              	.LVL736:
 5105              		.loc 1 137 0
 5106 01de 8542     		cmp	r5, r0
 5107 01e0 FCD3     		bcc	.L440
 5108              	.LVL737:
 5109              	.L442:
 5110              		.loc 1 142 0
 5111 01e2 02EB000E 		add	lr, r2, r0
 5112 01e6 AE45     		cmp	lr, r5
 5113 01e8 4FEA5202 		lsr	r2, r2, #1
 5114              	.LVL738:
 5115              		.loc 1 143 0
 5116 01ec 9CBF     		itt	ls
 5117 01ee A5EB0E05 		subls	r5, r5, lr
 5118              	.LVL739:
 5119              		.loc 1 144 0
 5120 01f2 1218     		addls	r2, r2, r0
 5121              	.LVL740:
 5122              		.loc 1 141 0
 5123 01f4 8008     		lsrs	r0, r0, #2
 5124              	.LVL741:
 5125 01f6 F4D1     		bne	.L442
 5126              	.LVL742:
 5127              	.LBE264:
 5128              	.LBE263:
 5129              		.loc 1 1944 0
 5130 01f8 494D     		ldr	r5, .L477+16
ARM GAS  /var/folders/d2/nstgp4h54kz7g1l847x_b8wc0000gn/T//cc2apEbl.s 			page 91


 5131              		.loc 1 1937 0
 5132 01fa 1204     		lsls	r2, r2, #16
 5133              	.LVL743:
 5134              		.loc 1 1944 0
 5135 01fc 3232     		adds	r2, r2, #50
 5136              	.LVL744:
 5137 01fe A5FB0252 		umull	r5, r2, r5, r2
 5138              	.LVL745:
 5139              		.loc 1 1949 0
 5140 0202 41F2883E 		movw	lr, #5000
 5141              		.loc 1 1946 0
 5142 0206 40F6B538 		movw	r8, #2997
 5143              		.loc 1 1958 0
 5144 020a 069D     		ldr	r5, [sp, #24]
 5145              		.loc 1 1944 0
 5146 020c 5209     		lsrs	r2, r2, #5
 5147 020e B2FBFCF2 		udiv	r2, r2, ip
 5148              	.LVL746:
 5149              		.loc 1 1950 0
 5150 0212 DFF820C1 		ldr	ip, .L477+36
 5151              	.LVL747:
 5152              		.loc 1 1949 0
 5153 0216 08FB02E2 		mla	r2, r8, r2, lr
 5154              	.LVL748:
 5155              		.loc 1 1958 0
 5156 021a 5544     		add	r5, r5, r10
 5157              		.loc 1 1950 0
 5158 021c ACFB02C2 		umull	ip, r2, ip, r2
 5159              	.LVL749:
 5160              		.loc 1 1965 0
 5161 0220 DFF808A1 		ldr	r10, .L477+28
 5162              	.LVL750:
 5163              		.loc 1 1958 0
 5164 0224 05F5FA75 		add	r5, r5, #500
 5165              		.loc 1 1950 0
 5166 0228 520B     		lsrs	r2, r2, #13
 5167              	.LVL751:
 5168              		.loc 1 1965 0
 5169 022a AAFB055A 		umull	r5, r10, r10, r5
 5170              	.LVL752:
 5171 022e B2F5704F 		cmp	r2, #61440
 5172 0232 4FEADA1E 		lsr	lr, r10, #7
 5173 0236 28BF     		it	cs
 5174 0238 4FF47042 		movcs	r2, #61440
 5175              	.LVL753:
 5176              	.LBB265:
 5177              	.LBB266:
 5178              		.loc 1 132 0
 5179 023c 4FF08045 		mov	r5, #1073741824
 5180              	.LBE266:
 5181              	.LBE265:
 5182              		.loc 1 1964 0
 5183 0240 0EF5C81E 		add	lr, lr, #1638400
 5184              		.loc 1 1957 0
 5185 0244 4FEA9A1A 		lsr	r10, r10, #6
 5186              		.loc 1 1964 0
 5187 0248 BEFBFAFE 		udiv	lr, lr, r10
ARM GAS  /var/folders/d2/nstgp4h54kz7g1l847x_b8wc0000gn/T//cc2apEbl.s 			page 92


 5188              	.LVL754:
 5189              	.L443:
 5190              	.LBB268:
 5191              	.LBB267:
 5192              		.loc 1 138 0
 5193 024c AD08     		lsrs	r5, r5, #2
 5194              	.LVL755:
 5195              		.loc 1 137 0
 5196 024e AE45     		cmp	lr, r5
 5197 0250 FCD3     		bcc	.L443
 5198              		.loc 1 141 0
 5199 0252 BDB1     		cbz	r5, .L444
 5200              		.loc 1 131 0
 5201 0254 4FF0000C 		mov	ip, #0
 5202              	.LVL756:
 5203              	.L446:
 5204              		.loc 1 142 0
 5205 0258 05EB0C08 		add	r8, r5, ip
 5206 025c C645     		cmp	lr, r8
 5207 025e 4FEA5C0C 		lsr	ip, ip, #1
 5208              	.LVL757:
 5209              		.loc 1 143 0
 5210 0262 24BF     		itt	cs
 5211 0264 AEEB080E 		subcs	lr, lr, r8
 5212              	.LVL758:
 5213              		.loc 1 144 0
 5214 0268 AC44     		addcs	ip, ip, r5
 5215              	.LVL759:
 5216              		.loc 1 141 0
 5217 026a AD08     		lsrs	r5, r5, #2
 5218              	.LVL760:
 5219 026c F4D1     		bne	.L446
 5220 026e 4FEA0C25 		lsl	r5, ip, #8
 5221              	.LVL761:
 5222 0272 DFF8B8C0 		ldr	ip, .L477+28
 5223              	.LVL762:
 5224 0276 05F5FA75 		add	r5, r5, #500
 5225 027a ACFB05C5 		umull	ip, r5, ip, r5
 5226              	.LVL763:
 5227 027e AD09     		lsrs	r5, r5, #6
 5228 0280 05FB05F5 		mul	r5, r5, r5
 5229              	.L444:
 5230              	.LVL764:
 5231              	.LBE267:
 5232              	.LBE268:
 5233              		.loc 1 1978 0
 5234 0284 02FB0255 		mla	r5, r2, r2, r5
 5235              	.LVL765:
 5236              	.LBB269:
 5237              	.LBB270:
 5238              		.loc 1 137 0
 5239 0288 B5F1804F 		cmp	r5, #1073741824
 5240              		.loc 1 132 0
 5241 028c 4FF08042 		mov	r2, #1073741824
 5242              	.LVL766:
 5243              		.loc 1 137 0
 5244 0290 03D2     		bcs	.L451
ARM GAS  /var/folders/d2/nstgp4h54kz7g1l847x_b8wc0000gn/T//cc2apEbl.s 			page 93


 5245              	.LVL767:
 5246              	.L448:
 5247              		.loc 1 138 0
 5248 0292 9208     		lsrs	r2, r2, #2
 5249              	.LVL768:
 5250              		.loc 1 137 0
 5251 0294 9542     		cmp	r5, r2
 5252 0296 FCD3     		bcc	.L448
 5253              	.LVL769:
 5254              		.loc 1 141 0
 5255 0298 92B1     		cbz	r2, .L449
 5256              	.LVL770:
 5257              	.L451:
 5258              		.loc 1 142 0
 5259 029a 00EB020C 		add	ip, r0, r2
 5260 029e AC45     		cmp	ip, r5
 5261 02a0 4FEA5000 		lsr	r0, r0, #1
 5262              	.LVL771:
 5263              		.loc 1 143 0
 5264 02a4 9CBF     		itt	ls
 5265 02a6 A5EB0C05 		subls	r5, r5, ip
 5266              	.LVL772:
 5267              		.loc 1 144 0
 5268 02aa 8018     		addls	r0, r0, r2
 5269              	.LVL773:
 5270              		.loc 1 141 0
 5271 02ac 9208     		lsrs	r2, r2, #2
 5272              	.LVL774:
 5273 02ae F4D1     		bne	.L451
 5274 02b0 1C4D     		ldr	r5, .L477+20
 5275              	.LVL775:
 5276 02b2 4FF47A72 		mov	r2, #1000
 5277              	.LVL776:
 5278 02b6 02FB00F2 		mul	r2, r2, r0
 5279              	.LVL777:
 5280 02ba AA42     		cmp	r2, r5
 5281 02bc 28BF     		it	cs
 5282 02be 2A46     		movcs	r2, r5
 5283              	.LVL778:
 5284              	.L449:
 5285              	.LBE270:
 5286              	.LBE269:
 5287              		.loc 1 1992 0
 5288 02c0 0498     		ldr	r0, [sp, #16]
 5289              		.loc 1 1994 0
 5290 02c2 4FF44875 		mov	r5, #800
 5291              		.loc 1 1992 0
 5292 02c6 0260     		str	r2, [r0]
 5293              	.LVL779:
 5294              		.loc 1 1994 0
 5295 02c8 0598     		ldr	r0, [sp, #20]
 5296 02ca 0390     		str	r0, [sp, #12]
 5297 02cc 21F0FF01 		bic	r1, r1, #255
 5298              	.LVL780:
 5299              		.loc 1 1993 0
 5300 02d0 C4F84021 		str	r2, [r4, #320]
 5301              		.loc 1 1994 0
ARM GAS  /var/folders/d2/nstgp4h54kz7g1l847x_b8wc0000gn/T//cc2apEbl.s 			page 94


 5302 02d4 2046     		mov	r0, r4
 5303 02d6 CDE90169 		strd	r6, r9, [sp, #4]
 5304 02da 5A46     		mov	r2, fp
 5305 02dc 0095     		str	r5, [sp]
 5306 02de FFF7FEFF 		bl	VL53L0X_calc_dmax
 5307              	.LVL781:
 5308              	.L431:
 5309              		.loc 1 2007 0
 5310 02e2 0D9A     		ldr	r2, [sp, #52]
 5311 02e4 3B68     		ldr	r3, [r7]
 5312 02e6 9A42     		cmp	r2, r3
 5313 02e8 10D1     		bne	.L476
 5314 02ea 0FB0     		add	sp, sp, #60
 5315              		.cfi_remember_state
 5316              		.cfi_def_cfa_offset 36
 5317              		@ sp needed
 5318 02ec BDE8F08F 		pop	{r4, r5, r6, r7, r8, r9, r10, fp, pc}
 5319              	.LVL782:
 5320              	.L453:
 5321              		.cfi_restore_state
 5322              	.LBB271:
 5323              	.LBB225:
 5324              		.loc 1 1483 0
 5325 02f0 5E46     		mov	r6, fp
 5326 02f2 9BE6     		b	.L430
 5327              	.LVL783:
 5328              	.L475:
 5329              	.LBE225:
 5330              	.LBE271:
 5331              		.loc 1 1834 0
 5332 02f4 049A     		ldr	r2, [sp, #16]
 5333              	.LVL784:
 5334 02f6 0B4B     		ldr	r3, .L477+20
 5335              	.LVL785:
 5336 02f8 1360     		str	r3, [r2]
 5337              	.LVL786:
 5338              		.loc 1 1835 0
 5339 02fa C4F84031 		str	r3, [r4, #320]
 5340              		.loc 1 1836 0
 5341 02fe 059B     		ldr	r3, [sp, #20]
 5342 0300 1860     		str	r0, [r3]
 5343 0302 EEE7     		b	.L431
 5344              	.LVL787:
 5345              	.L456:
 5346 0304 0848     		ldr	r0, .L477+24
 5347              		.loc 1 1882 0
 5348 0306 4FF48033 		mov	r3, #65536
 5349              	.LVL788:
 5350 030a 5DE7     		b	.L438
 5351              	.LVL789:
 5352              	.L476:
 5353              		.loc 1 2007 0
 5354 030c FFF7FEFF 		bl	__stack_chk_fail
 5355              	.LVL790:
 5356              	.L478:
 5357              		.align	2
 5358              	.L477:
ARM GAS  /var/folders/d2/nstgp4h54kz7g1l847x_b8wc0000gn/T//cc2apEbl.s 			page 95


 5359 0310 00000000 		.word	__stack_chk_guard
 5360 0314 002F3A00 		.word	3813120
 5361 0318 66666600 		.word	6710886
 5362 031c 9A990600 		.word	432538
 5363 0320 1F85EB51 		.word	1374389535
 5364 0324 AE878F02 		.word	42960814
 5365 0328 00C40900 		.word	640000
 5366 032c D34D6210 		.word	274877907
 5367 0330 517BC637 		.word	935754577
 5368 0334 5917B7D1 		.word	-776530087
 5369              		.cfi_endproc
 5370              	.LFE26:
 5371              		.size	VL53L0X_calc_sigma_estimate, .-VL53L0X_calc_sigma_estimate
 5372              		.section	.text.VL53L0X_get_pal_range_status,"ax",%progbits
 5373              		.align	1
 5374              		.p2align 4,,15
 5375              		.global	VL53L0X_get_pal_range_status
 5376              		.syntax unified
 5377              		.thumb
 5378              		.thumb_func
 5379              		.fpu fpv4-sp-d16
 5380              		.type	VL53L0X_get_pal_range_status, %function
 5381              	VL53L0X_get_pal_range_status:
 5382              	.LFB27:
 5383              		.loc 1 2015 0
 5384              		.cfi_startproc
 5385              		@ args = 8, pretend = 0, frame = 56
 5386              		@ frame_needed = 0, uses_anonymous_args = 0
 5387              	.LVL791:
 5388 0000 2DE9F04F 		push	{r4, r5, r6, r7, r8, r9, r10, fp, lr}
 5389              		.cfi_def_cfa_offset 36
 5390              		.cfi_offset 4, -36
 5391              		.cfi_offset 5, -32
 5392              		.cfi_offset 6, -28
 5393              		.cfi_offset 7, -24
 5394              		.cfi_offset 8, -20
 5395              		.cfi_offset 9, -16
 5396              		.cfi_offset 10, -12
 5397              		.cfi_offset 11, -8
 5398              		.cfi_offset 14, -4
 5399              		.loc 1 2047 0
 5400 0004 4FEAD10A 		lsr	r10, r1, #3
 5401              		.loc 1 2015 0
 5402 0008 8FB0     		sub	sp, sp, #60
 5403              		.cfi_def_cfa_offset 96
 5404              		.loc 1 2015 0
 5405 000a DFF86082 		ldr	r8, .L543
 5406 000e 1899     		ldr	r1, [sp, #96]
 5407              	.LVL792:
 5408 0010 0291     		str	r1, [sp, #8]
 5409              		.loc 1 2047 0
 5410 0012 0AF00F07 		and	r7, r10, #15
 5411              		.loc 1 2049 0
 5412 0016 4FF2A105 		movw	r5, #61601
 5413 001a FD40     		lsrs	r5, r5, r7
 5414              		.loc 1 2021 0
 5415 001c 0024     		movs	r4, #0
ARM GAS  /var/folders/d2/nstgp4h54kz7g1l847x_b8wc0000gn/T//cc2apEbl.s 			page 96


 5416              		.loc 1 2015 0
 5417 001e D8F80010 		ldr	r1, [r8]
 5418 0022 0D91     		str	r1, [sp, #52]
 5419              	.LVL793:
 5420 0024 9B46     		mov	fp, r3
 5421              		.loc 1 2057 0
 5422 0026 05F00103 		and	r3, r5, #1
 5423              	.LVL794:
 5424              		.loc 1 2015 0
 5425 002a 0492     		str	r2, [sp, #16]
 5426              		.loc 1 2057 0
 5427 002c 0393     		str	r3, [sp, #12]
 5428              		.loc 1 2067 0
 5429 002e 2146     		mov	r1, r4
 5430              		.loc 1 2015 0
 5431 0030 199B     		ldr	r3, [sp, #100]
 5432              		.loc 1 2021 0
 5433 0032 8DF81A40 		strb	r4, [sp, #26]
 5434              		.loc 1 2067 0
 5435 0036 0DF11A02 		add	r2, sp, #26
 5436              	.LVL795:
 5437              		.loc 1 2022 0
 5438 003a 8DF81B40 		strb	r4, [sp, #27]
 5439              		.loc 1 2023 0
 5440 003e 8DF81C40 		strb	r4, [sp, #28]
 5441              		.loc 1 2024 0
 5442 0042 8DF81D40 		strb	r4, [sp, #29]
 5443              	.LVL796:
 5444              		.loc 1 2031 0
 5445 0046 ADF81E40 		strh	r4, [sp, #30]	@ movhi
 5446              		.loc 1 2033 0
 5447 004a 0C94     		str	r4, [sp, #48]
 5448              		.loc 1 2015 0
 5449 004c 0546     		mov	r5, r0
 5450 004e 0193     		str	r3, [sp, #4]
 5451              		.loc 1 2067 0
 5452 0050 FFF7FEFF 		bl	VL53L0X_GetLimitCheckEnable
 5453              	.LVL797:
 5454              		.loc 1 2071 0
 5455 0054 9DF81A60 		ldrb	r6, [sp, #26]	@ zero_extendqisi2
 5456              		.loc 1 2067 0
 5457 0058 8146     		mov	r9, r0
 5458              	.LVL798:
 5459              		.loc 1 2071 0
 5460 005a 002E     		cmp	r6, #0
 5461 005c 55D0     		beq	.L480
 5462              		.loc 1 2071 0 is_stmt 0 discriminator 1
 5463 005e 0028     		cmp	r0, #0
 5464 0060 3AD0     		beq	.L536
 5465 0062 2646     		mov	r6, r4
 5466              	.LVL799:
 5467              	.L481:
 5468 0064 0024     		movs	r4, #0
 5469              	.LVL800:
 5470              	.L483:
 5471              		.loc 1 2020 0 is_stmt 1
 5472 0066 4FF00009 		mov	r9, #0
ARM GAS  /var/folders/d2/nstgp4h54kz7g1l847x_b8wc0000gn/T//cc2apEbl.s 			page 97


 5473              	.LVL801:
 5474              	.L486:
 5475              		.loc 1 2191 0
 5476 006a 019B     		ldr	r3, [sp, #4]
 5477 006c 1B78     		ldrb	r3, [r3]	@ zero_extendqisi2
 5478 006e 13B9     		cbnz	r3, .L499
 5479              	.LVL802:
 5480              	.L498:
 5481              		.loc 1 2192 0
 5482 0070 029A     		ldr	r2, [sp, #8]
 5483 0072 0023     		movs	r3, #0
 5484 0074 5381     		strh	r3, [r2, #10]	@ movhi
 5485              	.L499:
 5486              		.loc 1 2196 0
 5487 0076 0DF11B02 		add	r2, sp, #27
 5488 007a 0121     		movs	r1, #1
 5489 007c 2846     		mov	r0, r5
 5490 007e FFF7FEFF 		bl	VL53L0X_GetLimitCheckEnable
 5491              	.LVL803:
 5492              		.loc 1 2200 0
 5493 0082 00BB     		cbnz	r0, .L500
 5494              		.loc 1 2201 0
 5495 0084 9DF81A30 		ldrb	r3, [sp, #26]	@ zero_extendqisi2
 5496              		.loc 1 2217 0
 5497 0088 9DF81C20 		ldrb	r2, [sp, #28]	@ zero_extendqisi2
 5498              		.loc 1 2202 0
 5499 008c 002B     		cmp	r3, #0
 5500 008e 08BF     		it	eq
 5501 0090 0126     		moveq	r6, #1
 5502              	.LVL804:
 5503              		.loc 1 2208 0
 5504 0092 042F     		cmp	r7, #4
 5505 0094 18BF     		it	ne
 5506 0096 9DF81B30 		ldrbne	r3, [sp, #27]	@ zero_extendqisi2
 5507              		.loc 1 2205 0
 5508 009a 85F82E60 		strb	r6, [r5, #46]
 5509              		.loc 1 2210 0
 5510 009e 1ABF     		itte	ne
 5511 00a0 B3FA83F3 		clzne	r3, r3
 5512 00a4 5B09     		lsrne	r3, r3, #5
 5513 00a6 0123     		moveq	r3, #1
 5514              	.LVL805:
 5515              		.loc 1 2213 0
 5516 00a8 85F82F30 		strb	r3, [r5, #47]
 5517              		.loc 1 2226 0
 5518 00ac 9DF81D30 		ldrb	r3, [sp, #29]	@ zero_extendqisi2
 5519              	.LVL806:
 5520              		.loc 1 2219 0
 5521 00b0 002A     		cmp	r2, #0
 5522 00b2 08BF     		it	eq
 5523 00b4 0124     		moveq	r4, #1
 5524              	.LVL807:
 5525              		.loc 1 2228 0
 5526 00b6 002B     		cmp	r3, #0
 5527 00b8 08BF     		it	eq
 5528 00ba 4FF00109 		moveq	r9, #1
 5529              	.LVL808:
ARM GAS  /var/folders/d2/nstgp4h54kz7g1l847x_b8wc0000gn/T//cc2apEbl.s 			page 98


 5530              		.loc 1 2223 0
 5531 00be 85F83040 		strb	r4, [r5, #48]
 5532              		.loc 1 2232 0
 5533 00c2 85F83190 		strb	r9, [r5, #49]
 5534              	.LVL809:
 5535              	.L500:
 5536              		.loc 1 2240 0
 5537 00c6 0D9A     		ldr	r2, [sp, #52]
 5538 00c8 D8F80030 		ldr	r3, [r8]
 5539 00cc 9A42     		cmp	r2, r3
 5540 00ce 40F0C780 		bne	.L537
 5541 00d2 0FB0     		add	sp, sp, #60
 5542              		.cfi_remember_state
 5543              		.cfi_def_cfa_offset 36
 5544              		@ sp needed
 5545 00d4 BDE8F08F 		pop	{r4, r5, r6, r7, r8, r9, r10, fp, pc}
 5546              	.LVL810:
 5547              	.L536:
 5548              		.cfi_restore_state
 5549              		.loc 1 2075 0
 5550 00d8 029C     		ldr	r4, [sp, #8]
 5551 00da 0CAB     		add	r3, sp, #48
 5552 00dc 08AA     		add	r2, sp, #32
 5553 00de 2146     		mov	r1, r4
 5554 00e0 2846     		mov	r0, r5
 5555              	.LVL811:
 5556 00e2 FFF7FEFF 		bl	VL53L0X_calc_sigma_estimate
 5557              	.LVL812:
 5558              		.loc 1 2080 0
 5559 00e6 0028     		cmp	r0, #0
 5560 00e8 40F08D80 		bne	.L508
 5561              		.loc 1 2081 0
 5562 00ec 0C9B     		ldr	r3, [sp, #48]
 5563 00ee 6381     		strh	r3, [r4, #10]	@ movhi
 5564              		.loc 1 2084 0
 5565 00f0 4946     		mov	r1, r9
 5566 00f2 09AA     		add	r2, sp, #36
 5567 00f4 2846     		mov	r0, r5
 5568              	.LVL813:
 5569 00f6 FFF7FEFF 		bl	VL53L0X_GetLimitCheckValue
 5570              	.LVL814:
 5571              		.loc 1 2088 0
 5572 00fa 099E     		ldr	r6, [sp, #36]
 5573              		.loc 1 2084 0
 5574 00fc 8146     		mov	r9, r0
 5575              	.LVL815:
 5576              		.loc 1 2088 0
 5577 00fe 26B1     		cbz	r6, .L480
 5578              		.loc 1 2088 0 is_stmt 0 discriminator 1
 5579 0100 089B     		ldr	r3, [sp, #32]
 5580              		.loc 1 2018 0 is_stmt 1 discriminator 1
 5581 0102 9E42     		cmp	r6, r3
 5582 0104 2CBF     		ite	cs
 5583 0106 0026     		movcs	r6, #0
 5584 0108 0126     		movcc	r6, #1
 5585              	.LVL816:
 5586              	.L480:
ARM GAS  /var/folders/d2/nstgp4h54kz7g1l847x_b8wc0000gn/T//cc2apEbl.s 			page 99


 5587              		.loc 1 2099 0
 5588 010a B9F1000F 		cmp	r9, #0
 5589 010e A9D1     		bne	.L481
 5590              		.loc 1 2100 0
 5591 0110 07AA     		add	r2, sp, #28
 5592 0112 0221     		movs	r1, #2
 5593 0114 2846     		mov	r0, r5
 5594 0116 FFF7FEFF 		bl	VL53L0X_GetLimitCheckEnable
 5595              	.LVL817:
 5596              		.loc 1 2104 0
 5597 011a 9DF81C40 		ldrb	r4, [sp, #28]	@ zero_extendqisi2
 5598              		.loc 1 2100 0
 5599 011e 0346     		mov	r3, r0
 5600              	.LVL818:
 5601              		.loc 1 2104 0
 5602 0120 B4B1     		cbz	r4, .L482
 5603              		.loc 1 2104 0 is_stmt 0 discriminator 1
 5604 0122 0028     		cmp	r0, #0
 5605 0124 40F0A080 		bne	.L510
 5606              		.loc 1 2107 0 is_stmt 1
 5607 0128 0AAA     		add	r2, sp, #40
 5608 012a 0221     		movs	r1, #2
 5609 012c 2846     		mov	r0, r5
 5610              	.LVL819:
 5611 012e FFF7FEFF 		bl	VL53L0X_GetLimitCheckValue
 5612              	.LVL820:
 5613              		.loc 1 2112 0
 5614 0132 0346     		mov	r3, r0
 5615 0134 0028     		cmp	r0, #0
 5616 0136 68D0     		beq	.L538
 5617              	.L484:
 5618              	.LVL821:
 5619              		.loc 1 2123 0
 5620 0138 BDF81E20 		ldrh	r2, [sp, #30]
 5621              		.loc 1 2126 0
 5622 013c 0A9C     		ldr	r4, [sp, #40]
 5623              		.loc 1 2123 0
 5624 013e 5202     		lsls	r2, r2, #9
 5625              	.LVL822:
 5626              		.loc 1 2124 0
 5627 0140 C5F84821 		str	r2, [r5, #328]
 5628              		.loc 1 2126 0
 5629 0144 002C     		cmp	r4, #0
 5630 0146 8ED0     		beq	.L483
 5631              	.L505:
 5632              		.loc 1 2019 0 discriminator 1
 5633 0148 9442     		cmp	r4, r2
 5634 014a 2CBF     		ite	cs
 5635 014c 0024     		movcs	r4, #0
 5636 014e 0124     		movcc	r4, #1
 5637              	.LVL823:
 5638              	.L482:
 5639              		.loc 1 2139 0
 5640 0150 0593     		str	r3, [sp, #20]
 5641 0152 002B     		cmp	r3, #0
 5642 0154 87D1     		bne	.L483
 5643              		.loc 1 2140 0
ARM GAS  /var/folders/d2/nstgp4h54kz7g1l847x_b8wc0000gn/T//cc2apEbl.s 			page 100


 5644 0156 0DF11D02 		add	r2, sp, #29
 5645 015a 0321     		movs	r1, #3
 5646 015c 2846     		mov	r0, r5
 5647 015e FFF7FEFF 		bl	VL53L0X_GetLimitCheckEnable
 5648              	.LVL824:
 5649              		.loc 1 2144 0
 5650 0162 9DF81D90 		ldrb	r9, [sp, #29]	@ zero_extendqisi2
 5651              		.loc 1 2140 0
 5652 0166 0246     		mov	r2, r0
 5653              	.LVL825:
 5654              		.loc 1 2144 0
 5655 0168 B9F1000F 		cmp	r9, #0
 5656 016c 13D0     		beq	.L485
 5657              		.loc 1 2144 0 is_stmt 0 discriminator 1
 5658 016e 059B     		ldr	r3, [sp, #20]
 5659 0170 0028     		cmp	r0, #0
 5660 0172 77D1     		bne	.L512
 5661              		.loc 1 2148 0 is_stmt 1
 5662 0174 BBF1000F 		cmp	fp, #0
 5663 0178 33D1     		bne	.L539
 5664              	.L487:
 5665              	.LVL826:
 5666              		.loc 1 2155 0
 5667 017a 0BAA     		add	r2, sp, #44
 5668 017c 0321     		movs	r1, #3
 5669 017e 2846     		mov	r0, r5
 5670              	.LVL827:
 5671 0180 FFF7FEFF 		bl	VL53L0X_GetLimitCheckValue
 5672              	.LVL828:
 5673              		.loc 1 2159 0
 5674 0184 0B9B     		ldr	r3, [sp, #44]
 5675              		.loc 1 2155 0
 5676 0186 0246     		mov	r2, r0
 5677              	.LVL829:
 5678              		.loc 1 2159 0
 5679 0188 4BB3     		cbz	r3, .L514
 5680              		.loc 1 2020 0 discriminator 1
 5681 018a 5B45     		cmp	r3, fp
 5682 018c 94BF     		ite	ls
 5683 018e 4FF00009 		movls	r9, #0
 5684 0192 4FF00109 		movhi	r9, #1
 5685              	.LVL830:
 5686              	.L485:
 5687              		.loc 1 2166 0
 5688 0196 002A     		cmp	r2, #0
 5689 0198 7FF467AF 		bne	.L486
 5690              		.loc 1 2167 0
 5691 019c 039B     		ldr	r3, [sp, #12]
 5692 019e 53BB     		cbnz	r3, .L540
 5693              		.loc 1 2169 0
 5694 01a0 7B1E     		subs	r3, r7, #1
 5695 01a2 022B     		cmp	r3, #2
 5696 01a4 17D9     		bls	.L541
 5697              		.loc 1 2173 0
 5698 01a6 062F     		cmp	r7, #6
 5699 01a8 29D0     		beq	.L491
 5700              		.loc 1 2173 0 is_stmt 0 discriminator 1
ARM GAS  /var/folders/d2/nstgp4h54kz7g1l847x_b8wc0000gn/T//cc2apEbl.s 			page 101


 5701 01aa 092F     		cmp	r7, #9
 5702 01ac 27D0     		beq	.L491
 5703              		.loc 1 2176 0 is_stmt 1
 5704 01ae 0AF00D0A 		and	r10, r10, #13
 5705 01b2 BAF1080F 		cmp	r10, #8
 5706 01b6 1AD0     		beq	.L493
 5707              		.loc 1 2177 0
 5708 01b8 012C     		cmp	r4, #1
 5709 01ba 18D0     		beq	.L493
 5710              		.loc 1 2180 0
 5711 01bc 042F     		cmp	r7, #4
 5712 01be 46D0     		beq	.L495
 5713              		.loc 1 2180 0 is_stmt 0 discriminator 1
 5714 01c0 B9F1010F 		cmp	r9, #1
 5715 01c4 43D0     		beq	.L495
 5716              		.loc 1 2183 0 is_stmt 1
 5717 01c6 012E     		cmp	r6, #1
 5718 01c8 45D0     		beq	.L542
 5719              		.loc 1 2186 0
 5720 01ca 019A     		ldr	r2, [sp, #4]
 5721              	.LVL831:
 5722 01cc 0023     		movs	r3, #0
 5723 01ce 1370     		strb	r3, [r2]
 5724 01d0 B146     		mov	r9, r6
 5725              	.LVL832:
 5726 01d2 3446     		mov	r4, r6
 5727              	.LVL833:
 5728 01d4 4CE7     		b	.L498
 5729              	.LVL834:
 5730              	.L541:
 5731              		.loc 1 2172 0
 5732 01d6 019A     		ldr	r2, [sp, #4]
 5733              	.LVL835:
 5734 01d8 0523     		movs	r3, #5
 5735 01da 1370     		strb	r3, [r2]
 5736 01dc 4BE7     		b	.L499
 5737              	.LVL836:
 5738              	.L514:
 5739              		.loc 1 2020 0
 5740 01de 9946     		mov	r9, r3
 5741 01e0 D9E7     		b	.L485
 5742              	.LVL837:
 5743              	.L539:
 5744              		.loc 1 2151 0
 5745 01e2 049B     		ldr	r3, [sp, #16]
 5746 01e4 4FEA0329 		lsl	r9, r3, #8
 5747 01e8 B9FBFBFB 		udiv	fp, r9, fp
 5748              	.LVL838:
 5749 01ec C5E7     		b	.L487
 5750              	.LVL839:
 5751              	.L493:
 5752              		.loc 1 2179 0
 5753 01ee 019A     		ldr	r2, [sp, #4]
 5754              	.LVL840:
 5755 01f0 0323     		movs	r3, #3
 5756 01f2 1370     		strb	r3, [r2]
 5757 01f4 3FE7     		b	.L499
ARM GAS  /var/folders/d2/nstgp4h54kz7g1l847x_b8wc0000gn/T//cc2apEbl.s 			page 102


 5758              	.LVL841:
 5759              	.L540:
 5760              		.loc 1 2168 0
 5761 01f6 019A     		ldr	r2, [sp, #4]
 5762              	.LVL842:
 5763 01f8 FF23     		movs	r3, #255
 5764 01fa 1370     		strb	r3, [r2]
 5765 01fc 3BE7     		b	.L499
 5766              	.LVL843:
 5767              	.L491:
 5768              		.loc 1 2175 0
 5769 01fe 019A     		ldr	r2, [sp, #4]
 5770              	.LVL844:
 5771 0200 0423     		movs	r3, #4
 5772 0202 1370     		strb	r3, [r2]
 5773 0204 37E7     		b	.L499
 5774              	.LVL845:
 5775              	.L508:
 5776 0206 4E46     		mov	r6, r9
 5777 0208 2CE7     		b	.L481
 5778              	.LVL846:
 5779              	.L538:
 5780              		.loc 1 2113 0
 5781 020a 0122     		movs	r2, #1
 5782 020c FF21     		movs	r1, #255
 5783 020e 2846     		mov	r0, r5
 5784              	.LVL847:
 5785 0210 FFF7FEFF 		bl	VL53L0X_WrByte
 5786              	.LVL848:
 5787              		.loc 1 2115 0
 5788 0214 0346     		mov	r3, r0
 5789 0216 0028     		cmp	r0, #0
 5790 0218 8ED1     		bne	.L484
 5791              		.loc 1 2116 0
 5792 021a 0DF11E02 		add	r2, sp, #30
 5793 021e B621     		movs	r1, #182
 5794 0220 2846     		mov	r0, r5
 5795              	.LVL849:
 5796 0222 FFF7FEFF 		bl	VL53L0X_RdWord
 5797              	.LVL850:
 5798              		.loc 1 2120 0
 5799 0226 0346     		mov	r3, r0
 5800 0228 0028     		cmp	r0, #0
 5801 022a 85D1     		bne	.L484
 5802              		.loc 1 2121 0
 5803 022c 4A46     		mov	r2, r9
 5804 022e FF21     		movs	r1, #255
 5805 0230 2846     		mov	r0, r5
 5806              	.LVL851:
 5807 0232 FFF7FEFF 		bl	VL53L0X_WrByte
 5808              	.LVL852:
 5809              		.loc 1 2123 0
 5810 0236 BDF81E20 		ldrh	r2, [sp, #30]
 5811              		.loc 1 2126 0
 5812 023a 0A9C     		ldr	r4, [sp, #40]
 5813              		.loc 1 2123 0
 5814 023c 5202     		lsls	r2, r2, #9
ARM GAS  /var/folders/d2/nstgp4h54kz7g1l847x_b8wc0000gn/T//cc2apEbl.s 			page 103


 5815              		.loc 1 2121 0
 5816 023e 0346     		mov	r3, r0
 5817              	.LVL853:
 5818              		.loc 1 2124 0
 5819 0240 C5F84821 		str	r2, [r5, #328]
 5820              		.loc 1 2126 0
 5821 0244 002C     		cmp	r4, #0
 5822 0246 7FF47FAF 		bne	.L505
 5823              		.loc 1 2019 0
 5824 024a 4C46     		mov	r4, r9
 5825 024c 80E7     		b	.L482
 5826              	.LVL854:
 5827              	.L495:
 5828              		.loc 1 2182 0
 5829 024e 019A     		ldr	r2, [sp, #4]
 5830              	.LVL855:
 5831 0250 0223     		movs	r3, #2
 5832 0252 1370     		strb	r3, [r2]
 5833 0254 0FE7     		b	.L499
 5834              	.LVL856:
 5835              	.L542:
 5836              		.loc 1 2184 0
 5837 0256 019A     		ldr	r2, [sp, #4]
 5838              	.LVL857:
 5839 0258 0123     		movs	r3, #1
 5840 025a 1370     		strb	r3, [r2]
 5841 025c 4C46     		mov	r4, r9
 5842              	.LVL858:
 5843 025e 0AE7     		b	.L499
 5844              	.LVL859:
 5845              	.L537:
 5846              		.loc 1 2240 0
 5847 0260 FFF7FEFF 		bl	__stack_chk_fail
 5848              	.LVL860:
 5849              	.L512:
 5850 0264 9946     		mov	r9, r3
 5851 0266 00E7     		b	.L486
 5852              	.LVL861:
 5853              	.L510:
 5854 0268 4C46     		mov	r4, r9
 5855 026a FCE6     		b	.L483
 5856              	.L544:
 5857              		.align	2
 5858              	.L543:
 5859 026c 00000000 		.word	__stack_chk_guard
 5860              		.cfi_endproc
 5861              	.LFE27:
 5862              		.size	VL53L0X_get_pal_range_status, .-VL53L0X_get_pal_range_status
 5863              		.text
 5864              	.Letext0:
 5865              		.file 2 "/Applications/Eclipse_e-puck2.app/Contents/Eclipse_e-puck2/Tools/gcc-arm-none-eabi-7-2017
 5866              		.file 3 "/Applications/Eclipse_e-puck2.app/Contents/Eclipse_e-puck2/Tools/gcc-arm-none-eabi-7-2017
 5867              		.file 4 "../e-puck2_main-processor/src/sensors/VL53L0X/Api/core/src/../inc/vl53l0x_types.h"
 5868              		.file 5 "../e-puck2_main-processor/src/sensors/VL53L0X/Api/core/src/../inc/vl53l0x_device.h"
 5869              		.file 6 "../e-puck2_main-processor/src/sensors/VL53L0X/Api/core/src/../inc/vl53l0x_def.h"
 5870              		.file 7 "/Applications/Eclipse_e-puck2.app/Contents/Eclipse_e-puck2/Tools/gcc-arm-none-eabi-7-2017
 5871              		.file 8 "/Applications/Eclipse_e-puck2.app/Contents/Eclipse_e-puck2/Tools/gcc-arm-none-eabi-7-2017
ARM GAS  /var/folders/d2/nstgp4h54kz7g1l847x_b8wc0000gn/T//cc2apEbl.s 			page 104


 5872              		.file 9 "/Applications/Eclipse_e-puck2.app/Contents/Eclipse_e-puck2/Tools/gcc-arm-none-eabi-7-2017
 5873              		.file 10 "/Applications/Eclipse_e-puck2.app/Contents/Eclipse_e-puck2/Tools/gcc-arm-none-eabi-7-201
 5874              		.file 11 "../e-puck2_main-processor/src/sensors/VL53L0X/Api/core/src/../inc/../../platform/inc/vl5
 5875              		.file 12 "/Applications/Eclipse_e-puck2.app/Contents/Eclipse_e-puck2/Tools/gcc-arm-none-eabi-7-201
 5876              		.file 13 "../e-puck2_main-processor/src/sensors/VL53L0X/Api/core/src/../inc/vl53l0x_api.h"
 5877              		.file 14 "../e-puck2_main-processor/src/sensors/VL53L0X/Api/core/src/../inc/vl53l0x_api_calibratio
 5878              		.file 15 "/Applications/Eclipse_e-puck2.app/Contents/Eclipse_e-puck2/Tools/gcc-arm-none-eabi-7-201