ARM GAS  /var/folders/d2/nstgp4h54kz7g1l847x_b8wc0000gn/T//ccMD7GjH.s 			page 1


   1              		.cpu cortex-m4
   2              		.eabi_attribute 27, 1
   3              		.eabi_attribute 28, 1
   4              		.eabi_attribute 20, 1
   5              		.eabi_attribute 21, 1
   6              		.eabi_attribute 23, 3
   7              		.eabi_attribute 24, 1
   8              		.eabi_attribute 25, 1
   9              		.eabi_attribute 26, 1
  10              		.eabi_attribute 30, 6
  11              		.eabi_attribute 34, 1
  12              		.eabi_attribute 18, 4
  13              		.file	"vl53l0x_api_strings.c"
  14              		.section	.text.VL53L0X_check_part_used,"ax",%progbits
  15              		.align	1
  16              		.global	VL53L0X_check_part_used
  17              		.syntax unified
  18              		.thumb
  19              		.thumb_func
  20              		.fpu fpv4-sp-d16
  21              		.type	VL53L0X_check_part_used, %function
  22              	VL53L0X_check_part_used:
  23              		@ args = 0, pretend = 0, frame = 24
  24              		@ frame_needed = 1, uses_anonymous_args = 0
  25 0000 80B5     		push	{r7, lr}
  26 0002 86B0     		sub	sp, sp, #24
  27 0004 00AF     		add	r7, sp, #0
  28 0006 F860     		str	r0, [r7, #12]
  29 0008 B960     		str	r1, [r7, #8]
  30 000a 7A60     		str	r2, [r7, #4]
  31 000c 0023     		movs	r3, #0
  32 000e FB75     		strb	r3, [r7, #23]
  33 0010 0221     		movs	r1, #2
  34 0012 F868     		ldr	r0, [r7, #12]
  35 0014 FFF7FEFF 		bl	VL53L0X_get_info_from_device
  36 0018 0346     		mov	r3, r0
  37 001a FB75     		strb	r3, [r7, #23]
  38 001c 97F91730 		ldrsb	r3, [r7, #23]
  39 0020 002B     		cmp	r3, #0
  40 0022 1CD1     		bne	.L2
  41 0024 FB68     		ldr	r3, [r7, #12]
  42 0026 93F8F130 		ldrb	r3, [r3, #241]
  43 002a BB75     		strb	r3, [r7, #22]
  44 002c BB7D     		ldrb	r3, [r7, #22]	@ zero_extendqisi2
  45 002e 002B     		cmp	r3, #0
  46 0030 07D1     		bne	.L3
  47 0032 BB68     		ldr	r3, [r7, #8]
  48 0034 0022     		movs	r2, #0
  49 0036 1A70     		strb	r2, [r3]
  50 0038 7B68     		ldr	r3, [r7, #4]
  51 003a 4033     		adds	r3, r3, #64
  52 003c 0022     		movs	r2, #0
  53 003e 1A70     		strb	r2, [r3]
  54 0040 0DE0     		b	.L2
  55              	.L3:
  56 0042 FB68     		ldr	r3, [r7, #12]
  57 0044 93F8F220 		ldrb	r2, [r3, #242]	@ zero_extendqisi2
ARM GAS  /var/folders/d2/nstgp4h54kz7g1l847x_b8wc0000gn/T//ccMD7GjH.s 			page 2


  58 0048 BB68     		ldr	r3, [r7, #8]
  59 004a 1A70     		strb	r2, [r3]
  60 004c FB68     		ldr	r3, [r7, #12]
  61 004e F333     		adds	r3, r3, #243
  62 0050 3B61     		str	r3, [r7, #16]
  63 0052 7B68     		ldr	r3, [r7, #4]
  64 0054 4033     		adds	r3, r3, #64
  65 0056 3969     		ldr	r1, [r7, #16]
  66 0058 1846     		mov	r0, r3
  67 005a FFF7FEFF 		bl	strcpy
  68              	.L2:
  69 005e 97F91730 		ldrsb	r3, [r7, #23]
  70 0062 1846     		mov	r0, r3
  71 0064 1837     		adds	r7, r7, #24
  72 0066 BD46     		mov	sp, r7
  73              		@ sp needed
  74 0068 80BD     		pop	{r7, pc}
  75              		.size	VL53L0X_check_part_used, .-VL53L0X_check_part_used
  76              		.section	.rodata
  77              		.align	2
  78              	.LC0:
  79 0000 564C3533 		.ascii	"VL53L0X TS0\000"
  79      4C305820 
  79      54533000 
  80              		.align	2
  81              	.LC1:
  82 000c 564C3533 		.ascii	"VL53L0X TS1\000"
  82      4C305820 
  82      54533100 
  83              		.align	2
  84              	.LC2:
  85 0018 564C3533 		.ascii	"VL53L0X TS2\000"
  85      4C305820 
  85      54533200 
  86              		.align	2
  87              	.LC3:
  88 0024 564C3533 		.ascii	"VL53L0X ES1 or later\000"
  88      4C305820 
  88      45533120 
  88      6F72206C 
  88      61746572 
  89 0039 000000   		.align	2
  90              	.LC4:
  91 003c 564C3533 		.ascii	"VL53L0X\000"
  91      4C305800 
  92              		.section	.text.VL53L0X_get_device_info,"ax",%progbits
  93              		.align	1
  94              		.global	VL53L0X_get_device_info
  95              		.syntax unified
  96              		.thumb
  97              		.thumb_func
  98              		.fpu fpv4-sp-d16
  99              		.type	VL53L0X_get_device_info, %function
 100              	VL53L0X_get_device_info:
 101              		@ args = 0, pretend = 0, frame = 16
 102              		@ frame_needed = 1, uses_anonymous_args = 0
 103 0000 B0B5     		push	{r4, r5, r7, lr}
ARM GAS  /var/folders/d2/nstgp4h54kz7g1l847x_b8wc0000gn/T//ccMD7GjH.s 			page 3


 104 0002 84B0     		sub	sp, sp, #16
 105 0004 00AF     		add	r7, sp, #0
 106 0006 7860     		str	r0, [r7, #4]
 107 0008 3960     		str	r1, [r7]
 108 000a 0023     		movs	r3, #0
 109 000c FB73     		strb	r3, [r7, #15]
 110 000e 07F10D03 		add	r3, r7, #13
 111 0012 3A68     		ldr	r2, [r7]
 112 0014 1946     		mov	r1, r3
 113 0016 7868     		ldr	r0, [r7, #4]
 114 0018 FFF7FEFF 		bl	VL53L0X_check_part_used
 115 001c 0346     		mov	r3, r0
 116 001e FB73     		strb	r3, [r7, #15]
 117 0020 97F90F30 		ldrsb	r3, [r7, #15]
 118 0024 002B     		cmp	r3, #0
 119 0026 3BD1     		bne	.L6
 120 0028 7B7B     		ldrb	r3, [r7, #13]	@ zero_extendqisi2
 121 002a 002B     		cmp	r3, #0
 122 002c 08D1     		bne	.L7
 123 002e 3B68     		ldr	r3, [r7]
 124 0030 304A     		ldr	r2, .L14
 125 0032 1C46     		mov	r4, r3
 126 0034 1346     		mov	r3, r2
 127 0036 07CB     		ldmia	r3!, {r0, r1, r2}
 128 0038 2060     		str	r0, [r4]	@ unaligned
 129 003a 6160     		str	r1, [r4, #4]	@ unaligned
 130 003c A260     		str	r2, [r4, #8]	@ unaligned
 131 003e 27E0     		b	.L8
 132              	.L7:
 133 0040 7B7B     		ldrb	r3, [r7, #13]	@ zero_extendqisi2
 134 0042 222B     		cmp	r3, #34
 135 0044 0BD8     		bhi	.L9
 136 0046 7B7B     		ldrb	r3, [r7, #13]	@ zero_extendqisi2
 137 0048 202B     		cmp	r3, #32
 138 004a 08D0     		beq	.L9
 139 004c 3B68     		ldr	r3, [r7]
 140 004e 2A4A     		ldr	r2, .L14+4
 141 0050 1C46     		mov	r4, r3
 142 0052 1346     		mov	r3, r2
 143 0054 07CB     		ldmia	r3!, {r0, r1, r2}
 144 0056 2060     		str	r0, [r4]	@ unaligned
 145 0058 6160     		str	r1, [r4, #4]	@ unaligned
 146 005a A260     		str	r2, [r4, #8]	@ unaligned
 147 005c 18E0     		b	.L8
 148              	.L9:
 149 005e 7B7B     		ldrb	r3, [r7, #13]	@ zero_extendqisi2
 150 0060 262B     		cmp	r3, #38
 151 0062 08D8     		bhi	.L10
 152 0064 3B68     		ldr	r3, [r7]
 153 0066 254A     		ldr	r2, .L14+8
 154 0068 1C46     		mov	r4, r3
 155 006a 1346     		mov	r3, r2
 156 006c 07CB     		ldmia	r3!, {r0, r1, r2}
 157 006e 2060     		str	r0, [r4]	@ unaligned
 158 0070 6160     		str	r1, [r4, #4]	@ unaligned
 159 0072 A260     		str	r2, [r4, #8]	@ unaligned
 160 0074 0CE0     		b	.L8
ARM GAS  /var/folders/d2/nstgp4h54kz7g1l847x_b8wc0000gn/T//ccMD7GjH.s 			page 4


 161              	.L10:
 162 0076 3B68     		ldr	r3, [r7]
 163 0078 214A     		ldr	r2, .L14+12
 164 007a 1D46     		mov	r5, r3
 165 007c 1446     		mov	r4, r2
 166 007e 0FCC     		ldmia	r4!, {r0, r1, r2, r3}
 167 0080 2860     		str	r0, [r5]	@ unaligned
 168 0082 6960     		str	r1, [r5, #4]	@ unaligned
 169 0084 AA60     		str	r2, [r5, #8]	@ unaligned
 170 0086 EB60     		str	r3, [r5, #12]	@ unaligned
 171 0088 2068     		ldr	r0, [r4]
 172 008a 2861     		str	r0, [r5, #16]	@ unaligned
 173 008c 2379     		ldrb	r3, [r4, #4]
 174 008e 2B75     		strb	r3, [r5, #20]
 175              	.L8:
 176 0090 3B68     		ldr	r3, [r7]
 177 0092 2033     		adds	r3, r3, #32
 178 0094 1B49     		ldr	r1, .L14+16
 179 0096 1A46     		mov	r2, r3
 180 0098 0B46     		mov	r3, r1
 181 009a 03CB     		ldmia	r3!, {r0, r1}
 182 009c 1060     		str	r0, [r2]	@ unaligned
 183 009e 5160     		str	r1, [r2, #4]	@ unaligned
 184              	.L6:
 185 00a0 97F90F30 		ldrsb	r3, [r7, #15]
 186 00a4 002B     		cmp	r3, #0
 187 00a6 08D1     		bne	.L11
 188 00a8 3B68     		ldr	r3, [r7]
 189 00aa 6033     		adds	r3, r3, #96
 190 00ac 1A46     		mov	r2, r3
 191 00ae C021     		movs	r1, #192
 192 00b0 7868     		ldr	r0, [r7, #4]
 193 00b2 FFF7FEFF 		bl	VL53L0X_RdByte
 194 00b6 0346     		mov	r3, r0
 195 00b8 FB73     		strb	r3, [r7, #15]
 196              	.L11:
 197 00ba 97F90F30 		ldrsb	r3, [r7, #15]
 198 00be 002B     		cmp	r3, #0
 199 00c0 12D1     		bne	.L12
 200 00c2 07F10E03 		add	r3, r7, #14
 201 00c6 1A46     		mov	r2, r3
 202 00c8 C221     		movs	r1, #194
 203 00ca 7868     		ldr	r0, [r7, #4]
 204 00cc FFF7FEFF 		bl	VL53L0X_RdByte
 205 00d0 0346     		mov	r3, r0
 206 00d2 FB73     		strb	r3, [r7, #15]
 207 00d4 3B68     		ldr	r3, [r7]
 208 00d6 0122     		movs	r2, #1
 209 00d8 83F86120 		strb	r2, [r3, #97]
 210 00dc BB7B     		ldrb	r3, [r7, #14]	@ zero_extendqisi2
 211 00de 1B09     		lsrs	r3, r3, #4
 212 00e0 DAB2     		uxtb	r2, r3
 213 00e2 3B68     		ldr	r3, [r7]
 214 00e4 83F86220 		strb	r2, [r3, #98]
 215              	.L12:
 216 00e8 97F90F30 		ldrsb	r3, [r7, #15]
 217 00ec 1846     		mov	r0, r3
ARM GAS  /var/folders/d2/nstgp4h54kz7g1l847x_b8wc0000gn/T//ccMD7GjH.s 			page 5


 218 00ee 1037     		adds	r7, r7, #16
 219 00f0 BD46     		mov	sp, r7
 220              		@ sp needed
 221 00f2 B0BD     		pop	{r4, r5, r7, pc}
 222              	.L15:
 223              		.align	2
 224              	.L14:
 225 00f4 00000000 		.word	.LC0
 226 00f8 0C000000 		.word	.LC1
 227 00fc 18000000 		.word	.LC2
 228 0100 24000000 		.word	.LC3
 229 0104 3C000000 		.word	.LC4
 230              		.size	VL53L0X_get_device_info, .-VL53L0X_get_device_info
 231              		.section	.rodata
 232              		.align	2
 233              	.LC5:
 234 0044 4E6F2055 		.ascii	"No Update\000"
 234      70646174 
 234      6500
 235 004e 0000     		.align	2
 236              	.LC6:
 237 0050 56435345 		.ascii	"VCSEL Continuity Test Failure\000"
 237      4C20436F 
 237      6E74696E 
 237      75697479 
 237      20546573 
 238 006e 0000     		.align	2
 239              	.LC7:
 240 0070 56435345 		.ascii	"VCSEL Watchdog Test Failure\000"
 240      4C205761 
 240      74636864 
 240      6F672054 
 240      65737420 
 241              		.align	2
 242              	.LC8:
 243 008c 4E6F2056 		.ascii	"No VHV Value found\000"
 243      48562056 
 243      616C7565 
 243      20666F75 
 243      6E6400
 244 009f 00       		.align	2
 245              	.LC9:
 246 00a0 4D535243 		.ascii	"MSRC No Target Error\000"
 246      204E6F20 
 246      54617267 
 246      65742045 
 246      72726F72 
 247 00b5 000000   		.align	2
 248              	.LC10:
 249 00b8 534E5220 		.ascii	"SNR Check Exit\000"
 249      43686563 
 249      6B204578 
 249      697400
 250 00c7 00       		.align	2
 251              	.LC11:
 252 00c8 52616E67 		.ascii	"Range Phase Check Error\000"
 252      65205068 
ARM GAS  /var/folders/d2/nstgp4h54kz7g1l847x_b8wc0000gn/T//ccMD7GjH.s 			page 6


 252      61736520 
 252      43686563 
 252      6B204572 
 253              		.align	2
 254              	.LC12:
 255 00e0 5369676D 		.ascii	"Sigma Threshold Check Error\000"
 255      61205468 
 255      72657368 
 255      6F6C6420 
 255      43686563 
 256              		.align	2
 257              	.LC13:
 258 00fc 54434320 		.ascii	"TCC Error\000"
 258      4572726F 
 258      7200
 259 0106 0000     		.align	2
 260              	.LC14:
 261 0108 50686173 		.ascii	"Phase Consistency Error\000"
 261      6520436F 
 261      6E736973 
 261      74656E63 
 261      79204572 
 262              		.align	2
 263              	.LC15:
 264 0120 4D696E20 		.ascii	"Min Clip Error\000"
 264      436C6970 
 264      20457272 
 264      6F7200
 265 012f 00       		.align	2
 266              	.LC16:
 267 0130 52616E67 		.ascii	"Range Complete\000"
 267      6520436F 
 267      6D706C65 
 267      746500
 268 013f 00       		.align	2
 269              	.LC17:
 270 0140 52616E67 		.ascii	"Range Algo Underflow Error\000"
 270      6520416C 
 270      676F2055 
 270      6E646572 
 270      666C6F77 
 271 015b 00       		.align	2
 272              	.LC18:
 273 015c 52616E67 		.ascii	"Range Algo Overlow Error\000"
 273      6520416C 
 273      676F204F 
 273      7665726C 
 273      6F772045 
 274 0175 000000   		.align	2
 275              	.LC19:
 276 0178 52616E67 		.ascii	"Range Ignore Threshold Error\000"
 276      65204967 
 276      6E6F7265 
 276      20546872 
 276      6573686F 
 277 0195 000000   		.align	2
 278              	.LC20:
ARM GAS  /var/folders/d2/nstgp4h54kz7g1l847x_b8wc0000gn/T//ccMD7GjH.s 			page 7


 279 0198 556E6B6E 		.ascii	"Unknown Error Code\000"
 279      6F776E20 
 279      4572726F 
 279      7220436F 
 279      646500
 280              		.section	.text.VL53L0X_get_device_error_string,"ax",%progbits
 281              		.align	1
 282              		.global	VL53L0X_get_device_error_string
 283              		.syntax unified
 284              		.thumb
 285              		.thumb_func
 286              		.fpu fpv4-sp-d16
 287              		.type	VL53L0X_get_device_error_string, %function
 288              	VL53L0X_get_device_error_string:
 289              		@ args = 0, pretend = 0, frame = 16
 290              		@ frame_needed = 1, uses_anonymous_args = 0
 291              		@ link register save eliminated.
 292 0000 B0B4     		push	{r4, r5, r7}
 293 0002 85B0     		sub	sp, sp, #20
 294 0004 00AF     		add	r7, sp, #0
 295 0006 0346     		mov	r3, r0
 296 0008 3960     		str	r1, [r7]
 297 000a FB71     		strb	r3, [r7, #7]
 298 000c 0023     		movs	r3, #0
 299 000e FB73     		strb	r3, [r7, #15]
 300 0010 FB79     		ldrb	r3, [r7, #7]	@ zero_extendqisi2
 301 0012 0E2B     		cmp	r3, #14
 302 0014 00F2F180 		bhi	.L17
 303 0018 01A2     		adr	r2, .L19
 304 001a 52F823F0 		ldr	pc, [r2, r3, lsl #2]
 305 001e 00BF     		.p2align 2
 306              	.L19:
 307 0020 5D000000 		.word	.L18+1
 308 0024 71000000 		.word	.L20+1
 309 0028 91000000 		.word	.L21+1
 310 002c AD000000 		.word	.L22+1
 311 0030 CB000000 		.word	.L23+1
 312 0034 E7000000 		.word	.L24+1
 313 0038 01010000 		.word	.L25+1
 314 003c 1B010000 		.word	.L26+1
 315 0040 37010000 		.word	.L27+1
 316 0044 4B010000 		.word	.L28+1
 317 0048 65010000 		.word	.L29+1
 318 004c 7F010000 		.word	.L30+1
 319 0050 99010000 		.word	.L31+1
 320 0054 BD010000 		.word	.L32+1
 321 0058 DB010000 		.word	.L33+1
 322              		.p2align 1
 323              	.L18:
 324 005c 3B68     		ldr	r3, [r7]
 325 005e 7149     		ldr	r1, .L36
 326 0060 1A46     		mov	r2, r3
 327 0062 0B46     		mov	r3, r1
 328 0064 03CB     		ldmia	r3!, {r0, r1}
 329 0066 1060     		str	r0, [r2]	@ unaligned
 330 0068 5160     		str	r1, [r2, #4]	@ unaligned
 331 006a 1B88     		ldrh	r3, [r3]	@ unaligned
ARM GAS  /var/folders/d2/nstgp4h54kz7g1l847x_b8wc0000gn/T//ccMD7GjH.s 			page 8


 332 006c 1381     		strh	r3, [r2, #8]	@ unaligned
 333 006e D2E0     		b	.L34
 334              	.L20:
 335 0070 3B68     		ldr	r3, [r7]
 336 0072 6D4A     		ldr	r2, .L36+4
 337 0074 1D46     		mov	r5, r3
 338 0076 1446     		mov	r4, r2
 339 0078 0FCC     		ldmia	r4!, {r0, r1, r2, r3}
 340 007a 2860     		str	r0, [r5]	@ unaligned
 341 007c 6960     		str	r1, [r5, #4]	@ unaligned
 342 007e AA60     		str	r2, [r5, #8]	@ unaligned
 343 0080 EB60     		str	r3, [r5, #12]	@ unaligned
 344 0082 07CC     		ldmia	r4!, {r0, r1, r2}
 345 0084 2861     		str	r0, [r5, #16]	@ unaligned
 346 0086 6961     		str	r1, [r5, #20]	@ unaligned
 347 0088 AA61     		str	r2, [r5, #24]	@ unaligned
 348 008a 2388     		ldrh	r3, [r4]	@ unaligned
 349 008c AB83     		strh	r3, [r5, #28]	@ unaligned
 350 008e C2E0     		b	.L34
 351              	.L21:
 352 0090 3B68     		ldr	r3, [r7]
 353 0092 664A     		ldr	r2, .L36+8
 354 0094 1D46     		mov	r5, r3
 355 0096 1446     		mov	r4, r2
 356 0098 0FCC     		ldmia	r4!, {r0, r1, r2, r3}
 357 009a 2860     		str	r0, [r5]	@ unaligned
 358 009c 6960     		str	r1, [r5, #4]	@ unaligned
 359 009e AA60     		str	r2, [r5, #8]	@ unaligned
 360 00a0 EB60     		str	r3, [r5, #12]	@ unaligned
 361 00a2 07CC     		ldmia	r4!, {r0, r1, r2}
 362 00a4 2861     		str	r0, [r5, #16]	@ unaligned
 363 00a6 6961     		str	r1, [r5, #20]	@ unaligned
 364 00a8 AA61     		str	r2, [r5, #24]	@ unaligned
 365 00aa B4E0     		b	.L34
 366              	.L22:
 367 00ac 3B68     		ldr	r3, [r7]
 368 00ae 604A     		ldr	r2, .L36+12
 369 00b0 1D46     		mov	r5, r3
 370 00b2 1446     		mov	r4, r2
 371 00b4 0FCC     		ldmia	r4!, {r0, r1, r2, r3}
 372 00b6 2860     		str	r0, [r5]	@ unaligned
 373 00b8 6960     		str	r1, [r5, #4]	@ unaligned
 374 00ba AA60     		str	r2, [r5, #8]	@ unaligned
 375 00bc EB60     		str	r3, [r5, #12]	@ unaligned
 376 00be 2388     		ldrh	r3, [r4]	@ unaligned
 377 00c0 A278     		ldrb	r2, [r4, #2]
 378 00c2 2B82     		strh	r3, [r5, #16]	@ unaligned
 379 00c4 1346     		mov	r3, r2
 380 00c6 AB74     		strb	r3, [r5, #18]
 381 00c8 A5E0     		b	.L34
 382              	.L23:
 383 00ca 3B68     		ldr	r3, [r7]
 384 00cc 594A     		ldr	r2, .L36+16
 385 00ce 1D46     		mov	r5, r3
 386 00d0 1446     		mov	r4, r2
 387 00d2 0FCC     		ldmia	r4!, {r0, r1, r2, r3}
 388 00d4 2860     		str	r0, [r5]	@ unaligned
ARM GAS  /var/folders/d2/nstgp4h54kz7g1l847x_b8wc0000gn/T//ccMD7GjH.s 			page 9


 389 00d6 6960     		str	r1, [r5, #4]	@ unaligned
 390 00d8 AA60     		str	r2, [r5, #8]	@ unaligned
 391 00da EB60     		str	r3, [r5, #12]	@ unaligned
 392 00dc 2068     		ldr	r0, [r4]
 393 00de 2861     		str	r0, [r5, #16]	@ unaligned
 394 00e0 2379     		ldrb	r3, [r4, #4]
 395 00e2 2B75     		strb	r3, [r5, #20]
 396 00e4 97E0     		b	.L34
 397              	.L24:
 398 00e6 3B68     		ldr	r3, [r7]
 399 00e8 534A     		ldr	r2, .L36+20
 400 00ea 1C46     		mov	r4, r3
 401 00ec 1346     		mov	r3, r2
 402 00ee 07CB     		ldmia	r3!, {r0, r1, r2}
 403 00f0 2060     		str	r0, [r4]	@ unaligned
 404 00f2 6160     		str	r1, [r4, #4]	@ unaligned
 405 00f4 A260     		str	r2, [r4, #8]	@ unaligned
 406 00f6 1A88     		ldrh	r2, [r3]	@ unaligned
 407 00f8 9B78     		ldrb	r3, [r3, #2]
 408 00fa A281     		strh	r2, [r4, #12]	@ unaligned
 409 00fc A373     		strb	r3, [r4, #14]
 410 00fe 8AE0     		b	.L34
 411              	.L25:
 412 0100 3B68     		ldr	r3, [r7]
 413 0102 4E4A     		ldr	r2, .L36+24
 414 0104 1D46     		mov	r5, r3
 415 0106 1446     		mov	r4, r2
 416 0108 0FCC     		ldmia	r4!, {r0, r1, r2, r3}
 417 010a 2860     		str	r0, [r5]	@ unaligned
 418 010c 6960     		str	r1, [r5, #4]	@ unaligned
 419 010e AA60     		str	r2, [r5, #8]	@ unaligned
 420 0110 EB60     		str	r3, [r5, #12]	@ unaligned
 421 0112 03CC     		ldmia	r4!, {r0, r1}
 422 0114 2861     		str	r0, [r5, #16]	@ unaligned
 423 0116 6961     		str	r1, [r5, #20]	@ unaligned
 424 0118 7DE0     		b	.L34
 425              	.L26:
 426 011a 3B68     		ldr	r3, [r7]
 427 011c 484A     		ldr	r2, .L36+28
 428 011e 1D46     		mov	r5, r3
 429 0120 1446     		mov	r4, r2
 430 0122 0FCC     		ldmia	r4!, {r0, r1, r2, r3}
 431 0124 2860     		str	r0, [r5]	@ unaligned
 432 0126 6960     		str	r1, [r5, #4]	@ unaligned
 433 0128 AA60     		str	r2, [r5, #8]	@ unaligned
 434 012a EB60     		str	r3, [r5, #12]	@ unaligned
 435 012c 07CC     		ldmia	r4!, {r0, r1, r2}
 436 012e 2861     		str	r0, [r5, #16]	@ unaligned
 437 0130 6961     		str	r1, [r5, #20]	@ unaligned
 438 0132 AA61     		str	r2, [r5, #24]	@ unaligned
 439 0134 6FE0     		b	.L34
 440              	.L27:
 441 0136 3B68     		ldr	r3, [r7]
 442 0138 4249     		ldr	r1, .L36+32
 443 013a 1A46     		mov	r2, r3
 444 013c 0B46     		mov	r3, r1
 445 013e 03CB     		ldmia	r3!, {r0, r1}
ARM GAS  /var/folders/d2/nstgp4h54kz7g1l847x_b8wc0000gn/T//ccMD7GjH.s 			page 10


 446 0140 1060     		str	r0, [r2]	@ unaligned
 447 0142 5160     		str	r1, [r2, #4]	@ unaligned
 448 0144 1B88     		ldrh	r3, [r3]	@ unaligned
 449 0146 1381     		strh	r3, [r2, #8]	@ unaligned
 450 0148 65E0     		b	.L34
 451              	.L28:
 452 014a 3B68     		ldr	r3, [r7]
 453 014c 3E4A     		ldr	r2, .L36+36
 454 014e 1D46     		mov	r5, r3
 455 0150 1446     		mov	r4, r2
 456 0152 0FCC     		ldmia	r4!, {r0, r1, r2, r3}
 457 0154 2860     		str	r0, [r5]	@ unaligned
 458 0156 6960     		str	r1, [r5, #4]	@ unaligned
 459 0158 AA60     		str	r2, [r5, #8]	@ unaligned
 460 015a EB60     		str	r3, [r5, #12]	@ unaligned
 461 015c 03CC     		ldmia	r4!, {r0, r1}
 462 015e 2861     		str	r0, [r5, #16]	@ unaligned
 463 0160 6961     		str	r1, [r5, #20]	@ unaligned
 464 0162 58E0     		b	.L34
 465              	.L29:
 466 0164 3B68     		ldr	r3, [r7]
 467 0166 394A     		ldr	r2, .L36+40
 468 0168 1C46     		mov	r4, r3
 469 016a 1346     		mov	r3, r2
 470 016c 07CB     		ldmia	r3!, {r0, r1, r2}
 471 016e 2060     		str	r0, [r4]	@ unaligned
 472 0170 6160     		str	r1, [r4, #4]	@ unaligned
 473 0172 A260     		str	r2, [r4, #8]	@ unaligned
 474 0174 1A88     		ldrh	r2, [r3]	@ unaligned
 475 0176 9B78     		ldrb	r3, [r3, #2]
 476 0178 A281     		strh	r2, [r4, #12]	@ unaligned
 477 017a A373     		strb	r3, [r4, #14]
 478 017c 4BE0     		b	.L34
 479              	.L30:
 480 017e 3B68     		ldr	r3, [r7]
 481 0180 334A     		ldr	r2, .L36+44
 482 0182 1C46     		mov	r4, r3
 483 0184 1346     		mov	r3, r2
 484 0186 07CB     		ldmia	r3!, {r0, r1, r2}
 485 0188 2060     		str	r0, [r4]	@ unaligned
 486 018a 6160     		str	r1, [r4, #4]	@ unaligned
 487 018c A260     		str	r2, [r4, #8]	@ unaligned
 488 018e 1A88     		ldrh	r2, [r3]	@ unaligned
 489 0190 9B78     		ldrb	r3, [r3, #2]
 490 0192 A281     		strh	r2, [r4, #12]	@ unaligned
 491 0194 A373     		strb	r3, [r4, #14]
 492 0196 3EE0     		b	.L34
 493              	.L31:
 494 0198 3B68     		ldr	r3, [r7]
 495 019a 2E4A     		ldr	r2, .L36+48
 496 019c 1D46     		mov	r5, r3
 497 019e 1446     		mov	r4, r2
 498 01a0 0FCC     		ldmia	r4!, {r0, r1, r2, r3}
 499 01a2 2860     		str	r0, [r5]	@ unaligned
 500 01a4 6960     		str	r1, [r5, #4]	@ unaligned
 501 01a6 AA60     		str	r2, [r5, #8]	@ unaligned
 502 01a8 EB60     		str	r3, [r5, #12]	@ unaligned
ARM GAS  /var/folders/d2/nstgp4h54kz7g1l847x_b8wc0000gn/T//ccMD7GjH.s 			page 11


 503 01aa 03CC     		ldmia	r4!, {r0, r1}
 504 01ac 2861     		str	r0, [r5, #16]	@ unaligned
 505 01ae 6961     		str	r1, [r5, #20]	@ unaligned
 506 01b0 2388     		ldrh	r3, [r4]	@ unaligned
 507 01b2 A278     		ldrb	r2, [r4, #2]
 508 01b4 2B83     		strh	r3, [r5, #24]	@ unaligned
 509 01b6 1346     		mov	r3, r2
 510 01b8 AB76     		strb	r3, [r5, #26]
 511 01ba 2CE0     		b	.L34
 512              	.L32:
 513 01bc 3B68     		ldr	r3, [r7]
 514 01be 264A     		ldr	r2, .L36+52
 515 01c0 1D46     		mov	r5, r3
 516 01c2 1446     		mov	r4, r2
 517 01c4 0FCC     		ldmia	r4!, {r0, r1, r2, r3}
 518 01c6 2860     		str	r0, [r5]	@ unaligned
 519 01c8 6960     		str	r1, [r5, #4]	@ unaligned
 520 01ca AA60     		str	r2, [r5, #8]	@ unaligned
 521 01cc EB60     		str	r3, [r5, #12]	@ unaligned
 522 01ce 03CC     		ldmia	r4!, {r0, r1}
 523 01d0 2861     		str	r0, [r5, #16]	@ unaligned
 524 01d2 6961     		str	r1, [r5, #20]	@ unaligned
 525 01d4 2378     		ldrb	r3, [r4]
 526 01d6 2B76     		strb	r3, [r5, #24]
 527 01d8 1DE0     		b	.L34
 528              	.L33:
 529 01da 3B68     		ldr	r3, [r7]
 530 01dc 1F4A     		ldr	r2, .L36+56
 531 01de 1D46     		mov	r5, r3
 532 01e0 1446     		mov	r4, r2
 533 01e2 0FCC     		ldmia	r4!, {r0, r1, r2, r3}
 534 01e4 2860     		str	r0, [r5]	@ unaligned
 535 01e6 6960     		str	r1, [r5, #4]	@ unaligned
 536 01e8 AA60     		str	r2, [r5, #8]	@ unaligned
 537 01ea EB60     		str	r3, [r5, #12]	@ unaligned
 538 01ec 07CC     		ldmia	r4!, {r0, r1, r2}
 539 01ee 2861     		str	r0, [r5, #16]	@ unaligned
 540 01f0 6961     		str	r1, [r5, #20]	@ unaligned
 541 01f2 AA61     		str	r2, [r5, #24]	@ unaligned
 542 01f4 2378     		ldrb	r3, [r4]
 543 01f6 2B77     		strb	r3, [r5, #28]
 544 01f8 0DE0     		b	.L34
 545              	.L17:
 546 01fa 3B68     		ldr	r3, [r7]
 547 01fc 184A     		ldr	r2, .L36+60
 548 01fe 1D46     		mov	r5, r3
 549 0200 1446     		mov	r4, r2
 550 0202 0FCC     		ldmia	r4!, {r0, r1, r2, r3}
 551 0204 2860     		str	r0, [r5]	@ unaligned
 552 0206 6960     		str	r1, [r5, #4]	@ unaligned
 553 0208 AA60     		str	r2, [r5, #8]	@ unaligned
 554 020a EB60     		str	r3, [r5, #12]	@ unaligned
 555 020c 2388     		ldrh	r3, [r4]	@ unaligned
 556 020e A278     		ldrb	r2, [r4, #2]
 557 0210 2B82     		strh	r3, [r5, #16]	@ unaligned
 558 0212 1346     		mov	r3, r2
 559 0214 AB74     		strb	r3, [r5, #18]
ARM GAS  /var/folders/d2/nstgp4h54kz7g1l847x_b8wc0000gn/T//ccMD7GjH.s 			page 12


 560              	.L34:
 561 0216 97F90F30 		ldrsb	r3, [r7, #15]
 562 021a 1846     		mov	r0, r3
 563 021c 1437     		adds	r7, r7, #20
 564 021e BD46     		mov	sp, r7
 565              		@ sp needed
 566 0220 B0BC     		pop	{r4, r5, r7}
 567 0222 7047     		bx	lr
 568              	.L37:
 569              		.align	2
 570              	.L36:
 571 0224 44000000 		.word	.LC5
 572 0228 50000000 		.word	.LC6
 573 022c 70000000 		.word	.LC7
 574 0230 8C000000 		.word	.LC8
 575 0234 A0000000 		.word	.LC9
 576 0238 B8000000 		.word	.LC10
 577 023c C8000000 		.word	.LC11
 578 0240 E0000000 		.word	.LC12
 579 0244 FC000000 		.word	.LC13
 580 0248 08010000 		.word	.LC14
 581 024c 20010000 		.word	.LC15
 582 0250 30010000 		.word	.LC16
 583 0254 40010000 		.word	.LC17
 584 0258 5C010000 		.word	.LC18
 585 025c 78010000 		.word	.LC19
 586 0260 98010000 		.word	.LC20
 587              		.size	VL53L0X_get_device_error_string, .-VL53L0X_get_device_error_string
 588              		.section	.rodata
 589 01ab 00       		.align	2
 590              	.LC21:
 591 01ac 52616E67 		.ascii	"Range Valid\000"
 591      65205661 
 591      6C696400 
 592              		.align	2
 593              	.LC22:
 594 01b8 5369676D 		.ascii	"Sigma Fail\000"
 594      61204661 
 594      696C00
 595 01c3 00       		.align	2
 596              	.LC23:
 597 01c4 5369676E 		.ascii	"Signal Fail\000"
 597      616C2046 
 597      61696C00 
 598              		.align	2
 599              	.LC24:
 600 01d0 4D696E20 		.ascii	"Min Range Fail\000"
 600      52616E67 
 600      65204661 
 600      696C00
 601 01df 00       		.align	2
 602              	.LC25:
 603 01e0 50686173 		.ascii	"Phase Fail\000"
 603      65204661 
 603      696C00
 604 01eb 00       		.align	2
 605              	.LC26:
ARM GAS  /var/folders/d2/nstgp4h54kz7g1l847x_b8wc0000gn/T//ccMD7GjH.s 			page 13


 606 01ec 48617264 		.ascii	"Hardware Fail\000"
 606      77617265 
 606      20466169 
 606      6C00
 607              		.section	.text.VL53L0X_get_range_status_string,"ax",%progbits
 608              		.align	1
 609              		.global	VL53L0X_get_range_status_string
 610              		.syntax unified
 611              		.thumb
 612              		.thumb_func
 613              		.fpu fpv4-sp-d16
 614              		.type	VL53L0X_get_range_status_string, %function
 615              	VL53L0X_get_range_status_string:
 616              		@ args = 0, pretend = 0, frame = 16
 617              		@ frame_needed = 1, uses_anonymous_args = 0
 618              		@ link register save eliminated.
 619 0000 90B4     		push	{r4, r7}
 620 0002 84B0     		sub	sp, sp, #16
 621 0004 00AF     		add	r7, sp, #0
 622 0006 0346     		mov	r3, r0
 623 0008 3960     		str	r1, [r7]
 624 000a FB71     		strb	r3, [r7, #7]
 625 000c 0023     		movs	r3, #0
 626 000e FB73     		strb	r3, [r7, #15]
 627 0010 FB79     		ldrb	r3, [r7, #7]	@ zero_extendqisi2
 628 0012 052B     		cmp	r3, #5
 629 0014 50D8     		bhi	.L39
 630 0016 01A2     		adr	r2, .L41
 631 0018 52F823F0 		ldr	pc, [r2, r3, lsl #2]
 632              		.p2align 2
 633              	.L41:
 634 001c 35000000 		.word	.L40+1
 635 0020 47000000 		.word	.L42+1
 636 0024 5F000000 		.word	.L43+1
 637 0028 71000000 		.word	.L44+1
 638 002c 8B000000 		.word	.L45+1
 639 0030 A3000000 		.word	.L46+1
 640              		.p2align 1
 641              	.L40:
 642 0034 3B68     		ldr	r3, [r7]
 643 0036 284A     		ldr	r2, .L49
 644 0038 1C46     		mov	r4, r3
 645 003a 1346     		mov	r3, r2
 646 003c 07CB     		ldmia	r3!, {r0, r1, r2}
 647 003e 2060     		str	r0, [r4]	@ unaligned
 648 0040 6160     		str	r1, [r4, #4]	@ unaligned
 649 0042 A260     		str	r2, [r4, #8]	@ unaligned
 650 0044 41E0     		b	.L47
 651              	.L42:
 652 0046 3B68     		ldr	r3, [r7]
 653 0048 2449     		ldr	r1, .L49+4
 654 004a 1A46     		mov	r2, r3
 655 004c 0B46     		mov	r3, r1
 656 004e 03CB     		ldmia	r3!, {r0, r1}
 657 0050 1060     		str	r0, [r2]	@ unaligned
 658 0052 5160     		str	r1, [r2, #4]	@ unaligned
 659 0054 1988     		ldrh	r1, [r3]	@ unaligned
ARM GAS  /var/folders/d2/nstgp4h54kz7g1l847x_b8wc0000gn/T//ccMD7GjH.s 			page 14


 660 0056 9B78     		ldrb	r3, [r3, #2]
 661 0058 1181     		strh	r1, [r2, #8]	@ unaligned
 662 005a 9372     		strb	r3, [r2, #10]
 663 005c 35E0     		b	.L47
 664              	.L43:
 665 005e 3B68     		ldr	r3, [r7]
 666 0060 1F4A     		ldr	r2, .L49+8
 667 0062 1C46     		mov	r4, r3
 668 0064 1346     		mov	r3, r2
 669 0066 07CB     		ldmia	r3!, {r0, r1, r2}
 670 0068 2060     		str	r0, [r4]	@ unaligned
 671 006a 6160     		str	r1, [r4, #4]	@ unaligned
 672 006c A260     		str	r2, [r4, #8]	@ unaligned
 673 006e 2CE0     		b	.L47
 674              	.L44:
 675 0070 3B68     		ldr	r3, [r7]
 676 0072 1C4A     		ldr	r2, .L49+12
 677 0074 1C46     		mov	r4, r3
 678 0076 1346     		mov	r3, r2
 679 0078 07CB     		ldmia	r3!, {r0, r1, r2}
 680 007a 2060     		str	r0, [r4]	@ unaligned
 681 007c 6160     		str	r1, [r4, #4]	@ unaligned
 682 007e A260     		str	r2, [r4, #8]	@ unaligned
 683 0080 1A88     		ldrh	r2, [r3]	@ unaligned
 684 0082 9B78     		ldrb	r3, [r3, #2]
 685 0084 A281     		strh	r2, [r4, #12]	@ unaligned
 686 0086 A373     		strb	r3, [r4, #14]
 687 0088 1FE0     		b	.L47
 688              	.L45:
 689 008a 3B68     		ldr	r3, [r7]
 690 008c 1649     		ldr	r1, .L49+16
 691 008e 1A46     		mov	r2, r3
 692 0090 0B46     		mov	r3, r1
 693 0092 03CB     		ldmia	r3!, {r0, r1}
 694 0094 1060     		str	r0, [r2]	@ unaligned
 695 0096 5160     		str	r1, [r2, #4]	@ unaligned
 696 0098 1988     		ldrh	r1, [r3]	@ unaligned
 697 009a 9B78     		ldrb	r3, [r3, #2]
 698 009c 1181     		strh	r1, [r2, #8]	@ unaligned
 699 009e 9372     		strb	r3, [r2, #10]
 700 00a0 13E0     		b	.L47
 701              	.L46:
 702 00a2 3B68     		ldr	r3, [r7]
 703 00a4 114A     		ldr	r2, .L49+20
 704 00a6 1C46     		mov	r4, r3
 705 00a8 1346     		mov	r3, r2
 706 00aa 07CB     		ldmia	r3!, {r0, r1, r2}
 707 00ac 2060     		str	r0, [r4]	@ unaligned
 708 00ae 6160     		str	r1, [r4, #4]	@ unaligned
 709 00b0 A260     		str	r2, [r4, #8]	@ unaligned
 710 00b2 1B88     		ldrh	r3, [r3]	@ unaligned
 711 00b4 A381     		strh	r3, [r4, #12]	@ unaligned
 712 00b6 08E0     		b	.L47
 713              	.L39:
 714 00b8 3B68     		ldr	r3, [r7]
 715 00ba 0D49     		ldr	r1, .L49+24
 716 00bc 1A46     		mov	r2, r3
ARM GAS  /var/folders/d2/nstgp4h54kz7g1l847x_b8wc0000gn/T//ccMD7GjH.s 			page 15


 717 00be 0B46     		mov	r3, r1
 718 00c0 03CB     		ldmia	r3!, {r0, r1}
 719 00c2 1060     		str	r0, [r2]	@ unaligned
 720 00c4 5160     		str	r1, [r2, #4]	@ unaligned
 721 00c6 1B88     		ldrh	r3, [r3]	@ unaligned
 722 00c8 1381     		strh	r3, [r2, #8]	@ unaligned
 723              	.L47:
 724 00ca 97F90F30 		ldrsb	r3, [r7, #15]
 725 00ce 1846     		mov	r0, r3
 726 00d0 1037     		adds	r7, r7, #16
 727 00d2 BD46     		mov	sp, r7
 728              		@ sp needed
 729 00d4 90BC     		pop	{r4, r7}
 730 00d6 7047     		bx	lr
 731              	.L50:
 732              		.align	2
 733              	.L49:
 734 00d8 AC010000 		.word	.LC21
 735 00dc B8010000 		.word	.LC22
 736 00e0 C4010000 		.word	.LC23
 737 00e4 D0010000 		.word	.LC24
 738 00e8 E0010000 		.word	.LC25
 739 00ec EC010000 		.word	.LC26
 740 00f0 44000000 		.word	.LC5
 741              		.size	VL53L0X_get_range_status_string, .-VL53L0X_get_range_status_string
 742              		.section	.rodata
 743 01fa 0000     		.align	2
 744              	.LC27:
 745 01fc 4E6F2045 		.ascii	"No Error\000"
 745      72726F72 
 745      00
 746 0205 000000   		.align	2
 747              	.LC28:
 748 0208 43616C69 		.ascii	"Calibration Warning Error\000"
 748      62726174 
 748      696F6E20 
 748      5761726E 
 748      696E6720 
 749 0222 0000     		.align	2
 750              	.LC29:
 751 0224 4D696E20 		.ascii	"Min clipped error\000"
 751      636C6970 
 751      70656420 
 751      6572726F 
 751      7200
 752 0236 0000     		.align	2
 753              	.LC30:
 754 0238 556E6465 		.ascii	"Undefined error\000"
 754      66696E65 
 754      64206572 
 754      726F7200 
 755              		.align	2
 756              	.LC31:
 757 0248 496E7661 		.ascii	"Invalid parameters error\000"
 757      6C696420 
 757      70617261 
 757      6D657465 
ARM GAS  /var/folders/d2/nstgp4h54kz7g1l847x_b8wc0000gn/T//ccMD7GjH.s 			page 16


 757      72732065 
 758 0261 000000   		.align	2
 759              	.LC32:
 760 0264 4E6F7420 		.ascii	"Not supported error\000"
 760      73757070 
 760      6F727465 
 760      64206572 
 760      726F7200 
 761              		.align	2
 762              	.LC33:
 763 0278 496E7465 		.ascii	"Interrupt not Cleared\000"
 763      72727570 
 763      74206E6F 
 763      7420436C 
 763      65617265 
 764 028e 0000     		.align	2
 765              	.LC34:
 766 0290 52616E67 		.ascii	"Range error\000"
 766      65206572 
 766      726F7200 
 767              		.align	2
 768              	.LC35:
 769 029c 54696D65 		.ascii	"Time out error\000"
 769      206F7574 
 769      20657272 
 769      6F7200
 770 02ab 00       		.align	2
 771              	.LC36:
 772 02ac 4D6F6465 		.ascii	"Mode not supported error\000"
 772      206E6F74 
 772      20737570 
 772      706F7274 
 772      65642065 
 773 02c5 000000   		.align	2
 774              	.LC37:
 775 02c8 42756666 		.ascii	"Buffer too small\000"
 775      65722074 
 775      6F6F2073 
 775      6D616C6C 
 775      00
 776 02d9 000000   		.align	2
 777              	.LC38:
 778 02dc 4750494F 		.ascii	"GPIO not existing\000"
 778      206E6F74 
 778      20657869 
 778      7374696E 
 778      6700
 779 02ee 0000     		.align	2
 780              	.LC39:
 781 02f0 4750494F 		.ascii	"GPIO funct not supported\000"
 781      2066756E 
 781      6374206E 
 781      6F742073 
 781      7570706F 
 782 0309 000000   		.align	2
 783              	.LC40:
 784 030c 436F6E74 		.ascii	"Control Interface Error\000"
ARM GAS  /var/folders/d2/nstgp4h54kz7g1l847x_b8wc0000gn/T//ccMD7GjH.s 			page 17


 784      726F6C20 
 784      496E7465 
 784      72666163 
 784      65204572 
 785              		.align	2
 786              	.LC41:
 787 0324 496E7661 		.ascii	"Invalid Command Error\000"
 787      6C696420 
 787      436F6D6D 
 787      616E6420 
 787      4572726F 
 788 033a 0000     		.align	2
 789              	.LC42:
 790 033c 44697669 		.ascii	"Division by zero Error\000"
 790      73696F6E 
 790      20627920 
 790      7A65726F 
 790      20457272 
 791 0353 00       		.align	2
 792              	.LC43:
 793 0354 52656665 		.ascii	"Reference Spad Init Error\000"
 793      72656E63 
 793      65205370 
 793      61642049 
 793      6E697420 
 794 036e 0000     		.align	2
 795              	.LC44:
 796 0370 4E6F7420 		.ascii	"Not implemented error\000"
 796      696D706C 
 796      656D656E 
 796      74656420 
 796      6572726F 
 797              		.section	.text.VL53L0X_get_pal_error_string,"ax",%progbits
 798              		.align	1
 799              		.global	VL53L0X_get_pal_error_string
 800              		.syntax unified
 801              		.thumb
 802              		.thumb_func
 803              		.fpu fpv4-sp-d16
 804              		.type	VL53L0X_get_pal_error_string, %function
 805              	VL53L0X_get_pal_error_string:
 806              		@ args = 0, pretend = 0, frame = 16
 807              		@ frame_needed = 1, uses_anonymous_args = 0
 808              		@ link register save eliminated.
 809 0000 B0B4     		push	{r4, r5, r7}
 810 0002 85B0     		sub	sp, sp, #20
 811 0004 00AF     		add	r7, sp, #0
 812 0006 0346     		mov	r3, r0
 813 0008 3960     		str	r1, [r7]
 814 000a FB71     		strb	r3, [r7, #7]
 815 000c 0023     		movs	r3, #0
 816 000e FB73     		strb	r3, [r7, #15]
 817 0010 97F90730 		ldrsb	r3, [r7, #7]
 818 0014 6333     		adds	r3, r3, #99
 819 0016 632B     		cmp	r3, #99
 820 0018 00F2B981 		bhi	.L52
 821 001c 01A2     		adr	r2, .L54
ARM GAS  /var/folders/d2/nstgp4h54kz7g1l847x_b8wc0000gn/T//ccMD7GjH.s 			page 18


 822 001e 52F823F0 		ldr	pc, [r2, r3, lsl #2]
 823 0022 00BF     		.p2align 2
 824              	.L54:
 825 0024 73030000 		.word	.L53+1
 826 0028 8F030000 		.word	.L52+1
 827 002c 8F030000 		.word	.L52+1
 828 0030 8F030000 		.word	.L52+1
 829 0034 8F030000 		.word	.L52+1
 830 0038 8F030000 		.word	.L52+1
 831 003c 8F030000 		.word	.L52+1
 832 0040 8F030000 		.word	.L52+1
 833 0044 8F030000 		.word	.L52+1
 834 0048 8F030000 		.word	.L52+1
 835 004c 8F030000 		.word	.L52+1
 836 0050 8F030000 		.word	.L52+1
 837 0054 8F030000 		.word	.L52+1
 838 0058 8F030000 		.word	.L52+1
 839 005c 8F030000 		.word	.L52+1
 840 0060 8F030000 		.word	.L52+1
 841 0064 8F030000 		.word	.L52+1
 842 0068 8F030000 		.word	.L52+1
 843 006c 8F030000 		.word	.L52+1
 844 0070 8F030000 		.word	.L52+1
 845 0074 8F030000 		.word	.L52+1
 846 0078 8F030000 		.word	.L52+1
 847 007c 8F030000 		.word	.L52+1
 848 0080 8F030000 		.word	.L52+1
 849 0084 8F030000 		.word	.L52+1
 850 0088 8F030000 		.word	.L52+1
 851 008c 8F030000 		.word	.L52+1
 852 0090 8F030000 		.word	.L52+1
 853 0094 8F030000 		.word	.L52+1
 854 0098 8F030000 		.word	.L52+1
 855 009c 8F030000 		.word	.L52+1
 856 00a0 8F030000 		.word	.L52+1
 857 00a4 8F030000 		.word	.L52+1
 858 00a8 8F030000 		.word	.L52+1
 859 00ac 8F030000 		.word	.L52+1
 860 00b0 8F030000 		.word	.L52+1
 861 00b4 8F030000 		.word	.L52+1
 862 00b8 8F030000 		.word	.L52+1
 863 00bc 8F030000 		.word	.L52+1
 864 00c0 8F030000 		.word	.L52+1
 865 00c4 8F030000 		.word	.L52+1
 866 00c8 8F030000 		.word	.L52+1
 867 00cc 8F030000 		.word	.L52+1
 868 00d0 8F030000 		.word	.L52+1
 869 00d4 8F030000 		.word	.L52+1
 870 00d8 8F030000 		.word	.L52+1
 871 00dc 8F030000 		.word	.L52+1
 872 00e0 8F030000 		.word	.L52+1
 873 00e4 8F030000 		.word	.L52+1
 874 00e8 55030000 		.word	.L55+1
 875 00ec 8F030000 		.word	.L52+1
 876 00f0 8F030000 		.word	.L52+1
 877 00f4 8F030000 		.word	.L52+1
 878 00f8 8F030000 		.word	.L52+1
ARM GAS  /var/folders/d2/nstgp4h54kz7g1l847x_b8wc0000gn/T//ccMD7GjH.s 			page 19


 879 00fc 8F030000 		.word	.L52+1
 880 0100 8F030000 		.word	.L52+1
 881 0104 8F030000 		.word	.L52+1
 882 0108 8F030000 		.word	.L52+1
 883 010c 8F030000 		.word	.L52+1
 884 0110 33030000 		.word	.L56+1
 885 0114 8F030000 		.word	.L52+1
 886 0118 8F030000 		.word	.L52+1
 887 011c 8F030000 		.word	.L52+1
 888 0120 8F030000 		.word	.L52+1
 889 0124 8F030000 		.word	.L52+1
 890 0128 8F030000 		.word	.L52+1
 891 012c 8F030000 		.word	.L52+1
 892 0130 8F030000 		.word	.L52+1
 893 0134 8F030000 		.word	.L52+1
 894 0138 17030000 		.word	.L57+1
 895 013c 8F030000 		.word	.L52+1
 896 0140 8F030000 		.word	.L52+1
 897 0144 8F030000 		.word	.L52+1
 898 0148 8F030000 		.word	.L52+1
 899 014c 8F030000 		.word	.L52+1
 900 0150 8F030000 		.word	.L52+1
 901 0154 8F030000 		.word	.L52+1
 902 0158 8F030000 		.word	.L52+1
 903 015c 8F030000 		.word	.L52+1
 904 0160 FD020000 		.word	.L58+1
 905 0164 8F030000 		.word	.L52+1
 906 0168 8F030000 		.word	.L52+1
 907 016c 8F030000 		.word	.L52+1
 908 0170 8F030000 		.word	.L52+1
 909 0174 8F030000 		.word	.L52+1
 910 0178 8F030000 		.word	.L52+1
 911 017c 8F030000 		.word	.L52+1
 912 0180 49020000 		.word	.L59+1
 913 0184 DF020000 		.word	.L60+1
 914 0188 C7020000 		.word	.L61+1
 915 018c AF020000 		.word	.L62+1
 916 0190 91020000 		.word	.L63+1
 917 0194 77020000 		.word	.L64+1
 918 0198 65020000 		.word	.L65+1
 919 019c 31020000 		.word	.L66+1
 920 01a0 13020000 		.word	.L67+1
 921 01a4 FF010000 		.word	.L68+1
 922 01a8 E7010000 		.word	.L69+1
 923 01ac C9010000 		.word	.L70+1
 924 01b0 B5010000 		.word	.L71+1
 925              		.p2align 1
 926              	.L71:
 927 01b4 3B68     		ldr	r3, [r7]
 928 01b6 8049     		ldr	r1, .L74
 929 01b8 1A46     		mov	r2, r3
 930 01ba 0B46     		mov	r3, r1
 931 01bc 03CB     		ldmia	r3!, {r0, r1}
 932 01be 1060     		str	r0, [r2]	@ unaligned
 933 01c0 5160     		str	r1, [r2, #4]	@ unaligned
 934 01c2 1B78     		ldrb	r3, [r3]
 935 01c4 1372     		strb	r3, [r2, #8]
ARM GAS  /var/folders/d2/nstgp4h54kz7g1l847x_b8wc0000gn/T//ccMD7GjH.s 			page 20


 936 01c6 F0E0     		b	.L72
 937              	.L70:
 938 01c8 3B68     		ldr	r3, [r7]
 939 01ca 7C4A     		ldr	r2, .L74+4
 940 01cc 1D46     		mov	r5, r3
 941 01ce 1446     		mov	r4, r2
 942 01d0 0FCC     		ldmia	r4!, {r0, r1, r2, r3}
 943 01d2 2860     		str	r0, [r5]	@ unaligned
 944 01d4 6960     		str	r1, [r5, #4]	@ unaligned
 945 01d6 AA60     		str	r2, [r5, #8]	@ unaligned
 946 01d8 EB60     		str	r3, [r5, #12]	@ unaligned
 947 01da 03CC     		ldmia	r4!, {r0, r1}
 948 01dc 2861     		str	r0, [r5, #16]	@ unaligned
 949 01de 6961     		str	r1, [r5, #20]	@ unaligned
 950 01e0 2388     		ldrh	r3, [r4]	@ unaligned
 951 01e2 2B83     		strh	r3, [r5, #24]	@ unaligned
 952 01e4 E1E0     		b	.L72
 953              	.L69:
 954 01e6 3B68     		ldr	r3, [r7]
 955 01e8 754A     		ldr	r2, .L74+8
 956 01ea 1D46     		mov	r5, r3
 957 01ec 1446     		mov	r4, r2
 958 01ee 0FCC     		ldmia	r4!, {r0, r1, r2, r3}
 959 01f0 2860     		str	r0, [r5]	@ unaligned
 960 01f2 6960     		str	r1, [r5, #4]	@ unaligned
 961 01f4 AA60     		str	r2, [r5, #8]	@ unaligned
 962 01f6 EB60     		str	r3, [r5, #12]	@ unaligned
 963 01f8 2388     		ldrh	r3, [r4]	@ unaligned
 964 01fa 2B82     		strh	r3, [r5, #16]	@ unaligned
 965 01fc D5E0     		b	.L72
 966              	.L68:
 967 01fe 3B68     		ldr	r3, [r7]
 968 0200 704A     		ldr	r2, .L74+12
 969 0202 1C46     		mov	r4, r3
 970 0204 1546     		mov	r5, r2
 971 0206 0FCD     		ldmia	r5!, {r0, r1, r2, r3}
 972 0208 2060     		str	r0, [r4]	@ unaligned
 973 020a 6160     		str	r1, [r4, #4]	@ unaligned
 974 020c A260     		str	r2, [r4, #8]	@ unaligned
 975 020e E360     		str	r3, [r4, #12]	@ unaligned
 976 0210 CBE0     		b	.L72
 977              	.L67:
 978 0212 3B68     		ldr	r3, [r7]
 979 0214 6C4A     		ldr	r2, .L74+16
 980 0216 1D46     		mov	r5, r3
 981 0218 1446     		mov	r4, r2
 982 021a 0FCC     		ldmia	r4!, {r0, r1, r2, r3}
 983 021c 2860     		str	r0, [r5]	@ unaligned
 984 021e 6960     		str	r1, [r5, #4]	@ unaligned
 985 0220 AA60     		str	r2, [r5, #8]	@ unaligned
 986 0222 EB60     		str	r3, [r5, #12]	@ unaligned
 987 0224 03CC     		ldmia	r4!, {r0, r1}
 988 0226 2861     		str	r0, [r5, #16]	@ unaligned
 989 0228 6961     		str	r1, [r5, #20]	@ unaligned
 990 022a 2378     		ldrb	r3, [r4]
 991 022c 2B76     		strb	r3, [r5, #24]
 992 022e BCE0     		b	.L72
ARM GAS  /var/folders/d2/nstgp4h54kz7g1l847x_b8wc0000gn/T//ccMD7GjH.s 			page 21


 993              	.L66:
 994 0230 3B68     		ldr	r3, [r7]
 995 0232 664A     		ldr	r2, .L74+20
 996 0234 1D46     		mov	r5, r3
 997 0236 1446     		mov	r4, r2
 998 0238 0FCC     		ldmia	r4!, {r0, r1, r2, r3}
 999 023a 2860     		str	r0, [r5]	@ unaligned
 1000 023c 6960     		str	r1, [r5, #4]	@ unaligned
 1001 023e AA60     		str	r2, [r5, #8]	@ unaligned
 1002 0240 EB60     		str	r3, [r5, #12]	@ unaligned
 1003 0242 2068     		ldr	r0, [r4]
 1004 0244 2861     		str	r0, [r5, #16]	@ unaligned
 1005 0246 B0E0     		b	.L72
 1006              	.L59:
 1007 0248 3B68     		ldr	r3, [r7]
 1008 024a 614A     		ldr	r2, .L74+24
 1009 024c 1D46     		mov	r5, r3
 1010 024e 1446     		mov	r4, r2
 1011 0250 0FCC     		ldmia	r4!, {r0, r1, r2, r3}
 1012 0252 2860     		str	r0, [r5]	@ unaligned
 1013 0254 6960     		str	r1, [r5, #4]	@ unaligned
 1014 0256 AA60     		str	r2, [r5, #8]	@ unaligned
 1015 0258 EB60     		str	r3, [r5, #12]	@ unaligned
 1016 025a 2068     		ldr	r0, [r4]
 1017 025c 2861     		str	r0, [r5, #16]	@ unaligned
 1018 025e A388     		ldrh	r3, [r4, #4]	@ unaligned
 1019 0260 AB82     		strh	r3, [r5, #20]	@ unaligned
 1020 0262 A2E0     		b	.L72
 1021              	.L65:
 1022 0264 3B68     		ldr	r3, [r7]
 1023 0266 5B4A     		ldr	r2, .L74+28
 1024 0268 1C46     		mov	r4, r3
 1025 026a 1346     		mov	r3, r2
 1026 026c 07CB     		ldmia	r3!, {r0, r1, r2}
 1027 026e 2060     		str	r0, [r4]	@ unaligned
 1028 0270 6160     		str	r1, [r4, #4]	@ unaligned
 1029 0272 A260     		str	r2, [r4, #8]	@ unaligned
 1030 0274 99E0     		b	.L72
 1031              	.L64:
 1032 0276 3B68     		ldr	r3, [r7]
 1033 0278 574A     		ldr	r2, .L74+32
 1034 027a 1C46     		mov	r4, r3
 1035 027c 1346     		mov	r3, r2
 1036 027e 07CB     		ldmia	r3!, {r0, r1, r2}
 1037 0280 2060     		str	r0, [r4]	@ unaligned
 1038 0282 6160     		str	r1, [r4, #4]	@ unaligned
 1039 0284 A260     		str	r2, [r4, #8]	@ unaligned
 1040 0286 1A88     		ldrh	r2, [r3]	@ unaligned
 1041 0288 9B78     		ldrb	r3, [r3, #2]
 1042 028a A281     		strh	r2, [r4, #12]	@ unaligned
 1043 028c A373     		strb	r3, [r4, #14]
 1044 028e 8CE0     		b	.L72
 1045              	.L63:
 1046 0290 3B68     		ldr	r3, [r7]
 1047 0292 524A     		ldr	r2, .L74+36
 1048 0294 1D46     		mov	r5, r3
 1049 0296 1446     		mov	r4, r2
ARM GAS  /var/folders/d2/nstgp4h54kz7g1l847x_b8wc0000gn/T//ccMD7GjH.s 			page 22


 1050 0298 0FCC     		ldmia	r4!, {r0, r1, r2, r3}
 1051 029a 2860     		str	r0, [r5]	@ unaligned
 1052 029c 6960     		str	r1, [r5, #4]	@ unaligned
 1053 029e AA60     		str	r2, [r5, #8]	@ unaligned
 1054 02a0 EB60     		str	r3, [r5, #12]	@ unaligned
 1055 02a2 03CC     		ldmia	r4!, {r0, r1}
 1056 02a4 2861     		str	r0, [r5, #16]	@ unaligned
 1057 02a6 6961     		str	r1, [r5, #20]	@ unaligned
 1058 02a8 2378     		ldrb	r3, [r4]
 1059 02aa 2B76     		strb	r3, [r5, #24]
 1060 02ac 7DE0     		b	.L72
 1061              	.L62:
 1062 02ae 3B68     		ldr	r3, [r7]
 1063 02b0 4B4A     		ldr	r2, .L74+40
 1064 02b2 1D46     		mov	r5, r3
 1065 02b4 1446     		mov	r4, r2
 1066 02b6 0FCC     		ldmia	r4!, {r0, r1, r2, r3}
 1067 02b8 2860     		str	r0, [r5]	@ unaligned
 1068 02ba 6960     		str	r1, [r5, #4]	@ unaligned
 1069 02bc AA60     		str	r2, [r5, #8]	@ unaligned
 1070 02be EB60     		str	r3, [r5, #12]	@ unaligned
 1071 02c0 2378     		ldrb	r3, [r4]
 1072 02c2 2B74     		strb	r3, [r5, #16]
 1073 02c4 71E0     		b	.L72
 1074              	.L61:
 1075 02c6 3B68     		ldr	r3, [r7]
 1076 02c8 464A     		ldr	r2, .L74+44
 1077 02ca 1D46     		mov	r5, r3
 1078 02cc 1446     		mov	r4, r2
 1079 02ce 0FCC     		ldmia	r4!, {r0, r1, r2, r3}
 1080 02d0 2860     		str	r0, [r5]	@ unaligned
 1081 02d2 6960     		str	r1, [r5, #4]	@ unaligned
 1082 02d4 AA60     		str	r2, [r5, #8]	@ unaligned
 1083 02d6 EB60     		str	r3, [r5, #12]	@ unaligned
 1084 02d8 2388     		ldrh	r3, [r4]	@ unaligned
 1085 02da 2B82     		strh	r3, [r5, #16]	@ unaligned
 1086 02dc 65E0     		b	.L72
 1087              	.L60:
 1088 02de 3B68     		ldr	r3, [r7]
 1089 02e0 414A     		ldr	r2, .L74+48
 1090 02e2 1D46     		mov	r5, r3
 1091 02e4 1446     		mov	r4, r2
 1092 02e6 0FCC     		ldmia	r4!, {r0, r1, r2, r3}
 1093 02e8 2860     		str	r0, [r5]	@ unaligned
 1094 02ea 6960     		str	r1, [r5, #4]	@ unaligned
 1095 02ec AA60     		str	r2, [r5, #8]	@ unaligned
 1096 02ee EB60     		str	r3, [r5, #12]	@ unaligned
 1097 02f0 03CC     		ldmia	r4!, {r0, r1}
 1098 02f2 2861     		str	r0, [r5, #16]	@ unaligned
 1099 02f4 6961     		str	r1, [r5, #20]	@ unaligned
 1100 02f6 2378     		ldrb	r3, [r4]
 1101 02f8 2B76     		strb	r3, [r5, #24]
 1102 02fa 56E0     		b	.L72
 1103              	.L58:
 1104 02fc 3B68     		ldr	r3, [r7]
 1105 02fe 3B4A     		ldr	r2, .L74+52
 1106 0300 1D46     		mov	r5, r3
ARM GAS  /var/folders/d2/nstgp4h54kz7g1l847x_b8wc0000gn/T//ccMD7GjH.s 			page 23


 1107 0302 1446     		mov	r4, r2
 1108 0304 0FCC     		ldmia	r4!, {r0, r1, r2, r3}
 1109 0306 2860     		str	r0, [r5]	@ unaligned
 1110 0308 6960     		str	r1, [r5, #4]	@ unaligned
 1111 030a AA60     		str	r2, [r5, #8]	@ unaligned
 1112 030c EB60     		str	r3, [r5, #12]	@ unaligned
 1113 030e 03CC     		ldmia	r4!, {r0, r1}
 1114 0310 2861     		str	r0, [r5, #16]	@ unaligned
 1115 0312 6961     		str	r1, [r5, #20]	@ unaligned
 1116 0314 49E0     		b	.L72
 1117              	.L57:
 1118 0316 3B68     		ldr	r3, [r7]
 1119 0318 354A     		ldr	r2, .L74+56
 1120 031a 1D46     		mov	r5, r3
 1121 031c 1446     		mov	r4, r2
 1122 031e 0FCC     		ldmia	r4!, {r0, r1, r2, r3}
 1123 0320 2860     		str	r0, [r5]	@ unaligned
 1124 0322 6960     		str	r1, [r5, #4]	@ unaligned
 1125 0324 AA60     		str	r2, [r5, #8]	@ unaligned
 1126 0326 EB60     		str	r3, [r5, #12]	@ unaligned
 1127 0328 2068     		ldr	r0, [r4]
 1128 032a 2861     		str	r0, [r5, #16]	@ unaligned
 1129 032c A388     		ldrh	r3, [r4, #4]	@ unaligned
 1130 032e AB82     		strh	r3, [r5, #20]	@ unaligned
 1131 0330 3BE0     		b	.L72
 1132              	.L56:
 1133 0332 3B68     		ldr	r3, [r7]
 1134 0334 2F4A     		ldr	r2, .L74+60
 1135 0336 1C46     		mov	r4, r3
 1136 0338 1546     		mov	r5, r2
 1137 033a 0FCD     		ldmia	r5!, {r0, r1, r2, r3}
 1138 033c 2060     		str	r0, [r4]	@ unaligned
 1139 033e 6160     		str	r1, [r4, #4]	@ unaligned
 1140 0340 A260     		str	r2, [r4, #8]	@ unaligned
 1141 0342 E360     		str	r3, [r4, #12]	@ unaligned
 1142 0344 2868     		ldr	r0, [r5]
 1143 0346 2061     		str	r0, [r4, #16]	@ unaligned
 1144 0348 AB88     		ldrh	r3, [r5, #4]	@ unaligned
 1145 034a AA79     		ldrb	r2, [r5, #6]
 1146 034c A382     		strh	r3, [r4, #20]	@ unaligned
 1147 034e 1346     		mov	r3, r2
 1148 0350 A375     		strb	r3, [r4, #22]
 1149 0352 2AE0     		b	.L72
 1150              	.L55:
 1151 0354 3B68     		ldr	r3, [r7]
 1152 0356 284A     		ldr	r2, .L74+64
 1153 0358 1D46     		mov	r5, r3
 1154 035a 1446     		mov	r4, r2
 1155 035c 0FCC     		ldmia	r4!, {r0, r1, r2, r3}
 1156 035e 2860     		str	r0, [r5]	@ unaligned
 1157 0360 6960     		str	r1, [r5, #4]	@ unaligned
 1158 0362 AA60     		str	r2, [r5, #8]	@ unaligned
 1159 0364 EB60     		str	r3, [r5, #12]	@ unaligned
 1160 0366 03CC     		ldmia	r4!, {r0, r1}
 1161 0368 2861     		str	r0, [r5, #16]	@ unaligned
 1162 036a 6961     		str	r1, [r5, #20]	@ unaligned
 1163 036c 2388     		ldrh	r3, [r4]	@ unaligned
ARM GAS  /var/folders/d2/nstgp4h54kz7g1l847x_b8wc0000gn/T//ccMD7GjH.s 			page 24


 1164 036e 2B83     		strh	r3, [r5, #24]	@ unaligned
 1165 0370 1BE0     		b	.L72
 1166              	.L53:
 1167 0372 3B68     		ldr	r3, [r7]
 1168 0374 214A     		ldr	r2, .L74+68
 1169 0376 1D46     		mov	r5, r3
 1170 0378 1446     		mov	r4, r2
 1171 037a 0FCC     		ldmia	r4!, {r0, r1, r2, r3}
 1172 037c 2860     		str	r0, [r5]	@ unaligned
 1173 037e 6960     		str	r1, [r5, #4]	@ unaligned
 1174 0380 AA60     		str	r2, [r5, #8]	@ unaligned
 1175 0382 EB60     		str	r3, [r5, #12]	@ unaligned
 1176 0384 2068     		ldr	r0, [r4]
 1177 0386 2861     		str	r0, [r5, #16]	@ unaligned
 1178 0388 A388     		ldrh	r3, [r4, #4]	@ unaligned
 1179 038a AB82     		strh	r3, [r5, #20]	@ unaligned
 1180 038c 0DE0     		b	.L72
 1181              	.L52:
 1182 038e 3B68     		ldr	r3, [r7]
 1183 0390 1B4A     		ldr	r2, .L74+72
 1184 0392 1D46     		mov	r5, r3
 1185 0394 1446     		mov	r4, r2
 1186 0396 0FCC     		ldmia	r4!, {r0, r1, r2, r3}
 1187 0398 2860     		str	r0, [r5]	@ unaligned
 1188 039a 6960     		str	r1, [r5, #4]	@ unaligned
 1189 039c AA60     		str	r2, [r5, #8]	@ unaligned
 1190 039e EB60     		str	r3, [r5, #12]	@ unaligned
 1191 03a0 2388     		ldrh	r3, [r4]	@ unaligned
 1192 03a2 A278     		ldrb	r2, [r4, #2]
 1193 03a4 2B82     		strh	r3, [r5, #16]	@ unaligned
 1194 03a6 1346     		mov	r3, r2
 1195 03a8 AB74     		strb	r3, [r5, #18]
 1196              	.L72:
 1197 03aa 97F90F30 		ldrsb	r3, [r7, #15]
 1198 03ae 1846     		mov	r0, r3
 1199 03b0 1437     		adds	r7, r7, #20
 1200 03b2 BD46     		mov	sp, r7
 1201              		@ sp needed
 1202 03b4 B0BC     		pop	{r4, r5, r7}
 1203 03b6 7047     		bx	lr
 1204              	.L75:
 1205              		.align	2
 1206              	.L74:
 1207 03b8 FC010000 		.word	.LC27
 1208 03bc 08020000 		.word	.LC28
 1209 03c0 24020000 		.word	.LC29
 1210 03c4 38020000 		.word	.LC30
 1211 03c8 48020000 		.word	.LC31
 1212 03cc 64020000 		.word	.LC32
 1213 03d0 78020000 		.word	.LC33
 1214 03d4 90020000 		.word	.LC34
 1215 03d8 9C020000 		.word	.LC35
 1216 03dc AC020000 		.word	.LC36
 1217 03e0 C8020000 		.word	.LC37
 1218 03e4 DC020000 		.word	.LC38
 1219 03e8 F0020000 		.word	.LC39
 1220 03ec 0C030000 		.word	.LC40
ARM GAS  /var/folders/d2/nstgp4h54kz7g1l847x_b8wc0000gn/T//ccMD7GjH.s 			page 25


 1221 03f0 24030000 		.word	.LC41
 1222 03f4 3C030000 		.word	.LC42
 1223 03f8 54030000 		.word	.LC43
 1224 03fc 70030000 		.word	.LC44
 1225 0400 98010000 		.word	.LC20
 1226              		.size	VL53L0X_get_pal_error_string, .-VL53L0X_get_pal_error_string
 1227              		.section	.rodata
 1228 0386 0000     		.align	2
 1229              	.LC45:
 1230 0388 504F5745 		.ascii	"POWERDOWN State\000"
 1230      52444F57 
 1230      4E205374 
 1230      61746500 
 1231              		.align	2
 1232              	.LC46:
 1233 0398 57616974 		.ascii	"Wait for staticinit State\000"
 1233      20666F72 
 1233      20737461 
 1233      74696369 
 1233      6E697420 
 1234 03b2 0000     		.align	2
 1235              	.LC47:
 1236 03b4 5354414E 		.ascii	"STANDBY State\000"
 1236      44425920 
 1236      53746174 
 1236      6500
 1237 03c2 0000     		.align	2
 1238              	.LC48:
 1239 03c4 49444C45 		.ascii	"IDLE State\000"
 1239      20537461 
 1239      746500
 1240 03cf 00       		.align	2
 1241              	.LC49:
 1242 03d0 52554E4E 		.ascii	"RUNNING State\000"
 1242      494E4720 
 1242      53746174 
 1242      6500
 1243 03de 0000     		.align	2
 1244              	.LC50:
 1245 03e0 554E4B4E 		.ascii	"UNKNOWN State\000"
 1245      4F574E20 
 1245      53746174 
 1245      6500
 1246 03ee 0000     		.align	2
 1247              	.LC51:
 1248 03f0 4552524F 		.ascii	"ERROR State\000"
 1248      52205374 
 1248      61746500 
 1249              		.section	.text.VL53L0X_get_pal_state_string,"ax",%progbits
 1250              		.align	1
 1251              		.global	VL53L0X_get_pal_state_string
 1252              		.syntax unified
 1253              		.thumb
 1254              		.thumb_func
 1255              		.fpu fpv4-sp-d16
 1256              		.type	VL53L0X_get_pal_state_string, %function
 1257              	VL53L0X_get_pal_state_string:
ARM GAS  /var/folders/d2/nstgp4h54kz7g1l847x_b8wc0000gn/T//ccMD7GjH.s 			page 26


 1258              		@ args = 0, pretend = 0, frame = 16
 1259              		@ frame_needed = 1, uses_anonymous_args = 0
 1260              		@ link register save eliminated.
 1261 0000 B0B4     		push	{r4, r5, r7}
 1262 0002 85B0     		sub	sp, sp, #20
 1263 0004 00AF     		add	r7, sp, #0
 1264 0006 0346     		mov	r3, r0
 1265 0008 3960     		str	r1, [r7]
 1266 000a FB71     		strb	r3, [r7, #7]
 1267 000c 0023     		movs	r3, #0
 1268 000e FB73     		strb	r3, [r7, #15]
 1269 0010 FB79     		ldrb	r3, [r7, #7]	@ zero_extendqisi2
 1270 0012 032B     		cmp	r3, #3
 1271 0014 33D0     		beq	.L78
 1272 0016 032B     		cmp	r3, #3
 1273 0018 06DC     		bgt	.L79
 1274 001a 012B     		cmp	r3, #1
 1275 001c 15D0     		beq	.L80
 1276 001e 012B     		cmp	r3, #1
 1277 0020 22DC     		bgt	.L81
 1278 0022 002B     		cmp	r3, #0
 1279 0024 07D0     		beq	.L82
 1280 0026 55E0     		b	.L77
 1281              	.L79:
 1282 0028 622B     		cmp	r3, #98
 1283 002a 3FD0     		beq	.L83
 1284 002c 632B     		cmp	r3, #99
 1285 002e 48D0     		beq	.L84
 1286 0030 042B     		cmp	r3, #4
 1287 0032 30D0     		beq	.L85
 1288 0034 4EE0     		b	.L77
 1289              	.L82:
 1290 0036 3B68     		ldr	r3, [r7]
 1291 0038 2F4A     		ldr	r2, .L88
 1292 003a 1C46     		mov	r4, r3
 1293 003c 1546     		mov	r5, r2
 1294 003e 0FCD     		ldmia	r5!, {r0, r1, r2, r3}
 1295 0040 2060     		str	r0, [r4]	@ unaligned
 1296 0042 6160     		str	r1, [r4, #4]	@ unaligned
 1297 0044 A260     		str	r2, [r4, #8]	@ unaligned
 1298 0046 E360     		str	r3, [r4, #12]	@ unaligned
 1299 0048 4EE0     		b	.L86
 1300              	.L80:
 1301 004a 3B68     		ldr	r3, [r7]
 1302 004c 2B4A     		ldr	r2, .L88+4
 1303 004e 1D46     		mov	r5, r3
 1304 0050 1446     		mov	r4, r2
 1305 0052 0FCC     		ldmia	r4!, {r0, r1, r2, r3}
 1306 0054 2860     		str	r0, [r5]	@ unaligned
 1307 0056 6960     		str	r1, [r5, #4]	@ unaligned
 1308 0058 AA60     		str	r2, [r5, #8]	@ unaligned
 1309 005a EB60     		str	r3, [r5, #12]	@ unaligned
 1310 005c 03CC     		ldmia	r4!, {r0, r1}
 1311 005e 2861     		str	r0, [r5, #16]	@ unaligned
 1312 0060 6961     		str	r1, [r5, #20]	@ unaligned
 1313 0062 2388     		ldrh	r3, [r4]	@ unaligned
 1314 0064 2B83     		strh	r3, [r5, #24]	@ unaligned
ARM GAS  /var/folders/d2/nstgp4h54kz7g1l847x_b8wc0000gn/T//ccMD7GjH.s 			page 27


 1315 0066 3FE0     		b	.L86
 1316              	.L81:
 1317 0068 3B68     		ldr	r3, [r7]
 1318 006a 254A     		ldr	r2, .L88+8
 1319 006c 1C46     		mov	r4, r3
 1320 006e 1346     		mov	r3, r2
 1321 0070 07CB     		ldmia	r3!, {r0, r1, r2}
 1322 0072 2060     		str	r0, [r4]	@ unaligned
 1323 0074 6160     		str	r1, [r4, #4]	@ unaligned
 1324 0076 A260     		str	r2, [r4, #8]	@ unaligned
 1325 0078 1B88     		ldrh	r3, [r3]	@ unaligned
 1326 007a A381     		strh	r3, [r4, #12]	@ unaligned
 1327 007c 34E0     		b	.L86
 1328              	.L78:
 1329 007e 3B68     		ldr	r3, [r7]
 1330 0080 2049     		ldr	r1, .L88+12
 1331 0082 1A46     		mov	r2, r3
 1332 0084 0B46     		mov	r3, r1
 1333 0086 03CB     		ldmia	r3!, {r0, r1}
 1334 0088 1060     		str	r0, [r2]	@ unaligned
 1335 008a 5160     		str	r1, [r2, #4]	@ unaligned
 1336 008c 1988     		ldrh	r1, [r3]	@ unaligned
 1337 008e 9B78     		ldrb	r3, [r3, #2]
 1338 0090 1181     		strh	r1, [r2, #8]	@ unaligned
 1339 0092 9372     		strb	r3, [r2, #10]
 1340 0094 28E0     		b	.L86
 1341              	.L85:
 1342 0096 3B68     		ldr	r3, [r7]
 1343 0098 1B4A     		ldr	r2, .L88+16
 1344 009a 1C46     		mov	r4, r3
 1345 009c 1346     		mov	r3, r2
 1346 009e 07CB     		ldmia	r3!, {r0, r1, r2}
 1347 00a0 2060     		str	r0, [r4]	@ unaligned
 1348 00a2 6160     		str	r1, [r4, #4]	@ unaligned
 1349 00a4 A260     		str	r2, [r4, #8]	@ unaligned
 1350 00a6 1B88     		ldrh	r3, [r3]	@ unaligned
 1351 00a8 A381     		strh	r3, [r4, #12]	@ unaligned
 1352 00aa 1DE0     		b	.L86
 1353              	.L83:
 1354 00ac 3B68     		ldr	r3, [r7]
 1355 00ae 174A     		ldr	r2, .L88+20
 1356 00b0 1C46     		mov	r4, r3
 1357 00b2 1346     		mov	r3, r2
 1358 00b4 07CB     		ldmia	r3!, {r0, r1, r2}
 1359 00b6 2060     		str	r0, [r4]	@ unaligned
 1360 00b8 6160     		str	r1, [r4, #4]	@ unaligned
 1361 00ba A260     		str	r2, [r4, #8]	@ unaligned
 1362 00bc 1B88     		ldrh	r3, [r3]	@ unaligned
 1363 00be A381     		strh	r3, [r4, #12]	@ unaligned
 1364 00c0 12E0     		b	.L86
 1365              	.L84:
 1366 00c2 3B68     		ldr	r3, [r7]
 1367 00c4 124A     		ldr	r2, .L88+24
 1368 00c6 1C46     		mov	r4, r3
 1369 00c8 1346     		mov	r3, r2
 1370 00ca 07CB     		ldmia	r3!, {r0, r1, r2}
 1371 00cc 2060     		str	r0, [r4]	@ unaligned
ARM GAS  /var/folders/d2/nstgp4h54kz7g1l847x_b8wc0000gn/T//ccMD7GjH.s 			page 28


 1372 00ce 6160     		str	r1, [r4, #4]	@ unaligned
 1373 00d0 A260     		str	r2, [r4, #8]	@ unaligned
 1374 00d2 09E0     		b	.L86
 1375              	.L77:
 1376 00d4 3B68     		ldr	r3, [r7]
 1377 00d6 0D4A     		ldr	r2, .L88+20
 1378 00d8 1C46     		mov	r4, r3
 1379 00da 1346     		mov	r3, r2
 1380 00dc 07CB     		ldmia	r3!, {r0, r1, r2}
 1381 00de 2060     		str	r0, [r4]	@ unaligned
 1382 00e0 6160     		str	r1, [r4, #4]	@ unaligned
 1383 00e2 A260     		str	r2, [r4, #8]	@ unaligned
 1384 00e4 1B88     		ldrh	r3, [r3]	@ unaligned
 1385 00e6 A381     		strh	r3, [r4, #12]	@ unaligned
 1386              	.L86:
 1387 00e8 97F90F30 		ldrsb	r3, [r7, #15]
 1388 00ec 1846     		mov	r0, r3
 1389 00ee 1437     		adds	r7, r7, #20
 1390 00f0 BD46     		mov	sp, r7
 1391              		@ sp needed
 1392 00f2 B0BC     		pop	{r4, r5, r7}
 1393 00f4 7047     		bx	lr
 1394              	.L89:
 1395 00f6 00BF     		.align	2
 1396              	.L88:
 1397 00f8 88030000 		.word	.LC45
 1398 00fc 98030000 		.word	.LC46
 1399 0100 B4030000 		.word	.LC47
 1400 0104 C4030000 		.word	.LC48
 1401 0108 D0030000 		.word	.LC49
 1402 010c E0030000 		.word	.LC50
 1403 0110 F0030000 		.word	.LC51
 1404              		.size	VL53L0X_get_pal_state_string, .-VL53L0X_get_pal_state_string
 1405              		.section	.rodata
 1406              		.align	2
 1407              	.LC52:
 1408 03fc 54434300 		.ascii	"TCC\000"
 1409              		.align	2
 1410              	.LC53:
 1411 0400 44535300 		.ascii	"DSS\000"
 1412              		.align	2
 1413              	.LC54:
 1414 0404 4D535243 		.ascii	"MSRC\000"
 1414      00
 1415 0409 000000   		.align	2
 1416              	.LC55:
 1417 040c 50524520 		.ascii	"PRE RANGE\000"
 1417      52414E47 
 1417      4500
 1418 0416 0000     		.align	2
 1419              	.LC56:
 1420 0418 46494E41 		.ascii	"FINAL RANGE\000"
 1420      4C205241 
 1420      4E474500 
 1421              		.section	.text.VL53L0X_get_sequence_steps_info,"ax",%progbits
 1422              		.align	1
 1423              		.global	VL53L0X_get_sequence_steps_info
ARM GAS  /var/folders/d2/nstgp4h54kz7g1l847x_b8wc0000gn/T//ccMD7GjH.s 			page 29


 1424              		.syntax unified
 1425              		.thumb
 1426              		.thumb_func
 1427              		.fpu fpv4-sp-d16
 1428              		.type	VL53L0X_get_sequence_steps_info, %function
 1429              	VL53L0X_get_sequence_steps_info:
 1430              		@ args = 0, pretend = 0, frame = 16
 1431              		@ frame_needed = 1, uses_anonymous_args = 0
 1432              		@ link register save eliminated.
 1433 0000 90B4     		push	{r4, r7}
 1434 0002 84B0     		sub	sp, sp, #16
 1435 0004 00AF     		add	r7, sp, #0
 1436 0006 0346     		mov	r3, r0
 1437 0008 3960     		str	r1, [r7]
 1438 000a FB71     		strb	r3, [r7, #7]
 1439 000c 0023     		movs	r3, #0
 1440 000e FB73     		strb	r3, [r7, #15]
 1441 0010 FB79     		ldrb	r3, [r7, #7]	@ zero_extendqisi2
 1442 0012 042B     		cmp	r3, #4
 1443 0014 30D8     		bhi	.L91
 1444 0016 01A2     		adr	r2, .L93
 1445 0018 52F823F0 		ldr	pc, [r2, r3, lsl #2]
 1446              		.p2align 2
 1447              	.L93:
 1448 001c 31000000 		.word	.L92+1
 1449 0020 3B000000 		.word	.L94+1
 1450 0024 45000000 		.word	.L95+1
 1451 0028 53000000 		.word	.L96+1
 1452 002c 67000000 		.word	.L97+1
 1453              		.p2align 1
 1454              	.L92:
 1455 0030 3B68     		ldr	r3, [r7]
 1456 0032 164A     		ldr	r2, .L100
 1457 0034 1068     		ldr	r0, [r2]
 1458 0036 1860     		str	r0, [r3]	@ unaligned
 1459 0038 20E0     		b	.L98
 1460              	.L94:
 1461 003a 3B68     		ldr	r3, [r7]
 1462 003c 144A     		ldr	r2, .L100+4
 1463 003e 1068     		ldr	r0, [r2]
 1464 0040 1860     		str	r0, [r3]	@ unaligned
 1465 0042 1BE0     		b	.L98
 1466              	.L95:
 1467 0044 3B68     		ldr	r3, [r7]
 1468 0046 134A     		ldr	r2, .L100+8
 1469 0048 1068     		ldr	r0, [r2]
 1470 004a 1860     		str	r0, [r3]	@ unaligned
 1471 004c 1279     		ldrb	r2, [r2, #4]
 1472 004e 1A71     		strb	r2, [r3, #4]
 1473 0050 14E0     		b	.L98
 1474              	.L96:
 1475 0052 3B68     		ldr	r3, [r7]
 1476 0054 1049     		ldr	r1, .L100+12
 1477 0056 1A46     		mov	r2, r3
 1478 0058 0B46     		mov	r3, r1
 1479 005a 03CB     		ldmia	r3!, {r0, r1}
 1480 005c 1060     		str	r0, [r2]	@ unaligned
ARM GAS  /var/folders/d2/nstgp4h54kz7g1l847x_b8wc0000gn/T//ccMD7GjH.s 			page 30


 1481 005e 5160     		str	r1, [r2, #4]	@ unaligned
 1482 0060 1B88     		ldrh	r3, [r3]	@ unaligned
 1483 0062 1381     		strh	r3, [r2, #8]	@ unaligned
 1484 0064 0AE0     		b	.L98
 1485              	.L97:
 1486 0066 3B68     		ldr	r3, [r7]
 1487 0068 0C4A     		ldr	r2, .L100+16
 1488 006a 1C46     		mov	r4, r3
 1489 006c 1346     		mov	r3, r2
 1490 006e 07CB     		ldmia	r3!, {r0, r1, r2}
 1491 0070 2060     		str	r0, [r4]	@ unaligned
 1492 0072 6160     		str	r1, [r4, #4]	@ unaligned
 1493 0074 A260     		str	r2, [r4, #8]	@ unaligned
 1494 0076 01E0     		b	.L98
 1495              	.L91:
 1496 0078 FC23     		movs	r3, #252
 1497 007a FB73     		strb	r3, [r7, #15]
 1498              	.L98:
 1499 007c 97F90F30 		ldrsb	r3, [r7, #15]
 1500 0080 1846     		mov	r0, r3
 1501 0082 1037     		adds	r7, r7, #16
 1502 0084 BD46     		mov	sp, r7
 1503              		@ sp needed
 1504 0086 90BC     		pop	{r4, r7}
 1505 0088 7047     		bx	lr
 1506              	.L101:
 1507 008a 00BF     		.align	2
 1508              	.L100:
 1509 008c FC030000 		.word	.LC52
 1510 0090 00040000 		.word	.LC53
 1511 0094 04040000 		.word	.LC54
 1512 0098 0C040000 		.word	.LC55
 1513 009c 18040000 		.word	.LC56
 1514              		.size	VL53L0X_get_sequence_steps_info, .-VL53L0X_get_sequence_steps_info
 1515              		.section	.rodata
 1516              		.align	2
 1517              	.LC57:
 1518 0424 5349474D 		.ascii	"SIGMA FINAL RANGE\000"
 1518      41204649 
 1518      4E414C20 
 1518      52414E47 
 1518      4500
 1519 0436 0000     		.align	2
 1520              	.LC58:
 1521 0438 5349474E 		.ascii	"SIGNAL RATE FINAL RANGE\000"
 1521      414C2052 
 1521      41544520 
 1521      46494E41 
 1521      4C205241 
 1522              		.align	2
 1523              	.LC59:
 1524 0450 5349474E 		.ascii	"SIGNAL REF CLIP\000"
 1524      414C2052 
 1524      45462043 
 1524      4C495000 
 1525              		.align	2
 1526              	.LC60:
ARM GAS  /var/folders/d2/nstgp4h54kz7g1l847x_b8wc0000gn/T//ccMD7GjH.s 			page 31


 1527 0460 52414E47 		.ascii	"RANGE IGNORE THRESHOLD\000"
 1527      45204947 
 1527      4E4F5245 
 1527      20544852 
 1527      4553484F 
 1528 0477 00       		.align	2
 1529              	.LC61:
 1530 0478 5349474E 		.ascii	"SIGNAL RATE MSRC\000"
 1530      414C2052 
 1530      41544520 
 1530      4D535243 
 1530      00
 1531 0489 000000   		.align	2
 1532              	.LC62:
 1533 048c 5349474E 		.ascii	"SIGNAL RATE PRE RANGE\000"
 1533      414C2052 
 1533      41544520 
 1533      50524520 
 1533      52414E47 
 1534              		.section	.text.VL53L0X_get_limit_check_info,"ax",%progbits
 1535              		.align	1
 1536              		.global	VL53L0X_get_limit_check_info
 1537              		.syntax unified
 1538              		.thumb
 1539              		.thumb_func
 1540              		.fpu fpv4-sp-d16
 1541              		.type	VL53L0X_get_limit_check_info, %function
 1542              	VL53L0X_get_limit_check_info:
 1543              		@ args = 0, pretend = 0, frame = 24
 1544              		@ frame_needed = 1, uses_anonymous_args = 0
 1545              		@ link register save eliminated.
 1546 0000 B0B4     		push	{r4, r5, r7}
 1547 0002 87B0     		sub	sp, sp, #28
 1548 0004 00AF     		add	r7, sp, #0
 1549 0006 F860     		str	r0, [r7, #12]
 1550 0008 0B46     		mov	r3, r1
 1551 000a 7A60     		str	r2, [r7, #4]
 1552 000c 7B81     		strh	r3, [r7, #10]	@ movhi
 1553 000e 0023     		movs	r3, #0
 1554 0010 FB75     		strb	r3, [r7, #23]
 1555 0012 7B89     		ldrh	r3, [r7, #10]
 1556 0014 052B     		cmp	r3, #5
 1557 0016 5DD8     		bhi	.L103
 1558 0018 01A2     		adr	r2, .L105
 1559 001a 52F823F0 		ldr	pc, [r2, r3, lsl #2]
 1560 001e 00BF     		.p2align 2
 1561              	.L105:
 1562 0020 39000000 		.word	.L104+1
 1563 0024 51000000 		.word	.L106+1
 1564 0028 6B000000 		.word	.L107+1
 1565 002c 7F000000 		.word	.L108+1
 1566 0030 A1000000 		.word	.L109+1
 1567 0034 B9000000 		.word	.L110+1
 1568              		.p2align 1
 1569              	.L104:
 1570 0038 7B68     		ldr	r3, [r7, #4]
 1571 003a 314A     		ldr	r2, .L113
ARM GAS  /var/folders/d2/nstgp4h54kz7g1l847x_b8wc0000gn/T//ccMD7GjH.s 			page 32


 1572 003c 1D46     		mov	r5, r3
 1573 003e 1446     		mov	r4, r2
 1574 0040 0FCC     		ldmia	r4!, {r0, r1, r2, r3}
 1575 0042 2860     		str	r0, [r5]	@ unaligned
 1576 0044 6960     		str	r1, [r5, #4]	@ unaligned
 1577 0046 AA60     		str	r2, [r5, #8]	@ unaligned
 1578 0048 EB60     		str	r3, [r5, #12]	@ unaligned
 1579 004a 2388     		ldrh	r3, [r4]	@ unaligned
 1580 004c 2B82     		strh	r3, [r5, #16]	@ unaligned
 1581 004e 4FE0     		b	.L111
 1582              	.L106:
 1583 0050 7B68     		ldr	r3, [r7, #4]
 1584 0052 2C4A     		ldr	r2, .L113+4
 1585 0054 1D46     		mov	r5, r3
 1586 0056 1446     		mov	r4, r2
 1587 0058 0FCC     		ldmia	r4!, {r0, r1, r2, r3}
 1588 005a 2860     		str	r0, [r5]	@ unaligned
 1589 005c 6960     		str	r1, [r5, #4]	@ unaligned
 1590 005e AA60     		str	r2, [r5, #8]	@ unaligned
 1591 0060 EB60     		str	r3, [r5, #12]	@ unaligned
 1592 0062 03CC     		ldmia	r4!, {r0, r1}
 1593 0064 2861     		str	r0, [r5, #16]	@ unaligned
 1594 0066 6961     		str	r1, [r5, #20]	@ unaligned
 1595 0068 42E0     		b	.L111
 1596              	.L107:
 1597 006a 7B68     		ldr	r3, [r7, #4]
 1598 006c 264A     		ldr	r2, .L113+8
 1599 006e 1C46     		mov	r4, r3
 1600 0070 1546     		mov	r5, r2
 1601 0072 0FCD     		ldmia	r5!, {r0, r1, r2, r3}
 1602 0074 2060     		str	r0, [r4]	@ unaligned
 1603 0076 6160     		str	r1, [r4, #4]	@ unaligned
 1604 0078 A260     		str	r2, [r4, #8]	@ unaligned
 1605 007a E360     		str	r3, [r4, #12]	@ unaligned
 1606 007c 38E0     		b	.L111
 1607              	.L108:
 1608 007e 7B68     		ldr	r3, [r7, #4]
 1609 0080 224A     		ldr	r2, .L113+12
 1610 0082 1C46     		mov	r4, r3
 1611 0084 1546     		mov	r5, r2
 1612 0086 0FCD     		ldmia	r5!, {r0, r1, r2, r3}
 1613 0088 2060     		str	r0, [r4]	@ unaligned
 1614 008a 6160     		str	r1, [r4, #4]	@ unaligned
 1615 008c A260     		str	r2, [r4, #8]	@ unaligned
 1616 008e E360     		str	r3, [r4, #12]	@ unaligned
 1617 0090 2868     		ldr	r0, [r5]
 1618 0092 2061     		str	r0, [r4, #16]	@ unaligned
 1619 0094 AB88     		ldrh	r3, [r5, #4]	@ unaligned
 1620 0096 AA79     		ldrb	r2, [r5, #6]
 1621 0098 A382     		strh	r3, [r4, #20]	@ unaligned
 1622 009a 1346     		mov	r3, r2
 1623 009c A375     		strb	r3, [r4, #22]
 1624 009e 27E0     		b	.L111
 1625              	.L109:
 1626 00a0 7B68     		ldr	r3, [r7, #4]
 1627 00a2 1B4A     		ldr	r2, .L113+16
 1628 00a4 1D46     		mov	r5, r3
ARM GAS  /var/folders/d2/nstgp4h54kz7g1l847x_b8wc0000gn/T//ccMD7GjH.s 			page 33


 1629 00a6 1446     		mov	r4, r2
 1630 00a8 0FCC     		ldmia	r4!, {r0, r1, r2, r3}
 1631 00aa 2860     		str	r0, [r5]	@ unaligned
 1632 00ac 6960     		str	r1, [r5, #4]	@ unaligned
 1633 00ae AA60     		str	r2, [r5, #8]	@ unaligned
 1634 00b0 EB60     		str	r3, [r5, #12]	@ unaligned
 1635 00b2 2378     		ldrb	r3, [r4]
 1636 00b4 2B74     		strb	r3, [r5, #16]
 1637 00b6 1BE0     		b	.L111
 1638              	.L110:
 1639 00b8 7B68     		ldr	r3, [r7, #4]
 1640 00ba 164A     		ldr	r2, .L113+20
 1641 00bc 1D46     		mov	r5, r3
 1642 00be 1446     		mov	r4, r2
 1643 00c0 0FCC     		ldmia	r4!, {r0, r1, r2, r3}
 1644 00c2 2860     		str	r0, [r5]	@ unaligned
 1645 00c4 6960     		str	r1, [r5, #4]	@ unaligned
 1646 00c6 AA60     		str	r2, [r5, #8]	@ unaligned
 1647 00c8 EB60     		str	r3, [r5, #12]	@ unaligned
 1648 00ca 2068     		ldr	r0, [r4]
 1649 00cc 2861     		str	r0, [r5, #16]	@ unaligned
 1650 00ce A388     		ldrh	r3, [r4, #4]	@ unaligned
 1651 00d0 AB82     		strh	r3, [r5, #20]	@ unaligned
 1652 00d2 0DE0     		b	.L111
 1653              	.L103:
 1654 00d4 7B68     		ldr	r3, [r7, #4]
 1655 00d6 104A     		ldr	r2, .L113+24
 1656 00d8 1D46     		mov	r5, r3
 1657 00da 1446     		mov	r4, r2
 1658 00dc 0FCC     		ldmia	r4!, {r0, r1, r2, r3}
 1659 00de 2860     		str	r0, [r5]	@ unaligned
 1660 00e0 6960     		str	r1, [r5, #4]	@ unaligned
 1661 00e2 AA60     		str	r2, [r5, #8]	@ unaligned
 1662 00e4 EB60     		str	r3, [r5, #12]	@ unaligned
 1663 00e6 2388     		ldrh	r3, [r4]	@ unaligned
 1664 00e8 A278     		ldrb	r2, [r4, #2]
 1665 00ea 2B82     		strh	r3, [r5, #16]	@ unaligned
 1666 00ec 1346     		mov	r3, r2
 1667 00ee AB74     		strb	r3, [r5, #18]
 1668              	.L111:
 1669 00f0 97F91730 		ldrsb	r3, [r7, #23]
 1670 00f4 1846     		mov	r0, r3
 1671 00f6 1C37     		adds	r7, r7, #28
 1672 00f8 BD46     		mov	sp, r7
 1673              		@ sp needed
 1674 00fa B0BC     		pop	{r4, r5, r7}
 1675 00fc 7047     		bx	lr
 1676              	.L114:
 1677 00fe 00BF     		.align	2
 1678              	.L113:
 1679 0100 24040000 		.word	.LC57
 1680 0104 38040000 		.word	.LC58
 1681 0108 50040000 		.word	.LC59
 1682 010c 60040000 		.word	.LC60
 1683 0110 78040000 		.word	.LC61
 1684 0114 8C040000 		.word	.LC62
 1685 0118 98010000 		.word	.LC20
ARM GAS  /var/folders/d2/nstgp4h54kz7g1l847x_b8wc0000gn/T//ccMD7GjH.s 			page 34


 1686              		.size	VL53L0X_get_limit_check_info, .-VL53L0X_get_limit_check_info
 1687              		.ident	"GCC: (GNU Tools for Arm Embedded Processors 7-2017-q4-major) 7.2.1 20170904 (release) [ARM
ARM GAS  /var/folders/d2/nstgp4h54kz7g1l847x_b8wc0000gn/T//ccMD7GjH.s 			page 35


DEFINED SYMBOLS
                            *ABS*:0000000000000000 vl53l0x_api_strings.c
/var/folders/d2/nstgp4h54kz7g1l847x_b8wc0000gn/T//ccMD7GjH.s:15     .text.VL53L0X_check_part_used:0000000000000000 $t
/var/folders/d2/nstgp4h54kz7g1l847x_b8wc0000gn/T//ccMD7GjH.s:22     .text.VL53L0X_check_part_used:0000000000000000 VL53L0X_check_part_used
/var/folders/d2/nstgp4h54kz7g1l847x_b8wc0000gn/T//ccMD7GjH.s:77     .rodata:0000000000000000 $d
/var/folders/d2/nstgp4h54kz7g1l847x_b8wc0000gn/T//ccMD7GjH.s:93     .text.VL53L0X_get_device_info:0000000000000000 $t
/var/folders/d2/nstgp4h54kz7g1l847x_b8wc0000gn/T//ccMD7GjH.s:100    .text.VL53L0X_get_device_info:0000000000000000 VL53L0X_get_device_info
/var/folders/d2/nstgp4h54kz7g1l847x_b8wc0000gn/T//ccMD7GjH.s:225    .text.VL53L0X_get_device_info:00000000000000f4 $d
/var/folders/d2/nstgp4h54kz7g1l847x_b8wc0000gn/T//ccMD7GjH.s:281    .text.VL53L0X_get_device_error_string:0000000000000000 $t
/var/folders/d2/nstgp4h54kz7g1l847x_b8wc0000gn/T//ccMD7GjH.s:288    .text.VL53L0X_get_device_error_string:0000000000000000 VL53L0X_get_device_error_string
/var/folders/d2/nstgp4h54kz7g1l847x_b8wc0000gn/T//ccMD7GjH.s:307    .text.VL53L0X_get_device_error_string:0000000000000020 $d
/var/folders/d2/nstgp4h54kz7g1l847x_b8wc0000gn/T//ccMD7GjH.s:322    .text.VL53L0X_get_device_error_string:000000000000005c $t
/var/folders/d2/nstgp4h54kz7g1l847x_b8wc0000gn/T//ccMD7GjH.s:571    .text.VL53L0X_get_device_error_string:0000000000000224 $d
/var/folders/d2/nstgp4h54kz7g1l847x_b8wc0000gn/T//ccMD7GjH.s:608    .text.VL53L0X_get_range_status_string:0000000000000000 $t
/var/folders/d2/nstgp4h54kz7g1l847x_b8wc0000gn/T//ccMD7GjH.s:615    .text.VL53L0X_get_range_status_string:0000000000000000 VL53L0X_get_range_status_string
/var/folders/d2/nstgp4h54kz7g1l847x_b8wc0000gn/T//ccMD7GjH.s:634    .text.VL53L0X_get_range_status_string:000000000000001c $d
/var/folders/d2/nstgp4h54kz7g1l847x_b8wc0000gn/T//ccMD7GjH.s:640    .text.VL53L0X_get_range_status_string:0000000000000034 $t
/var/folders/d2/nstgp4h54kz7g1l847x_b8wc0000gn/T//ccMD7GjH.s:734    .text.VL53L0X_get_range_status_string:00000000000000d8 $d
/var/folders/d2/nstgp4h54kz7g1l847x_b8wc0000gn/T//ccMD7GjH.s:798    .text.VL53L0X_get_pal_error_string:0000000000000000 $t
/var/folders/d2/nstgp4h54kz7g1l847x_b8wc0000gn/T//ccMD7GjH.s:805    .text.VL53L0X_get_pal_error_string:0000000000000000 VL53L0X_get_pal_error_string
/var/folders/d2/nstgp4h54kz7g1l847x_b8wc0000gn/T//ccMD7GjH.s:825    .text.VL53L0X_get_pal_error_string:0000000000000024 $d
/var/folders/d2/nstgp4h54kz7g1l847x_b8wc0000gn/T//ccMD7GjH.s:925    .text.VL53L0X_get_pal_error_string:00000000000001b4 $t
/var/folders/d2/nstgp4h54kz7g1l847x_b8wc0000gn/T//ccMD7GjH.s:1207   .text.VL53L0X_get_pal_error_string:00000000000003b8 $d
/var/folders/d2/nstgp4h54kz7g1l847x_b8wc0000gn/T//ccMD7GjH.s:1250   .text.VL53L0X_get_pal_state_string:0000000000000000 $t
/var/folders/d2/nstgp4h54kz7g1l847x_b8wc0000gn/T//ccMD7GjH.s:1257   .text.VL53L0X_get_pal_state_string:0000000000000000 VL53L0X_get_pal_state_string
/var/folders/d2/nstgp4h54kz7g1l847x_b8wc0000gn/T//ccMD7GjH.s:1397   .text.VL53L0X_get_pal_state_string:00000000000000f8 $d
/var/folders/d2/nstgp4h54kz7g1l847x_b8wc0000gn/T//ccMD7GjH.s:1422   .text.VL53L0X_get_sequence_steps_info:0000000000000000 $t
/var/folders/d2/nstgp4h54kz7g1l847x_b8wc0000gn/T//ccMD7GjH.s:1429   .text.VL53L0X_get_sequence_steps_info:0000000000000000 VL53L0X_get_sequence_steps_info
/var/folders/d2/nstgp4h54kz7g1l847x_b8wc0000gn/T//ccMD7GjH.s:1448   .text.VL53L0X_get_sequence_steps_info:000000000000001c $d
/var/folders/d2/nstgp4h54kz7g1l847x_b8wc0000gn/T//ccMD7GjH.s:1453   .text.VL53L0X_get_sequence_steps_info:0000000000000030 $t
/var/folders/d2/nstgp4h54kz7g1l847x_b8wc0000gn/T//ccMD7GjH.s:1509   .text.VL53L0X_get_sequence_steps_info:000000000000008c $d
/var/folders/d2/nstgp4h54kz7g1l847x_b8wc0000gn/T//ccMD7GjH.s:1535   .text.VL53L0X_get_limit_check_info:0000000000000000 $t
/var/folders/d2/nstgp4h54kz7g1l847x_b8wc0000gn/T//ccMD7GjH.s:1542   .text.VL53L0X_get_limit_check_info:0000000000000000 VL53L0X_get_limit_check_info
/var/folders/d2/nstgp4h54kz7g1l847x_b8wc0000gn/T//ccMD7GjH.s:1562   .text.VL53L0X_get_limit_check_info:0000000000000020 $d
/var/folders/d2/nstgp4h54kz7g1l847x_b8wc0000gn/T//ccMD7GjH.s:1568   .text.VL53L0X_get_limit_check_info:0000000000000038 $t
/var/folders/d2/nstgp4h54kz7g1l847x_b8wc0000gn/T//ccMD7GjH.s:1679   .text.VL53L0X_get_limit_check_info:0000000000000100 $d

UNDEFINED SYMBOLS
VL53L0X_get_info_from_device
strcpy
VL53L0X_RdByte
