ARM GAS  /var/folders/d2/nstgp4h54kz7g1l847x_b8wc0000gn/T//ccoy4Txs.s 			page 1


   1              		.cpu cortex-m4
   2              		.eabi_attribute 27, 1
   3              		.eabi_attribute 28, 1
   4              		.eabi_attribute 20, 1
   5              		.eabi_attribute 21, 1
   6              		.eabi_attribute 23, 3
   7              		.eabi_attribute 24, 1
   8              		.eabi_attribute 25, 1
   9              		.eabi_attribute 26, 1
  10              		.eabi_attribute 30, 2
  11              		.eabi_attribute 34, 1
  12              		.eabi_attribute 18, 4
  13              		.file	"vl53l0x_api.c"
  14              		.text
  15              	.Ltext0:
  16              		.cfi_sections	.debug_frame
  17              		.section	.text.VL53L0X_GetVersion,"ax",%progbits
  18              		.align	1
  19              		.p2align 4,,15
  20              		.global	VL53L0X_GetVersion
  21              		.syntax unified
  22              		.thumb
  23              		.thumb_func
  24              		.fpu fpv4-sp-d16
  25              		.type	VL53L0X_GetVersion, %function
  26              	VL53L0X_GetVersion:
  27              	.LFB3:
  28              		.file 1 "../e-puck2_main-processor/src/sensors/VL53L0X/Api/core/src/vl53l0x_api.c"
  29              		.loc 1 54 0
  30              		.cfi_startproc
  31              		@ args = 0, pretend = 0, frame = 8
  32              		@ frame_needed = 0, uses_anonymous_args = 0
  33              	.LVL0:
  34 0000 10B5     		push	{r4, lr}
  35              		.cfi_def_cfa_offset 8
  36              		.cfi_offset 4, -8
  37              		.cfi_offset 14, -4
  38 0002 0A4B     		ldr	r3, .L6
  39 0004 82B0     		sub	sp, sp, #8
  40              		.cfi_def_cfa_offset 16
  41              		.loc 1 54 0
  42 0006 1A68     		ldr	r2, [r3]
  43 0008 0192     		str	r2, [sp, #4]
  44              	.LVL1:
  45              		.loc 1 62 0
  46 000a 41F2D722 		movw	r2, #4823
  47 000e 0260     		str	r2, [r0]
  48              		.loc 1 66 0
  49 0010 019A     		ldr	r2, [sp, #4]
  50 0012 1B68     		ldr	r3, [r3]
  51              		.loc 1 62 0
  52 0014 0124     		movs	r4, #1
  53              		.loc 1 59 0
  54 0016 0221     		movs	r1, #2
  55              		.loc 1 66 0
  56 0018 9A42     		cmp	r2, r3
  57              		.loc 1 62 0
ARM GAS  /var/folders/d2/nstgp4h54kz7g1l847x_b8wc0000gn/T//ccoy4Txs.s 			page 2


  58 001a 8480     		strh	r4, [r0, #4]	@ movhi
  59              		.loc 1 59 0
  60 001c 8171     		strb	r1, [r0, #6]
  61              		.loc 1 66 0
  62 001e 02D1     		bne	.L5
  63 0020 0020     		movs	r0, #0
  64              	.LVL2:
  65 0022 02B0     		add	sp, sp, #8
  66              		.cfi_remember_state
  67              		.cfi_def_cfa_offset 8
  68              		@ sp needed
  69 0024 10BD     		pop	{r4, pc}
  70              	.LVL3:
  71              	.L5:
  72              		.cfi_restore_state
  73 0026 FFF7FEFF 		bl	__stack_chk_fail
  74              	.LVL4:
  75              	.L7:
  76 002a 00BF     		.align	2
  77              	.L6:
  78 002c 00000000 		.word	__stack_chk_guard
  79              		.cfi_endproc
  80              	.LFE3:
  81              		.size	VL53L0X_GetVersion, .-VL53L0X_GetVersion
  82              		.section	.text.VL53L0X_GetPalSpecVersion,"ax",%progbits
  83              		.align	1
  84              		.p2align 4,,15
  85              		.global	VL53L0X_GetPalSpecVersion
  86              		.syntax unified
  87              		.thumb
  88              		.thumb_func
  89              		.fpu fpv4-sp-d16
  90              		.type	VL53L0X_GetPalSpecVersion, %function
  91              	VL53L0X_GetPalSpecVersion:
  92              	.LFB4:
  93              		.loc 1 69 0
  94              		.cfi_startproc
  95              		@ args = 0, pretend = 0, frame = 8
  96              		@ frame_needed = 0, uses_anonymous_args = 0
  97              	.LVL5:
  98 0000 10B5     		push	{r4, lr}
  99              		.cfi_def_cfa_offset 8
 100              		.cfi_offset 4, -8
 101              		.cfi_offset 14, -4
 102 0002 0A4B     		ldr	r3, .L12
 103 0004 82B0     		sub	sp, sp, #8
 104              		.cfi_def_cfa_offset 16
 105              		.loc 1 69 0
 106 0006 1A68     		ldr	r2, [r3]
 107 0008 0192     		str	r2, [sp, #4]
 108              	.LVL6:
 109              		.loc 1 78 0
 110 000a 4FF4B462 		mov	r2, #1440
 111 000e 0260     		str	r2, [r0]
 112              		.loc 1 82 0
 113 0010 019A     		ldr	r2, [sp, #4]
 114 0012 1B68     		ldr	r3, [r3]
ARM GAS  /var/folders/d2/nstgp4h54kz7g1l847x_b8wc0000gn/T//ccoy4Txs.s 			page 3


 115              		.loc 1 78 0
 116 0014 40F20124 		movw	r4, #513
 117              		.loc 1 75 0
 118 0018 0721     		movs	r1, #7
 119              		.loc 1 82 0
 120 001a 9A42     		cmp	r2, r3
 121              		.loc 1 78 0
 122 001c 8480     		strh	r4, [r0, #4]	@ movhi
 123              		.loc 1 75 0
 124 001e 8171     		strb	r1, [r0, #6]
 125              		.loc 1 82 0
 126 0020 02D1     		bne	.L11
 127 0022 0020     		movs	r0, #0
 128              	.LVL7:
 129 0024 02B0     		add	sp, sp, #8
 130              		.cfi_remember_state
 131              		.cfi_def_cfa_offset 8
 132              		@ sp needed
 133 0026 10BD     		pop	{r4, pc}
 134              	.LVL8:
 135              	.L11:
 136              		.cfi_restore_state
 137 0028 FFF7FEFF 		bl	__stack_chk_fail
 138              	.LVL9:
 139              	.L13:
 140              		.align	2
 141              	.L12:
 142 002c 00000000 		.word	__stack_chk_guard
 143              		.cfi_endproc
 144              	.LFE4:
 145              		.size	VL53L0X_GetPalSpecVersion, .-VL53L0X_GetPalSpecVersion
 146              		.section	.text.VL53L0X_GetProductRevision,"ax",%progbits
 147              		.align	1
 148              		.p2align 4,,15
 149              		.global	VL53L0X_GetProductRevision
 150              		.syntax unified
 151              		.thumb
 152              		.thumb_func
 153              		.fpu fpv4-sp-d16
 154              		.type	VL53L0X_GetProductRevision, %function
 155              	VL53L0X_GetProductRevision:
 156              	.LFB5:
 157              		.loc 1 86 0
 158              		.cfi_startproc
 159              		@ args = 0, pretend = 0, frame = 8
 160              		@ frame_needed = 0, uses_anonymous_args = 0
 161              	.LVL10:
 162 0000 70B5     		push	{r4, r5, r6, lr}
 163              		.cfi_def_cfa_offset 16
 164              		.cfi_offset 4, -16
 165              		.cfi_offset 5, -12
 166              		.cfi_offset 6, -8
 167              		.cfi_offset 14, -4
 168 0002 0C4C     		ldr	r4, .L18
 169 0004 82B0     		sub	sp, sp, #8
 170              		.cfi_def_cfa_offset 24
 171              		.loc 1 86 0
ARM GAS  /var/folders/d2/nstgp4h54kz7g1l847x_b8wc0000gn/T//ccoy4Txs.s 			page 4


 172 0006 2368     		ldr	r3, [r4]
 173 0008 0193     		str	r3, [sp, #4]
 174              	.LVL11:
 175 000a 0E46     		mov	r6, r1
 176 000c 1546     		mov	r5, r2
 177              		.loc 1 92 0
 178 000e C221     		movs	r1, #194
 179              	.LVL12:
 180 0010 0DF10302 		add	r2, sp, #3
 181              	.LVL13:
 182 0014 FFF7FEFF 		bl	VL53L0X_RdByte
 183              	.LVL14:
 184              		.loc 1 95 0
 185 0018 9DF80330 		ldrb	r3, [sp, #3]	@ zero_extendqisi2
 186              		.loc 1 100 0
 187 001c 019A     		ldr	r2, [sp, #4]
 188              		.loc 1 95 0
 189 001e 1B09     		lsrs	r3, r3, #4
 190              		.loc 1 94 0
 191 0020 0121     		movs	r1, #1
 192 0022 3170     		strb	r1, [r6]
 193              		.loc 1 95 0
 194 0024 2B70     		strb	r3, [r5]
 195              		.loc 1 100 0
 196 0026 2368     		ldr	r3, [r4]
 197 0028 9A42     		cmp	r2, r3
 198 002a 01D1     		bne	.L17
 199 002c 02B0     		add	sp, sp, #8
 200              		.cfi_remember_state
 201              		.cfi_def_cfa_offset 16
 202              		@ sp needed
 203 002e 70BD     		pop	{r4, r5, r6, pc}
 204              	.LVL15:
 205              	.L17:
 206              		.cfi_restore_state
 207 0030 FFF7FEFF 		bl	__stack_chk_fail
 208              	.LVL16:
 209              	.L19:
 210              		.align	2
 211              	.L18:
 212 0034 00000000 		.word	__stack_chk_guard
 213              		.cfi_endproc
 214              	.LFE5:
 215              		.size	VL53L0X_GetProductRevision, .-VL53L0X_GetProductRevision
 216              		.section	.text.VL53L0X_GetDeviceInfo,"ax",%progbits
 217              		.align	1
 218              		.p2align 4,,15
 219              		.global	VL53L0X_GetDeviceInfo
 220              		.syntax unified
 221              		.thumb
 222              		.thumb_func
 223              		.fpu fpv4-sp-d16
 224              		.type	VL53L0X_GetDeviceInfo, %function
 225              	VL53L0X_GetDeviceInfo:
 226              	.LFB6:
 227              		.loc 1 104 0
 228              		.cfi_startproc
ARM GAS  /var/folders/d2/nstgp4h54kz7g1l847x_b8wc0000gn/T//ccoy4Txs.s 			page 5


 229              		@ args = 0, pretend = 0, frame = 8
 230              		@ frame_needed = 0, uses_anonymous_args = 0
 231              	.LVL17:
 232 0000 00B5     		push	{lr}
 233              		.cfi_def_cfa_offset 4
 234              		.cfi_offset 14, -4
 235 0002 074B     		ldr	r3, .L25
 236 0004 83B0     		sub	sp, sp, #12
 237              		.cfi_def_cfa_offset 16
 238              		.loc 1 104 0
 239 0006 1A68     		ldr	r2, [r3]
 240 0008 0192     		str	r2, [sp, #4]
 241              	.LVL18:
 242              		.loc 1 108 0
 243 000a 019A     		ldr	r2, [sp, #4]
 244 000c 1B68     		ldr	r3, [r3]
 245 000e 9A42     		cmp	r2, r3
 246 0010 04D1     		bne	.L24
 247              		.loc 1 112 0
 248 0012 03B0     		add	sp, sp, #12
 249              		.cfi_remember_state
 250              		.cfi_def_cfa_offset 4
 251              		@ sp needed
 252 0014 5DF804EB 		ldr	lr, [sp], #4
 253              		.cfi_restore 14
 254              		.cfi_def_cfa_offset 0
 255              		.loc 1 108 0
 256 0018 FFF7FEBF 		b	VL53L0X_get_device_info
 257              	.LVL19:
 258              	.L24:
 259              		.cfi_restore_state
 260 001c FFF7FEFF 		bl	__stack_chk_fail
 261              	.LVL20:
 262              	.L26:
 263              		.align	2
 264              	.L25:
 265 0020 00000000 		.word	__stack_chk_guard
 266              		.cfi_endproc
 267              	.LFE6:
 268              		.size	VL53L0X_GetDeviceInfo, .-VL53L0X_GetDeviceInfo
 269              		.section	.text.VL53L0X_GetDeviceErrorStatus,"ax",%progbits
 270              		.align	1
 271              		.p2align 4,,15
 272              		.global	VL53L0X_GetDeviceErrorStatus
 273              		.syntax unified
 274              		.thumb
 275              		.thumb_func
 276              		.fpu fpv4-sp-d16
 277              		.type	VL53L0X_GetDeviceErrorStatus, %function
 278              	VL53L0X_GetDeviceErrorStatus:
 279              	.LFB7:
 280              		.loc 1 116 0
 281              		.cfi_startproc
 282              		@ args = 0, pretend = 0, frame = 8
 283              		@ frame_needed = 0, uses_anonymous_args = 0
 284              	.LVL21:
 285 0000 30B5     		push	{r4, r5, lr}
ARM GAS  /var/folders/d2/nstgp4h54kz7g1l847x_b8wc0000gn/T//ccoy4Txs.s 			page 6


 286              		.cfi_def_cfa_offset 12
 287              		.cfi_offset 4, -12
 288              		.cfi_offset 5, -8
 289              		.cfi_offset 14, -4
 290 0002 0B4C     		ldr	r4, .L31
 291 0004 83B0     		sub	sp, sp, #12
 292              		.cfi_def_cfa_offset 24
 293              		.loc 1 116 0
 294 0006 2368     		ldr	r3, [r4]
 295 0008 0193     		str	r3, [sp, #4]
 296              	.LVL22:
 297 000a 0D46     		mov	r5, r1
 298              		.loc 1 122 0
 299 000c 0DF10302 		add	r2, sp, #3
 300 0010 1421     		movs	r1, #20
 301              	.LVL23:
 302 0012 FFF7FEFF 		bl	VL53L0X_RdByte
 303              	.LVL24:
 304              		.loc 1 125 0
 305 0016 9DF80330 		ldrb	r3, [sp, #3]	@ zero_extendqisi2
 306              		.loc 1 129 0
 307 001a 019A     		ldr	r2, [sp, #4]
 308              		.loc 1 125 0
 309 001c C3F3C303 		ubfx	r3, r3, #3, #4
 310 0020 2B70     		strb	r3, [r5]
 311              		.loc 1 129 0
 312 0022 2368     		ldr	r3, [r4]
 313 0024 9A42     		cmp	r2, r3
 314 0026 01D1     		bne	.L30
 315 0028 03B0     		add	sp, sp, #12
 316              		.cfi_remember_state
 317              		.cfi_def_cfa_offset 12
 318              		@ sp needed
 319 002a 30BD     		pop	{r4, r5, pc}
 320              	.LVL25:
 321              	.L30:
 322              		.cfi_restore_state
 323 002c FFF7FEFF 		bl	__stack_chk_fail
 324              	.LVL26:
 325              	.L32:
 326              		.align	2
 327              	.L31:
 328 0030 00000000 		.word	__stack_chk_guard
 329              		.cfi_endproc
 330              	.LFE7:
 331              		.size	VL53L0X_GetDeviceErrorStatus, .-VL53L0X_GetDeviceErrorStatus
 332              		.section	.text.VL53L0X_GetDeviceErrorString,"ax",%progbits
 333              		.align	1
 334              		.p2align 4,,15
 335              		.global	VL53L0X_GetDeviceErrorString
 336              		.syntax unified
 337              		.thumb
 338              		.thumb_func
 339              		.fpu fpv4-sp-d16
 340              		.type	VL53L0X_GetDeviceErrorString, %function
 341              	VL53L0X_GetDeviceErrorString:
 342              	.LFB8:
ARM GAS  /var/folders/d2/nstgp4h54kz7g1l847x_b8wc0000gn/T//ccoy4Txs.s 			page 7


 343              		.loc 1 134 0
 344              		.cfi_startproc
 345              		@ args = 0, pretend = 0, frame = 8
 346              		@ frame_needed = 0, uses_anonymous_args = 0
 347              	.LVL27:
 348 0000 00B5     		push	{lr}
 349              		.cfi_def_cfa_offset 4
 350              		.cfi_offset 14, -4
 351 0002 074B     		ldr	r3, .L38
 352 0004 83B0     		sub	sp, sp, #12
 353              		.cfi_def_cfa_offset 16
 354              		.loc 1 134 0
 355 0006 1A68     		ldr	r2, [r3]
 356 0008 0192     		str	r2, [sp, #4]
 357              	.LVL28:
 358              		.loc 1 139 0
 359 000a 019A     		ldr	r2, [sp, #4]
 360 000c 1B68     		ldr	r3, [r3]
 361 000e 9A42     		cmp	r2, r3
 362 0010 04D1     		bne	.L37
 363              		.loc 1 143 0
 364 0012 03B0     		add	sp, sp, #12
 365              		.cfi_remember_state
 366              		.cfi_def_cfa_offset 4
 367              		@ sp needed
 368 0014 5DF804EB 		ldr	lr, [sp], #4
 369              		.cfi_restore 14
 370              		.cfi_def_cfa_offset 0
 371              		.loc 1 139 0
 372 0018 FFF7FEBF 		b	VL53L0X_get_device_error_string
 373              	.LVL29:
 374              	.L37:
 375              		.cfi_restore_state
 376 001c FFF7FEFF 		bl	__stack_chk_fail
 377              	.LVL30:
 378              	.L39:
 379              		.align	2
 380              	.L38:
 381 0020 00000000 		.word	__stack_chk_guard
 382              		.cfi_endproc
 383              	.LFE8:
 384              		.size	VL53L0X_GetDeviceErrorString, .-VL53L0X_GetDeviceErrorString
 385              		.section	.text.VL53L0X_GetRangeStatusString,"ax",%progbits
 386              		.align	1
 387              		.p2align 4,,15
 388              		.global	VL53L0X_GetRangeStatusString
 389              		.syntax unified
 390              		.thumb
 391              		.thumb_func
 392              		.fpu fpv4-sp-d16
 393              		.type	VL53L0X_GetRangeStatusString, %function
 394              	VL53L0X_GetRangeStatusString:
 395              	.LFB9:
 396              		.loc 1 147 0
 397              		.cfi_startproc
 398              		@ args = 0, pretend = 0, frame = 8
 399              		@ frame_needed = 0, uses_anonymous_args = 0
ARM GAS  /var/folders/d2/nstgp4h54kz7g1l847x_b8wc0000gn/T//ccoy4Txs.s 			page 8


 400              	.LVL31:
 401 0000 00B5     		push	{lr}
 402              		.cfi_def_cfa_offset 4
 403              		.cfi_offset 14, -4
 404 0002 074B     		ldr	r3, .L45
 405 0004 83B0     		sub	sp, sp, #12
 406              		.cfi_def_cfa_offset 16
 407              		.loc 1 147 0
 408 0006 1A68     		ldr	r2, [r3]
 409 0008 0192     		str	r2, [sp, #4]
 410              	.LVL32:
 411              		.loc 1 151 0
 412 000a 019A     		ldr	r2, [sp, #4]
 413 000c 1B68     		ldr	r3, [r3]
 414 000e 9A42     		cmp	r2, r3
 415 0010 04D1     		bne	.L44
 416              		.loc 1 156 0
 417 0012 03B0     		add	sp, sp, #12
 418              		.cfi_remember_state
 419              		.cfi_def_cfa_offset 4
 420              		@ sp needed
 421 0014 5DF804EB 		ldr	lr, [sp], #4
 422              		.cfi_restore 14
 423              		.cfi_def_cfa_offset 0
 424              		.loc 1 151 0
 425 0018 FFF7FEBF 		b	VL53L0X_get_range_status_string
 426              	.LVL33:
 427              	.L44:
 428              		.cfi_restore_state
 429 001c FFF7FEFF 		bl	__stack_chk_fail
 430              	.LVL34:
 431              	.L46:
 432              		.align	2
 433              	.L45:
 434 0020 00000000 		.word	__stack_chk_guard
 435              		.cfi_endproc
 436              	.LFE9:
 437              		.size	VL53L0X_GetRangeStatusString, .-VL53L0X_GetRangeStatusString
 438              		.section	.text.VL53L0X_GetPalErrorString,"ax",%progbits
 439              		.align	1
 440              		.p2align 4,,15
 441              		.global	VL53L0X_GetPalErrorString
 442              		.syntax unified
 443              		.thumb
 444              		.thumb_func
 445              		.fpu fpv4-sp-d16
 446              		.type	VL53L0X_GetPalErrorString, %function
 447              	VL53L0X_GetPalErrorString:
 448              	.LFB10:
 449              		.loc 1 160 0
 450              		.cfi_startproc
 451              		@ args = 0, pretend = 0, frame = 8
 452              		@ frame_needed = 0, uses_anonymous_args = 0
 453              	.LVL35:
 454 0000 00B5     		push	{lr}
 455              		.cfi_def_cfa_offset 4
 456              		.cfi_offset 14, -4
ARM GAS  /var/folders/d2/nstgp4h54kz7g1l847x_b8wc0000gn/T//ccoy4Txs.s 			page 9


 457 0002 074B     		ldr	r3, .L52
 458 0004 83B0     		sub	sp, sp, #12
 459              		.cfi_def_cfa_offset 16
 460              		.loc 1 160 0
 461 0006 1A68     		ldr	r2, [r3]
 462 0008 0192     		str	r2, [sp, #4]
 463              	.LVL36:
 464              		.loc 1 164 0
 465 000a 019A     		ldr	r2, [sp, #4]
 466 000c 1B68     		ldr	r3, [r3]
 467 000e 9A42     		cmp	r2, r3
 468 0010 04D1     		bne	.L51
 469              		.loc 1 168 0
 470 0012 03B0     		add	sp, sp, #12
 471              		.cfi_remember_state
 472              		.cfi_def_cfa_offset 4
 473              		@ sp needed
 474 0014 5DF804EB 		ldr	lr, [sp], #4
 475              		.cfi_restore 14
 476              		.cfi_def_cfa_offset 0
 477              		.loc 1 164 0
 478 0018 FFF7FEBF 		b	VL53L0X_get_pal_error_string
 479              	.LVL37:
 480              	.L51:
 481              		.cfi_restore_state
 482 001c FFF7FEFF 		bl	__stack_chk_fail
 483              	.LVL38:
 484              	.L53:
 485              		.align	2
 486              	.L52:
 487 0020 00000000 		.word	__stack_chk_guard
 488              		.cfi_endproc
 489              	.LFE10:
 490              		.size	VL53L0X_GetPalErrorString, .-VL53L0X_GetPalErrorString
 491              		.section	.text.VL53L0X_GetPalStateString,"ax",%progbits
 492              		.align	1
 493              		.p2align 4,,15
 494              		.global	VL53L0X_GetPalStateString
 495              		.syntax unified
 496              		.thumb
 497              		.thumb_func
 498              		.fpu fpv4-sp-d16
 499              		.type	VL53L0X_GetPalStateString, %function
 500              	VL53L0X_GetPalStateString:
 501              	.LFB11:
 502              		.loc 1 172 0
 503              		.cfi_startproc
 504              		@ args = 0, pretend = 0, frame = 8
 505              		@ frame_needed = 0, uses_anonymous_args = 0
 506              	.LVL39:
 507 0000 00B5     		push	{lr}
 508              		.cfi_def_cfa_offset 4
 509              		.cfi_offset 14, -4
 510 0002 074B     		ldr	r3, .L59
 511 0004 83B0     		sub	sp, sp, #12
 512              		.cfi_def_cfa_offset 16
 513              		.loc 1 172 0
ARM GAS  /var/folders/d2/nstgp4h54kz7g1l847x_b8wc0000gn/T//ccoy4Txs.s 			page 10


 514 0006 1A68     		ldr	r2, [r3]
 515 0008 0192     		str	r2, [sp, #4]
 516              	.LVL40:
 517              		.loc 1 176 0
 518 000a 019A     		ldr	r2, [sp, #4]
 519 000c 1B68     		ldr	r3, [r3]
 520 000e 9A42     		cmp	r2, r3
 521 0010 04D1     		bne	.L58
 522              		.loc 1 180 0
 523 0012 03B0     		add	sp, sp, #12
 524              		.cfi_remember_state
 525              		.cfi_def_cfa_offset 4
 526              		@ sp needed
 527 0014 5DF804EB 		ldr	lr, [sp], #4
 528              		.cfi_restore 14
 529              		.cfi_def_cfa_offset 0
 530              		.loc 1 176 0
 531 0018 FFF7FEBF 		b	VL53L0X_get_pal_state_string
 532              	.LVL41:
 533              	.L58:
 534              		.cfi_restore_state
 535 001c FFF7FEFF 		bl	__stack_chk_fail
 536              	.LVL42:
 537              	.L60:
 538              		.align	2
 539              	.L59:
 540 0020 00000000 		.word	__stack_chk_guard
 541              		.cfi_endproc
 542              	.LFE11:
 543              		.size	VL53L0X_GetPalStateString, .-VL53L0X_GetPalStateString
 544              		.section	.text.VL53L0X_GetPalState,"ax",%progbits
 545              		.align	1
 546              		.p2align 4,,15
 547              		.global	VL53L0X_GetPalState
 548              		.syntax unified
 549              		.thumb
 550              		.thumb_func
 551              		.fpu fpv4-sp-d16
 552              		.type	VL53L0X_GetPalState, %function
 553              	VL53L0X_GetPalState:
 554              	.LFB12:
 555              		.loc 1 183 0
 556              		.cfi_startproc
 557              		@ args = 0, pretend = 0, frame = 8
 558              		@ frame_needed = 0, uses_anonymous_args = 0
 559              	.LVL43:
 560 0000 00B5     		push	{lr}
 561              		.cfi_def_cfa_offset 4
 562              		.cfi_offset 14, -4
 563 0002 084B     		ldr	r3, .L65
 564              		.loc 1 187 0
 565 0004 90F83221 		ldrb	r2, [r0, #306]	@ zero_extendqisi2
 566              		.loc 1 183 0
 567 0008 1868     		ldr	r0, [r3]
 568              	.LVL44:
 569              		.loc 1 187 0
 570 000a 0A70     		strb	r2, [r1]
ARM GAS  /var/folders/d2/nstgp4h54kz7g1l847x_b8wc0000gn/T//ccoy4Txs.s 			page 11


 571              		.loc 1 183 0
 572 000c 83B0     		sub	sp, sp, #12
 573              		.cfi_def_cfa_offset 16
 574              		.loc 1 183 0
 575 000e 0190     		str	r0, [sp, #4]
 576              	.LVL45:
 577              		.loc 1 191 0
 578 0010 019A     		ldr	r2, [sp, #4]
 579 0012 1B68     		ldr	r3, [r3]
 580 0014 9A42     		cmp	r2, r3
 581 0016 03D1     		bne	.L64
 582 0018 0020     		movs	r0, #0
 583 001a 03B0     		add	sp, sp, #12
 584              		.cfi_remember_state
 585              		.cfi_def_cfa_offset 4
 586              		@ sp needed
 587 001c 5DF804FB 		ldr	pc, [sp], #4
 588              	.L64:
 589              		.cfi_restore_state
 590 0020 FFF7FEFF 		bl	__stack_chk_fail
 591              	.LVL46:
 592              	.L66:
 593              		.align	2
 594              	.L65:
 595 0024 00000000 		.word	__stack_chk_guard
 596              		.cfi_endproc
 597              	.LFE12:
 598              		.size	VL53L0X_GetPalState, .-VL53L0X_GetPalState
 599              		.section	.text.VL53L0X_GetPowerMode,"ax",%progbits
 600              		.align	1
 601              		.p2align 4,,15
 602              		.global	VL53L0X_GetPowerMode
 603              		.syntax unified
 604              		.thumb
 605              		.thumb_func
 606              		.fpu fpv4-sp-d16
 607              		.type	VL53L0X_GetPowerMode, %function
 608              	VL53L0X_GetPowerMode:
 609              	.LFB14:
 610              		.loc 1 230 0
 611              		.cfi_startproc
 612              		@ args = 0, pretend = 0, frame = 8
 613              		@ frame_needed = 0, uses_anonymous_args = 0
 614              	.LVL47:
 615 0000 30B5     		push	{r4, r5, lr}
 616              		.cfi_def_cfa_offset 12
 617              		.cfi_offset 4, -12
 618              		.cfi_offset 5, -8
 619              		.cfi_offset 14, -4
 620 0002 0E4C     		ldr	r4, .L73
 621 0004 83B0     		sub	sp, sp, #12
 622              		.cfi_def_cfa_offset 24
 623              		.loc 1 230 0
 624 0006 2368     		ldr	r3, [r4]
 625 0008 0193     		str	r3, [sp, #4]
 626              	.LVL48:
 627              		.loc 1 237 0
ARM GAS  /var/folders/d2/nstgp4h54kz7g1l847x_b8wc0000gn/T//ccoy4Txs.s 			page 12


 628 000a 0DF10302 		add	r2, sp, #3
 629 000e 8021     		movs	r1, #128
 630              	.LVL49:
 631              		.loc 1 230 0
 632 0010 0546     		mov	r5, r0
 633              		.loc 1 237 0
 634 0012 FFF7FEFF 		bl	VL53L0X_RdByte
 635              	.LVL50:
 636              		.loc 1 239 0
 637 0016 40B9     		cbnz	r0, .L68
 638              		.loc 1 240 0
 639 0018 9DF80330 		ldrb	r3, [sp, #3]	@ zero_extendqisi2
 640 001c 012B     		cmp	r3, #1
 641              		.loc 1 241 0
 642 001e 06BF     		itte	eq
 643 0020 0223     		moveq	r3, #2
 644 0022 85F83331 		strbeq	r3, [r5, #307]
 645              		.loc 1 244 0
 646 0026 85F83301 		strbne	r0, [r5, #307]
 647              	.L68:
 648              		.loc 1 251 0
 649 002a 019A     		ldr	r2, [sp, #4]
 650 002c 2368     		ldr	r3, [r4]
 651 002e 9A42     		cmp	r2, r3
 652 0030 01D1     		bne	.L72
 653 0032 03B0     		add	sp, sp, #12
 654              		.cfi_remember_state
 655              		.cfi_def_cfa_offset 12
 656              		@ sp needed
 657 0034 30BD     		pop	{r4, r5, pc}
 658              	.LVL51:
 659              	.L72:
 660              		.cfi_restore_state
 661 0036 FFF7FEFF 		bl	__stack_chk_fail
 662              	.LVL52:
 663              	.L74:
 664 003a 00BF     		.align	2
 665              	.L73:
 666 003c 00000000 		.word	__stack_chk_guard
 667              		.cfi_endproc
 668              	.LFE14:
 669              		.size	VL53L0X_GetPowerMode, .-VL53L0X_GetPowerMode
 670              		.section	.text.VL53L0X_SetOffsetCalibrationDataMicroMeter,"ax",%progbits
 671              		.align	1
 672              		.p2align 4,,15
 673              		.global	VL53L0X_SetOffsetCalibrationDataMicroMeter
 674              		.syntax unified
 675              		.thumb
 676              		.thumb_func
 677              		.fpu fpv4-sp-d16
 678              		.type	VL53L0X_SetOffsetCalibrationDataMicroMeter, %function
 679              	VL53L0X_SetOffsetCalibrationDataMicroMeter:
 680              	.LFB15:
 681              		.loc 1 255 0
 682              		.cfi_startproc
 683              		@ args = 0, pretend = 0, frame = 8
 684              		@ frame_needed = 0, uses_anonymous_args = 0
ARM GAS  /var/folders/d2/nstgp4h54kz7g1l847x_b8wc0000gn/T//ccoy4Txs.s 			page 13


 685              	.LVL53:
 686 0000 00B5     		push	{lr}
 687              		.cfi_def_cfa_offset 4
 688              		.cfi_offset 14, -4
 689 0002 074B     		ldr	r3, .L80
 690 0004 83B0     		sub	sp, sp, #12
 691              		.cfi_def_cfa_offset 16
 692              		.loc 1 255 0
 693 0006 1A68     		ldr	r2, [r3]
 694 0008 0192     		str	r2, [sp, #4]
 695              	.LVL54:
 696              		.loc 1 259 0
 697 000a 019A     		ldr	r2, [sp, #4]
 698 000c 1B68     		ldr	r3, [r3]
 699 000e 9A42     		cmp	r2, r3
 700 0010 04D1     		bne	.L79
 701              		.loc 1 264 0
 702 0012 03B0     		add	sp, sp, #12
 703              		.cfi_remember_state
 704              		.cfi_def_cfa_offset 4
 705              		@ sp needed
 706 0014 5DF804EB 		ldr	lr, [sp], #4
 707              		.cfi_restore 14
 708              		.cfi_def_cfa_offset 0
 709              		.loc 1 259 0
 710 0018 FFF7FEBF 		b	VL53L0X_set_offset_calibration_data_micro_meter
 711              	.LVL55:
 712              	.L79:
 713              		.cfi_restore_state
 714 001c FFF7FEFF 		bl	__stack_chk_fail
 715              	.LVL56:
 716              	.L81:
 717              		.align	2
 718              	.L80:
 719 0020 00000000 		.word	__stack_chk_guard
 720              		.cfi_endproc
 721              	.LFE15:
 722              		.size	VL53L0X_SetOffsetCalibrationDataMicroMeter, .-VL53L0X_SetOffsetCalibrationDataMicroMeter
 723              		.section	.text.VL53L0X_GetOffsetCalibrationDataMicroMeter,"ax",%progbits
 724              		.align	1
 725              		.p2align 4,,15
 726              		.global	VL53L0X_GetOffsetCalibrationDataMicroMeter
 727              		.syntax unified
 728              		.thumb
 729              		.thumb_func
 730              		.fpu fpv4-sp-d16
 731              		.type	VL53L0X_GetOffsetCalibrationDataMicroMeter, %function
 732              	VL53L0X_GetOffsetCalibrationDataMicroMeter:
 733              	.LFB16:
 734              		.loc 1 268 0
 735              		.cfi_startproc
 736              		@ args = 0, pretend = 0, frame = 8
 737              		@ frame_needed = 0, uses_anonymous_args = 0
 738              	.LVL57:
 739 0000 00B5     		push	{lr}
 740              		.cfi_def_cfa_offset 4
 741              		.cfi_offset 14, -4
ARM GAS  /var/folders/d2/nstgp4h54kz7g1l847x_b8wc0000gn/T//ccoy4Txs.s 			page 14


 742 0002 074B     		ldr	r3, .L87
 743 0004 83B0     		sub	sp, sp, #12
 744              		.cfi_def_cfa_offset 16
 745              		.loc 1 268 0
 746 0006 1A68     		ldr	r2, [r3]
 747 0008 0192     		str	r2, [sp, #4]
 748              	.LVL58:
 749              		.loc 1 272 0
 750 000a 019A     		ldr	r2, [sp, #4]
 751 000c 1B68     		ldr	r3, [r3]
 752 000e 9A42     		cmp	r2, r3
 753 0010 04D1     		bne	.L86
 754              		.loc 1 277 0
 755 0012 03B0     		add	sp, sp, #12
 756              		.cfi_remember_state
 757              		.cfi_def_cfa_offset 4
 758              		@ sp needed
 759 0014 5DF804EB 		ldr	lr, [sp], #4
 760              		.cfi_restore 14
 761              		.cfi_def_cfa_offset 0
 762              		.loc 1 272 0
 763 0018 FFF7FEBF 		b	VL53L0X_get_offset_calibration_data_micro_meter
 764              	.LVL59:
 765              	.L86:
 766              		.cfi_restore_state
 767 001c FFF7FEFF 		bl	__stack_chk_fail
 768              	.LVL60:
 769              	.L88:
 770              		.align	2
 771              	.L87:
 772 0020 00000000 		.word	__stack_chk_guard
 773              		.cfi_endproc
 774              	.LFE16:
 775              		.size	VL53L0X_GetOffsetCalibrationDataMicroMeter, .-VL53L0X_GetOffsetCalibrationDataMicroMeter
 776              		.section	.text.VL53L0X_SetLinearityCorrectiveGain,"ax",%progbits
 777              		.align	1
 778              		.p2align 4,,15
 779              		.global	VL53L0X_SetLinearityCorrectiveGain
 780              		.syntax unified
 781              		.thumb
 782              		.thumb_func
 783              		.fpu fpv4-sp-d16
 784              		.type	VL53L0X_SetLinearityCorrectiveGain, %function
 785              	VL53L0X_SetLinearityCorrectiveGain:
 786              	.LFB17:
 787              		.loc 1 281 0
 788              		.cfi_startproc
 789              		@ args = 0, pretend = 0, frame = 8
 790              		@ frame_needed = 0, uses_anonymous_args = 0
 791              	.LVL61:
 792 0000 10B5     		push	{r4, lr}
 793              		.cfi_def_cfa_offset 8
 794              		.cfi_offset 4, -8
 795              		.cfi_offset 14, -4
 796 0002 124B     		ldr	r3, .L97
 797 0004 82B0     		sub	sp, sp, #8
 798              		.cfi_def_cfa_offset 16
ARM GAS  /var/folders/d2/nstgp4h54kz7g1l847x_b8wc0000gn/T//ccoy4Txs.s 			page 15


 799              		.loc 1 281 0
 800 0006 1A68     		ldr	r2, [r3]
 801 0008 0192     		str	r2, [sp, #4]
 802              	.LVL62:
 803              		.loc 1 285 0
 804 000a 8AB2     		uxth	r2, r1
 805 000c B2F57A7F 		cmp	r2, #1000
 806 0010 16D8     		bhi	.L93
 807              		.loc 1 291 0
 808 0012 B1F57A7F 		cmp	r1, #1000
 809              		.loc 1 288 0
 810 0016 A0F85221 		strh	r2, [r0, #338]	@ movhi
 811              		.loc 1 291 0
 812 001a 0AD0     		beq	.L94
 813              		.loc 1 293 0
 814 001c 019A     		ldr	r2, [sp, #4]
 815 001e 1B68     		ldr	r3, [r3]
 816 0020 9A42     		cmp	r2, r3
 817 0022 10D1     		bne	.L96
 818 0024 0022     		movs	r2, #0
 819 0026 2021     		movs	r1, #32
 820              	.LVL63:
 821              		.loc 1 300 0
 822 0028 02B0     		add	sp, sp, #8
 823              		.cfi_remember_state
 824              		.cfi_def_cfa_offset 8
 825              		@ sp needed
 826 002a BDE81040 		pop	{r4, lr}
 827              		.cfi_restore 14
 828              		.cfi_restore 4
 829              		.cfi_def_cfa_offset 0
 830              		.loc 1 293 0
 831 002e FFF7FEBF 		b	VL53L0X_WrWord
 832              	.LVL64:
 833              	.L94:
 834              		.cfi_restore_state
 835              		.loc 1 282 0
 836 0032 0020     		movs	r0, #0
 837              	.LVL65:
 838              	.L90:
 839              		.loc 1 300 0
 840 0034 019A     		ldr	r2, [sp, #4]
 841 0036 1B68     		ldr	r3, [r3]
 842 0038 9A42     		cmp	r2, r3
 843 003a 04D1     		bne	.L96
 844 003c 02B0     		add	sp, sp, #8
 845              		.cfi_remember_state
 846              		.cfi_def_cfa_offset 8
 847              		@ sp needed
 848 003e 10BD     		pop	{r4, pc}
 849              	.LVL66:
 850              	.L93:
 851              		.cfi_restore_state
 852              		.loc 1 286 0
 853 0040 6FF00300 		mvn	r0, #3
 854              	.LVL67:
 855 0044 F6E7     		b	.L90
ARM GAS  /var/folders/d2/nstgp4h54kz7g1l847x_b8wc0000gn/T//ccoy4Txs.s 			page 16


 856              	.LVL68:
 857              	.L96:
 858              		.loc 1 300 0
 859 0046 FFF7FEFF 		bl	__stack_chk_fail
 860              	.LVL69:
 861              	.L98:
 862 004a 00BF     		.align	2
 863              	.L97:
 864 004c 00000000 		.word	__stack_chk_guard
 865              		.cfi_endproc
 866              	.LFE17:
 867              		.size	VL53L0X_SetLinearityCorrectiveGain, .-VL53L0X_SetLinearityCorrectiveGain
 868              		.section	.text.VL53L0X_GetLinearityCorrectiveGain,"ax",%progbits
 869              		.align	1
 870              		.p2align 4,,15
 871              		.global	VL53L0X_GetLinearityCorrectiveGain
 872              		.syntax unified
 873              		.thumb
 874              		.thumb_func
 875              		.fpu fpv4-sp-d16
 876              		.type	VL53L0X_GetLinearityCorrectiveGain, %function
 877              	VL53L0X_GetLinearityCorrectiveGain:
 878              	.LFB18:
 879              		.loc 1 304 0
 880              		.cfi_startproc
 881              		@ args = 0, pretend = 0, frame = 8
 882              		@ frame_needed = 0, uses_anonymous_args = 0
 883              	.LVL70:
 884 0000 00B5     		push	{lr}
 885              		.cfi_def_cfa_offset 4
 886              		.cfi_offset 14, -4
 887 0002 084B     		ldr	r3, .L103
 888              		.loc 1 308 0
 889 0004 B0F85221 		ldrh	r2, [r0, #338]
 890              		.loc 1 304 0
 891 0008 1868     		ldr	r0, [r3]
 892              	.LVL71:
 893              		.loc 1 308 0
 894 000a 0A80     		strh	r2, [r1]	@ movhi
 895              		.loc 1 304 0
 896 000c 83B0     		sub	sp, sp, #12
 897              		.cfi_def_cfa_offset 16
 898              		.loc 1 304 0
 899 000e 0190     		str	r0, [sp, #4]
 900              	.LVL72:
 901              		.loc 1 312 0
 902 0010 019A     		ldr	r2, [sp, #4]
 903 0012 1B68     		ldr	r3, [r3]
 904 0014 9A42     		cmp	r2, r3
 905 0016 03D1     		bne	.L102
 906 0018 0020     		movs	r0, #0
 907 001a 03B0     		add	sp, sp, #12
 908              		.cfi_remember_state
 909              		.cfi_def_cfa_offset 4
 910              		@ sp needed
 911 001c 5DF804FB 		ldr	pc, [sp], #4
 912              	.L102:
ARM GAS  /var/folders/d2/nstgp4h54kz7g1l847x_b8wc0000gn/T//ccoy4Txs.s 			page 17


 913              		.cfi_restore_state
 914 0020 FFF7FEFF 		bl	__stack_chk_fail
 915              	.LVL73:
 916              	.L104:
 917              		.align	2
 918              	.L103:
 919 0024 00000000 		.word	__stack_chk_guard
 920              		.cfi_endproc
 921              	.LFE18:
 922              		.size	VL53L0X_GetLinearityCorrectiveGain, .-VL53L0X_GetLinearityCorrectiveGain
 923              		.section	.text.VL53L0X_SetGroupParamHold,"ax",%progbits
 924              		.align	1
 925              		.p2align 4,,15
 926              		.global	VL53L0X_SetGroupParamHold
 927              		.syntax unified
 928              		.thumb
 929              		.thumb_func
 930              		.fpu fpv4-sp-d16
 931              		.type	VL53L0X_SetGroupParamHold, %function
 932              	VL53L0X_SetGroupParamHold:
 933              	.LFB19:
 934              		.loc 1 315 0
 935              		.cfi_startproc
 936              		@ args = 0, pretend = 0, frame = 8
 937              		@ frame_needed = 0, uses_anonymous_args = 0
 938              	.LVL74:
 939 0000 00B5     		push	{lr}
 940              		.cfi_def_cfa_offset 4
 941              		.cfi_offset 14, -4
 942 0002 074B     		ldr	r3, .L109
 943 0004 83B0     		sub	sp, sp, #12
 944              		.cfi_def_cfa_offset 16
 945              		.loc 1 315 0
 946 0006 1A68     		ldr	r2, [r3]
 947 0008 0192     		str	r2, [sp, #4]
 948              	.LVL75:
 949              		.loc 1 325 0
 950 000a 019A     		ldr	r2, [sp, #4]
 951 000c 1B68     		ldr	r3, [r3]
 952 000e 9A42     		cmp	r2, r3
 953 0010 04D1     		bne	.L108
 954 0012 6FF06200 		mvn	r0, #98
 955              	.LVL76:
 956 0016 03B0     		add	sp, sp, #12
 957              		.cfi_remember_state
 958              		.cfi_def_cfa_offset 4
 959              		@ sp needed
 960 0018 5DF804FB 		ldr	pc, [sp], #4
 961              	.LVL77:
 962              	.L108:
 963              		.cfi_restore_state
 964 001c FFF7FEFF 		bl	__stack_chk_fail
 965              	.LVL78:
 966              	.L110:
 967              		.align	2
 968              	.L109:
 969 0020 00000000 		.word	__stack_chk_guard
ARM GAS  /var/folders/d2/nstgp4h54kz7g1l847x_b8wc0000gn/T//ccoy4Txs.s 			page 18


 970              		.cfi_endproc
 971              	.LFE19:
 972              		.size	VL53L0X_SetGroupParamHold, .-VL53L0X_SetGroupParamHold
 973              		.section	.text.VL53L0X_GetUpperLimitMilliMeter,"ax",%progbits
 974              		.align	1
 975              		.p2align 4,,15
 976              		.global	VL53L0X_GetUpperLimitMilliMeter
 977              		.syntax unified
 978              		.thumb
 979              		.thumb_func
 980              		.fpu fpv4-sp-d16
 981              		.type	VL53L0X_GetUpperLimitMilliMeter, %function
 982              	VL53L0X_GetUpperLimitMilliMeter:
 983              	.LFB20:
 984              		.loc 1 329 0
 985              		.cfi_startproc
 986              		@ args = 0, pretend = 0, frame = 8
 987              		@ frame_needed = 0, uses_anonymous_args = 0
 988              	.LVL79:
 989 0000 00B5     		push	{lr}
 990              		.cfi_def_cfa_offset 4
 991              		.cfi_offset 14, -4
 992 0002 074B     		ldr	r3, .L115
 993 0004 83B0     		sub	sp, sp, #12
 994              		.cfi_def_cfa_offset 16
 995              		.loc 1 329 0
 996 0006 1A68     		ldr	r2, [r3]
 997 0008 0192     		str	r2, [sp, #4]
 998              	.LVL80:
 999              		.loc 1 339 0
 1000 000a 019A     		ldr	r2, [sp, #4]
 1001 000c 1B68     		ldr	r3, [r3]
 1002 000e 9A42     		cmp	r2, r3
 1003 0010 04D1     		bne	.L114
 1004 0012 6FF06200 		mvn	r0, #98
 1005              	.LVL81:
 1006 0016 03B0     		add	sp, sp, #12
 1007              		.cfi_remember_state
 1008              		.cfi_def_cfa_offset 4
 1009              		@ sp needed
 1010 0018 5DF804FB 		ldr	pc, [sp], #4
 1011              	.LVL82:
 1012              	.L114:
 1013              		.cfi_restore_state
 1014 001c FFF7FEFF 		bl	__stack_chk_fail
 1015              	.LVL83:
 1016              	.L116:
 1017              		.align	2
 1018              	.L115:
 1019 0020 00000000 		.word	__stack_chk_guard
 1020              		.cfi_endproc
 1021              	.LFE20:
 1022              		.size	VL53L0X_GetUpperLimitMilliMeter, .-VL53L0X_GetUpperLimitMilliMeter
 1023              		.section	.text.VL53L0X_GetTotalSignalRate,"ax",%progbits
 1024              		.align	1
 1025              		.p2align 4,,15
 1026              		.global	VL53L0X_GetTotalSignalRate
ARM GAS  /var/folders/d2/nstgp4h54kz7g1l847x_b8wc0000gn/T//ccoy4Txs.s 			page 19


 1027              		.syntax unified
 1028              		.thumb
 1029              		.thumb_func
 1030              		.fpu fpv4-sp-d16
 1031              		.type	VL53L0X_GetTotalSignalRate, %function
 1032              	VL53L0X_GetTotalSignalRate:
 1033              	.LFB21:
 1034              		.loc 1 343 0
 1035              		.cfi_startproc
 1036              		@ args = 0, pretend = 0, frame = 32
 1037              		@ frame_needed = 0, uses_anonymous_args = 0
 1038              	.LVL84:
 1039 0000 F0B5     		push	{r4, r5, r6, r7, lr}
 1040              		.cfi_def_cfa_offset 20
 1041              		.cfi_offset 4, -20
 1042              		.cfi_offset 5, -16
 1043              		.cfi_offset 6, -12
 1044              		.cfi_offset 7, -8
 1045              		.cfi_offset 14, -4
 1046              		.loc 1 349 0
 1047 0002 00F15005 		add	r5, r0, #80
 1048              		.loc 1 343 0
 1049 0006 0646     		mov	r6, r0
 1050 0008 0F46     		mov	r7, r1
 1051              		.loc 1 349 0
 1052 000a 0FCD     		ldmia	r5!, {r0, r1, r2, r3}
 1053              	.LVL85:
 1054              		.loc 1 343 0
 1055 000c 89B0     		sub	sp, sp, #36
 1056              		.cfi_def_cfa_offset 56
 1057              		.loc 1 349 0
 1058 000e 6C46     		mov	r4, sp
 1059 0010 0FC4     		stmia	r4!, {r0, r1, r2, r3}
 1060 0012 95E80700 		ldm	r5, {r0, r1, r2}
 1061              		.loc 1 343 0
 1062 0016 094D     		ldr	r5, .L121
 1063              		.loc 1 349 0
 1064 0018 84E80700 		stm	r4, {r0, r1, r2}
 1065              		.loc 1 343 0
 1066 001c 2B68     		ldr	r3, [r5]
 1067 001e 0793     		str	r3, [sp, #28]
 1068              	.LVL86:
 1069              		.loc 1 351 0
 1070 0020 3A46     		mov	r2, r7
 1071 0022 3046     		mov	r0, r6
 1072 0024 6946     		mov	r1, sp
 1073 0026 FFF7FEFF 		bl	VL53L0X_get_total_signal_rate
 1074              	.LVL87:
 1075              		.loc 1 356 0
 1076 002a 079A     		ldr	r2, [sp, #28]
 1077 002c 2B68     		ldr	r3, [r5]
 1078 002e 9A42     		cmp	r2, r3
 1079 0030 01D1     		bne	.L120
 1080 0032 09B0     		add	sp, sp, #36
 1081              		.cfi_remember_state
 1082              		.cfi_def_cfa_offset 20
 1083              		@ sp needed
ARM GAS  /var/folders/d2/nstgp4h54kz7g1l847x_b8wc0000gn/T//ccoy4Txs.s 			page 20


 1084 0034 F0BD     		pop	{r4, r5, r6, r7, pc}
 1085              	.LVL88:
 1086              	.L120:
 1087              		.cfi_restore_state
 1088 0036 FFF7FEFF 		bl	__stack_chk_fail
 1089              	.LVL89:
 1090              	.L122:
 1091 003a 00BF     		.align	2
 1092              	.L121:
 1093 003c 00000000 		.word	__stack_chk_guard
 1094              		.cfi_endproc
 1095              	.LFE21:
 1096              		.size	VL53L0X_GetTotalSignalRate, .-VL53L0X_GetTotalSignalRate
 1097              		.section	.text.VL53L0X_SetDeviceAddress,"ax",%progbits
 1098              		.align	1
 1099              		.p2align 4,,15
 1100              		.global	VL53L0X_SetDeviceAddress
 1101              		.syntax unified
 1102              		.thumb
 1103              		.thumb_func
 1104              		.fpu fpv4-sp-d16
 1105              		.type	VL53L0X_SetDeviceAddress, %function
 1106              	VL53L0X_SetDeviceAddress:
 1107              	.LFB22:
 1108              		.loc 1 362 0
 1109              		.cfi_startproc
 1110              		@ args = 0, pretend = 0, frame = 8
 1111              		@ frame_needed = 0, uses_anonymous_args = 0
 1112              	.LVL90:
 1113 0000 10B5     		push	{r4, lr}
 1114              		.cfi_def_cfa_offset 8
 1115              		.cfi_offset 4, -8
 1116              		.cfi_offset 14, -4
 1117 0002 084B     		ldr	r3, .L128
 1118 0004 82B0     		sub	sp, sp, #8
 1119              		.cfi_def_cfa_offset 16
 1120              		.loc 1 362 0
 1121 0006 1A68     		ldr	r2, [r3]
 1122 0008 0192     		str	r2, [sp, #4]
 1123              	.LVL91:
 1124              		.loc 1 366 0
 1125 000a 019C     		ldr	r4, [sp, #4]
 1126 000c 1B68     		ldr	r3, [r3]
 1127 000e 9C42     		cmp	r4, r3
 1128 0010 06D1     		bne	.L127
 1129 0012 4A08     		lsrs	r2, r1, #1
 1130 0014 8A21     		movs	r1, #138
 1131              	.LVL92:
 1132              		.loc 1 371 0
 1133 0016 02B0     		add	sp, sp, #8
 1134              		.cfi_remember_state
 1135              		.cfi_def_cfa_offset 8
 1136              		@ sp needed
 1137 0018 BDE81040 		pop	{r4, lr}
 1138              		.cfi_restore 14
 1139              		.cfi_restore 4
 1140              		.cfi_def_cfa_offset 0
ARM GAS  /var/folders/d2/nstgp4h54kz7g1l847x_b8wc0000gn/T//ccoy4Txs.s 			page 21


 1141              		.loc 1 366 0
 1142 001c FFF7FEBF 		b	VL53L0X_WrByte
 1143              	.LVL93:
 1144              	.L127:
 1145              		.cfi_restore_state
 1146 0020 FFF7FEFF 		bl	__stack_chk_fail
 1147              	.LVL94:
 1148              	.L129:
 1149              		.align	2
 1150              	.L128:
 1151 0024 00000000 		.word	__stack_chk_guard
 1152              		.cfi_endproc
 1153              	.LFE22:
 1154              		.size	VL53L0X_SetDeviceAddress, .-VL53L0X_SetDeviceAddress
 1155              		.section	.text.VL53L0X_SetTuningSettingBuffer,"ax",%progbits
 1156              		.align	1
 1157              		.p2align 4,,15
 1158              		.global	VL53L0X_SetTuningSettingBuffer
 1159              		.syntax unified
 1160              		.thumb
 1161              		.thumb_func
 1162              		.fpu fpv4-sp-d16
 1163              		.type	VL53L0X_SetTuningSettingBuffer, %function
 1164              	VL53L0X_SetTuningSettingBuffer:
 1165              	.LFB24:
 1166              		.loc 1 516 0
 1167              		.cfi_startproc
 1168              		@ args = 0, pretend = 0, frame = 8
 1169              		@ frame_needed = 0, uses_anonymous_args = 0
 1170              	.LVL95:
 1171 0000 10B5     		push	{r4, lr}
 1172              		.cfi_def_cfa_offset 8
 1173              		.cfi_offset 4, -8
 1174              		.cfi_offset 14, -4
 1175 0002 0E4C     		ldr	r4, .L138
 1176 0004 82B0     		sub	sp, sp, #8
 1177              		.cfi_def_cfa_offset 16
 1178              		.loc 1 516 0
 1179 0006 2368     		ldr	r3, [r4]
 1180 0008 0193     		str	r3, [sp, #4]
 1181              	.LVL96:
 1182              		.loc 1 521 0
 1183 000a 012A     		cmp	r2, #1
 1184 000c 0DD0     		beq	.L136
 1185              		.loc 1 527 0
 1186 000e 0B78     		ldrb	r3, [r1]	@ zero_extendqisi2
 1187 0010 7BB1     		cbz	r3, .L134
 1188              		.loc 1 530 0
 1189 0012 0023     		movs	r3, #0
 1190              		.loc 1 528 0
 1191 0014 C0F84C11 		str	r1, [r0, #332]
 1192              		.loc 1 530 0
 1193 0018 80F85031 		strb	r3, [r0, #336]
 1194              		.loc 1 517 0
 1195 001c 1846     		mov	r0, r3
 1196              	.LVL97:
 1197              	.L132:
ARM GAS  /var/folders/d2/nstgp4h54kz7g1l847x_b8wc0000gn/T//ccoy4Txs.s 			page 22


 1198              		.loc 1 539 0
 1199 001e 019A     		ldr	r2, [sp, #4]
 1200              	.LVL98:
 1201 0020 2368     		ldr	r3, [r4]
 1202 0022 9A42     		cmp	r2, r3
 1203 0024 08D1     		bne	.L137
 1204 0026 02B0     		add	sp, sp, #8
 1205              		.cfi_remember_state
 1206              		.cfi_def_cfa_offset 8
 1207              		@ sp needed
 1208 0028 10BD     		pop	{r4, pc}
 1209              	.LVL99:
 1210              	.L136:
 1211              		.cfi_restore_state
 1212              		.loc 1 523 0
 1213 002a 80F85021 		strb	r2, [r0, #336]
 1214              		.loc 1 517 0
 1215 002e 0020     		movs	r0, #0
 1216              	.LVL100:
 1217 0030 F5E7     		b	.L132
 1218              	.LVL101:
 1219              	.L134:
 1220              		.loc 1 533 0
 1221 0032 6FF00300 		mvn	r0, #3
 1222              	.LVL102:
 1223 0036 F2E7     		b	.L132
 1224              	.LVL103:
 1225              	.L137:
 1226              		.loc 1 539 0
 1227 0038 FFF7FEFF 		bl	__stack_chk_fail
 1228              	.LVL104:
 1229              	.L139:
 1230              		.align	2
 1231              	.L138:
 1232 003c 00000000 		.word	__stack_chk_guard
 1233              		.cfi_endproc
 1234              	.LFE24:
 1235              		.size	VL53L0X_SetTuningSettingBuffer, .-VL53L0X_SetTuningSettingBuffer
 1236              		.section	.text.VL53L0X_GetTuningSettingBuffer,"ax",%progbits
 1237              		.align	1
 1238              		.p2align 4,,15
 1239              		.global	VL53L0X_GetTuningSettingBuffer
 1240              		.syntax unified
 1241              		.thumb
 1242              		.thumb_func
 1243              		.fpu fpv4-sp-d16
 1244              		.type	VL53L0X_GetTuningSettingBuffer, %function
 1245              	VL53L0X_GetTuningSettingBuffer:
 1246              	.LFB25:
 1247              		.loc 1 543 0
 1248              		.cfi_startproc
 1249              		@ args = 0, pretend = 0, frame = 8
 1250              		@ frame_needed = 0, uses_anonymous_args = 0
 1251              	.LVL105:
 1252 0000 30B5     		push	{r4, r5, lr}
 1253              		.cfi_def_cfa_offset 12
 1254              		.cfi_offset 4, -12
ARM GAS  /var/folders/d2/nstgp4h54kz7g1l847x_b8wc0000gn/T//ccoy4Txs.s 			page 23


 1255              		.cfi_offset 5, -8
 1256              		.cfi_offset 14, -4
 1257 0002 094B     		ldr	r3, .L144
 1258              		.loc 1 548 0
 1259 0004 D0F84C51 		ldr	r5, [r0, #332]
 1260              		.loc 1 543 0
 1261 0008 1C68     		ldr	r4, [r3]
 1262              		.loc 1 548 0
 1263 000a 0D60     		str	r5, [r1]
 1264              		.loc 1 543 0
 1265 000c 83B0     		sub	sp, sp, #12
 1266              		.cfi_def_cfa_offset 24
 1267              		.loc 1 549 0
 1268 000e 90F85011 		ldrb	r1, [r0, #336]	@ zero_extendqisi2
 1269              	.LVL106:
 1270 0012 1170     		strb	r1, [r2]
 1271              		.loc 1 543 0
 1272 0014 0194     		str	r4, [sp, #4]
 1273              	.LVL107:
 1274              		.loc 1 554 0
 1275 0016 019A     		ldr	r2, [sp, #4]
 1276              	.LVL108:
 1277 0018 1B68     		ldr	r3, [r3]
 1278 001a 9A42     		cmp	r2, r3
 1279 001c 02D1     		bne	.L143
 1280 001e 0020     		movs	r0, #0
 1281              	.LVL109:
 1282 0020 03B0     		add	sp, sp, #12
 1283              		.cfi_remember_state
 1284              		.cfi_def_cfa_offset 12
 1285              		@ sp needed
 1286 0022 30BD     		pop	{r4, r5, pc}
 1287              	.LVL110:
 1288              	.L143:
 1289              		.cfi_restore_state
 1290 0024 FFF7FEFF 		bl	__stack_chk_fail
 1291              	.LVL111:
 1292              	.L145:
 1293              		.align	2
 1294              	.L144:
 1295 0028 00000000 		.word	__stack_chk_guard
 1296              		.cfi_endproc
 1297              	.LFE25:
 1298              		.size	VL53L0X_GetTuningSettingBuffer, .-VL53L0X_GetTuningSettingBuffer
 1299              		.section	.text.VL53L0X_WaitDeviceBooted,"ax",%progbits
 1300              		.align	1
 1301              		.p2align 4,,15
 1302              		.global	VL53L0X_WaitDeviceBooted
 1303              		.syntax unified
 1304              		.thumb
 1305              		.thumb_func
 1306              		.fpu fpv4-sp-d16
 1307              		.type	VL53L0X_WaitDeviceBooted, %function
 1308              	VL53L0X_WaitDeviceBooted:
 1309              	.LFB27:
 1310              		.loc 1 736 0
 1311              		.cfi_startproc
ARM GAS  /var/folders/d2/nstgp4h54kz7g1l847x_b8wc0000gn/T//ccoy4Txs.s 			page 24


 1312              		@ args = 0, pretend = 0, frame = 8
 1313              		@ frame_needed = 0, uses_anonymous_args = 0
 1314              	.LVL112:
 1315 0000 00B5     		push	{lr}
 1316              		.cfi_def_cfa_offset 4
 1317              		.cfi_offset 14, -4
 1318 0002 074B     		ldr	r3, .L150
 1319 0004 83B0     		sub	sp, sp, #12
 1320              		.cfi_def_cfa_offset 16
 1321              		.loc 1 736 0
 1322 0006 1A68     		ldr	r2, [r3]
 1323 0008 0192     		str	r2, [sp, #4]
 1324              	.LVL113:
 1325              		.loc 1 745 0
 1326 000a 019A     		ldr	r2, [sp, #4]
 1327 000c 1B68     		ldr	r3, [r3]
 1328 000e 9A42     		cmp	r2, r3
 1329 0010 04D1     		bne	.L149
 1330 0012 6FF06200 		mvn	r0, #98
 1331              	.LVL114:
 1332 0016 03B0     		add	sp, sp, #12
 1333              		.cfi_remember_state
 1334              		.cfi_def_cfa_offset 4
 1335              		@ sp needed
 1336 0018 5DF804FB 		ldr	pc, [sp], #4
 1337              	.LVL115:
 1338              	.L149:
 1339              		.cfi_restore_state
 1340 001c FFF7FEFF 		bl	__stack_chk_fail
 1341              	.LVL116:
 1342              	.L151:
 1343              		.align	2
 1344              	.L150:
 1345 0020 00000000 		.word	__stack_chk_guard
 1346              		.cfi_endproc
 1347              	.LFE27:
 1348              		.size	VL53L0X_WaitDeviceBooted, .-VL53L0X_WaitDeviceBooted
 1349              		.section	.text.VL53L0X_ResetDevice,"ax",%progbits
 1350              		.align	1
 1351              		.p2align 4,,15
 1352              		.global	VL53L0X_ResetDevice
 1353              		.syntax unified
 1354              		.thumb
 1355              		.thumb_func
 1356              		.fpu fpv4-sp-d16
 1357              		.type	VL53L0X_ResetDevice, %function
 1358              	VL53L0X_ResetDevice:
 1359              	.LFB28:
 1360              		.loc 1 748 0
 1361              		.cfi_startproc
 1362              		@ args = 0, pretend = 0, frame = 8
 1363              		@ frame_needed = 0, uses_anonymous_args = 0
 1364              	.LVL117:
 1365 0000 F0B5     		push	{r4, r5, r6, r7, lr}
 1366              		.cfi_def_cfa_offset 20
 1367              		.cfi_offset 4, -20
 1368              		.cfi_offset 5, -16
ARM GAS  /var/folders/d2/nstgp4h54kz7g1l847x_b8wc0000gn/T//ccoy4Txs.s 			page 25


 1369              		.cfi_offset 6, -12
 1370              		.cfi_offset 7, -8
 1371              		.cfi_offset 14, -4
 1372 0002 1F4F     		ldr	r7, .L165
 1373 0004 83B0     		sub	sp, sp, #12
 1374              		.cfi_def_cfa_offset 32
 1375              		.loc 1 748 0
 1376 0006 3B68     		ldr	r3, [r7]
 1377 0008 0193     		str	r3, [sp, #4]
 1378              	.LVL118:
 1379              		.loc 1 754 0
 1380 000a 0022     		movs	r2, #0
 1381 000c BF21     		movs	r1, #191
 1382              		.loc 1 748 0
 1383 000e 0446     		mov	r4, r0
 1384              		.loc 1 754 0
 1385 0010 FFF7FEFF 		bl	VL53L0X_WrByte
 1386              	.LVL119:
 1387              		.loc 1 758 0
 1388 0014 50B9     		cbnz	r0, .L153
 1389 0016 0DF10305 		add	r5, sp, #3
 1390              	.LVL120:
 1391              	.L154:
 1392              		.loc 1 760 0 discriminator 1
 1393 001a 2A46     		mov	r2, r5
 1394 001c C021     		movs	r1, #192
 1395 001e 2046     		mov	r0, r4
 1396 0020 FFF7FEFF 		bl	VL53L0X_RdByte
 1397              	.LVL121:
 1398              		.loc 1 762 0 discriminator 1
 1399 0024 9DF80330 		ldrb	r3, [sp, #3]	@ zero_extendqisi2
 1400 0028 002B     		cmp	r3, #0
 1401 002a F6D1     		bne	.L154
 1402              	.L153:
 1403              		.loc 1 765 0
 1404 002c 2046     		mov	r0, r4
 1405 002e FFF7FEFF 		bl	VL53L0X_PollingDelay
 1406              	.LVL122:
 1407              		.loc 1 768 0
 1408 0032 0122     		movs	r2, #1
 1409 0034 BF21     		movs	r1, #191
 1410 0036 2046     		mov	r0, r4
 1411 0038 FFF7FEFF 		bl	VL53L0X_WrByte
 1412              	.LVL123:
 1413              		.loc 1 772 0
 1414 003c 0646     		mov	r6, r0
 1415 003e C0B9     		cbnz	r0, .L155
 1416 0040 0DF10305 		add	r5, sp, #3
 1417              	.LVL124:
 1418              	.L156:
 1419              		.loc 1 774 0 discriminator 1
 1420 0044 2A46     		mov	r2, r5
 1421 0046 C021     		movs	r1, #192
 1422 0048 2046     		mov	r0, r4
 1423 004a FFF7FEFF 		bl	VL53L0X_RdByte
 1424              	.LVL125:
 1425              		.loc 1 776 0 discriminator 1
ARM GAS  /var/folders/d2/nstgp4h54kz7g1l847x_b8wc0000gn/T//ccoy4Txs.s 			page 26


 1426 004e 9DF80330 		ldrb	r3, [sp, #3]	@ zero_extendqisi2
 1427              		.loc 1 774 0 discriminator 1
 1428 0052 0646     		mov	r6, r0
 1429              	.LVL126:
 1430              		.loc 1 776 0 discriminator 1
 1431 0054 002B     		cmp	r3, #0
 1432 0056 F5D0     		beq	.L156
 1433              	.LVL127:
 1434              		.loc 1 779 0
 1435 0058 2046     		mov	r0, r4
 1436 005a FFF7FEFF 		bl	VL53L0X_PollingDelay
 1437              	.LVL128:
 1438              		.loc 1 782 0
 1439 005e 0EB9     		cbnz	r6, .L157
 1440              		.loc 1 783 0
 1441 0060 84F83261 		strb	r6, [r4, #306]
 1442              	.L157:
 1443              		.loc 1 788 0
 1444 0064 019A     		ldr	r2, [sp, #4]
 1445 0066 3B68     		ldr	r3, [r7]
 1446 0068 9A42     		cmp	r2, r3
 1447 006a 3046     		mov	r0, r6
 1448 006c 05D1     		bne	.L164
 1449 006e 03B0     		add	sp, sp, #12
 1450              		.cfi_remember_state
 1451              		.cfi_def_cfa_offset 20
 1452              		@ sp needed
 1453 0070 F0BD     		pop	{r4, r5, r6, r7, pc}
 1454              	.LVL129:
 1455              	.L155:
 1456              		.cfi_restore_state
 1457              		.loc 1 779 0
 1458 0072 2046     		mov	r0, r4
 1459 0074 FFF7FEFF 		bl	VL53L0X_PollingDelay
 1460              	.LVL130:
 1461 0078 F4E7     		b	.L157
 1462              	.L164:
 1463              		.loc 1 788 0
 1464 007a FFF7FEFF 		bl	__stack_chk_fail
 1465              	.LVL131:
 1466              	.L166:
 1467 007e 00BF     		.align	2
 1468              	.L165:
 1469 0080 00000000 		.word	__stack_chk_guard
 1470              		.cfi_endproc
 1471              	.LFE28:
 1472              		.size	VL53L0X_ResetDevice, .-VL53L0X_ResetDevice
 1473              		.section	.text.VL53L0X_SetDeviceMode,"ax",%progbits
 1474              		.align	1
 1475              		.p2align 4,,15
 1476              		.global	VL53L0X_SetDeviceMode
 1477              		.syntax unified
 1478              		.thumb
 1479              		.thumb_func
 1480              		.fpu fpv4-sp-d16
 1481              		.type	VL53L0X_SetDeviceMode, %function
 1482              	VL53L0X_SetDeviceMode:
ARM GAS  /var/folders/d2/nstgp4h54kz7g1l847x_b8wc0000gn/T//ccoy4Txs.s 			page 27


 1483              	.LFB31:
 1484              		.loc 1 908 0
 1485              		.cfi_startproc
 1486              		@ args = 0, pretend = 0, frame = 8
 1487              		@ frame_needed = 0, uses_anonymous_args = 0
 1488              	.LVL132:
 1489 0000 10B5     		push	{r4, lr}
 1490              		.cfi_def_cfa_offset 8
 1491              		.cfi_offset 4, -8
 1492              		.cfi_offset 14, -4
 1493 0002 0C4C     		ldr	r4, .L174
 1494 0004 82B0     		sub	sp, sp, #8
 1495              		.cfi_def_cfa_offset 16
 1496              		.loc 1 908 0
 1497 0006 2368     		ldr	r3, [r4]
 1498 0008 0193     		str	r3, [sp, #4]
 1499              	.LVL133:
 1500 000a 1529     		cmp	r1, #21
 1501 000c 0CD8     		bhi	.L171
 1502 000e 0122     		movs	r2, #1
 1503 0010 094B     		ldr	r3, .L174+4
 1504 0012 8A40     		lsls	r2, r2, r1
 1505 0014 1340     		ands	r3, r3, r2
 1506 0016 3BB1     		cbz	r3, .L171
 1507              		.loc 1 920 0
 1508 0018 0174     		strb	r1, [r0, #16]
 1509              		.loc 1 909 0
 1510 001a 0020     		movs	r0, #0
 1511              	.LVL134:
 1512              	.L168:
 1513              		.loc 1 929 0
 1514 001c 019A     		ldr	r2, [sp, #4]
 1515 001e 2368     		ldr	r3, [r4]
 1516 0020 9A42     		cmp	r2, r3
 1517 0022 04D1     		bne	.L173
 1518 0024 02B0     		add	sp, sp, #8
 1519              		.cfi_remember_state
 1520              		.cfi_def_cfa_offset 8
 1521              		@ sp needed
 1522 0026 10BD     		pop	{r4, pc}
 1523              	.LVL135:
 1524              	.L171:
 1525              		.cfi_restore_state
 1526              		.loc 1 924 0
 1527 0028 6FF00700 		mvn	r0, #7
 1528              	.LVL136:
 1529 002c F6E7     		b	.L168
 1530              	.LVL137:
 1531              	.L173:
 1532              		.loc 1 929 0
 1533 002e FFF7FEFF 		bl	__stack_chk_fail
 1534              	.LVL138:
 1535              	.L175:
 1536 0032 00BF     		.align	2
 1537              	.L174:
 1538 0034 00000000 		.word	__stack_chk_guard
 1539 0038 0B003000 		.word	3145739
ARM GAS  /var/folders/d2/nstgp4h54kz7g1l847x_b8wc0000gn/T//ccoy4Txs.s 			page 28


 1540              		.cfi_endproc
 1541              	.LFE31:
 1542              		.size	VL53L0X_SetDeviceMode, .-VL53L0X_SetDeviceMode
 1543              		.section	.text.VL53L0X_GetDeviceMode,"ax",%progbits
 1544              		.align	1
 1545              		.p2align 4,,15
 1546              		.global	VL53L0X_GetDeviceMode
 1547              		.syntax unified
 1548              		.thumb
 1549              		.thumb_func
 1550              		.fpu fpv4-sp-d16
 1551              		.type	VL53L0X_GetDeviceMode, %function
 1552              	VL53L0X_GetDeviceMode:
 1553              	.LFB32:
 1554              		.loc 1 933 0
 1555              		.cfi_startproc
 1556              		@ args = 0, pretend = 0, frame = 8
 1557              		@ frame_needed = 0, uses_anonymous_args = 0
 1558              	.LVL139:
 1559 0000 00B5     		push	{lr}
 1560              		.cfi_def_cfa_offset 4
 1561              		.cfi_offset 14, -4
 1562 0002 084B     		ldr	r3, .L180
 1563              		.loc 1 937 0
 1564 0004 027C     		ldrb	r2, [r0, #16]	@ zero_extendqisi2
 1565              		.loc 1 933 0
 1566 0006 1868     		ldr	r0, [r3]
 1567              	.LVL140:
 1568              		.loc 1 937 0
 1569 0008 0A70     		strb	r2, [r1]
 1570              		.loc 1 933 0
 1571 000a 83B0     		sub	sp, sp, #12
 1572              		.cfi_def_cfa_offset 16
 1573              		.loc 1 933 0
 1574 000c 0190     		str	r0, [sp, #4]
 1575              	.LVL141:
 1576              		.loc 1 941 0
 1577 000e 019A     		ldr	r2, [sp, #4]
 1578 0010 1B68     		ldr	r3, [r3]
 1579 0012 9A42     		cmp	r2, r3
 1580 0014 03D1     		bne	.L179
 1581 0016 0020     		movs	r0, #0
 1582 0018 03B0     		add	sp, sp, #12
 1583              		.cfi_remember_state
 1584              		.cfi_def_cfa_offset 4
 1585              		@ sp needed
 1586 001a 5DF804FB 		ldr	pc, [sp], #4
 1587              	.L179:
 1588              		.cfi_restore_state
 1589 001e FFF7FEFF 		bl	__stack_chk_fail
 1590              	.LVL142:
 1591              	.L181:
 1592 0022 00BF     		.align	2
 1593              	.L180:
 1594 0024 00000000 		.word	__stack_chk_guard
 1595              		.cfi_endproc
 1596              	.LFE32:
ARM GAS  /var/folders/d2/nstgp4h54kz7g1l847x_b8wc0000gn/T//ccoy4Txs.s 			page 29


 1597              		.size	VL53L0X_GetDeviceMode, .-VL53L0X_GetDeviceMode
 1598              		.section	.text.VL53L0X_SetRangeFractionEnable,"ax",%progbits
 1599              		.align	1
 1600              		.p2align 4,,15
 1601              		.global	VL53L0X_SetRangeFractionEnable
 1602              		.syntax unified
 1603              		.thumb
 1604              		.thumb_func
 1605              		.fpu fpv4-sp-d16
 1606              		.type	VL53L0X_SetRangeFractionEnable, %function
 1607              	VL53L0X_SetRangeFractionEnable:
 1608              	.LFB33:
 1609              		.loc 1 944 0
 1610              		.cfi_startproc
 1611              		@ args = 0, pretend = 0, frame = 8
 1612              		@ frame_needed = 0, uses_anonymous_args = 0
 1613              	.LVL143:
 1614 0000 70B5     		push	{r4, r5, r6, lr}
 1615              		.cfi_def_cfa_offset 16
 1616              		.cfi_offset 4, -16
 1617              		.cfi_offset 5, -12
 1618              		.cfi_offset 6, -8
 1619              		.cfi_offset 14, -4
 1620 0002 0A4C     		ldr	r4, .L187
 1621 0004 82B0     		sub	sp, sp, #8
 1622              		.cfi_def_cfa_offset 24
 1623              		.loc 1 944 0
 1624 0006 0D46     		mov	r5, r1
 1625 0008 2368     		ldr	r3, [r4]
 1626 000a 0193     		str	r3, [sp, #4]
 1627              	.LVL144:
 1628              		.loc 1 949 0
 1629 000c 0A46     		mov	r2, r1
 1630 000e 0921     		movs	r1, #9
 1631              	.LVL145:
 1632              		.loc 1 944 0
 1633 0010 0646     		mov	r6, r0
 1634              		.loc 1 949 0
 1635 0012 FFF7FEFF 		bl	VL53L0X_WrByte
 1636              	.LVL146:
 1637              		.loc 1 951 0
 1638 0016 08B9     		cbnz	r0, .L183
 1639              		.loc 1 952 0
 1640 0018 86F83151 		strb	r5, [r6, #305]
 1641              	.L183:
 1642              		.loc 1 956 0
 1643 001c 019A     		ldr	r2, [sp, #4]
 1644 001e 2368     		ldr	r3, [r4]
 1645 0020 9A42     		cmp	r2, r3
 1646 0022 01D1     		bne	.L186
 1647 0024 02B0     		add	sp, sp, #8
 1648              		.cfi_remember_state
 1649              		.cfi_def_cfa_offset 16
 1650              		@ sp needed
 1651 0026 70BD     		pop	{r4, r5, r6, pc}
 1652              	.LVL147:
 1653              	.L186:
ARM GAS  /var/folders/d2/nstgp4h54kz7g1l847x_b8wc0000gn/T//ccoy4Txs.s 			page 30


 1654              		.cfi_restore_state
 1655 0028 FFF7FEFF 		bl	__stack_chk_fail
 1656              	.LVL148:
 1657              	.L188:
 1658              		.align	2
 1659              	.L187:
 1660 002c 00000000 		.word	__stack_chk_guard
 1661              		.cfi_endproc
 1662              	.LFE33:
 1663              		.size	VL53L0X_SetRangeFractionEnable, .-VL53L0X_SetRangeFractionEnable
 1664              		.section	.text.VL53L0X_GetFractionEnable,"ax",%progbits
 1665              		.align	1
 1666              		.p2align 4,,15
 1667              		.global	VL53L0X_GetFractionEnable
 1668              		.syntax unified
 1669              		.thumb
 1670              		.thumb_func
 1671              		.fpu fpv4-sp-d16
 1672              		.type	VL53L0X_GetFractionEnable, %function
 1673              	VL53L0X_GetFractionEnable:
 1674              	.LFB34:
 1675              		.loc 1 959 0
 1676              		.cfi_startproc
 1677              		@ args = 0, pretend = 0, frame = 8
 1678              		@ frame_needed = 0, uses_anonymous_args = 0
 1679              	.LVL149:
 1680 0000 30B5     		push	{r4, r5, lr}
 1681              		.cfi_def_cfa_offset 12
 1682              		.cfi_offset 4, -12
 1683              		.cfi_offset 5, -8
 1684              		.cfi_offset 14, -4
 1685 0002 0B4D     		ldr	r5, .L194
 1686 0004 83B0     		sub	sp, sp, #12
 1687              		.cfi_def_cfa_offset 24
 1688              		.loc 1 959 0
 1689 0006 0C46     		mov	r4, r1
 1690 0008 2B68     		ldr	r3, [r5]
 1691 000a 0193     		str	r3, [sp, #4]
 1692              	.LVL150:
 1693              		.loc 1 963 0
 1694 000c 0A46     		mov	r2, r1
 1695 000e 0921     		movs	r1, #9
 1696              	.LVL151:
 1697 0010 FFF7FEFF 		bl	VL53L0X_RdByte
 1698              	.LVL152:
 1699              		.loc 1 965 0
 1700 0014 18B9     		cbnz	r0, .L190
 1701              		.loc 1 966 0
 1702 0016 2378     		ldrb	r3, [r4]	@ zero_extendqisi2
 1703 0018 03F00103 		and	r3, r3, #1
 1704 001c 2370     		strb	r3, [r4]
 1705              	.L190:
 1706              		.loc 1 970 0
 1707 001e 019A     		ldr	r2, [sp, #4]
 1708 0020 2B68     		ldr	r3, [r5]
 1709 0022 9A42     		cmp	r2, r3
 1710 0024 01D1     		bne	.L193
ARM GAS  /var/folders/d2/nstgp4h54kz7g1l847x_b8wc0000gn/T//ccoy4Txs.s 			page 31


 1711 0026 03B0     		add	sp, sp, #12
 1712              		.cfi_remember_state
 1713              		.cfi_def_cfa_offset 12
 1714              		@ sp needed
 1715 0028 30BD     		pop	{r4, r5, pc}
 1716              	.LVL153:
 1717              	.L193:
 1718              		.cfi_restore_state
 1719 002a FFF7FEFF 		bl	__stack_chk_fail
 1720              	.LVL154:
 1721              	.L195:
 1722 002e 00BF     		.align	2
 1723              	.L194:
 1724 0030 00000000 		.word	__stack_chk_guard
 1725              		.cfi_endproc
 1726              	.LFE34:
 1727              		.size	VL53L0X_GetFractionEnable, .-VL53L0X_GetFractionEnable
 1728              		.section	.text.VL53L0X_SetHistogramMode,"ax",%progbits
 1729              		.align	1
 1730              		.p2align 4,,15
 1731              		.global	VL53L0X_SetHistogramMode
 1732              		.syntax unified
 1733              		.thumb
 1734              		.thumb_func
 1735              		.fpu fpv4-sp-d16
 1736              		.type	VL53L0X_SetHistogramMode, %function
 1737              	VL53L0X_SetHistogramMode:
 1738              	.LFB105:
 1739              		.cfi_startproc
 1740              		@ args = 0, pretend = 0, frame = 8
 1741              		@ frame_needed = 0, uses_anonymous_args = 0
 1742 0000 00B5     		push	{lr}
 1743              		.cfi_def_cfa_offset 4
 1744              		.cfi_offset 14, -4
 1745 0002 074B     		ldr	r3, .L200
 1746 0004 83B0     		sub	sp, sp, #12
 1747              		.cfi_def_cfa_offset 16
 1748 0006 1A68     		ldr	r2, [r3]
 1749 0008 0192     		str	r2, [sp, #4]
 1750 000a 019A     		ldr	r2, [sp, #4]
 1751 000c 1B68     		ldr	r3, [r3]
 1752 000e 9A42     		cmp	r2, r3
 1753 0010 04D1     		bne	.L199
 1754 0012 6FF06200 		mvn	r0, #98
 1755 0016 03B0     		add	sp, sp, #12
 1756              		.cfi_remember_state
 1757              		.cfi_def_cfa_offset 4
 1758              		@ sp needed
 1759 0018 5DF804FB 		ldr	pc, [sp], #4
 1760              	.L199:
 1761              		.cfi_restore_state
 1762 001c FFF7FEFF 		bl	__stack_chk_fail
 1763              	.L201:
 1764              		.align	2
 1765              	.L200:
 1766 0020 00000000 		.word	__stack_chk_guard
 1767              		.cfi_endproc
ARM GAS  /var/folders/d2/nstgp4h54kz7g1l847x_b8wc0000gn/T//ccoy4Txs.s 			page 32


 1768              	.LFE105:
 1769              		.size	VL53L0X_SetHistogramMode, .-VL53L0X_SetHistogramMode
 1770              		.section	.text.VL53L0X_GetHistogramMode,"ax",%progbits
 1771              		.align	1
 1772              		.p2align 4,,15
 1773              		.global	VL53L0X_GetHistogramMode
 1774              		.syntax unified
 1775              		.thumb
 1776              		.thumb_func
 1777              		.fpu fpv4-sp-d16
 1778              		.type	VL53L0X_GetHistogramMode, %function
 1779              	VL53L0X_GetHistogramMode:
 1780              	.LFB107:
 1781              		.cfi_startproc
 1782              		@ args = 0, pretend = 0, frame = 8
 1783              		@ frame_needed = 0, uses_anonymous_args = 0
 1784 0000 00B5     		push	{lr}
 1785              		.cfi_def_cfa_offset 4
 1786              		.cfi_offset 14, -4
 1787 0002 074B     		ldr	r3, .L206
 1788 0004 83B0     		sub	sp, sp, #12
 1789              		.cfi_def_cfa_offset 16
 1790 0006 1A68     		ldr	r2, [r3]
 1791 0008 0192     		str	r2, [sp, #4]
 1792 000a 019A     		ldr	r2, [sp, #4]
 1793 000c 1B68     		ldr	r3, [r3]
 1794 000e 9A42     		cmp	r2, r3
 1795 0010 04D1     		bne	.L205
 1796 0012 6FF06200 		mvn	r0, #98
 1797 0016 03B0     		add	sp, sp, #12
 1798              		.cfi_remember_state
 1799              		.cfi_def_cfa_offset 4
 1800              		@ sp needed
 1801 0018 5DF804FB 		ldr	pc, [sp], #4
 1802              	.L205:
 1803              		.cfi_restore_state
 1804 001c FFF7FEFF 		bl	__stack_chk_fail
 1805              	.L207:
 1806              		.align	2
 1807              	.L206:
 1808 0020 00000000 		.word	__stack_chk_guard
 1809              		.cfi_endproc
 1810              	.LFE107:
 1811              		.size	VL53L0X_GetHistogramMode, .-VL53L0X_GetHistogramMode
 1812              		.section	.text.VL53L0X_SetMeasurementTimingBudgetMicroSeconds,"ax",%progbits
 1813              		.align	1
 1814              		.p2align 4,,15
 1815              		.global	VL53L0X_SetMeasurementTimingBudgetMicroSeconds
 1816              		.syntax unified
 1817              		.thumb
 1818              		.thumb_func
 1819              		.fpu fpv4-sp-d16
 1820              		.type	VL53L0X_SetMeasurementTimingBudgetMicroSeconds, %function
 1821              	VL53L0X_SetMeasurementTimingBudgetMicroSeconds:
 1822              	.LFB37:
 1823              		.loc 1 1002 0
 1824              		.cfi_startproc
ARM GAS  /var/folders/d2/nstgp4h54kz7g1l847x_b8wc0000gn/T//ccoy4Txs.s 			page 33


 1825              		@ args = 0, pretend = 0, frame = 8
 1826              		@ frame_needed = 0, uses_anonymous_args = 0
 1827              	.LVL155:
 1828              		.loc 1 1002 0
 1829 0000 00B5     		push	{lr}
 1830              		.cfi_def_cfa_offset 4
 1831              		.cfi_offset 14, -4
 1832 0002 074B     		ldr	r3, .L213
 1833 0004 83B0     		sub	sp, sp, #12
 1834              		.cfi_def_cfa_offset 16
 1835              		.loc 1 1002 0
 1836 0006 1A68     		ldr	r2, [r3]
 1837 0008 0192     		str	r2, [sp, #4]
 1838              	.LVL156:
 1839              		.loc 1 1006 0
 1840 000a 019A     		ldr	r2, [sp, #4]
 1841 000c 1B68     		ldr	r3, [r3]
 1842 000e 9A42     		cmp	r2, r3
 1843 0010 04D1     		bne	.L212
 1844              		.loc 1 1012 0
 1845 0012 03B0     		add	sp, sp, #12
 1846              		.cfi_remember_state
 1847              		.cfi_def_cfa_offset 4
 1848              		@ sp needed
 1849 0014 5DF804EB 		ldr	lr, [sp], #4
 1850              		.cfi_restore 14
 1851              		.cfi_def_cfa_offset 0
 1852              		.loc 1 1006 0
 1853 0018 FFF7FEBF 		b	VL53L0X_set_measurement_timing_budget_micro_seconds
 1854              	.LVL157:
 1855              	.L212:
 1856              		.cfi_restore_state
 1857 001c FFF7FEFF 		bl	__stack_chk_fail
 1858              	.LVL158:
 1859              	.L214:
 1860              		.align	2
 1861              	.L213:
 1862 0020 00000000 		.word	__stack_chk_guard
 1863              		.cfi_endproc
 1864              	.LFE37:
 1865              		.size	VL53L0X_SetMeasurementTimingBudgetMicroSeconds, .-VL53L0X_SetMeasurementTimingBudgetMicroSec
 1866              		.section	.text.VL53L0X_GetMeasurementTimingBudgetMicroSeconds,"ax",%progbits
 1867              		.align	1
 1868              		.p2align 4,,15
 1869              		.global	VL53L0X_GetMeasurementTimingBudgetMicroSeconds
 1870              		.syntax unified
 1871              		.thumb
 1872              		.thumb_func
 1873              		.fpu fpv4-sp-d16
 1874              		.type	VL53L0X_GetMeasurementTimingBudgetMicroSeconds, %function
 1875              	VL53L0X_GetMeasurementTimingBudgetMicroSeconds:
 1876              	.LFB38:
 1877              		.loc 1 1016 0
 1878              		.cfi_startproc
 1879              		@ args = 0, pretend = 0, frame = 8
 1880              		@ frame_needed = 0, uses_anonymous_args = 0
 1881              	.LVL159:
ARM GAS  /var/folders/d2/nstgp4h54kz7g1l847x_b8wc0000gn/T//ccoy4Txs.s 			page 34


 1882 0000 00B5     		push	{lr}
 1883              		.cfi_def_cfa_offset 4
 1884              		.cfi_offset 14, -4
 1885 0002 074B     		ldr	r3, .L220
 1886 0004 83B0     		sub	sp, sp, #12
 1887              		.cfi_def_cfa_offset 16
 1888              		.loc 1 1016 0
 1889 0006 1A68     		ldr	r2, [r3]
 1890 0008 0192     		str	r2, [sp, #4]
 1891              	.LVL160:
 1892              		.loc 1 1020 0
 1893 000a 019A     		ldr	r2, [sp, #4]
 1894 000c 1B68     		ldr	r3, [r3]
 1895 000e 9A42     		cmp	r2, r3
 1896 0010 04D1     		bne	.L219
 1897              		.loc 1 1025 0
 1898 0012 03B0     		add	sp, sp, #12
 1899              		.cfi_remember_state
 1900              		.cfi_def_cfa_offset 4
 1901              		@ sp needed
 1902 0014 5DF804EB 		ldr	lr, [sp], #4
 1903              		.cfi_restore 14
 1904              		.cfi_def_cfa_offset 0
 1905              		.loc 1 1020 0
 1906 0018 FFF7FEBF 		b	VL53L0X_get_measurement_timing_budget_micro_seconds
 1907              	.LVL161:
 1908              	.L219:
 1909              		.cfi_restore_state
 1910 001c FFF7FEFF 		bl	__stack_chk_fail
 1911              	.LVL162:
 1912              	.L221:
 1913              		.align	2
 1914              	.L220:
 1915 0020 00000000 		.word	__stack_chk_guard
 1916              		.cfi_endproc
 1917              	.LFE38:
 1918              		.size	VL53L0X_GetMeasurementTimingBudgetMicroSeconds, .-VL53L0X_GetMeasurementTimingBudgetMicroSec
 1919              		.section	.text.VL53L0X_SetVcselPulsePeriod,"ax",%progbits
 1920              		.align	1
 1921              		.p2align 4,,15
 1922              		.global	VL53L0X_SetVcselPulsePeriod
 1923              		.syntax unified
 1924              		.thumb
 1925              		.thumb_func
 1926              		.fpu fpv4-sp-d16
 1927              		.type	VL53L0X_SetVcselPulsePeriod, %function
 1928              	VL53L0X_SetVcselPulsePeriod:
 1929              	.LFB39:
 1930              		.loc 1 1029 0
 1931              		.cfi_startproc
 1932              		@ args = 0, pretend = 0, frame = 8
 1933              		@ frame_needed = 0, uses_anonymous_args = 0
 1934              	.LVL163:
 1935 0000 10B5     		push	{r4, lr}
 1936              		.cfi_def_cfa_offset 8
 1937              		.cfi_offset 4, -8
 1938              		.cfi_offset 14, -4
ARM GAS  /var/folders/d2/nstgp4h54kz7g1l847x_b8wc0000gn/T//ccoy4Txs.s 			page 35


 1939 0002 074B     		ldr	r3, .L227
 1940 0004 82B0     		sub	sp, sp, #8
 1941              		.cfi_def_cfa_offset 16
 1942              		.loc 1 1029 0
 1943 0006 1C68     		ldr	r4, [r3]
 1944 0008 0194     		str	r4, [sp, #4]
 1945              	.LVL164:
 1946              		.loc 1 1033 0
 1947 000a 019C     		ldr	r4, [sp, #4]
 1948 000c 1B68     		ldr	r3, [r3]
 1949 000e 9C42     		cmp	r4, r3
 1950 0010 04D1     		bne	.L226
 1951              		.loc 1 1038 0
 1952 0012 02B0     		add	sp, sp, #8
 1953              		.cfi_remember_state
 1954              		.cfi_def_cfa_offset 8
 1955              		@ sp needed
 1956 0014 BDE81040 		pop	{r4, lr}
 1957              		.cfi_restore 14
 1958              		.cfi_restore 4
 1959              		.cfi_def_cfa_offset 0
 1960              		.loc 1 1033 0
 1961 0018 FFF7FEBF 		b	VL53L0X_set_vcsel_pulse_period
 1962              	.LVL165:
 1963              	.L226:
 1964              		.cfi_restore_state
 1965 001c FFF7FEFF 		bl	__stack_chk_fail
 1966              	.LVL166:
 1967              	.L228:
 1968              		.align	2
 1969              	.L227:
 1970 0020 00000000 		.word	__stack_chk_guard
 1971              		.cfi_endproc
 1972              	.LFE39:
 1973              		.size	VL53L0X_SetVcselPulsePeriod, .-VL53L0X_SetVcselPulsePeriod
 1974              		.section	.text.VL53L0X_GetVcselPulsePeriod,"ax",%progbits
 1975              		.align	1
 1976              		.p2align 4,,15
 1977              		.global	VL53L0X_GetVcselPulsePeriod
 1978              		.syntax unified
 1979              		.thumb
 1980              		.thumb_func
 1981              		.fpu fpv4-sp-d16
 1982              		.type	VL53L0X_GetVcselPulsePeriod, %function
 1983              	VL53L0X_GetVcselPulsePeriod:
 1984              	.LFB40:
 1985              		.loc 1 1042 0
 1986              		.cfi_startproc
 1987              		@ args = 0, pretend = 0, frame = 8
 1988              		@ frame_needed = 0, uses_anonymous_args = 0
 1989              	.LVL167:
 1990 0000 10B5     		push	{r4, lr}
 1991              		.cfi_def_cfa_offset 8
 1992              		.cfi_offset 4, -8
 1993              		.cfi_offset 14, -4
 1994 0002 074B     		ldr	r3, .L234
 1995 0004 82B0     		sub	sp, sp, #8
ARM GAS  /var/folders/d2/nstgp4h54kz7g1l847x_b8wc0000gn/T//ccoy4Txs.s 			page 36


 1996              		.cfi_def_cfa_offset 16
 1997              		.loc 1 1042 0
 1998 0006 1C68     		ldr	r4, [r3]
 1999 0008 0194     		str	r4, [sp, #4]
 2000              	.LVL168:
 2001              		.loc 1 1046 0
 2002 000a 019C     		ldr	r4, [sp, #4]
 2003 000c 1B68     		ldr	r3, [r3]
 2004 000e 9C42     		cmp	r4, r3
 2005 0010 04D1     		bne	.L233
 2006              		.loc 1 1051 0
 2007 0012 02B0     		add	sp, sp, #8
 2008              		.cfi_remember_state
 2009              		.cfi_def_cfa_offset 8
 2010              		@ sp needed
 2011 0014 BDE81040 		pop	{r4, lr}
 2012              		.cfi_restore 14
 2013              		.cfi_restore 4
 2014              		.cfi_def_cfa_offset 0
 2015              		.loc 1 1046 0
 2016 0018 FFF7FEBF 		b	VL53L0X_get_vcsel_pulse_period
 2017              	.LVL169:
 2018              	.L233:
 2019              		.cfi_restore_state
 2020 001c FFF7FEFF 		bl	__stack_chk_fail
 2021              	.LVL170:
 2022              	.L235:
 2023              		.align	2
 2024              	.L234:
 2025 0020 00000000 		.word	__stack_chk_guard
 2026              		.cfi_endproc
 2027              	.LFE40:
 2028              		.size	VL53L0X_GetVcselPulsePeriod, .-VL53L0X_GetVcselPulsePeriod
 2029              		.section	.text.VL53L0X_SetSequenceStepEnable,"ax",%progbits
 2030              		.align	1
 2031              		.p2align 4,,15
 2032              		.global	VL53L0X_SetSequenceStepEnable
 2033              		.syntax unified
 2034              		.thumb
 2035              		.thumb_func
 2036              		.fpu fpv4-sp-d16
 2037              		.type	VL53L0X_SetSequenceStepEnable, %function
 2038              	VL53L0X_SetSequenceStepEnable:
 2039              	.LFB41:
 2040              		.loc 1 1055 0
 2041              		.cfi_startproc
 2042              		@ args = 0, pretend = 0, frame = 8
 2043              		@ frame_needed = 0, uses_anonymous_args = 0
 2044              	.LVL171:
 2045 0000 2DE9F041 		push	{r4, r5, r6, r7, r8, lr}
 2046              		.cfi_def_cfa_offset 24
 2047              		.cfi_offset 4, -24
 2048              		.cfi_offset 5, -20
 2049              		.cfi_offset 6, -16
 2050              		.cfi_offset 7, -12
 2051              		.cfi_offset 8, -8
 2052              		.cfi_offset 14, -4
ARM GAS  /var/folders/d2/nstgp4h54kz7g1l847x_b8wc0000gn/T//ccoy4Txs.s 			page 37


 2053 0004 82B0     		sub	sp, sp, #8
 2054              		.cfi_def_cfa_offset 32
 2055              		.loc 1 1057 0
 2056 0006 02AB     		add	r3, sp, #8
 2057 0008 0024     		movs	r4, #0
 2058              		.loc 1 1055 0
 2059 000a 364D     		ldr	r5, .L258
 2060              		.loc 1 1057 0
 2061 000c 03F8054D 		strb	r4, [r3, #-5]!
 2062              		.loc 1 1055 0
 2063 0010 9046     		mov	r8, r2
 2064 0012 2A68     		ldr	r2, [r5]
 2065              	.LVL172:
 2066 0014 0192     		str	r2, [sp, #4]
 2067              	.LVL173:
 2068 0016 0F46     		mov	r7, r1
 2069              		.loc 1 1062 0
 2070 0018 1A46     		mov	r2, r3
 2071 001a 0121     		movs	r1, #1
 2072              	.LVL174:
 2073              		.loc 1 1055 0
 2074 001c 0646     		mov	r6, r0
 2075              		.loc 1 1062 0
 2076 001e FFF7FEFF 		bl	VL53L0X_RdByte
 2077              	.LVL175:
 2078              		.loc 1 1067 0
 2079 0022 0446     		mov	r4, r0
 2080 0024 E0B9     		cbnz	r0, .L237
 2081              		.loc 1 1068 0
 2082 0026 B8F1010F 		cmp	r8, #1
 2083              		.loc 1 1065 0
 2084 002a 9DF80330 		ldrb	r3, [sp, #3]	@ zero_extendqisi2
 2085              		.loc 1 1068 0
 2086 002e 1FD0     		beq	.L256
 2087              		.loc 1 1094 0
 2088 0030 042F     		cmp	r7, #4
 2089 0032 53D8     		bhi	.L254
 2090 0034 DFE807F0 		tbb	[pc, r7]
 2091              	.L247:
 2092 0038 32       		.byte	(.L246-.L247)/2
 2093 0039 2D       		.byte	(.L248-.L247)/2
 2094 003a 03       		.byte	(.L249-.L247)/2
 2095 003b 28       		.byte	(.L250-.L247)/2
 2096 003c 23       		.byte	(.L251-.L247)/2
 2097 003d 00       		.p2align 1
 2098              	.L249:
 2099              		.loc 1 1102 0
 2100 003e 03F0FB07 		and	r7, r3, #251
 2101              	.LVL176:
 2102              		.loc 1 1116 0
 2103 0042 BB42     		cmp	r3, r7
 2104 0044 0CD0     		beq	.L237
 2105              	.L245:
 2106              		.loc 1 1119 0
 2107 0046 3A46     		mov	r2, r7
 2108 0048 0121     		movs	r1, #1
 2109 004a 3046     		mov	r0, r6
ARM GAS  /var/folders/d2/nstgp4h54kz7g1l847x_b8wc0000gn/T//ccoy4Txs.s 			page 38


 2110 004c FFF7FEFF 		bl	VL53L0X_WrByte
 2111              	.LVL177:
 2112              		.loc 1 1122 0
 2113 0050 0446     		mov	r4, r0
 2114 0052 28B9     		cbnz	r0, .L237
 2115              		.loc 1 1123 0
 2116 0054 86F83071 		strb	r7, [r6, #304]
 2117              	.LVL178:
 2118              	.LBB62:
 2119              	.LBB63:
 2120              		.loc 1 1006 0
 2121 0058 7169     		ldr	r1, [r6, #20]
 2122 005a 3046     		mov	r0, r6
 2123              	.LVL179:
 2124 005c FFF7FEFF 		bl	VL53L0X_set_measurement_timing_budget_micro_seconds
 2125              	.LVL180:
 2126              	.L237:
 2127              	.LBE63:
 2128              	.LBE62:
 2129              		.loc 1 1140 0
 2130 0060 019A     		ldr	r2, [sp, #4]
 2131 0062 2B68     		ldr	r3, [r5]
 2132 0064 9A42     		cmp	r2, r3
 2133 0066 2046     		mov	r0, r4
 2134 0068 36D1     		bne	.L257
 2135 006a 02B0     		add	sp, sp, #8
 2136              		.cfi_remember_state
 2137              		.cfi_def_cfa_offset 24
 2138              		@ sp needed
 2139 006c BDE8F081 		pop	{r4, r5, r6, r7, r8, pc}
 2140              	.LVL181:
 2141              	.L256:
 2142              		.cfi_restore_state
 2143              		.loc 1 1072 0
 2144 0070 042F     		cmp	r7, #4
 2145 0072 33D8     		bhi	.L254
 2146 0074 DFE807F0 		tbb	[pc, r7]
 2147              	.L240:
 2148 0078 2B       		.byte	(.L239-.L240)/2
 2149 0079 26       		.byte	(.L241-.L240)/2
 2150 007a 21       		.byte	(.L242-.L240)/2
 2151 007b 1C       		.byte	(.L243-.L240)/2
 2152 007c 17       		.byte	(.L244-.L240)/2
 2153 007d 00       		.p2align 1
 2154              	.L251:
 2155              		.loc 1 1108 0
 2156 007e 03F07F07 		and	r7, r3, #127
 2157              	.LVL182:
 2158              		.loc 1 1116 0
 2159 0082 BB42     		cmp	r3, r7
 2160 0084 DFD1     		bne	.L245
 2161 0086 EBE7     		b	.L237
 2162              	.LVL183:
 2163              	.L250:
 2164              		.loc 1 1105 0
 2165 0088 03F0BF07 		and	r7, r3, #191
 2166              	.LVL184:
ARM GAS  /var/folders/d2/nstgp4h54kz7g1l847x_b8wc0000gn/T//ccoy4Txs.s 			page 39


 2167              		.loc 1 1116 0
 2168 008c BB42     		cmp	r3, r7
 2169 008e DAD1     		bne	.L245
 2170 0090 E6E7     		b	.L237
 2171              	.LVL185:
 2172              	.L248:
 2173              		.loc 1 1099 0
 2174 0092 03F0D707 		and	r7, r3, #215
 2175              	.LVL186:
 2176              		.loc 1 1116 0
 2177 0096 BB42     		cmp	r3, r7
 2178 0098 D5D1     		bne	.L245
 2179 009a E1E7     		b	.L237
 2180              	.LVL187:
 2181              	.L246:
 2182              		.loc 1 1096 0
 2183 009c 03F0EF07 		and	r7, r3, #239
 2184              	.LVL188:
 2185              		.loc 1 1116 0
 2186 00a0 BB42     		cmp	r3, r7
 2187 00a2 D0D1     		bne	.L245
 2188 00a4 DCE7     		b	.L237
 2189              	.LVL189:
 2190              	.L244:
 2191              		.loc 1 1086 0
 2192 00a6 43F08007 		orr	r7, r3, #128
 2193              	.LVL190:
 2194              		.loc 1 1116 0
 2195 00aa BB42     		cmp	r3, r7
 2196 00ac CBD1     		bne	.L245
 2197 00ae D7E7     		b	.L237
 2198              	.LVL191:
 2199              	.L243:
 2200              		.loc 1 1083 0
 2201 00b0 43F04007 		orr	r7, r3, #64
 2202              	.LVL192:
 2203              		.loc 1 1116 0
 2204 00b4 BB42     		cmp	r3, r7
 2205 00b6 C6D1     		bne	.L245
 2206 00b8 D2E7     		b	.L237
 2207              	.LVL193:
 2208              	.L242:
 2209              		.loc 1 1080 0
 2210 00ba 43F00407 		orr	r7, r3, #4
 2211              	.LVL194:
 2212              		.loc 1 1116 0
 2213 00be BB42     		cmp	r3, r7
 2214 00c0 C1D1     		bne	.L245
 2215 00c2 CDE7     		b	.L237
 2216              	.LVL195:
 2217              	.L241:
 2218              		.loc 1 1077 0
 2219 00c4 43F02807 		orr	r7, r3, #40
 2220              	.LVL196:
 2221              		.loc 1 1116 0
 2222 00c8 BB42     		cmp	r3, r7
 2223 00ca BCD1     		bne	.L245
ARM GAS  /var/folders/d2/nstgp4h54kz7g1l847x_b8wc0000gn/T//ccoy4Txs.s 			page 40


 2224 00cc C8E7     		b	.L237
 2225              	.LVL197:
 2226              	.L239:
 2227              		.loc 1 1074 0
 2228 00ce 43F01007 		orr	r7, r3, #16
 2229              	.LVL198:
 2230              		.loc 1 1116 0
 2231 00d2 BB42     		cmp	r3, r7
 2232 00d4 B7D1     		bne	.L245
 2233 00d6 C3E7     		b	.L237
 2234              	.LVL199:
 2235              	.L257:
 2236              		.loc 1 1140 0
 2237 00d8 FFF7FEFF 		bl	__stack_chk_fail
 2238              	.LVL200:
 2239              	.L254:
 2240              		.loc 1 1089 0
 2241 00dc 6FF00304 		mvn	r4, #3
 2242 00e0 BEE7     		b	.L237
 2243              	.L259:
 2244 00e2 00BF     		.align	2
 2245              	.L258:
 2246 00e4 00000000 		.word	__stack_chk_guard
 2247              		.cfi_endproc
 2248              	.LFE41:
 2249              		.size	VL53L0X_SetSequenceStepEnable, .-VL53L0X_SetSequenceStepEnable
 2250              		.section	.text.sequence_step_enabled,"ax",%progbits
 2251              		.align	1
 2252              		.p2align 4,,15
 2253              		.global	sequence_step_enabled
 2254              		.syntax unified
 2255              		.thumb
 2256              		.thumb_func
 2257              		.fpu fpv4-sp-d16
 2258              		.type	sequence_step_enabled, %function
 2259              	sequence_step_enabled:
 2260              	.LFB42:
 2261              		.loc 1 1145 0
 2262              		.cfi_startproc
 2263              		@ args = 0, pretend = 0, frame = 8
 2264              		@ frame_needed = 0, uses_anonymous_args = 0
 2265              	.LVL201:
 2266 0000 10B5     		push	{r4, lr}
 2267              		.cfi_def_cfa_offset 8
 2268              		.cfi_offset 4, -8
 2269              		.cfi_offset 14, -4
 2270 0002 174C     		ldr	r4, .L272
 2271 0004 82B0     		sub	sp, sp, #8
 2272              		.cfi_def_cfa_offset 16
 2273              		.loc 1 1145 0
 2274 0006 2068     		ldr	r0, [r4]
 2275              	.LVL202:
 2276 0008 0190     		str	r0, [sp, #4]
 2277              	.LVL203:
 2278              		.loc 1 1151 0
 2279 000a 0429     		cmp	r1, #4
 2280 000c 21D8     		bhi	.L261
ARM GAS  /var/folders/d2/nstgp4h54kz7g1l847x_b8wc0000gn/T//ccoy4Txs.s 			page 41


 2281 000e DFE801F0 		tbb	[pc, r1]
 2282              	.L263:
 2283 0012 0C       		.byte	(.L262-.L263)/2
 2284 0013 11       		.byte	(.L264-.L263)/2
 2285 0014 16       		.byte	(.L265-.L263)/2
 2286 0015 1B       		.byte	(.L266-.L263)/2
 2287 0016 03       		.byte	(.L267-.L263)/2
 2288 0017 00       		.p2align 1
 2289              	.L267:
 2290              		.loc 1 1165 0
 2291 0018 D209     		lsrs	r2, r2, #7
 2292              	.LVL204:
 2293 001a 1A70     		strb	r2, [r3]
 2294              		.loc 1 1147 0
 2295 001c 0020     		movs	r0, #0
 2296              	.L268:
 2297              	.LVL205:
 2298              		.loc 1 1173 0
 2299 001e 019A     		ldr	r2, [sp, #4]
 2300 0020 2368     		ldr	r3, [r4]
 2301              	.LVL206:
 2302 0022 9A42     		cmp	r2, r3
 2303 0024 1AD1     		bne	.L271
 2304 0026 02B0     		add	sp, sp, #8
 2305              		.cfi_remember_state
 2306              		.cfi_def_cfa_offset 8
 2307              		@ sp needed
 2308 0028 10BD     		pop	{r4, pc}
 2309              	.LVL207:
 2310              	.L262:
 2311              		.cfi_restore_state
 2312              		.loc 1 1153 0
 2313 002a C2F30012 		ubfx	r2, r2, #4, #1
 2314              	.LVL208:
 2315 002e 1A70     		strb	r2, [r3]
 2316              		.loc 1 1147 0
 2317 0030 0020     		movs	r0, #0
 2318              		.loc 1 1154 0
 2319 0032 F4E7     		b	.L268
 2320              	.LVL209:
 2321              	.L264:
 2322              		.loc 1 1156 0
 2323 0034 C2F3C002 		ubfx	r2, r2, #3, #1
 2324              	.LVL210:
 2325 0038 1A70     		strb	r2, [r3]
 2326              		.loc 1 1147 0
 2327 003a 0020     		movs	r0, #0
 2328              		.loc 1 1157 0
 2329 003c EFE7     		b	.L268
 2330              	.LVL211:
 2331              	.L265:
 2332              		.loc 1 1159 0
 2333 003e C2F38002 		ubfx	r2, r2, #2, #1
 2334              	.LVL212:
 2335 0042 1A70     		strb	r2, [r3]
 2336              		.loc 1 1147 0
 2337 0044 0020     		movs	r0, #0
ARM GAS  /var/folders/d2/nstgp4h54kz7g1l847x_b8wc0000gn/T//ccoy4Txs.s 			page 42


 2338              		.loc 1 1160 0
 2339 0046 EAE7     		b	.L268
 2340              	.LVL213:
 2341              	.L266:
 2342              		.loc 1 1162 0
 2343 0048 C2F38012 		ubfx	r2, r2, #6, #1
 2344              	.LVL214:
 2345 004c 1A70     		strb	r2, [r3]
 2346              		.loc 1 1147 0
 2347 004e 0020     		movs	r0, #0
 2348              		.loc 1 1163 0
 2349 0050 E5E7     		b	.L268
 2350              	.LVL215:
 2351              	.L261:
 2352              		.loc 1 1148 0
 2353 0052 0022     		movs	r2, #0
 2354              	.LVL216:
 2355 0054 1A70     		strb	r2, [r3]
 2356              		.loc 1 1168 0
 2357 0056 6FF00300 		mvn	r0, #3
 2358 005a E0E7     		b	.L268
 2359              	.LVL217:
 2360              	.L271:
 2361              		.loc 1 1173 0
 2362 005c FFF7FEFF 		bl	__stack_chk_fail
 2363              	.LVL218:
 2364              	.L273:
 2365              		.align	2
 2366              	.L272:
 2367 0060 00000000 		.word	__stack_chk_guard
 2368              		.cfi_endproc
 2369              	.LFE42:
 2370              		.size	sequence_step_enabled, .-sequence_step_enabled
 2371              		.section	.text.VL53L0X_GetSequenceStepEnable,"ax",%progbits
 2372              		.align	1
 2373              		.p2align 4,,15
 2374              		.global	VL53L0X_GetSequenceStepEnable
 2375              		.syntax unified
 2376              		.thumb
 2377              		.thumb_func
 2378              		.fpu fpv4-sp-d16
 2379              		.type	VL53L0X_GetSequenceStepEnable, %function
 2380              	VL53L0X_GetSequenceStepEnable:
 2381              	.LFB43:
 2382              		.loc 1 1177 0
 2383              		.cfi_startproc
 2384              		@ args = 0, pretend = 0, frame = 8
 2385              		@ frame_needed = 0, uses_anonymous_args = 0
 2386              	.LVL219:
 2387 0000 F0B5     		push	{r4, r5, r6, r7, lr}
 2388              		.cfi_def_cfa_offset 20
 2389              		.cfi_offset 4, -20
 2390              		.cfi_offset 5, -16
 2391              		.cfi_offset 6, -12
 2392              		.cfi_offset 7, -8
 2393              		.cfi_offset 14, -4
 2394 0002 83B0     		sub	sp, sp, #12
ARM GAS  /var/folders/d2/nstgp4h54kz7g1l847x_b8wc0000gn/T//ccoy4Txs.s 			page 43


 2395              		.cfi_def_cfa_offset 32
 2396              		.loc 1 1179 0
 2397 0004 02AB     		add	r3, sp, #8
 2398 0006 0024     		movs	r4, #0
 2399 0008 03F8054D 		strb	r4, [r3, #-5]!
 2400              		.loc 1 1177 0
 2401 000c 0C4C     		ldr	r4, .L279
 2402 000e 1746     		mov	r7, r2
 2403 0010 2268     		ldr	r2, [r4]
 2404              	.LVL220:
 2405 0012 0192     		str	r2, [sp, #4]
 2406              	.LVL221:
 2407 0014 0E46     		mov	r6, r1
 2408              		.loc 1 1182 0
 2409 0016 1A46     		mov	r2, r3
 2410 0018 0121     		movs	r1, #1
 2411              	.LVL222:
 2412              		.loc 1 1177 0
 2413 001a 0546     		mov	r5, r0
 2414              		.loc 1 1182 0
 2415 001c FFF7FEFF 		bl	VL53L0X_RdByte
 2416              	.LVL223:
 2417              		.loc 1 1185 0
 2418 0020 30B9     		cbnz	r0, .L275
 2419              		.loc 1 1186 0
 2420 0022 3B46     		mov	r3, r7
 2421 0024 3146     		mov	r1, r6
 2422 0026 2846     		mov	r0, r5
 2423              	.LVL224:
 2424 0028 9DF80320 		ldrb	r2, [sp, #3]	@ zero_extendqisi2
 2425 002c FFF7FEFF 		bl	sequence_step_enabled
 2426              	.LVL225:
 2427              	.L275:
 2428              		.loc 1 1192 0
 2429 0030 019A     		ldr	r2, [sp, #4]
 2430 0032 2368     		ldr	r3, [r4]
 2431 0034 9A42     		cmp	r2, r3
 2432 0036 01D1     		bne	.L278
 2433 0038 03B0     		add	sp, sp, #12
 2434              		.cfi_remember_state
 2435              		.cfi_def_cfa_offset 20
 2436              		@ sp needed
 2437 003a F0BD     		pop	{r4, r5, r6, r7, pc}
 2438              	.LVL226:
 2439              	.L278:
 2440              		.cfi_restore_state
 2441 003c FFF7FEFF 		bl	__stack_chk_fail
 2442              	.LVL227:
 2443              	.L280:
 2444              		.align	2
 2445              	.L279:
 2446 0040 00000000 		.word	__stack_chk_guard
 2447              		.cfi_endproc
 2448              	.LFE43:
 2449              		.size	VL53L0X_GetSequenceStepEnable, .-VL53L0X_GetSequenceStepEnable
 2450              		.section	.text.VL53L0X_GetSequenceStepEnables,"ax",%progbits
 2451              		.align	1
ARM GAS  /var/folders/d2/nstgp4h54kz7g1l847x_b8wc0000gn/T//ccoy4Txs.s 			page 44


 2452              		.p2align 4,,15
 2453              		.global	VL53L0X_GetSequenceStepEnables
 2454              		.syntax unified
 2455              		.thumb
 2456              		.thumb_func
 2457              		.fpu fpv4-sp-d16
 2458              		.type	VL53L0X_GetSequenceStepEnables, %function
 2459              	VL53L0X_GetSequenceStepEnables:
 2460              	.LFB44:
 2461              		.loc 1 1196 0
 2462              		.cfi_startproc
 2463              		@ args = 0, pretend = 0, frame = 8
 2464              		@ frame_needed = 0, uses_anonymous_args = 0
 2465              	.LVL228:
 2466 0000 30B5     		push	{r4, r5, lr}
 2467              		.cfi_def_cfa_offset 12
 2468              		.cfi_offset 4, -12
 2469              		.cfi_offset 5, -8
 2470              		.cfi_offset 14, -4
 2471 0002 83B0     		sub	sp, sp, #12
 2472              		.cfi_def_cfa_offset 24
 2473              		.loc 1 1198 0
 2474 0004 02AA     		add	r2, sp, #8
 2475              		.loc 1 1196 0
 2476 0006 114D     		ldr	r5, .L286
 2477              		.loc 1 1198 0
 2478 0008 0023     		movs	r3, #0
 2479 000a 02F8053D 		strb	r3, [r2, #-5]!
 2480              		.loc 1 1196 0
 2481 000e 0C46     		mov	r4, r1
 2482 0010 2B68     		ldr	r3, [r5]
 2483 0012 0193     		str	r3, [sp, #4]
 2484              	.LVL229:
 2485              		.loc 1 1201 0
 2486 0014 0121     		movs	r1, #1
 2487              	.LVL230:
 2488 0016 FFF7FEFF 		bl	VL53L0X_RdByte
 2489              	.LVL231:
 2490              		.loc 1 1204 0
 2491 001a 78B9     		cbnz	r0, .L282
 2492              		.loc 1 1205 0
 2493 001c 9DF80330 		ldrb	r3, [sp, #3]	@ zero_extendqisi2
 2494              	.LVL232:
 2495              	.LBB64:
 2496              	.LBB65:
 2497              		.loc 1 1153 0
 2498 0020 C3F30011 		ubfx	r1, r3, #4, #1
 2499              	.LBE65:
 2500              	.LBE64:
 2501              	.LBB67:
 2502              	.LBB68:
 2503              		.loc 1 1156 0
 2504 0024 C3F3C002 		ubfx	r2, r3, #3, #1
 2505              	.LBE68:
 2506              	.LBE67:
 2507              	.LBB70:
 2508              	.LBB66:
ARM GAS  /var/folders/d2/nstgp4h54kz7g1l847x_b8wc0000gn/T//ccoy4Txs.s 			page 45


 2509              		.loc 1 1153 0
 2510 0028 2170     		strb	r1, [r4]
 2511              	.LVL233:
 2512              	.LBE66:
 2513              	.LBE70:
 2514              	.LBB71:
 2515              	.LBB69:
 2516              		.loc 1 1156 0
 2517 002a A270     		strb	r2, [r4, #2]
 2518              	.LVL234:
 2519              	.LBE69:
 2520              	.LBE71:
 2521              	.LBB72:
 2522              	.LBB73:
 2523              		.loc 1 1159 0
 2524 002c C3F38001 		ubfx	r1, r3, #2, #1
 2525              	.LBE73:
 2526              	.LBE72:
 2527              	.LBB75:
 2528              	.LBB76:
 2529              		.loc 1 1162 0
 2530 0030 C3F38012 		ubfx	r2, r3, #6, #1
 2531              	.LBE76:
 2532              	.LBE75:
 2533              	.LBB78:
 2534              	.LBB79:
 2535              		.loc 1 1165 0
 2536 0034 DB09     		lsrs	r3, r3, #7
 2537              	.LVL235:
 2538              	.LBE79:
 2539              	.LBE78:
 2540              	.LBB81:
 2541              	.LBB74:
 2542              		.loc 1 1159 0
 2543 0036 6170     		strb	r1, [r4, #1]
 2544              	.LVL236:
 2545              	.LBE74:
 2546              	.LBE81:
 2547              	.LBB82:
 2548              	.LBB77:
 2549              		.loc 1 1162 0
 2550 0038 E270     		strb	r2, [r4, #3]
 2551              	.LVL237:
 2552              	.LBE77:
 2553              	.LBE82:
 2554              	.LBB83:
 2555              	.LBB80:
 2556              		.loc 1 1165 0
 2557 003a 2371     		strb	r3, [r4, #4]
 2558              	.LVL238:
 2559              	.L282:
 2560              	.LBE80:
 2561              	.LBE83:
 2562              		.loc 1 1232 0
 2563 003c 019A     		ldr	r2, [sp, #4]
 2564 003e 2B68     		ldr	r3, [r5]
 2565 0040 9A42     		cmp	r2, r3
ARM GAS  /var/folders/d2/nstgp4h54kz7g1l847x_b8wc0000gn/T//ccoy4Txs.s 			page 46


 2566 0042 01D1     		bne	.L285
 2567 0044 03B0     		add	sp, sp, #12
 2568              		.cfi_remember_state
 2569              		.cfi_def_cfa_offset 12
 2570              		@ sp needed
 2571 0046 30BD     		pop	{r4, r5, pc}
 2572              	.LVL239:
 2573              	.L285:
 2574              		.cfi_restore_state
 2575 0048 FFF7FEFF 		bl	__stack_chk_fail
 2576              	.LVL240:
 2577              	.L287:
 2578              		.align	2
 2579              	.L286:
 2580 004c 00000000 		.word	__stack_chk_guard
 2581              		.cfi_endproc
 2582              	.LFE44:
 2583              		.size	VL53L0X_GetSequenceStepEnables, .-VL53L0X_GetSequenceStepEnables
 2584              		.section	.text.VL53L0X_GetNumberOfSequenceSteps,"ax",%progbits
 2585              		.align	1
 2586              		.p2align 4,,15
 2587              		.global	VL53L0X_GetNumberOfSequenceSteps
 2588              		.syntax unified
 2589              		.thumb
 2590              		.thumb_func
 2591              		.fpu fpv4-sp-d16
 2592              		.type	VL53L0X_GetNumberOfSequenceSteps, %function
 2593              	VL53L0X_GetNumberOfSequenceSteps:
 2594              	.LFB45:
 2595              		.loc 1 1236 0
 2596              		.cfi_startproc
 2597              		@ args = 0, pretend = 0, frame = 8
 2598              		@ frame_needed = 0, uses_anonymous_args = 0
 2599              	.LVL241:
 2600 0000 00B5     		push	{lr}
 2601              		.cfi_def_cfa_offset 4
 2602              		.cfi_offset 14, -4
 2603 0002 084B     		ldr	r3, .L292
 2604 0004 83B0     		sub	sp, sp, #12
 2605              		.cfi_def_cfa_offset 16
 2606              		.loc 1 1236 0
 2607 0006 1868     		ldr	r0, [r3]
 2608              	.LVL242:
 2609 0008 0190     		str	r0, [sp, #4]
 2610              	.LVL243:
 2611              		.loc 1 1241 0
 2612 000a 0522     		movs	r2, #5
 2613 000c 0A70     		strb	r2, [r1]
 2614              		.loc 1 1245 0
 2615 000e 019A     		ldr	r2, [sp, #4]
 2616 0010 1B68     		ldr	r3, [r3]
 2617 0012 9A42     		cmp	r2, r3
 2618 0014 03D1     		bne	.L291
 2619 0016 0020     		movs	r0, #0
 2620 0018 03B0     		add	sp, sp, #12
 2621              		.cfi_remember_state
 2622              		.cfi_def_cfa_offset 4
ARM GAS  /var/folders/d2/nstgp4h54kz7g1l847x_b8wc0000gn/T//ccoy4Txs.s 			page 47


 2623              		@ sp needed
 2624 001a 5DF804FB 		ldr	pc, [sp], #4
 2625              	.L291:
 2626              		.cfi_restore_state
 2627 001e FFF7FEFF 		bl	__stack_chk_fail
 2628              	.LVL244:
 2629              	.L293:
 2630 0022 00BF     		.align	2
 2631              	.L292:
 2632 0024 00000000 		.word	__stack_chk_guard
 2633              		.cfi_endproc
 2634              	.LFE45:
 2635              		.size	VL53L0X_GetNumberOfSequenceSteps, .-VL53L0X_GetNumberOfSequenceSteps
 2636              		.section	.text.VL53L0X_GetSequenceStepsInfo,"ax",%progbits
 2637              		.align	1
 2638              		.p2align 4,,15
 2639              		.global	VL53L0X_GetSequenceStepsInfo
 2640              		.syntax unified
 2641              		.thumb
 2642              		.thumb_func
 2643              		.fpu fpv4-sp-d16
 2644              		.type	VL53L0X_GetSequenceStepsInfo, %function
 2645              	VL53L0X_GetSequenceStepsInfo:
 2646              	.LFB46:
 2647              		.loc 1 1249 0
 2648              		.cfi_startproc
 2649              		@ args = 0, pretend = 0, frame = 8
 2650              		@ frame_needed = 0, uses_anonymous_args = 0
 2651              	.LVL245:
 2652 0000 00B5     		push	{lr}
 2653              		.cfi_def_cfa_offset 4
 2654              		.cfi_offset 14, -4
 2655 0002 074B     		ldr	r3, .L299
 2656 0004 83B0     		sub	sp, sp, #12
 2657              		.cfi_def_cfa_offset 16
 2658              		.loc 1 1249 0
 2659 0006 1A68     		ldr	r2, [r3]
 2660 0008 0192     		str	r2, [sp, #4]
 2661              	.LVL246:
 2662              		.loc 1 1253 0
 2663 000a 019A     		ldr	r2, [sp, #4]
 2664 000c 1B68     		ldr	r3, [r3]
 2665 000e 9A42     		cmp	r2, r3
 2666 0010 04D1     		bne	.L298
 2667              		.loc 1 1260 0
 2668 0012 03B0     		add	sp, sp, #12
 2669              		.cfi_remember_state
 2670              		.cfi_def_cfa_offset 4
 2671              		@ sp needed
 2672 0014 5DF804EB 		ldr	lr, [sp], #4
 2673              		.cfi_restore 14
 2674              		.cfi_def_cfa_offset 0
 2675              		.loc 1 1253 0
 2676 0018 FFF7FEBF 		b	VL53L0X_get_sequence_steps_info
 2677              	.LVL247:
 2678              	.L298:
 2679              		.cfi_restore_state
ARM GAS  /var/folders/d2/nstgp4h54kz7g1l847x_b8wc0000gn/T//ccoy4Txs.s 			page 48


 2680 001c FFF7FEFF 		bl	__stack_chk_fail
 2681              	.LVL248:
 2682              	.L300:
 2683              		.align	2
 2684              	.L299:
 2685 0020 00000000 		.word	__stack_chk_guard
 2686              		.cfi_endproc
 2687              	.LFE46:
 2688              		.size	VL53L0X_GetSequenceStepsInfo, .-VL53L0X_GetSequenceStepsInfo
 2689              		.section	.text.VL53L0X_SetSequenceStepTimeout,"ax",%progbits
 2690              		.align	1
 2691              		.p2align 4,,15
 2692              		.global	VL53L0X_SetSequenceStepTimeout
 2693              		.syntax unified
 2694              		.thumb
 2695              		.thumb_func
 2696              		.fpu fpv4-sp-d16
 2697              		.type	VL53L0X_SetSequenceStepTimeout, %function
 2698              	VL53L0X_SetSequenceStepTimeout:
 2699              	.LFB47:
 2700              		.loc 1 1264 0
 2701              		.cfi_startproc
 2702              		@ args = 0, pretend = 0, frame = 8
 2703              		@ frame_needed = 0, uses_anonymous_args = 0
 2704              	.LVL249:
 2705 0000 F0B5     		push	{r4, r5, r6, r7, lr}
 2706              		.cfi_def_cfa_offset 20
 2707              		.cfi_offset 4, -20
 2708              		.cfi_offset 5, -16
 2709              		.cfi_offset 6, -12
 2710              		.cfi_offset 7, -8
 2711              		.cfi_offset 14, -4
 2712 0002 194C     		ldr	r4, .L310
 2713 0004 83B0     		sub	sp, sp, #12
 2714              		.cfi_def_cfa_offset 32
 2715              		.loc 1 1264 0
 2716 0006 1746     		mov	r7, r2
 2717 0008 2368     		ldr	r3, [r4]
 2718 000a 0193     		str	r3, [sp, #4]
 2719              	.LVL250:
 2720              		.loc 1 1276 0
 2721 000c 6A46     		mov	r2, sp
 2722              	.LVL251:
 2723              		.loc 1 1264 0
 2724 000e 0546     		mov	r5, r0
 2725 0010 0E46     		mov	r6, r1
 2726              		.loc 1 1276 0
 2727 0012 FFF7FEFF 		bl	get_sequence_step_timeout
 2728              	.LVL252:
 2729              		.loc 1 1279 0
 2730 0016 28B1     		cbz	r0, .L308
 2731              	.LVL253:
 2732              	.L302:
 2733              		.loc 1 1314 0
 2734 0018 019A     		ldr	r2, [sp, #4]
 2735 001a 2368     		ldr	r3, [r4]
 2736 001c 9A42     		cmp	r2, r3
ARM GAS  /var/folders/d2/nstgp4h54kz7g1l847x_b8wc0000gn/T//ccoy4Txs.s 			page 49


 2737 001e 21D1     		bne	.L309
 2738 0020 03B0     		add	sp, sp, #12
 2739              		.cfi_remember_state
 2740              		.cfi_def_cfa_offset 20
 2741              		@ sp needed
 2742 0022 F0BD     		pop	{r4, r5, r6, r7, pc}
 2743              	.LVL254:
 2744              	.L308:
 2745              		.cfi_restore_state
 2746              		.loc 1 1267 0
 2747 0024 4FF47A72 		mov	r2, #1000
 2748 0028 02FB07F2 		mul	r2, r2, r7
 2749 002c 02F50042 		add	r2, r2, #32768
 2750              		.loc 1 1280 0
 2751 0030 120C     		lsrs	r2, r2, #16
 2752 0032 3146     		mov	r1, r6
 2753 0034 2846     		mov	r0, r5
 2754              	.LVL255:
 2755 0036 FFF7FEFF 		bl	set_sequence_step_timeout
 2756              	.LVL256:
 2757              		.loc 1 1284 0
 2758 003a 0028     		cmp	r0, #0
 2759 003c ECD1     		bne	.L302
 2760              		.loc 1 1285 0
 2761 003e 6F69     		ldr	r7, [r5, #20]
 2762              	.LVL257:
 2763              	.LBB84:
 2764              	.LBB85:
 2765              		.loc 1 1006 0
 2766 0040 2846     		mov	r0, r5
 2767              	.LVL258:
 2768 0042 3946     		mov	r1, r7
 2769 0044 FFF7FEFF 		bl	VL53L0X_set_measurement_timing_budget_micro_seconds
 2770              	.LVL259:
 2771              	.LBE85:
 2772              	.LBE84:
 2773              		.loc 1 1296 0
 2774 0048 0028     		cmp	r0, #0
 2775 004a E5D0     		beq	.L302
 2776              		.loc 1 1297 0
 2777 004c 3146     		mov	r1, r6
 2778 004e 009A     		ldr	r2, [sp]
 2779 0050 2846     		mov	r0, r5
 2780 0052 FFF7FEFF 		bl	set_sequence_step_timeout
 2781              	.LVL260:
 2782              		.loc 1 1300 0
 2783 0056 0028     		cmp	r0, #0
 2784 0058 DED1     		bne	.L302
 2785              	.LVL261:
 2786              	.LBB86:
 2787              	.LBB87:
 2788              		.loc 1 1006 0
 2789 005a 3946     		mov	r1, r7
 2790 005c 2846     		mov	r0, r5
 2791              	.LVL262:
 2792 005e FFF7FEFF 		bl	VL53L0X_set_measurement_timing_budget_micro_seconds
 2793              	.LVL263:
ARM GAS  /var/folders/d2/nstgp4h54kz7g1l847x_b8wc0000gn/T//ccoy4Txs.s 			page 50


 2794 0062 D9E7     		b	.L302
 2795              	.LVL264:
 2796              	.L309:
 2797              	.LBE87:
 2798              	.LBE86:
 2799              		.loc 1 1314 0
 2800 0064 FFF7FEFF 		bl	__stack_chk_fail
 2801              	.LVL265:
 2802              	.L311:
 2803              		.align	2
 2804              	.L310:
 2805 0068 00000000 		.word	__stack_chk_guard
 2806              		.cfi_endproc
 2807              	.LFE47:
 2808              		.size	VL53L0X_SetSequenceStepTimeout, .-VL53L0X_SetSequenceStepTimeout
 2809              		.section	.text.VL53L0X_GetSequenceStepTimeout,"ax",%progbits
 2810              		.align	1
 2811              		.p2align 4,,15
 2812              		.global	VL53L0X_GetSequenceStepTimeout
 2813              		.syntax unified
 2814              		.thumb
 2815              		.thumb_func
 2816              		.fpu fpv4-sp-d16
 2817              		.type	VL53L0X_GetSequenceStepTimeout, %function
 2818              	VL53L0X_GetSequenceStepTimeout:
 2819              	.LFB48:
 2820              		.loc 1 1318 0
 2821              		.cfi_startproc
 2822              		@ args = 0, pretend = 0, frame = 8
 2823              		@ frame_needed = 0, uses_anonymous_args = 0
 2824              	.LVL266:
 2825 0000 30B5     		push	{r4, r5, lr}
 2826              		.cfi_def_cfa_offset 12
 2827              		.cfi_offset 4, -12
 2828              		.cfi_offset 5, -8
 2829              		.cfi_offset 14, -4
 2830 0002 0D4D     		ldr	r5, .L317
 2831 0004 83B0     		sub	sp, sp, #12
 2832              		.cfi_def_cfa_offset 24
 2833              		.loc 1 1318 0
 2834 0006 1446     		mov	r4, r2
 2835 0008 2B68     		ldr	r3, [r5]
 2836 000a 0193     		str	r3, [sp, #4]
 2837              	.LVL267:
 2838              		.loc 1 1323 0
 2839 000c 6A46     		mov	r2, sp
 2840              	.LVL268:
 2841 000e FFF7FEFF 		bl	get_sequence_step_timeout
 2842              	.LVL269:
 2843              		.loc 1 1325 0
 2844 0012 48B9     		cbnz	r0, .L313
 2845              		.loc 1 1326 0
 2846 0014 009B     		ldr	r3, [sp]
 2847              		.loc 1 1327 0
 2848 0016 094A     		ldr	r2, .L317+4
 2849              		.loc 1 1326 0
 2850 0018 1B02     		lsls	r3, r3, #8
ARM GAS  /var/folders/d2/nstgp4h54kz7g1l847x_b8wc0000gn/T//ccoy4Txs.s 			page 51


 2851              		.loc 1 1327 0
 2852 001a 03F5FA73 		add	r3, r3, #500
 2853 001e A2FB0323 		umull	r2, r3, r2, r3
 2854 0022 9B09     		lsrs	r3, r3, #6
 2855              		.loc 1 1328 0
 2856 0024 1B02     		lsls	r3, r3, #8
 2857 0026 2360     		str	r3, [r4]
 2858              	.L313:
 2859              		.loc 1 1333 0
 2860 0028 019A     		ldr	r2, [sp, #4]
 2861 002a 2B68     		ldr	r3, [r5]
 2862 002c 9A42     		cmp	r2, r3
 2863 002e 01D1     		bne	.L316
 2864 0030 03B0     		add	sp, sp, #12
 2865              		.cfi_remember_state
 2866              		.cfi_def_cfa_offset 12
 2867              		@ sp needed
 2868 0032 30BD     		pop	{r4, r5, pc}
 2869              	.LVL270:
 2870              	.L316:
 2871              		.cfi_restore_state
 2872 0034 FFF7FEFF 		bl	__stack_chk_fail
 2873              	.LVL271:
 2874              	.L318:
 2875              		.align	2
 2876              	.L317:
 2877 0038 00000000 		.word	__stack_chk_guard
 2878 003c D34D6210 		.word	274877907
 2879              		.cfi_endproc
 2880              	.LFE48:
 2881              		.size	VL53L0X_GetSequenceStepTimeout, .-VL53L0X_GetSequenceStepTimeout
 2882              		.section	.text.VL53L0X_SetInterMeasurementPeriodMilliSeconds,"ax",%progbits
 2883              		.align	1
 2884              		.p2align 4,,15
 2885              		.global	VL53L0X_SetInterMeasurementPeriodMilliSeconds
 2886              		.syntax unified
 2887              		.thumb
 2888              		.thumb_func
 2889              		.fpu fpv4-sp-d16
 2890              		.type	VL53L0X_SetInterMeasurementPeriodMilliSeconds, %function
 2891              	VL53L0X_SetInterMeasurementPeriodMilliSeconds:
 2892              	.LFB49:
 2893              		.loc 1 1337 0
 2894              		.cfi_startproc
 2895              		@ args = 0, pretend = 0, frame = 8
 2896              		@ frame_needed = 0, uses_anonymous_args = 0
 2897              	.LVL272:
 2898 0000 70B5     		push	{r4, r5, r6, lr}
 2899              		.cfi_def_cfa_offset 16
 2900              		.cfi_offset 4, -16
 2901              		.cfi_offset 5, -12
 2902              		.cfi_offset 6, -8
 2903              		.cfi_offset 14, -4
 2904 0002 104C     		ldr	r4, .L327
 2905 0004 82B0     		sub	sp, sp, #8
 2906              		.cfi_def_cfa_offset 24
 2907              		.loc 1 1337 0
ARM GAS  /var/folders/d2/nstgp4h54kz7g1l847x_b8wc0000gn/T//ccoy4Txs.s 			page 52


 2908 0006 0E46     		mov	r6, r1
 2909 0008 2368     		ldr	r3, [r4]
 2910 000a 0193     		str	r3, [sp, #4]
 2911              	.LVL273:
 2912              		.loc 1 1344 0
 2913 000c 0DF10202 		add	r2, sp, #2
 2914 0010 F821     		movs	r1, #248
 2915              	.LVL274:
 2916              		.loc 1 1337 0
 2917 0012 0546     		mov	r5, r0
 2918              		.loc 1 1344 0
 2919 0014 FFF7FEFF 		bl	VL53L0X_RdWord
 2920              	.LVL275:
 2921              		.loc 1 1347 0
 2922 0018 48B9     		cbnz	r0, .L320
 2923              		.loc 1 1348 0
 2924 001a BDF80220 		ldrh	r2, [sp, #2]
 2925 001e 62B9     		cbnz	r2, .L325
 2926              		.loc 1 1353 0
 2927 0020 3246     		mov	r2, r6
 2928              	.L321:
 2929              	.LVL276:
 2930              		.loc 1 1356 0
 2931 0022 0421     		movs	r1, #4
 2932 0024 2846     		mov	r0, r5
 2933              	.LVL277:
 2934 0026 FFF7FEFF 		bl	VL53L0X_WrDWord
 2935              	.LVL278:
 2936              		.loc 1 1361 0
 2937 002a 00B9     		cbnz	r0, .L320
 2938              		.loc 1 1362 0
 2939 002c AE61     		str	r6, [r5, #24]
 2940              	.L320:
 2941              		.loc 1 1369 0
 2942 002e 019A     		ldr	r2, [sp, #4]
 2943 0030 2368     		ldr	r3, [r4]
 2944 0032 9A42     		cmp	r2, r3
 2945 0034 04D1     		bne	.L326
 2946 0036 02B0     		add	sp, sp, #8
 2947              		.cfi_remember_state
 2948              		.cfi_def_cfa_offset 16
 2949              		@ sp needed
 2950 0038 70BD     		pop	{r4, r5, r6, pc}
 2951              	.LVL279:
 2952              	.L325:
 2953              		.cfi_restore_state
 2954              		.loc 1 1349 0
 2955 003a 06FB02F2 		mul	r2, r6, r2
 2956              	.LVL280:
 2957 003e F0E7     		b	.L321
 2958              	.LVL281:
 2959              	.L326:
 2960              		.loc 1 1369 0
 2961 0040 FFF7FEFF 		bl	__stack_chk_fail
 2962              	.LVL282:
 2963              	.L328:
 2964              		.align	2
ARM GAS  /var/folders/d2/nstgp4h54kz7g1l847x_b8wc0000gn/T//ccoy4Txs.s 			page 53


 2965              	.L327:
 2966 0044 00000000 		.word	__stack_chk_guard
 2967              		.cfi_endproc
 2968              	.LFE49:
 2969              		.size	VL53L0X_SetInterMeasurementPeriodMilliSeconds, .-VL53L0X_SetInterMeasurementPeriodMilliSecon
 2970              		.section	.text.VL53L0X_GetInterMeasurementPeriodMilliSeconds,"ax",%progbits
 2971              		.align	1
 2972              		.p2align 4,,15
 2973              		.global	VL53L0X_GetInterMeasurementPeriodMilliSeconds
 2974              		.syntax unified
 2975              		.thumb
 2976              		.thumb_func
 2977              		.fpu fpv4-sp-d16
 2978              		.type	VL53L0X_GetInterMeasurementPeriodMilliSeconds, %function
 2979              	VL53L0X_GetInterMeasurementPeriodMilliSeconds:
 2980              	.LFB50:
 2981              		.loc 1 1373 0
 2982              		.cfi_startproc
 2983              		@ args = 0, pretend = 0, frame = 16
 2984              		@ frame_needed = 0, uses_anonymous_args = 0
 2985              	.LVL283:
 2986 0000 70B5     		push	{r4, r5, r6, lr}
 2987              		.cfi_def_cfa_offset 16
 2988              		.cfi_offset 4, -16
 2989              		.cfi_offset 5, -12
 2990              		.cfi_offset 6, -8
 2991              		.cfi_offset 14, -4
 2992 0002 134C     		ldr	r4, .L337
 2993 0004 84B0     		sub	sp, sp, #16
 2994              		.cfi_def_cfa_offset 32
 2995              		.loc 1 1373 0
 2996 0006 0E46     		mov	r6, r1
 2997 0008 2368     		ldr	r3, [r4]
 2998 000a 0393     		str	r3, [sp, #12]
 2999              	.LVL284:
 3000              		.loc 1 1380 0
 3001 000c 0DF10602 		add	r2, sp, #6
 3002 0010 F821     		movs	r1, #248
 3003              	.LVL285:
 3004              		.loc 1 1373 0
 3005 0012 0546     		mov	r5, r0
 3006              		.loc 1 1380 0
 3007 0014 FFF7FEFF 		bl	VL53L0X_RdWord
 3008              	.LVL286:
 3009              		.loc 1 1383 0
 3010 0018 28B1     		cbz	r0, .L335
 3011              	.L330:
 3012              		.loc 1 1401 0
 3013 001a 039A     		ldr	r2, [sp, #12]
 3014 001c 2368     		ldr	r3, [r4]
 3015 001e 9A42     		cmp	r2, r3
 3016 0020 13D1     		bne	.L336
 3017 0022 04B0     		add	sp, sp, #16
 3018              		.cfi_remember_state
 3019              		.cfi_def_cfa_offset 16
 3020              		@ sp needed
 3021 0024 70BD     		pop	{r4, r5, r6, pc}
ARM GAS  /var/folders/d2/nstgp4h54kz7g1l847x_b8wc0000gn/T//ccoy4Txs.s 			page 54


 3022              	.LVL287:
 3023              	.L335:
 3024              		.cfi_restore_state
 3025              		.loc 1 1384 0
 3026 0026 02AA     		add	r2, sp, #8
 3027 0028 0421     		movs	r1, #4
 3028 002a 2846     		mov	r0, r5
 3029              	.LVL288:
 3030 002c FFF7FEFF 		bl	VL53L0X_RdDWord
 3031              	.LVL289:
 3032              		.loc 1 1389 0
 3033 0030 0028     		cmp	r0, #0
 3034 0032 F2D1     		bne	.L330
 3035              		.loc 1 1390 0
 3036 0034 BDF80620 		ldrh	r2, [sp, #6]
 3037 0038 12B9     		cbnz	r2, .L331
 3038 003a 3368     		ldr	r3, [r6]
 3039              	.L332:
 3040              		.loc 1 1394 0
 3041 003c AB61     		str	r3, [r5, #24]
 3042 003e ECE7     		b	.L330
 3043              	.L331:
 3044              		.loc 1 1392 0
 3045 0040 029B     		ldr	r3, [sp, #8]
 3046 0042 B3FBF2F3 		udiv	r3, r3, r2
 3047              		.loc 1 1391 0
 3048 0046 3360     		str	r3, [r6]
 3049 0048 F8E7     		b	.L332
 3050              	.L336:
 3051              		.loc 1 1401 0
 3052 004a FFF7FEFF 		bl	__stack_chk_fail
 3053              	.LVL290:
 3054              	.L338:
 3055 004e 00BF     		.align	2
 3056              	.L337:
 3057 0050 00000000 		.word	__stack_chk_guard
 3058              		.cfi_endproc
 3059              	.LFE50:
 3060              		.size	VL53L0X_GetInterMeasurementPeriodMilliSeconds, .-VL53L0X_GetInterMeasurementPeriodMilliSecon
 3061              		.section	.text.VL53L0X_SetXTalkCompensationEnable,"ax",%progbits
 3062              		.align	1
 3063              		.p2align 4,,15
 3064              		.global	VL53L0X_SetXTalkCompensationEnable
 3065              		.syntax unified
 3066              		.thumb
 3067              		.thumb_func
 3068              		.fpu fpv4-sp-d16
 3069              		.type	VL53L0X_SetXTalkCompensationEnable, %function
 3070              	VL53L0X_SetXTalkCompensationEnable:
 3071              	.LFB51:
 3072              		.loc 1 1405 0
 3073              		.cfi_startproc
 3074              		@ args = 0, pretend = 0, frame = 8
 3075              		@ frame_needed = 0, uses_anonymous_args = 0
 3076              	.LVL291:
 3077 0000 30B5     		push	{r4, r5, lr}
 3078              		.cfi_def_cfa_offset 12
ARM GAS  /var/folders/d2/nstgp4h54kz7g1l847x_b8wc0000gn/T//ccoy4Txs.s 			page 55


 3079              		.cfi_offset 4, -12
 3080              		.cfi_offset 5, -8
 3081              		.cfi_offset 14, -4
 3082 0002 164C     		ldr	r4, .L356
 3083 0004 83B0     		sub	sp, sp, #12
 3084              		.cfi_def_cfa_offset 24
 3085              		.loc 1 1405 0
 3086 0006 2368     		ldr	r3, [r4]
 3087 0008 0193     		str	r3, [sp, #4]
 3088              	.LVL292:
 3089 000a 0546     		mov	r5, r0
 3090              	.LVL293:
 3091              		.loc 1 1414 0
 3092 000c 91B1     		cbz	r1, .L340
 3093              		.loc 1 1415 0
 3094 000e B0F85231 		ldrh	r3, [r0, #338]
 3095 0012 B3F57A7F 		cmp	r3, #1000
 3096 0016 15D0     		beq	.L354
 3097              	.LVL294:
 3098              		.loc 1 1423 0
 3099 0018 0022     		movs	r2, #0
 3100 001a 2021     		movs	r1, #32
 3101              	.LVL295:
 3102 001c FFF7FEFF 		bl	VL53L0X_WrWord
 3103              	.LVL296:
 3104              		.loc 1 1427 0
 3105 0020 10B9     		cbnz	r0, .L343
 3106              	.LVL297:
 3107              	.L342:
 3108              		.loc 1 1432 0
 3109 0022 0123     		movs	r3, #1
 3110 0024 2B77     		strb	r3, [r5, #28]
 3111 0026 0020     		movs	r0, #0
 3112              	.LVL298:
 3113              	.L343:
 3114              		.loc 1 1439 0
 3115 0028 019A     		ldr	r2, [sp, #4]
 3116 002a 2368     		ldr	r3, [r4]
 3117 002c 9A42     		cmp	r2, r3
 3118 002e 12D1     		bne	.L355
 3119 0030 03B0     		add	sp, sp, #12
 3120              		.cfi_remember_state
 3121              		.cfi_def_cfa_offset 12
 3122              		@ sp needed
 3123 0032 30BD     		pop	{r4, r5, pc}
 3124              	.LVL299:
 3125              	.L340:
 3126              		.cfi_restore_state
 3127              		.loc 1 1423 0
 3128 0034 0A46     		mov	r2, r1
 3129 0036 2021     		movs	r1, #32
 3130              	.LVL300:
 3131 0038 FFF7FEFF 		bl	VL53L0X_WrWord
 3132              	.LVL301:
 3133              		.loc 1 1427 0
 3134 003c 0028     		cmp	r0, #0
 3135 003e F3D1     		bne	.L343
ARM GAS  /var/folders/d2/nstgp4h54kz7g1l847x_b8wc0000gn/T//ccoy4Txs.s 			page 56


 3136              		.loc 1 1429 0
 3137 0040 2877     		strb	r0, [r5, #28]
 3138 0042 F1E7     		b	.L343
 3139              	.LVL302:
 3140              	.L354:
 3141              		.loc 1 1425 0
 3142 0044 026A     		ldr	r2, [r0, #32]
 3143              		.loc 1 1423 0
 3144 0046 2021     		movs	r1, #32
 3145              	.LVL303:
 3146 0048 C2F3CF02 		ubfx	r2, r2, #3, #16
 3147 004c FFF7FEFF 		bl	VL53L0X_WrWord
 3148              	.LVL304:
 3149              		.loc 1 1427 0
 3150 0050 0028     		cmp	r0, #0
 3151 0052 E6D0     		beq	.L342
 3152 0054 E8E7     		b	.L343
 3153              	.LVL305:
 3154              	.L355:
 3155              		.loc 1 1439 0
 3156 0056 FFF7FEFF 		bl	__stack_chk_fail
 3157              	.LVL306:
 3158              	.L357:
 3159 005a 00BF     		.align	2
 3160              	.L356:
 3161 005c 00000000 		.word	__stack_chk_guard
 3162              		.cfi_endproc
 3163              	.LFE51:
 3164              		.size	VL53L0X_SetXTalkCompensationEnable, .-VL53L0X_SetXTalkCompensationEnable
 3165              		.section	.text.VL53L0X_GetXTalkCompensationEnable,"ax",%progbits
 3166              		.align	1
 3167              		.p2align 4,,15
 3168              		.global	VL53L0X_GetXTalkCompensationEnable
 3169              		.syntax unified
 3170              		.thumb
 3171              		.thumb_func
 3172              		.fpu fpv4-sp-d16
 3173              		.type	VL53L0X_GetXTalkCompensationEnable, %function
 3174              	VL53L0X_GetXTalkCompensationEnable:
 3175              	.LFB52:
 3176              		.loc 1 1443 0
 3177              		.cfi_startproc
 3178              		@ args = 0, pretend = 0, frame = 8
 3179              		@ frame_needed = 0, uses_anonymous_args = 0
 3180              	.LVL307:
 3181 0000 00B5     		push	{lr}
 3182              		.cfi_def_cfa_offset 4
 3183              		.cfi_offset 14, -4
 3184 0002 084B     		ldr	r3, .L362
 3185              		.loc 1 1448 0
 3186 0004 027F     		ldrb	r2, [r0, #28]	@ zero_extendqisi2
 3187              		.loc 1 1443 0
 3188 0006 1868     		ldr	r0, [r3]
 3189              	.LVL308:
 3190              		.loc 1 1449 0
 3191 0008 0A70     		strb	r2, [r1]
 3192              		.loc 1 1443 0
ARM GAS  /var/folders/d2/nstgp4h54kz7g1l847x_b8wc0000gn/T//ccoy4Txs.s 			page 57


 3193 000a 83B0     		sub	sp, sp, #12
 3194              		.cfi_def_cfa_offset 16
 3195              		.loc 1 1443 0
 3196 000c 0190     		str	r0, [sp, #4]
 3197              	.LVL309:
 3198              		.loc 1 1453 0
 3199 000e 019A     		ldr	r2, [sp, #4]
 3200              	.LVL310:
 3201 0010 1B68     		ldr	r3, [r3]
 3202 0012 9A42     		cmp	r2, r3
 3203 0014 03D1     		bne	.L361
 3204 0016 0020     		movs	r0, #0
 3205 0018 03B0     		add	sp, sp, #12
 3206              		.cfi_remember_state
 3207              		.cfi_def_cfa_offset 4
 3208              		@ sp needed
 3209 001a 5DF804FB 		ldr	pc, [sp], #4
 3210              	.L361:
 3211              		.cfi_restore_state
 3212 001e FFF7FEFF 		bl	__stack_chk_fail
 3213              	.LVL311:
 3214              	.L363:
 3215 0022 00BF     		.align	2
 3216              	.L362:
 3217 0024 00000000 		.word	__stack_chk_guard
 3218              		.cfi_endproc
 3219              	.LFE52:
 3220              		.size	VL53L0X_GetXTalkCompensationEnable, .-VL53L0X_GetXTalkCompensationEnable
 3221              		.section	.text.VL53L0X_SetXTalkCompensationRateMegaCps,"ax",%progbits
 3222              		.align	1
 3223              		.p2align 4,,15
 3224              		.global	VL53L0X_SetXTalkCompensationRateMegaCps
 3225              		.syntax unified
 3226              		.thumb
 3227              		.thumb_func
 3228              		.fpu fpv4-sp-d16
 3229              		.type	VL53L0X_SetXTalkCompensationRateMegaCps, %function
 3230              	VL53L0X_SetXTalkCompensationRateMegaCps:
 3231              	.LFB53:
 3232              		.loc 1 1457 0
 3233              		.cfi_startproc
 3234              		@ args = 0, pretend = 0, frame = 8
 3235              		@ frame_needed = 0, uses_anonymous_args = 0
 3236              	.LVL312:
 3237 0000 70B5     		push	{r4, r5, r6, lr}
 3238              		.cfi_def_cfa_offset 16
 3239              		.cfi_offset 4, -16
 3240              		.cfi_offset 5, -12
 3241              		.cfi_offset 6, -8
 3242              		.cfi_offset 14, -4
 3243 0002 0F4D     		ldr	r5, .L373
 3244 0004 82B0     		sub	sp, sp, #8
 3245              		.cfi_def_cfa_offset 24
 3246              		.loc 1 1457 0
 3247 0006 0446     		mov	r4, r0
 3248              		.loc 1 1467 0
 3249 0008 007F     		ldrb	r0, [r0, #28]	@ zero_extendqisi2
ARM GAS  /var/folders/d2/nstgp4h54kz7g1l847x_b8wc0000gn/T//ccoy4Txs.s 			page 58


 3250              	.LVL313:
 3251              		.loc 1 1457 0
 3252 000a 2B68     		ldr	r3, [r5]
 3253 000c 0193     		str	r3, [sp, #4]
 3254              	.LVL314:
 3255 000e 0E46     		mov	r6, r1
 3256              		.loc 1 1467 0
 3257 0010 60B1     		cbz	r0, .L371
 3258              		.loc 1 1472 0
 3259 0012 B4F85231 		ldrh	r3, [r4, #338]
 3260 0016 B3F57A7F 		cmp	r3, #1000
 3261              		.loc 1 1473 0
 3262 001a 0CBF     		ite	eq
 3263 001c C1F3CF02 		ubfxeq	r2, r1, #3, #16
 3264              	.LVL315:
 3265              		.loc 1 1476 0
 3266 0020 0022     		movne	r2, #0
 3267              	.LVL316:
 3268              		.loc 1 1479 0
 3269 0022 2021     		movs	r1, #32
 3270              	.LVL317:
 3271 0024 2046     		mov	r0, r4
 3272 0026 FFF7FEFF 		bl	VL53L0X_WrWord
 3273              	.LVL318:
 3274              		.loc 1 1482 0
 3275 002a 00B9     		cbnz	r0, .L366
 3276              	.LVL319:
 3277              	.L371:
 3278              		.loc 1 1483 0
 3279 002c 2662     		str	r6, [r4, #32]
 3280              	.L366:
 3281              	.LVL320:
 3282              		.loc 1 1491 0
 3283 002e 019A     		ldr	r2, [sp, #4]
 3284 0030 2B68     		ldr	r3, [r5]
 3285 0032 9A42     		cmp	r2, r3
 3286 0034 01D1     		bne	.L372
 3287 0036 02B0     		add	sp, sp, #8
 3288              		.cfi_remember_state
 3289              		.cfi_def_cfa_offset 16
 3290              		@ sp needed
 3291 0038 70BD     		pop	{r4, r5, r6, pc}
 3292              	.LVL321:
 3293              	.L372:
 3294              		.cfi_restore_state
 3295 003a FFF7FEFF 		bl	__stack_chk_fail
 3296              	.LVL322:
 3297              	.L374:
 3298 003e 00BF     		.align	2
 3299              	.L373:
 3300 0040 00000000 		.word	__stack_chk_guard
 3301              		.cfi_endproc
 3302              	.LFE53:
 3303              		.size	VL53L0X_SetXTalkCompensationRateMegaCps, .-VL53L0X_SetXTalkCompensationRateMegaCps
 3304              		.section	.text.VL53L0X_GetXTalkCompensationRateMegaCps,"ax",%progbits
 3305              		.align	1
 3306              		.p2align 4,,15
ARM GAS  /var/folders/d2/nstgp4h54kz7g1l847x_b8wc0000gn/T//ccoy4Txs.s 			page 59


 3307              		.global	VL53L0X_GetXTalkCompensationRateMegaCps
 3308              		.syntax unified
 3309              		.thumb
 3310              		.thumb_func
 3311              		.fpu fpv4-sp-d16
 3312              		.type	VL53L0X_GetXTalkCompensationRateMegaCps, %function
 3313              	VL53L0X_GetXTalkCompensationRateMegaCps:
 3314              	.LFB54:
 3315              		.loc 1 1495 0
 3316              		.cfi_startproc
 3317              		@ args = 0, pretend = 0, frame = 8
 3318              		@ frame_needed = 0, uses_anonymous_args = 0
 3319              	.LVL323:
 3320 0000 70B5     		push	{r4, r5, r6, lr}
 3321              		.cfi_def_cfa_offset 16
 3322              		.cfi_offset 4, -16
 3323              		.cfi_offset 5, -12
 3324              		.cfi_offset 6, -8
 3325              		.cfi_offset 14, -4
 3326 0002 104C     		ldr	r4, .L382
 3327 0004 82B0     		sub	sp, sp, #8
 3328              		.cfi_def_cfa_offset 24
 3329              		.loc 1 1495 0
 3330 0006 0E46     		mov	r6, r1
 3331 0008 2368     		ldr	r3, [r4]
 3332 000a 0193     		str	r3, [sp, #4]
 3333              	.LVL324:
 3334              		.loc 1 1502 0
 3335 000c 0DF10202 		add	r2, sp, #2
 3336 0010 2021     		movs	r1, #32
 3337              	.LVL325:
 3338              		.loc 1 1495 0
 3339 0012 0546     		mov	r5, r0
 3340              		.loc 1 1502 0
 3341 0014 FFF7FEFF 		bl	VL53L0X_RdWord
 3342              	.LVL326:
 3343              		.loc 1 1504 0
 3344 0018 38B9     		cbnz	r0, .L376
 3345              		.loc 1 1505 0
 3346 001a BDF80230 		ldrh	r3, [sp, #2]
 3347 001e 53B1     		cbz	r3, .L380
 3348              		.loc 1 1513 0
 3349 0020 DB00     		lsls	r3, r3, #3
 3350              	.LVL327:
 3351              		.loc 1 1517 0
 3352 0022 0122     		movs	r2, #1
 3353              		.loc 1 1514 0
 3354 0024 3360     		str	r3, [r6]
 3355              		.loc 1 1515 0
 3356 0026 2B62     		str	r3, [r5, #32]
 3357              		.loc 1 1517 0
 3358 0028 2A77     		strb	r2, [r5, #28]
 3359              	.LVL328:
 3360              	.L376:
 3361              		.loc 1 1524 0
 3362 002a 019A     		ldr	r2, [sp, #4]
 3363 002c 2368     		ldr	r3, [r4]
ARM GAS  /var/folders/d2/nstgp4h54kz7g1l847x_b8wc0000gn/T//ccoy4Txs.s 			page 60


 3364 002e 9A42     		cmp	r2, r3
 3365 0030 05D1     		bne	.L381
 3366 0032 02B0     		add	sp, sp, #8
 3367              		.cfi_remember_state
 3368              		.cfi_def_cfa_offset 16
 3369              		@ sp needed
 3370 0034 70BD     		pop	{r4, r5, r6, pc}
 3371              	.LVL329:
 3372              	.L380:
 3373              		.cfi_restore_state
 3374              		.loc 1 1507 0
 3375 0036 2B6A     		ldr	r3, [r5, #32]
 3376              	.LVL330:
 3377              		.loc 1 1509 0
 3378 0038 3360     		str	r3, [r6]
 3379              		.loc 1 1510 0
 3380 003a 2877     		strb	r0, [r5, #28]
 3381 003c F5E7     		b	.L376
 3382              	.LVL331:
 3383              	.L381:
 3384              		.loc 1 1524 0
 3385 003e FFF7FEFF 		bl	__stack_chk_fail
 3386              	.LVL332:
 3387              	.L383:
 3388 0042 00BF     		.align	2
 3389              	.L382:
 3390 0044 00000000 		.word	__stack_chk_guard
 3391              		.cfi_endproc
 3392              	.LFE54:
 3393              		.size	VL53L0X_GetXTalkCompensationRateMegaCps, .-VL53L0X_GetXTalkCompensationRateMegaCps
 3394              		.section	.text.VL53L0X_SetRefCalibration,"ax",%progbits
 3395              		.align	1
 3396              		.p2align 4,,15
 3397              		.global	VL53L0X_SetRefCalibration
 3398              		.syntax unified
 3399              		.thumb
 3400              		.thumb_func
 3401              		.fpu fpv4-sp-d16
 3402              		.type	VL53L0X_SetRefCalibration, %function
 3403              	VL53L0X_SetRefCalibration:
 3404              	.LFB55:
 3405              		.loc 1 1528 0
 3406              		.cfi_startproc
 3407              		@ args = 0, pretend = 0, frame = 8
 3408              		@ frame_needed = 0, uses_anonymous_args = 0
 3409              	.LVL333:
 3410 0000 10B5     		push	{r4, lr}
 3411              		.cfi_def_cfa_offset 8
 3412              		.cfi_offset 4, -8
 3413              		.cfi_offset 14, -4
 3414 0002 074B     		ldr	r3, .L389
 3415 0004 82B0     		sub	sp, sp, #8
 3416              		.cfi_def_cfa_offset 16
 3417              		.loc 1 1528 0
 3418 0006 1C68     		ldr	r4, [r3]
 3419 0008 0194     		str	r4, [sp, #4]
 3420              	.LVL334:
ARM GAS  /var/folders/d2/nstgp4h54kz7g1l847x_b8wc0000gn/T//ccoy4Txs.s 			page 61


 3421              		.loc 1 1532 0
 3422 000a 019C     		ldr	r4, [sp, #4]
 3423 000c 1B68     		ldr	r3, [r3]
 3424 000e 9C42     		cmp	r4, r3
 3425 0010 04D1     		bne	.L388
 3426              		.loc 1 1536 0
 3427 0012 02B0     		add	sp, sp, #8
 3428              		.cfi_remember_state
 3429              		.cfi_def_cfa_offset 8
 3430              		@ sp needed
 3431 0014 BDE81040 		pop	{r4, lr}
 3432              		.cfi_restore 14
 3433              		.cfi_restore 4
 3434              		.cfi_def_cfa_offset 0
 3435              		.loc 1 1532 0
 3436 0018 FFF7FEBF 		b	VL53L0X_set_ref_calibration
 3437              	.LVL335:
 3438              	.L388:
 3439              		.cfi_restore_state
 3440 001c FFF7FEFF 		bl	__stack_chk_fail
 3441              	.LVL336:
 3442              	.L390:
 3443              		.align	2
 3444              	.L389:
 3445 0020 00000000 		.word	__stack_chk_guard
 3446              		.cfi_endproc
 3447              	.LFE55:
 3448              		.size	VL53L0X_SetRefCalibration, .-VL53L0X_SetRefCalibration
 3449              		.section	.text.VL53L0X_GetRefCalibration,"ax",%progbits
 3450              		.align	1
 3451              		.p2align 4,,15
 3452              		.global	VL53L0X_GetRefCalibration
 3453              		.syntax unified
 3454              		.thumb
 3455              		.thumb_func
 3456              		.fpu fpv4-sp-d16
 3457              		.type	VL53L0X_GetRefCalibration, %function
 3458              	VL53L0X_GetRefCalibration:
 3459              	.LFB56:
 3460              		.loc 1 1540 0
 3461              		.cfi_startproc
 3462              		@ args = 0, pretend = 0, frame = 8
 3463              		@ frame_needed = 0, uses_anonymous_args = 0
 3464              	.LVL337:
 3465 0000 10B5     		push	{r4, lr}
 3466              		.cfi_def_cfa_offset 8
 3467              		.cfi_offset 4, -8
 3468              		.cfi_offset 14, -4
 3469 0002 074B     		ldr	r3, .L396
 3470 0004 82B0     		sub	sp, sp, #8
 3471              		.cfi_def_cfa_offset 16
 3472              		.loc 1 1540 0
 3473 0006 1C68     		ldr	r4, [r3]
 3474 0008 0194     		str	r4, [sp, #4]
 3475              	.LVL338:
 3476              		.loc 1 1544 0
 3477 000a 019C     		ldr	r4, [sp, #4]
ARM GAS  /var/folders/d2/nstgp4h54kz7g1l847x_b8wc0000gn/T//ccoy4Txs.s 			page 62


 3478 000c 1B68     		ldr	r3, [r3]
 3479 000e 9C42     		cmp	r4, r3
 3480 0010 04D1     		bne	.L395
 3481              		.loc 1 1548 0
 3482 0012 02B0     		add	sp, sp, #8
 3483              		.cfi_remember_state
 3484              		.cfi_def_cfa_offset 8
 3485              		@ sp needed
 3486 0014 BDE81040 		pop	{r4, lr}
 3487              		.cfi_restore 14
 3488              		.cfi_restore 4
 3489              		.cfi_def_cfa_offset 0
 3490              		.loc 1 1544 0
 3491 0018 FFF7FEBF 		b	VL53L0X_get_ref_calibration
 3492              	.LVL339:
 3493              	.L395:
 3494              		.cfi_restore_state
 3495 001c FFF7FEFF 		bl	__stack_chk_fail
 3496              	.LVL340:
 3497              	.L397:
 3498              		.align	2
 3499              	.L396:
 3500 0020 00000000 		.word	__stack_chk_guard
 3501              		.cfi_endproc
 3502              	.LFE56:
 3503              		.size	VL53L0X_GetRefCalibration, .-VL53L0X_GetRefCalibration
 3504              		.section	.text.VL53L0X_GetNumberOfLimitCheck,"ax",%progbits
 3505              		.align	1
 3506              		.p2align 4,,15
 3507              		.global	VL53L0X_GetNumberOfLimitCheck
 3508              		.syntax unified
 3509              		.thumb
 3510              		.thumb_func
 3511              		.fpu fpv4-sp-d16
 3512              		.type	VL53L0X_GetNumberOfLimitCheck, %function
 3513              	VL53L0X_GetNumberOfLimitCheck:
 3514              	.LFB57:
 3515              		.loc 1 1555 0
 3516              		.cfi_startproc
 3517              		@ args = 0, pretend = 0, frame = 8
 3518              		@ frame_needed = 0, uses_anonymous_args = 0
 3519              	.LVL341:
 3520 0000 00B5     		push	{lr}
 3521              		.cfi_def_cfa_offset 4
 3522              		.cfi_offset 14, -4
 3523 0002 084B     		ldr	r3, .L402
 3524 0004 83B0     		sub	sp, sp, #12
 3525              		.cfi_def_cfa_offset 16
 3526              		.loc 1 1555 0
 3527 0006 1968     		ldr	r1, [r3]
 3528 0008 0191     		str	r1, [sp, #4]
 3529              	.LVL342:
 3530              		.loc 1 1559 0
 3531 000a 0622     		movs	r2, #6
 3532 000c 0280     		strh	r2, [r0]	@ movhi
 3533              		.loc 1 1563 0
 3534 000e 019A     		ldr	r2, [sp, #4]
ARM GAS  /var/folders/d2/nstgp4h54kz7g1l847x_b8wc0000gn/T//ccoy4Txs.s 			page 63


 3535 0010 1B68     		ldr	r3, [r3]
 3536 0012 9A42     		cmp	r2, r3
 3537 0014 03D1     		bne	.L401
 3538 0016 0020     		movs	r0, #0
 3539              	.LVL343:
 3540 0018 03B0     		add	sp, sp, #12
 3541              		.cfi_remember_state
 3542              		.cfi_def_cfa_offset 4
 3543              		@ sp needed
 3544 001a 5DF804FB 		ldr	pc, [sp], #4
 3545              	.LVL344:
 3546              	.L401:
 3547              		.cfi_restore_state
 3548 001e FFF7FEFF 		bl	__stack_chk_fail
 3549              	.LVL345:
 3550              	.L403:
 3551 0022 00BF     		.align	2
 3552              	.L402:
 3553 0024 00000000 		.word	__stack_chk_guard
 3554              		.cfi_endproc
 3555              	.LFE57:
 3556              		.size	VL53L0X_GetNumberOfLimitCheck, .-VL53L0X_GetNumberOfLimitCheck
 3557              		.section	.text.VL53L0X_GetLimitCheckInfo,"ax",%progbits
 3558              		.align	1
 3559              		.p2align 4,,15
 3560              		.global	VL53L0X_GetLimitCheckInfo
 3561              		.syntax unified
 3562              		.thumb
 3563              		.thumb_func
 3564              		.fpu fpv4-sp-d16
 3565              		.type	VL53L0X_GetLimitCheckInfo, %function
 3566              	VL53L0X_GetLimitCheckInfo:
 3567              	.LFB58:
 3568              		.loc 1 1567 0
 3569              		.cfi_startproc
 3570              		@ args = 0, pretend = 0, frame = 8
 3571              		@ frame_needed = 0, uses_anonymous_args = 0
 3572              	.LVL346:
 3573 0000 10B5     		push	{r4, lr}
 3574              		.cfi_def_cfa_offset 8
 3575              		.cfi_offset 4, -8
 3576              		.cfi_offset 14, -4
 3577 0002 074B     		ldr	r3, .L409
 3578 0004 82B0     		sub	sp, sp, #8
 3579              		.cfi_def_cfa_offset 16
 3580              		.loc 1 1567 0
 3581 0006 1C68     		ldr	r4, [r3]
 3582 0008 0194     		str	r4, [sp, #4]
 3583              	.LVL347:
 3584              		.loc 1 1572 0
 3585 000a 019C     		ldr	r4, [sp, #4]
 3586 000c 1B68     		ldr	r3, [r3]
 3587 000e 9C42     		cmp	r4, r3
 3588 0010 04D1     		bne	.L408
 3589              		.loc 1 1577 0
 3590 0012 02B0     		add	sp, sp, #8
 3591              		.cfi_remember_state
ARM GAS  /var/folders/d2/nstgp4h54kz7g1l847x_b8wc0000gn/T//ccoy4Txs.s 			page 64


 3592              		.cfi_def_cfa_offset 8
 3593              		@ sp needed
 3594 0014 BDE81040 		pop	{r4, lr}
 3595              		.cfi_restore 14
 3596              		.cfi_restore 4
 3597              		.cfi_def_cfa_offset 0
 3598              		.loc 1 1572 0
 3599 0018 FFF7FEBF 		b	VL53L0X_get_limit_check_info
 3600              	.LVL348:
 3601              	.L408:
 3602              		.cfi_restore_state
 3603 001c FFF7FEFF 		bl	__stack_chk_fail
 3604              	.LVL349:
 3605              	.L410:
 3606              		.align	2
 3607              	.L409:
 3608 0020 00000000 		.word	__stack_chk_guard
 3609              		.cfi_endproc
 3610              	.LFE58:
 3611              		.size	VL53L0X_GetLimitCheckInfo, .-VL53L0X_GetLimitCheckInfo
 3612              		.section	.text.VL53L0X_GetLimitCheckStatus,"ax",%progbits
 3613              		.align	1
 3614              		.p2align 4,,15
 3615              		.global	VL53L0X_GetLimitCheckStatus
 3616              		.syntax unified
 3617              		.thumb
 3618              		.thumb_func
 3619              		.fpu fpv4-sp-d16
 3620              		.type	VL53L0X_GetLimitCheckStatus, %function
 3621              	VL53L0X_GetLimitCheckStatus:
 3622              	.LFB59:
 3623              		.loc 1 1581 0
 3624              		.cfi_startproc
 3625              		@ args = 0, pretend = 0, frame = 8
 3626              		@ frame_needed = 0, uses_anonymous_args = 0
 3627              	.LVL350:
 3628 0000 10B5     		push	{r4, lr}
 3629              		.cfi_def_cfa_offset 8
 3630              		.cfi_offset 4, -8
 3631              		.cfi_offset 14, -4
 3632 0002 0B4B     		ldr	r3, .L417
 3633 0004 82B0     		sub	sp, sp, #8
 3634              		.cfi_def_cfa_offset 16
 3635              		.loc 1 1581 0
 3636 0006 1C68     		ldr	r4, [r3]
 3637 0008 0194     		str	r4, [sp, #4]
 3638              	.LVL351:
 3639              		.loc 1 1587 0
 3640 000a 0529     		cmp	r1, #5
 3641 000c 0AD8     		bhi	.L414
 3642              		.loc 1 1591 0
 3643 000e 0144     		add	r1, r1, r0
 3644              	.LVL352:
 3645              		.loc 1 1582 0
 3646 0010 0020     		movs	r0, #0
 3647              	.LVL353:
 3648              		.loc 1 1591 0
ARM GAS  /var/folders/d2/nstgp4h54kz7g1l847x_b8wc0000gn/T//ccoy4Txs.s 			page 65


 3649 0012 91F82E10 		ldrb	r1, [r1, #46]	@ zero_extendqisi2
 3650              	.LVL354:
 3651              		.loc 1 1594 0
 3652 0016 1170     		strb	r1, [r2]
 3653              	.LVL355:
 3654              	.L412:
 3655              		.loc 1 1600 0
 3656 0018 019A     		ldr	r2, [sp, #4]
 3657              	.LVL356:
 3658 001a 1B68     		ldr	r3, [r3]
 3659 001c 9A42     		cmp	r2, r3
 3660 001e 04D1     		bne	.L416
 3661 0020 02B0     		add	sp, sp, #8
 3662              		.cfi_remember_state
 3663              		.cfi_def_cfa_offset 8
 3664              		@ sp needed
 3665 0022 10BD     		pop	{r4, pc}
 3666              	.LVL357:
 3667              	.L414:
 3668              		.cfi_restore_state
 3669              		.loc 1 1588 0
 3670 0024 6FF00300 		mvn	r0, #3
 3671              	.LVL358:
 3672 0028 F6E7     		b	.L412
 3673              	.LVL359:
 3674              	.L416:
 3675              		.loc 1 1600 0
 3676 002a FFF7FEFF 		bl	__stack_chk_fail
 3677              	.LVL360:
 3678              	.L418:
 3679 002e 00BF     		.align	2
 3680              	.L417:
 3681 0030 00000000 		.word	__stack_chk_guard
 3682              		.cfi_endproc
 3683              	.LFE59:
 3684              		.size	VL53L0X_GetLimitCheckStatus, .-VL53L0X_GetLimitCheckStatus
 3685              		.section	.text.VL53L0X_SetLimitCheckEnable,"ax",%progbits
 3686              		.align	1
 3687              		.p2align 4,,15
 3688              		.global	VL53L0X_SetLimitCheckEnable
 3689              		.syntax unified
 3690              		.thumb
 3691              		.thumb_func
 3692              		.fpu fpv4-sp-d16
 3693              		.type	VL53L0X_SetLimitCheckEnable, %function
 3694              	VL53L0X_SetLimitCheckEnable:
 3695              	.LFB60:
 3696              		.loc 1 1604 0
 3697              		.cfi_startproc
 3698              		@ args = 0, pretend = 0, frame = 8
 3699              		@ frame_needed = 0, uses_anonymous_args = 0
 3700              	.LVL361:
 3701 0000 F0B5     		push	{r4, r5, r6, r7, lr}
 3702              		.cfi_def_cfa_offset 20
 3703              		.cfi_offset 4, -20
 3704              		.cfi_offset 5, -16
 3705              		.cfi_offset 6, -12
ARM GAS  /var/folders/d2/nstgp4h54kz7g1l847x_b8wc0000gn/T//ccoy4Txs.s 			page 66


 3706              		.cfi_offset 7, -8
 3707              		.cfi_offset 14, -4
 3708 0002 294F     		ldr	r7, .L439
 3709 0004 83B0     		sub	sp, sp, #12
 3710              		.cfi_def_cfa_offset 32
 3711              		.loc 1 1604 0
 3712 0006 3B68     		ldr	r3, [r7]
 3713 0008 0193     		str	r3, [sp, #4]
 3714              	.LVL362:
 3715              		.loc 1 1613 0
 3716 000a 0529     		cmp	r1, #5
 3717 000c 47D8     		bhi	.L433
 3718 000e 0E46     		mov	r6, r1
 3719 0010 0446     		mov	r4, r0
 3720 0012 1546     		mov	r5, r2
 3721              		.loc 1 1616 0
 3722 0014 62B1     		cbz	r2, .L434
 3723              		.loc 1 1622 0
 3724 0016 00EB8102 		add	r2, r0, r1, lsl #2
 3725              	.LVL363:
 3726              		.loc 1 1624 0
 3727 001a 0023     		movs	r3, #0
 3728              		.loc 1 1622 0
 3729 001c 526B     		ldr	r2, [r2, #52]
 3730              	.LVL364:
 3731              		.loc 1 1626 0
 3732 001e 0120     		movs	r0, #1
 3733              	.LVL365:
 3734              	.L421:
 3735              		.loc 1 1629 0
 3736 0020 711E     		subs	r1, r6, #1
 3737              	.LVL366:
 3738 0022 0429     		cmp	r1, #4
 3739 0024 2FD8     		bhi	.L422
 3740 0026 DFE801F0 		tbb	[pc, r1]
 3741              	.L424:
 3742 002a 25       		.byte	(.L423-.L424)/2
 3743 002b 22       		.byte	(.L425-.L424)/2
 3744 002c 13       		.byte	(.L426-.L424)/2
 3745 002d 06       		.byte	(.L427-.L424)/2
 3746 002e 31       		.byte	(.L428-.L424)/2
 3747              	.LVL367:
 3748 002f 00       		.p2align 1
 3749              	.L434:
 3750              		.loc 1 1618 0
 3751 0030 1046     		mov	r0, r2
 3752              	.LVL368:
 3753              		.loc 1 1619 0
 3754 0032 0123     		movs	r3, #1
 3755 0034 F4E7     		b	.L421
 3756              	.LVL369:
 3757              	.L427:
 3758              		.loc 1 1668 0
 3759 0036 5B00     		lsls	r3, r3, #1
 3760              	.LVL370:
 3761 0038 FE22     		movs	r2, #254
 3762              	.LVL371:
ARM GAS  /var/folders/d2/nstgp4h54kz7g1l847x_b8wc0000gn/T//ccoy4Txs.s 			page 67


 3763 003a 6021     		movs	r1, #96
 3764 003c 2046     		mov	r0, r4
 3765              	.LVL372:
 3766 003e FFF7FEFF 		bl	VL53L0X_UpdateByte
 3767              	.LVL373:
 3768              		.loc 1 1691 0
 3769 0042 70B9     		cbnz	r0, .L420
 3770              	.L438:
 3771              		.loc 1 1693 0
 3772 0044 3444     		add	r4, r4, r6
 3773              	.LVL374:
 3774              		.loc 1 1692 0
 3775 0046 45B9     		cbnz	r5, .L431
 3776              	.LVL375:
 3777              	.L436:
 3778 0048 2846     		mov	r0, r5
 3779              		.loc 1 1693 0
 3780 004a 84F82850 		strb	r5, [r4, #40]
 3781 004e 08E0     		b	.L420
 3782              	.LVL376:
 3783              	.L426:
 3784              		.loc 1 1659 0
 3785 0050 84F82B00 		strb	r0, [r4, #43]
 3786              	.L429:
 3787              		.loc 1 1693 0
 3788 0054 3444     		add	r4, r4, r6
 3789              	.LVL377:
 3790              		.loc 1 1692 0
 3791 0056 002D     		cmp	r5, #0
 3792 0058 F6D0     		beq	.L436
 3793              	.LVL378:
 3794              	.L431:
 3795              		.loc 1 1696 0
 3796 005a 0123     		movs	r3, #1
 3797 005c 84F82830 		strb	r3, [r4, #40]
 3798 0060 0020     		movs	r0, #0
 3799              	.L420:
 3800              		.loc 1 1703 0
 3801 0062 019A     		ldr	r2, [sp, #4]
 3802 0064 3B68     		ldr	r3, [r7]
 3803 0066 9A42     		cmp	r2, r3
 3804 0068 1CD1     		bne	.L437
 3805 006a 03B0     		add	sp, sp, #12
 3806              		.cfi_remember_state
 3807              		.cfi_def_cfa_offset 20
 3808              		@ sp needed
 3809 006c F0BD     		pop	{r4, r5, r6, r7, pc}
 3810              	.LVL379:
 3811              	.L425:
 3812              		.cfi_restore_state
 3813              		.loc 1 1650 0
 3814 006e 84F82A00 		strb	r0, [r4, #42]
 3815 0072 EFE7     		b	.L429
 3816              	.L423:
 3817              		.loc 1 1641 0
 3818 0074 C2F34F22 		ubfx	r2, r2, #9, #16
 3819              	.LVL380:
ARM GAS  /var/folders/d2/nstgp4h54kz7g1l847x_b8wc0000gn/T//ccoy4Txs.s 			page 68


 3820 0078 4421     		movs	r1, #68
 3821 007a 2046     		mov	r0, r4
 3822              	.LVL381:
 3823 007c FFF7FEFF 		bl	VL53L0X_WrWord
 3824              	.LVL382:
 3825              		.loc 1 1691 0
 3826 0080 0028     		cmp	r0, #0
 3827 0082 DFD0     		beq	.L438
 3828 0084 EDE7     		b	.L420
 3829              	.LVL383:
 3830              	.L422:
 3831              		.loc 1 1633 0
 3832 0086 84F82800 		strb	r0, [r4, #40]
 3833 008a E3E7     		b	.L429
 3834              	.L428:
 3835              	.LVL384:
 3836              		.loc 1 1677 0
 3837 008c 1B01     		lsls	r3, r3, #4
 3838              	.LVL385:
 3839 008e EF22     		movs	r2, #239
 3840              	.LVL386:
 3841 0090 6021     		movs	r1, #96
 3842 0092 2046     		mov	r0, r4
 3843              	.LVL387:
 3844 0094 FFF7FEFF 		bl	VL53L0X_UpdateByte
 3845              	.LVL388:
 3846              		.loc 1 1691 0
 3847 0098 0028     		cmp	r0, #0
 3848 009a D3D0     		beq	.L438
 3849 009c E1E7     		b	.L420
 3850              	.LVL389:
 3851              	.L433:
 3852              		.loc 1 1614 0
 3853 009e 6FF00300 		mvn	r0, #3
 3854              	.LVL390:
 3855 00a2 DEE7     		b	.L420
 3856              	.LVL391:
 3857              	.L437:
 3858              		.loc 1 1703 0
 3859 00a4 FFF7FEFF 		bl	__stack_chk_fail
 3860              	.LVL392:
 3861              	.L440:
 3862              		.align	2
 3863              	.L439:
 3864 00a8 00000000 		.word	__stack_chk_guard
 3865              		.cfi_endproc
 3866              	.LFE60:
 3867              		.size	VL53L0X_SetLimitCheckEnable, .-VL53L0X_SetLimitCheckEnable
 3868              		.section	.text.VL53L0X_GetLimitCheckEnable,"ax",%progbits
 3869              		.align	1
 3870              		.p2align 4,,15
 3871              		.global	VL53L0X_GetLimitCheckEnable
 3872              		.syntax unified
 3873              		.thumb
 3874              		.thumb_func
 3875              		.fpu fpv4-sp-d16
 3876              		.type	VL53L0X_GetLimitCheckEnable, %function
ARM GAS  /var/folders/d2/nstgp4h54kz7g1l847x_b8wc0000gn/T//ccoy4Txs.s 			page 69


 3877              	VL53L0X_GetLimitCheckEnable:
 3878              	.LFB61:
 3879              		.loc 1 1707 0
 3880              		.cfi_startproc
 3881              		@ args = 0, pretend = 0, frame = 8
 3882              		@ frame_needed = 0, uses_anonymous_args = 0
 3883              	.LVL393:
 3884 0000 10B5     		push	{r4, lr}
 3885              		.cfi_def_cfa_offset 8
 3886              		.cfi_offset 4, -8
 3887              		.cfi_offset 14, -4
 3888 0002 0C4B     		ldr	r3, .L448
 3889 0004 82B0     		sub	sp, sp, #8
 3890              		.cfi_def_cfa_offset 16
 3891              		.loc 1 1707 0
 3892 0006 1C68     		ldr	r4, [r3]
 3893 0008 0194     		str	r4, [sp, #4]
 3894              	.LVL394:
 3895              		.loc 1 1713 0
 3896 000a 0529     		cmp	r1, #5
 3897 000c 0AD8     		bhi	.L446
 3898              		.loc 1 1717 0
 3899 000e 0144     		add	r1, r1, r0
 3900              	.LVL395:
 3901              		.loc 1 1708 0
 3902 0010 0020     		movs	r0, #0
 3903              	.LVL396:
 3904              		.loc 1 1717 0
 3905 0012 91F82810 		ldrb	r1, [r1, #40]	@ zero_extendqisi2
 3906              	.LVL397:
 3907              		.loc 1 1719 0
 3908 0016 1170     		strb	r1, [r2]
 3909              	.LVL398:
 3910              	.L443:
 3911              		.loc 1 1724 0
 3912 0018 019A     		ldr	r2, [sp, #4]
 3913              	.LVL399:
 3914 001a 1B68     		ldr	r3, [r3]
 3915 001c 9A42     		cmp	r2, r3
 3916 001e 06D1     		bne	.L447
 3917 0020 02B0     		add	sp, sp, #8
 3918              		.cfi_remember_state
 3919              		.cfi_def_cfa_offset 8
 3920              		@ sp needed
 3921 0022 10BD     		pop	{r4, pc}
 3922              	.LVL400:
 3923              	.L446:
 3924              		.cfi_restore_state
 3925              		.loc 1 1715 0
 3926 0024 0021     		movs	r1, #0
 3927              	.LVL401:
 3928 0026 1170     		strb	r1, [r2]
 3929              		.loc 1 1714 0
 3930 0028 6FF00300 		mvn	r0, #3
 3931              	.LVL402:
 3932 002c F4E7     		b	.L443
 3933              	.LVL403:
ARM GAS  /var/folders/d2/nstgp4h54kz7g1l847x_b8wc0000gn/T//ccoy4Txs.s 			page 70


 3934              	.L447:
 3935              		.loc 1 1724 0
 3936 002e FFF7FEFF 		bl	__stack_chk_fail
 3937              	.LVL404:
 3938              	.L449:
 3939 0032 00BF     		.align	2
 3940              	.L448:
 3941 0034 00000000 		.word	__stack_chk_guard
 3942              		.cfi_endproc
 3943              	.LFE61:
 3944              		.size	VL53L0X_GetLimitCheckEnable, .-VL53L0X_GetLimitCheckEnable
 3945              		.section	.text.VL53L0X_SetLimitCheckValue,"ax",%progbits
 3946              		.align	1
 3947              		.p2align 4,,15
 3948              		.global	VL53L0X_SetLimitCheckValue
 3949              		.syntax unified
 3950              		.thumb
 3951              		.thumb_func
 3952              		.fpu fpv4-sp-d16
 3953              		.type	VL53L0X_SetLimitCheckValue, %function
 3954              	VL53L0X_SetLimitCheckValue:
 3955              	.LFB62:
 3956              		.loc 1 1728 0
 3957              		.cfi_startproc
 3958              		@ args = 0, pretend = 0, frame = 8
 3959              		@ frame_needed = 0, uses_anonymous_args = 0
 3960              	.LVL405:
 3961 0000 F0B5     		push	{r4, r5, r6, r7, lr}
 3962              		.cfi_def_cfa_offset 20
 3963              		.cfi_offset 4, -20
 3964              		.cfi_offset 5, -16
 3965              		.cfi_offset 6, -12
 3966              		.cfi_offset 7, -8
 3967              		.cfi_offset 14, -4
 3968              		.loc 1 1734 0
 3969 0002 4318     		adds	r3, r0, r1
 3970              		.loc 1 1728 0
 3971 0004 1C4E     		ldr	r6, .L466
 3972 0006 83B0     		sub	sp, sp, #12
 3973              		.cfi_def_cfa_offset 32
 3974              		.loc 1 1728 0
 3975 0008 0446     		mov	r4, r0
 3976              		.loc 1 1737 0
 3977 000a 93F82800 		ldrb	r0, [r3, #40]	@ zero_extendqisi2
 3978              	.LVL406:
 3979              		.loc 1 1728 0
 3980 000e 3368     		ldr	r3, [r6]
 3981 0010 0193     		str	r3, [sp, #4]
 3982              	.LVL407:
 3983 0012 0D46     		mov	r5, r1
 3984 0014 1746     		mov	r7, r2
 3985              		.loc 1 1737 0
 3986 0016 30B1     		cbz	r0, .L464
 3987              		.loc 1 1742 0
 3988 0018 0529     		cmp	r1, #5
 3989 001a 2AD8     		bhi	.L462
 3990 001c DFE801F0 		tbb	[pc, r1]
ARM GAS  /var/folders/d2/nstgp4h54kz7g1l847x_b8wc0000gn/T//ccoy4Txs.s 			page 71


 3991              	.L454:
 3992 0020 14       		.byte	(.L453-.L454)/2
 3993 0021 1E       		.byte	(.L455-.L454)/2
 3994 0022 1A       		.byte	(.L456-.L454)/2
 3995 0023 1C       		.byte	(.L457-.L454)/2
 3996 0024 0C       		.byte	(.L458-.L454)/2
 3997 0025 0C       		.byte	(.L458-.L454)/2
 3998              		.p2align 1
 3999              	.L464:
 4000              		.loc 1 1738 0
 4001 0026 04EB8104 		add	r4, r4, r1, lsl #2
 4002              	.LVL408:
 4003 002a 6263     		str	r2, [r4, #52]
 4004              	.LVL409:
 4005              	.L452:
 4006              		.loc 1 1801 0
 4007 002c 019A     		ldr	r2, [sp, #4]
 4008 002e 3368     		ldr	r3, [r6]
 4009 0030 9A42     		cmp	r2, r3
 4010 0032 1CD1     		bne	.L465
 4011 0034 03B0     		add	sp, sp, #12
 4012              		.cfi_remember_state
 4013              		.cfi_def_cfa_offset 20
 4014              		@ sp needed
 4015 0036 F0BD     		pop	{r4, r5, r6, r7, pc}
 4016              	.LVL410:
 4017              	.L458:
 4018              		.cfi_restore_state
 4019              		.loc 1 1781 0
 4020 0038 C2F34F22 		ubfx	r2, r2, #9, #16
 4021              	.LVL411:
 4022 003c 6421     		movs	r1, #100
 4023              	.LVL412:
 4024 003e 2046     		mov	r0, r4
 4025 0040 FFF7FEFF 		bl	VL53L0X_WrWord
 4026              	.LVL413:
 4027              		.loc 1 1793 0
 4028 0044 08B1     		cbz	r0, .L459
 4029 0046 F1E7     		b	.L452
 4030              	.LVL414:
 4031              	.L453:
 4032              		.loc 1 1746 0
 4033 0048 6263     		str	r2, [r4, #52]
 4034              	.LVL415:
 4035              	.L459:
 4036              		.loc 1 1794 0
 4037 004a 04EB8504 		add	r4, r4, r5, lsl #2
 4038              	.LVL416:
 4039 004e 0020     		movs	r0, #0
 4040 0050 6763     		str	r7, [r4, #52]
 4041 0052 EBE7     		b	.L452
 4042              	.LVL417:
 4043              	.L456:
 4044              		.loc 1 1763 0
 4045 0054 E263     		str	r2, [r4, #60]
 4046              	.LVL418:
 4047 0056 F8E7     		b	.L459
ARM GAS  /var/folders/d2/nstgp4h54kz7g1l847x_b8wc0000gn/T//ccoy4Txs.s 			page 72


 4048              	.LVL419:
 4049              	.L457:
 4050              		.loc 1 1772 0
 4051 0058 2264     		str	r2, [r4, #64]
 4052              	.LVL420:
 4053 005a F6E7     		b	.L459
 4054              	.LVL421:
 4055              	.L455:
 4056              		.loc 1 1753 0
 4057 005c C2F34F22 		ubfx	r2, r2, #9, #16
 4058              	.LVL422:
 4059 0060 4421     		movs	r1, #68
 4060              	.LVL423:
 4061 0062 2046     		mov	r0, r4
 4062 0064 FFF7FEFF 		bl	VL53L0X_WrWord
 4063              	.LVL424:
 4064              		.loc 1 1793 0
 4065 0068 0028     		cmp	r0, #0
 4066 006a EED0     		beq	.L459
 4067 006c DEE7     		b	.L452
 4068              	.LVL425:
 4069              	.L465:
 4070              		.loc 1 1801 0
 4071 006e FFF7FEFF 		bl	__stack_chk_fail
 4072              	.LVL426:
 4073              	.L462:
 4074              		.loc 1 1789 0
 4075 0072 6FF00300 		mvn	r0, #3
 4076 0076 D9E7     		b	.L452
 4077              	.L467:
 4078              		.align	2
 4079              	.L466:
 4080 0078 00000000 		.word	__stack_chk_guard
 4081              		.cfi_endproc
 4082              	.LFE62:
 4083              		.size	VL53L0X_SetLimitCheckValue, .-VL53L0X_SetLimitCheckValue
 4084              		.section	.text.VL53L0X_GetLimitCheckValue,"ax",%progbits
 4085              		.align	1
 4086              		.p2align 4,,15
 4087              		.global	VL53L0X_GetLimitCheckValue
 4088              		.syntax unified
 4089              		.thumb
 4090              		.thumb_func
 4091              		.fpu fpv4-sp-d16
 4092              		.type	VL53L0X_GetLimitCheckValue, %function
 4093              	VL53L0X_GetLimitCheckValue:
 4094              	.LFB63:
 4095              		.loc 1 1805 0
 4096              		.cfi_startproc
 4097              		@ args = 0, pretend = 0, frame = 8
 4098              		@ frame_needed = 0, uses_anonymous_args = 0
 4099              	.LVL427:
 4100 0000 70B5     		push	{r4, r5, r6, lr}
 4101              		.cfi_def_cfa_offset 16
 4102              		.cfi_offset 4, -16
 4103              		.cfi_offset 5, -12
 4104              		.cfi_offset 6, -8
ARM GAS  /var/folders/d2/nstgp4h54kz7g1l847x_b8wc0000gn/T//ccoy4Txs.s 			page 73


 4105              		.cfi_offset 14, -4
 4106 0002 204C     		ldr	r4, .L485
 4107 0004 82B0     		sub	sp, sp, #8
 4108              		.cfi_def_cfa_offset 24
 4109              		.loc 1 1805 0
 4110 0006 2368     		ldr	r3, [r4]
 4111 0008 0193     		str	r3, [sp, #4]
 4112              	.LVL428:
 4113 000a 0546     		mov	r5, r0
 4114 000c 1646     		mov	r6, r2
 4115              		.loc 1 1813 0
 4116 000e 0529     		cmp	r1, #5
 4117 0010 34D8     		bhi	.L480
 4118 0012 DFE801F0 		tbb	[pc, r1]
 4119              	.L471:
 4120 0016 03       		.byte	(.L470-.L471)/2
 4121 0017 0E       		.byte	(.L472-.L471)/2
 4122 0018 0C       		.byte	(.L473-.L471)/2
 4123 0019 1E       		.byte	(.L474-.L471)/2
 4124 001a 20       		.byte	(.L475-.L471)/2
 4125 001b 20       		.byte	(.L475-.L471)/2
 4126              		.p2align 1
 4127              	.L470:
 4128              		.loc 1 1817 0
 4129 001c 436B     		ldr	r3, [r0, #52]
 4130              	.LVL429:
 4131              	.L476:
 4132              		.loc 1 1885 0
 4133 001e 3360     		str	r3, [r6]
 4134 0020 0020     		movs	r0, #0
 4135              	.LVL430:
 4136              	.L469:
 4137              		.loc 1 1892 0
 4138 0022 019A     		ldr	r2, [sp, #4]
 4139 0024 2368     		ldr	r3, [r4]
 4140 0026 9A42     		cmp	r2, r3
 4141 0028 26D1     		bne	.L483
 4142 002a 02B0     		add	sp, sp, #8
 4143              		.cfi_remember_state
 4144              		.cfi_def_cfa_offset 16
 4145              		@ sp needed
 4146 002c 70BD     		pop	{r4, r5, r6, pc}
 4147              	.LVL431:
 4148              	.L473:
 4149              		.cfi_restore_state
 4150              		.loc 1 1835 0
 4151 002e C36B     		ldr	r3, [r0, #60]
 4152              	.LVL432:
 4153 0030 F5E7     		b	.L476
 4154              	.LVL433:
 4155              	.L472:
 4156              		.loc 1 1823 0
 4157 0032 0DF10202 		add	r2, sp, #2
 4158              	.LVL434:
 4159 0036 4421     		movs	r1, #68
 4160              	.LVL435:
 4161 0038 FFF7FEFF 		bl	VL53L0X_RdWord
ARM GAS  /var/folders/d2/nstgp4h54kz7g1l847x_b8wc0000gn/T//ccoy4Txs.s 			page 74


 4162              	.LVL436:
 4163              		.loc 1 1826 0
 4164 003c 0028     		cmp	r0, #0
 4165 003e F0D1     		bne	.L469
 4166              		.loc 1 1827 0
 4167 0040 BDF80230 		ldrh	r3, [sp, #2]
 4168              	.LVL437:
 4169              		.loc 1 1868 0
 4170 0044 5A02     		lsls	r2, r3, #9
 4171              	.LVL438:
 4172 0046 8BB9     		cbnz	r3, .L484
 4173              		.loc 1 1870 0
 4174 0048 AB6B     		ldr	r3, [r5, #56]
 4175              	.LVL439:
 4176              		.loc 1 1873 0
 4177 004a 3360     		str	r3, [r6]
 4178              		.loc 1 1874 0
 4179 004c 85F82900 		strb	r0, [r5, #41]
 4180 0050 E7E7     		b	.L469
 4181              	.LVL440:
 4182              	.L474:
 4183              		.loc 1 1842 0
 4184 0052 036C     		ldr	r3, [r0, #64]
 4185              	.LVL441:
 4186 0054 E3E7     		b	.L476
 4187              	.LVL442:
 4188              	.L475:
 4189              		.loc 1 1849 0
 4190 0056 0DF10202 		add	r2, sp, #2
 4191              	.LVL443:
 4192 005a 6421     		movs	r1, #100
 4193              	.LVL444:
 4194 005c FFF7FEFF 		bl	VL53L0X_RdWord
 4195              	.LVL445:
 4196              		.loc 1 1852 0
 4197 0060 0028     		cmp	r0, #0
 4198 0062 DED1     		bne	.L469
 4199              		.loc 1 1853 0
 4200 0064 BDF80230 		ldrh	r3, [sp, #2]
 4201 0068 5B02     		lsls	r3, r3, #9
 4202              	.LVL446:
 4203 006a D8E7     		b	.L476
 4204              	.LVL447:
 4205              	.L484:
 4206              		.loc 1 1881 0
 4207 006c 0123     		movs	r3, #1
 4208              		.loc 1 1877 0
 4209 006e 3260     		str	r2, [r6]
 4210              		.loc 1 1878 0
 4211 0070 AA63     		str	r2, [r5, #56]
 4212              		.loc 1 1881 0
 4213 0072 85F82930 		strb	r3, [r5, #41]
 4214 0076 D4E7     		b	.L469
 4215              	.LVL448:
 4216              	.L483:
 4217              		.loc 1 1892 0
 4218 0078 FFF7FEFF 		bl	__stack_chk_fail
ARM GAS  /var/folders/d2/nstgp4h54kz7g1l847x_b8wc0000gn/T//ccoy4Txs.s 			page 75


 4219              	.LVL449:
 4220              	.L480:
 4221              		.loc 1 1813 0
 4222 007c 6FF00300 		mvn	r0, #3
 4223              	.LVL450:
 4224 0080 CFE7     		b	.L469
 4225              	.L486:
 4226 0082 00BF     		.align	2
 4227              	.L485:
 4228 0084 00000000 		.word	__stack_chk_guard
 4229              		.cfi_endproc
 4230              	.LFE63:
 4231              		.size	VL53L0X_GetLimitCheckValue, .-VL53L0X_GetLimitCheckValue
 4232              		.section	.text.VL53L0X_GetLimitCheckCurrent,"ax",%progbits
 4233              		.align	1
 4234              		.p2align 4,,15
 4235              		.global	VL53L0X_GetLimitCheckCurrent
 4236              		.syntax unified
 4237              		.thumb
 4238              		.thumb_func
 4239              		.fpu fpv4-sp-d16
 4240              		.type	VL53L0X_GetLimitCheckCurrent, %function
 4241              	VL53L0X_GetLimitCheckCurrent:
 4242              	.LFB64:
 4243              		.loc 1 1896 0
 4244              		.cfi_startproc
 4245              		@ args = 0, pretend = 0, frame = 8
 4246              		@ frame_needed = 0, uses_anonymous_args = 0
 4247              	.LVL451:
 4248 0000 10B5     		push	{r4, lr}
 4249              		.cfi_def_cfa_offset 8
 4250              		.cfi_offset 4, -8
 4251              		.cfi_offset 14, -4
 4252 0002 134B     		ldr	r3, .L497
 4253 0004 82B0     		sub	sp, sp, #8
 4254              		.cfi_def_cfa_offset 16
 4255              		.loc 1 1896 0
 4256 0006 1C68     		ldr	r4, [r3]
 4257 0008 0194     		str	r4, [sp, #4]
 4258              	.LVL452:
 4259              		.loc 1 1902 0
 4260 000a 0529     		cmp	r1, #5
 4261 000c 1AD8     		bhi	.L494
 4262              		.loc 1 1905 0
 4263 000e 0139     		subs	r1, r1, #1
 4264              	.LVL453:
 4265 0010 0429     		cmp	r1, #4
 4266 0012 0DD8     		bhi	.L489
 4267 0014 DFE801F0 		tbb	[pc, r1]
 4268              	.L491:
 4269 0018 03       		.byte	(.L490-.L491)/2
 4270 0019 11       		.byte	(.L492-.L491)/2
 4271 001a 03       		.byte	(.L490-.L491)/2
 4272 001b 03       		.byte	(.L490-.L491)/2
 4273 001c 03       		.byte	(.L490-.L491)/2
 4274 001d 00       		.p2align 1
 4275              	.L490:
ARM GAS  /var/folders/d2/nstgp4h54kz7g1l847x_b8wc0000gn/T//ccoy4Txs.s 			page 76


 4276              		.loc 1 1914 0
 4277 001e C16D     		ldr	r1, [r0, #92]
 4278              	.LVL454:
 4279              		.loc 1 1916 0
 4280 0020 1160     		str	r1, [r2]
 4281              		.loc 1 1897 0
 4282 0022 0020     		movs	r0, #0
 4283              	.LVL455:
 4284              	.L488:
 4285              		.loc 1 1963 0
 4286 0024 019A     		ldr	r2, [sp, #4]
 4287              	.LVL456:
 4288 0026 1B68     		ldr	r3, [r3]
 4289 0028 9A42     		cmp	r2, r3
 4290 002a 0ED1     		bne	.L496
 4291 002c 02B0     		add	sp, sp, #8
 4292              		.cfi_remember_state
 4293              		.cfi_def_cfa_offset 8
 4294              		@ sp needed
 4295 002e 10BD     		pop	{r4, pc}
 4296              	.LVL457:
 4297              	.L489:
 4298              		.loc 1 1908 0
 4299 0030 D0F84011 		ldr	r1, [r0, #320]
 4300 0034 1160     		str	r1, [r2]
 4301              		.loc 1 1897 0
 4302 0036 0020     		movs	r0, #0
 4303              	.LVL458:
 4304              		.loc 1 1910 0
 4305 0038 F4E7     		b	.L488
 4306              	.LVL459:
 4307              	.L492:
 4308              		.cfi_restore_state
 4309              		.loc 1 1923 0
 4310 003a D0F84811 		ldr	r1, [r0, #328]
 4311 003e 1160     		str	r1, [r2]
 4312              		.loc 1 1897 0
 4313 0040 0020     		movs	r0, #0
 4314              	.LVL460:
 4315              		.loc 1 1926 0
 4316 0042 EFE7     		b	.L488
 4317              	.LVL461:
 4318              	.L494:
 4319              		.loc 1 1903 0
 4320 0044 6FF00300 		mvn	r0, #3
 4321              	.LVL462:
 4322 0048 ECE7     		b	.L488
 4323              	.LVL463:
 4324              	.L496:
 4325              		.loc 1 1963 0
 4326 004a FFF7FEFF 		bl	__stack_chk_fail
 4327              	.LVL464:
 4328              	.L498:
 4329 004e 00BF     		.align	2
 4330              	.L497:
 4331 0050 00000000 		.word	__stack_chk_guard
 4332              		.cfi_endproc
ARM GAS  /var/folders/d2/nstgp4h54kz7g1l847x_b8wc0000gn/T//ccoy4Txs.s 			page 77


 4333              	.LFE64:
 4334              		.size	VL53L0X_GetLimitCheckCurrent, .-VL53L0X_GetLimitCheckCurrent
 4335              		.section	.text.VL53L0X_SetWrapAroundCheckEnable,"ax",%progbits
 4336              		.align	1
 4337              		.p2align 4,,15
 4338              		.global	VL53L0X_SetWrapAroundCheckEnable
 4339              		.syntax unified
 4340              		.thumb
 4341              		.thumb_func
 4342              		.fpu fpv4-sp-d16
 4343              		.type	VL53L0X_SetWrapAroundCheckEnable, %function
 4344              	VL53L0X_SetWrapAroundCheckEnable:
 4345              	.LFB65:
 4346              		.loc 1 1970 0
 4347              		.cfi_startproc
 4348              		@ args = 0, pretend = 0, frame = 8
 4349              		@ frame_needed = 0, uses_anonymous_args = 0
 4350              	.LVL465:
 4351 0000 70B5     		push	{r4, r5, r6, lr}
 4352              		.cfi_def_cfa_offset 16
 4353              		.cfi_offset 4, -16
 4354              		.cfi_offset 5, -12
 4355              		.cfi_offset 6, -8
 4356              		.cfi_offset 14, -4
 4357 0002 154E     		ldr	r6, .L506
 4358 0004 82B0     		sub	sp, sp, #8
 4359              		.cfi_def_cfa_offset 24
 4360              		.loc 1 1970 0
 4361 0006 3368     		ldr	r3, [r6]
 4362 0008 0193     		str	r3, [sp, #4]
 4363              	.LVL466:
 4364              		.loc 1 1977 0
 4365 000a 0DF10302 		add	r2, sp, #3
 4366              		.loc 1 1970 0
 4367 000e 0D46     		mov	r5, r1
 4368              		.loc 1 1977 0
 4369 0010 0121     		movs	r1, #1
 4370              	.LVL467:
 4371              		.loc 1 1970 0
 4372 0012 0446     		mov	r4, r0
 4373              		.loc 1 1977 0
 4374 0014 FFF7FEFF 		bl	VL53L0X_RdByte
 4375              	.LVL468:
 4376              		.loc 1 1980 0
 4377 0018 9DF80320 		ldrb	r2, [sp, #3]	@ zero_extendqisi2
 4378              		.loc 1 1978 0
 4379 001c A5B9     		cbnz	r5, .L500
 4380              		.loc 1 1980 0
 4381 001e 02F07F02 		and	r2, r2, #127
 4382 0022 8DF80320 		strb	r2, [sp, #3]
 4383              	.LVL469:
 4384              	.L501:
 4385              		.loc 1 1988 0
 4386 0026 0121     		movs	r1, #1
 4387 0028 2046     		mov	r0, r4
 4388 002a FFF7FEFF 		bl	VL53L0X_WrByte
 4389              	.LVL470:
ARM GAS  /var/folders/d2/nstgp4h54kz7g1l847x_b8wc0000gn/T//ccoy4Txs.s 			page 78


 4390              		.loc 1 1990 0
 4391 002e 28B9     		cbnz	r0, .L502
 4392              		.loc 1 1991 0
 4393 0030 9DF80330 		ldrb	r3, [sp, #3]	@ zero_extendqisi2
 4394              		.loc 1 1992 0
 4395 0034 84F84C50 		strb	r5, [r4, #76]
 4396              		.loc 1 1991 0
 4397 0038 84F83031 		strb	r3, [r4, #304]
 4398              	.L502:
 4399              		.loc 1 1998 0
 4400 003c 019A     		ldr	r2, [sp, #4]
 4401 003e 3368     		ldr	r3, [r6]
 4402 0040 9A42     		cmp	r2, r3
 4403 0042 07D1     		bne	.L505
 4404 0044 02B0     		add	sp, sp, #8
 4405              		.cfi_remember_state
 4406              		.cfi_def_cfa_offset 16
 4407              		@ sp needed
 4408 0046 70BD     		pop	{r4, r5, r6, pc}
 4409              	.LVL471:
 4410              	.L500:
 4411              		.cfi_restore_state
 4412              		.loc 1 1984 0
 4413 0048 42F08002 		orr	r2, r2, #128
 4414 004c 8DF80320 		strb	r2, [sp, #3]
 4415              	.LVL472:
 4416              		.loc 1 1985 0
 4417 0050 0125     		movs	r5, #1
 4418 0052 E8E7     		b	.L501
 4419              	.LVL473:
 4420              	.L505:
 4421              		.loc 1 1998 0
 4422 0054 FFF7FEFF 		bl	__stack_chk_fail
 4423              	.LVL474:
 4424              	.L507:
 4425              		.align	2
 4426              	.L506:
 4427 0058 00000000 		.word	__stack_chk_guard
 4428              		.cfi_endproc
 4429              	.LFE65:
 4430              		.size	VL53L0X_SetWrapAroundCheckEnable, .-VL53L0X_SetWrapAroundCheckEnable
 4431              		.section	.text.VL53L0X_SetDeviceParameters,"ax",%progbits
 4432              		.align	1
 4433              		.p2align 4,,15
 4434              		.global	VL53L0X_SetDeviceParameters
 4435              		.syntax unified
 4436              		.thumb
 4437              		.thumb_func
 4438              		.fpu fpv4-sp-d16
 4439              		.type	VL53L0X_SetDeviceParameters, %function
 4440              	VL53L0X_SetDeviceParameters:
 4441              	.LFB29:
 4442              		.loc 1 794 0
 4443              		.cfi_startproc
 4444              		@ args = 0, pretend = 0, frame = 8
 4445              		@ frame_needed = 0, uses_anonymous_args = 0
 4446              	.LVL475:
ARM GAS  /var/folders/d2/nstgp4h54kz7g1l847x_b8wc0000gn/T//ccoy4Txs.s 			page 79


 4447 0000 2DE9F047 		push	{r4, r5, r6, r7, r8, r9, r10, lr}
 4448              		.cfi_def_cfa_offset 32
 4449              		.cfi_offset 4, -32
 4450              		.cfi_offset 5, -28
 4451              		.cfi_offset 6, -24
 4452              		.cfi_offset 7, -20
 4453              		.cfi_offset 8, -16
 4454              		.cfi_offset 9, -12
 4455              		.cfi_offset 10, -8
 4456              		.cfi_offset 14, -4
 4457 0004 DFF8C4A0 		ldr	r10, .L521+4
 4458              		.loc 1 798 0
 4459 0008 0B78     		ldrb	r3, [r1]	@ zero_extendqisi2
 4460              		.loc 1 794 0
 4461 000a DAF80020 		ldr	r2, [r10]
 4462 000e 82B0     		sub	sp, sp, #8
 4463              		.cfi_def_cfa_offset 40
 4464 0010 152B     		cmp	r3, #21
 4465              		.loc 1 794 0
 4466 0012 0192     		str	r2, [sp, #4]
 4467              	.LVL476:
 4468 0014 05D8     		bhi	.L516
 4469 0016 8946     		mov	r9, r1
 4470 0018 2B4A     		ldr	r2, .L521
 4471 001a 0121     		movs	r1, #1
 4472              	.LVL477:
 4473 001c 9940     		lsls	r1, r1, r3
 4474 001e 0A40     		ands	r2, r2, r1
 4475 0020 4AB9     		cbnz	r2, .L519
 4476              	.LVL478:
 4477              	.L516:
 4478              	.LBB88:
 4479              	.LBB89:
 4480              		.loc 1 924 0
 4481 0022 6FF00700 		mvn	r0, #7
 4482              	.LVL479:
 4483              	.L509:
 4484              	.LBE89:
 4485              	.LBE88:
 4486              		.loc 1 841 0
 4487 0026 019A     		ldr	r2, [sp, #4]
 4488 0028 DAF80030 		ldr	r3, [r10]
 4489 002c 9A42     		cmp	r2, r3
 4490 002e 48D1     		bne	.L518
 4491 0030 02B0     		add	sp, sp, #8
 4492              		.cfi_remember_state
 4493              		.cfi_def_cfa_offset 32
 4494              		@ sp needed
 4495 0032 BDE8F087 		pop	{r4, r5, r6, r7, r8, r9, r10, pc}
 4496              	.LVL480:
 4497              	.L519:
 4498              		.cfi_restore_state
 4499              	.LBB91:
 4500              	.LBB90:
 4501              		.loc 1 920 0
 4502 0036 0374     		strb	r3, [r0, #16]
 4503              	.LVL481:
ARM GAS  /var/folders/d2/nstgp4h54kz7g1l847x_b8wc0000gn/T//ccoy4Txs.s 			page 80


 4504              	.LBE90:
 4505              	.LBE91:
 4506              		.loc 1 801 0
 4507 0038 D9F80810 		ldr	r1, [r9, #8]
 4508 003c 0646     		mov	r6, r0
 4509 003e FFF7FEFF 		bl	VL53L0X_SetInterMeasurementPeriodMilliSeconds
 4510              	.LVL482:
 4511              		.loc 1 805 0
 4512 0042 0028     		cmp	r0, #0
 4513 0044 EFD1     		bne	.L509
 4514              		.loc 1 806 0
 4515 0046 D9F81010 		ldr	r1, [r9, #16]
 4516 004a 3046     		mov	r0, r6
 4517              	.LVL483:
 4518 004c FFF7FEFF 		bl	VL53L0X_SetXTalkCompensationRateMegaCps
 4519              	.LVL484:
 4520              		.loc 1 810 0
 4521 0050 0028     		cmp	r0, #0
 4522 0052 E8D1     		bne	.L509
 4523              	.LVL485:
 4524              	.LBB92:
 4525              	.LBB93:
 4526              		.loc 1 259 0
 4527 0054 D9F81410 		ldr	r1, [r9, #20]
 4528 0058 3046     		mov	r0, r6
 4529              	.LVL486:
 4530 005a FFF7FEFF 		bl	VL53L0X_set_offset_calibration_data_micro_meter
 4531              	.LVL487:
 4532              	.LBE93:
 4533              	.LBE92:
 4534              		.loc 1 816 0
 4535 005e 0028     		cmp	r0, #0
 4536 0060 E1D1     		bne	.L509
 4537 0062 0446     		mov	r4, r0
 4538 0064 09F11807 		add	r7, r9, #24
 4539 0068 09F12408 		add	r8, r9, #36
 4540              	.LVL488:
 4541              	.L511:
 4542              		.loc 1 817 0
 4543 006c A5B2     		uxth	r5, r4
 4544 006e 2946     		mov	r1, r5
 4545 0070 17F8012B 		ldrb	r2, [r7], #1	@ zero_extendqisi2
 4546 0074 3046     		mov	r0, r6
 4547 0076 FFF7FEFF 		bl	VL53L0X_SetLimitCheckEnable
 4548              	.LVL489:
 4549              		.loc 1 822 0
 4550 007a 0028     		cmp	r0, #0
 4551 007c D3D1     		bne	.L509
 4552              		.loc 1 823 0 discriminator 2
 4553 007e 2946     		mov	r1, r5
 4554              		.loc 1 815 0 discriminator 2
 4555 0080 0134     		adds	r4, r4, #1
 4556              	.LVL490:
 4557              		.loc 1 823 0 discriminator 2
 4558 0082 58F8042B 		ldr	r2, [r8], #4
 4559 0086 3046     		mov	r0, r6
 4560              	.LVL491:
ARM GAS  /var/folders/d2/nstgp4h54kz7g1l847x_b8wc0000gn/T//ccoy4Txs.s 			page 81


 4561 0088 FFF7FEFF 		bl	VL53L0X_SetLimitCheckValue
 4562              	.LVL492:
 4563              		.loc 1 815 0 discriminator 2
 4564 008c 062C     		cmp	r4, #6
 4565 008e 02D0     		beq	.L520
 4566              		.loc 1 816 0
 4567 0090 0028     		cmp	r0, #0
 4568 0092 EBD0     		beq	.L511
 4569 0094 C7E7     		b	.L509
 4570              	.L520:
 4571              		.loc 1 830 0
 4572 0096 0028     		cmp	r0, #0
 4573 0098 C5D1     		bne	.L509
 4574              		.loc 1 831 0
 4575 009a 99F83C10 		ldrb	r1, [r9, #60]	@ zero_extendqisi2
 4576 009e 3046     		mov	r0, r6
 4577              	.LVL493:
 4578 00a0 FFF7FEFF 		bl	VL53L0X_SetWrapAroundCheckEnable
 4579              	.LVL494:
 4580              		.loc 1 834 0
 4581 00a4 0028     		cmp	r0, #0
 4582 00a6 BED1     		bne	.L509
 4583              	.LVL495:
 4584              	.LBB94:
 4585              	.LBB95:
 4586              		.loc 1 1006 0
 4587 00a8 019A     		ldr	r2, [sp, #4]
 4588 00aa DAF80030 		ldr	r3, [r10]
 4589 00ae 9A42     		cmp	r2, r3
 4590 00b0 07D1     		bne	.L518
 4591 00b2 D9F80410 		ldr	r1, [r9, #4]
 4592 00b6 3046     		mov	r0, r6
 4593              	.LVL496:
 4594              	.LBE95:
 4595              	.LBE94:
 4596              		.loc 1 841 0
 4597 00b8 02B0     		add	sp, sp, #8
 4598              		.cfi_remember_state
 4599              		.cfi_def_cfa_offset 32
 4600              		@ sp needed
 4601 00ba BDE8F047 		pop	{r4, r5, r6, r7, r8, r9, r10, lr}
 4602              		.cfi_restore 14
 4603              		.cfi_restore 10
 4604              		.cfi_restore 9
 4605              		.cfi_restore 8
 4606              		.cfi_restore 7
 4607              		.cfi_restore 6
 4608              		.cfi_restore 5
 4609              		.cfi_restore 4
 4610              		.cfi_def_cfa_offset 0
 4611              	.LVL497:
 4612              	.LBB97:
 4613              	.LBB96:
 4614              		.loc 1 1006 0
 4615 00be FFF7FEBF 		b	VL53L0X_set_measurement_timing_budget_micro_seconds
 4616              	.LVL498:
 4617              	.L518:
ARM GAS  /var/folders/d2/nstgp4h54kz7g1l847x_b8wc0000gn/T//ccoy4Txs.s 			page 82


 4618              		.cfi_restore_state
 4619              	.LBE96:
 4620              	.LBE97:
 4621              		.loc 1 841 0
 4622 00c2 FFF7FEFF 		bl	__stack_chk_fail
 4623              	.LVL499:
 4624              	.L522:
 4625 00c6 00BF     		.align	2
 4626              	.L521:
 4627 00c8 0B003000 		.word	3145739
 4628 00cc 00000000 		.word	__stack_chk_guard
 4629              		.cfi_endproc
 4630              	.LFE29:
 4631              		.size	VL53L0X_SetDeviceParameters, .-VL53L0X_SetDeviceParameters
 4632              		.section	.text.VL53L0X_GetWrapAroundCheckEnable,"ax",%progbits
 4633              		.align	1
 4634              		.p2align 4,,15
 4635              		.global	VL53L0X_GetWrapAroundCheckEnable
 4636              		.syntax unified
 4637              		.thumb
 4638              		.thumb_func
 4639              		.fpu fpv4-sp-d16
 4640              		.type	VL53L0X_GetWrapAroundCheckEnable, %function
 4641              	VL53L0X_GetWrapAroundCheckEnable:
 4642              	.LFB66:
 4643              		.loc 1 2002 0
 4644              		.cfi_startproc
 4645              		@ args = 0, pretend = 0, frame = 8
 4646              		@ frame_needed = 0, uses_anonymous_args = 0
 4647              	.LVL500:
 4648 0000 70B5     		push	{r4, r5, r6, lr}
 4649              		.cfi_def_cfa_offset 16
 4650              		.cfi_offset 4, -16
 4651              		.cfi_offset 5, -12
 4652              		.cfi_offset 6, -8
 4653              		.cfi_offset 14, -4
 4654 0002 104C     		ldr	r4, .L531
 4655 0004 82B0     		sub	sp, sp, #8
 4656              		.cfi_def_cfa_offset 24
 4657              		.loc 1 2002 0
 4658 0006 0E46     		mov	r6, r1
 4659 0008 2368     		ldr	r3, [r4]
 4660 000a 0193     		str	r3, [sp, #4]
 4661              	.LVL501:
 4662              		.loc 1 2008 0
 4663 000c 0DF10302 		add	r2, sp, #3
 4664 0010 0121     		movs	r1, #1
 4665              	.LVL502:
 4666              		.loc 1 2002 0
 4667 0012 0546     		mov	r5, r0
 4668              		.loc 1 2008 0
 4669 0014 FFF7FEFF 		bl	VL53L0X_RdByte
 4670              	.LVL503:
 4671              		.loc 1 2009 0
 4672 0018 58B9     		cbnz	r0, .L524
 4673              		.loc 1 2010 0
 4674 001a 9DF80330 		ldrb	r3, [sp, #3]	@ zero_extendqisi2
ARM GAS  /var/folders/d2/nstgp4h54kz7g1l847x_b8wc0000gn/T//ccoy4Txs.s 			page 83


 4675 001e 85F83031 		strb	r3, [r5, #304]
 4676              		.loc 1 2011 0
 4677 0022 1B06     		lsls	r3, r3, #24
 4678              		.loc 1 2012 0
 4679 0024 4BBF     		itete	mi
 4680 0026 0123     		movmi	r3, #1
 4681              		.loc 1 2014 0
 4682 0028 0346     		movpl	r3, r0
 4683              		.loc 1 2012 0
 4684 002a 3370     		strbmi	r3, [r6]
 4685              		.loc 1 2014 0
 4686 002c 3070     		strbpl	r0, [r6]
 4687              		.loc 1 2017 0
 4688 002e 85F84C30 		strb	r3, [r5, #76]
 4689              	.L524:
 4690              		.loc 1 2023 0
 4691 0032 019A     		ldr	r2, [sp, #4]
 4692 0034 2368     		ldr	r3, [r4]
 4693 0036 9A42     		cmp	r2, r3
 4694 0038 01D1     		bne	.L530
 4695 003a 02B0     		add	sp, sp, #8
 4696              		.cfi_remember_state
 4697              		.cfi_def_cfa_offset 16
 4698              		@ sp needed
 4699 003c 70BD     		pop	{r4, r5, r6, pc}
 4700              	.LVL504:
 4701              	.L530:
 4702              		.cfi_restore_state
 4703 003e FFF7FEFF 		bl	__stack_chk_fail
 4704              	.LVL505:
 4705              	.L532:
 4706 0042 00BF     		.align	2
 4707              	.L531:
 4708 0044 00000000 		.word	__stack_chk_guard
 4709              		.cfi_endproc
 4710              	.LFE66:
 4711              		.size	VL53L0X_GetWrapAroundCheckEnable, .-VL53L0X_GetWrapAroundCheckEnable
 4712              		.section	.text.VL53L0X_GetDeviceParameters,"ax",%progbits
 4713              		.align	1
 4714              		.p2align 4,,15
 4715              		.global	VL53L0X_GetDeviceParameters
 4716              		.syntax unified
 4717              		.thumb
 4718              		.thumb_func
 4719              		.fpu fpv4-sp-d16
 4720              		.type	VL53L0X_GetDeviceParameters, %function
 4721              	VL53L0X_GetDeviceParameters:
 4722              	.LFB30:
 4723              		.loc 1 845 0
 4724              		.cfi_startproc
 4725              		@ args = 0, pretend = 0, frame = 8
 4726              		@ frame_needed = 0, uses_anonymous_args = 0
 4727              	.LVL506:
 4728 0000 2DE9F047 		push	{r4, r5, r6, r7, r8, r9, r10, lr}
 4729              		.cfi_def_cfa_offset 32
 4730              		.cfi_offset 4, -32
 4731              		.cfi_offset 5, -28
ARM GAS  /var/folders/d2/nstgp4h54kz7g1l847x_b8wc0000gn/T//ccoy4Txs.s 			page 84


 4732              		.cfi_offset 6, -24
 4733              		.cfi_offset 7, -20
 4734              		.cfi_offset 8, -16
 4735              		.cfi_offset 9, -12
 4736              		.cfi_offset 10, -8
 4737              		.cfi_offset 14, -4
 4738 0004 DFF898A0 		ldr	r10, .L544
 4739              	.LBB98:
 4740              	.LBB99:
 4741              		.loc 1 937 0
 4742 0008 027C     		ldrb	r2, [r0, #16]	@ zero_extendqisi2
 4743              	.LBE99:
 4744              	.LBE98:
 4745              		.loc 1 845 0
 4746 000a DAF80030 		ldr	r3, [r10]
 4747 000e 82B0     		sub	sp, sp, #8
 4748              		.cfi_def_cfa_offset 40
 4749              		.loc 1 845 0
 4750 0010 0F46     		mov	r7, r1
 4751              	.LBB101:
 4752              	.LBB100:
 4753              		.loc 1 937 0
 4754 0012 01F8082B 		strb	r2, [r1], #8
 4755              	.LVL507:
 4756              	.LBE100:
 4757              	.LBE101:
 4758              		.loc 1 845 0
 4759 0016 0646     		mov	r6, r0
 4760 0018 0193     		str	r3, [sp, #4]
 4761              	.LVL508:
 4762              		.loc 1 854 0
 4763 001a FFF7FEFF 		bl	VL53L0X_GetInterMeasurementPeriodMilliSeconds
 4764              	.LVL509:
 4765              		.loc 1 858 0
 4766 001e A0BB     		cbnz	r0, .L534
 4767              		.loc 1 859 0
 4768 0020 3873     		strb	r0, [r7, #12]
 4769              		.loc 1 862 0
 4770 0022 07F11001 		add	r1, r7, #16
 4771 0026 3046     		mov	r0, r6
 4772              	.LVL510:
 4773 0028 FFF7FEFF 		bl	VL53L0X_GetXTalkCompensationRateMegaCps
 4774              	.LVL511:
 4775              		.loc 1 866 0
 4776 002c 68BB     		cbnz	r0, .L534
 4777              	.LVL512:
 4778              	.LBB102:
 4779              	.LBB103:
 4780              		.loc 1 272 0
 4781 002e 07F11401 		add	r1, r7, #20
 4782              	.LVL513:
 4783 0032 3046     		mov	r0, r6
 4784              	.LVL514:
 4785 0034 FFF7FEFF 		bl	VL53L0X_get_offset_calibration_data_micro_meter
 4786              	.LVL515:
 4787              	.LBE103:
 4788              	.LBE102:
ARM GAS  /var/folders/d2/nstgp4h54kz7g1l847x_b8wc0000gn/T//ccoy4Txs.s 			page 85


 4789              		.loc 1 871 0
 4790 0038 38BB     		cbnz	r0, .L534
 4791              		.loc 1 872 0
 4792 003a 0446     		mov	r4, r0
 4793 003c 07F12405 		add	r5, r7, #36
 4794 0040 06F12809 		add	r9, r6, #40
 4795 0044 07F11808 		add	r8, r7, #24
 4796              	.LVL516:
 4797              	.L535:
 4798              		.loc 1 878 0
 4799 0048 2A46     		mov	r2, r5
 4800 004a A1B2     		uxth	r1, r4
 4801 004c 3046     		mov	r0, r6
 4802 004e FFF7FEFF 		bl	VL53L0X_GetLimitCheckValue
 4803              	.LVL517:
 4804              		.loc 1 883 0
 4805 0052 D0B9     		cbnz	r0, .L534
 4806              	.LVL518:
 4807              		.loc 1 872 0 discriminator 2
 4808 0054 0134     		adds	r4, r4, #1
 4809              	.LVL519:
 4810              	.LBB104:
 4811              	.LBB105:
 4812              		.loc 1 1717 0 discriminator 2
 4813 0056 19F8013B 		ldrb	r3, [r9], #1	@ zero_extendqisi2
 4814              	.LVL520:
 4815              		.loc 1 1719 0 discriminator 2
 4816 005a 08F8013B 		strb	r3, [r8], #1
 4817              	.LVL521:
 4818              	.LBE105:
 4819              	.LBE104:
 4820              		.loc 1 872 0 discriminator 2
 4821 005e 062C     		cmp	r4, #6
 4822 0060 05F10405 		add	r5, r5, #4
 4823 0064 F0D1     		bne	.L535
 4824              		.loc 1 893 0
 4825 0066 07F13C01 		add	r1, r7, #60
 4826 006a 3046     		mov	r0, r6
 4827 006c FFF7FEFF 		bl	VL53L0X_GetWrapAroundCheckEnable
 4828              	.LVL522:
 4829              		.loc 1 898 0
 4830 0070 58B9     		cbnz	r0, .L534
 4831              	.LVL523:
 4832              	.LBB106:
 4833              	.LBB107:
 4834              		.loc 1 1020 0
 4835 0072 019A     		ldr	r2, [sp, #4]
 4836 0074 DAF80030 		ldr	r3, [r10]
 4837 0078 9A42     		cmp	r2, r3
 4838 007a 0ED1     		bne	.L542
 4839 007c 391D     		adds	r1, r7, #4
 4840              	.LVL524:
 4841 007e 3046     		mov	r0, r6
 4842              	.LVL525:
 4843              	.LBE107:
 4844              	.LBE106:
 4845              		.loc 1 905 0
ARM GAS  /var/folders/d2/nstgp4h54kz7g1l847x_b8wc0000gn/T//ccoy4Txs.s 			page 86


 4846 0080 02B0     		add	sp, sp, #8
 4847              		.cfi_remember_state
 4848              		.cfi_def_cfa_offset 32
 4849              		@ sp needed
 4850 0082 BDE8F047 		pop	{r4, r5, r6, r7, r8, r9, r10, lr}
 4851              		.cfi_restore 14
 4852              		.cfi_restore 10
 4853              		.cfi_restore 9
 4854              		.cfi_restore 8
 4855              		.cfi_restore 7
 4856              		.cfi_restore 6
 4857              		.cfi_restore 5
 4858              		.cfi_restore 4
 4859              		.cfi_def_cfa_offset 0
 4860              	.LVL526:
 4861              	.LBB109:
 4862              	.LBB108:
 4863              		.loc 1 1020 0
 4864 0086 FFF7FEBF 		b	VL53L0X_get_measurement_timing_budget_micro_seconds
 4865              	.LVL527:
 4866              	.L534:
 4867              		.cfi_restore_state
 4868              	.LBE108:
 4869              	.LBE109:
 4870              		.loc 1 905 0
 4871 008a 019A     		ldr	r2, [sp, #4]
 4872 008c DAF80030 		ldr	r3, [r10]
 4873 0090 9A42     		cmp	r2, r3
 4874 0092 02D1     		bne	.L542
 4875 0094 02B0     		add	sp, sp, #8
 4876              		.cfi_remember_state
 4877              		.cfi_def_cfa_offset 32
 4878              		@ sp needed
 4879 0096 BDE8F087 		pop	{r4, r5, r6, r7, r8, r9, r10, pc}
 4880              	.LVL528:
 4881              	.L542:
 4882              		.cfi_restore_state
 4883 009a FFF7FEFF 		bl	__stack_chk_fail
 4884              	.LVL529:
 4885              	.L545:
 4886 009e 00BF     		.align	2
 4887              	.L544:
 4888 00a0 00000000 		.word	__stack_chk_guard
 4889              		.cfi_endproc
 4890              	.LFE30:
 4891              		.size	VL53L0X_GetDeviceParameters, .-VL53L0X_GetDeviceParameters
 4892              		.section	.text.VL53L0X_DataInit,"ax",%progbits
 4893              		.align	1
 4894              		.p2align 4,,15
 4895              		.global	VL53L0X_DataInit
 4896              		.syntax unified
 4897              		.thumb
 4898              		.thumb_func
 4899              		.fpu fpv4-sp-d16
 4900              		.type	VL53L0X_DataInit, %function
 4901              	VL53L0X_DataInit:
 4902              	.LFB23:
ARM GAS  /var/folders/d2/nstgp4h54kz7g1l847x_b8wc0000gn/T//ccoy4Txs.s 			page 87


 4903              		.loc 1 374 0
 4904              		.cfi_startproc
 4905              		@ args = 0, pretend = 0, frame = 72
 4906              		@ frame_needed = 0, uses_anonymous_args = 0
 4907              	.LVL530:
 4908 0000 2DE9F041 		push	{r4, r5, r6, r7, r8, lr}
 4909              		.cfi_def_cfa_offset 24
 4910              		.cfi_offset 4, -24
 4911              		.cfi_offset 5, -20
 4912              		.cfi_offset 6, -16
 4913              		.cfi_offset 7, -12
 4914              		.cfi_offset 8, -8
 4915              		.cfi_offset 14, -4
 4916 0004 614F     		ldr	r7, .L564
 4917 0006 92B0     		sub	sp, sp, #72
 4918              		.cfi_def_cfa_offset 96
 4919              		.loc 1 374 0
 4920 0008 0546     		mov	r5, r0
 4921 000a 3B68     		ldr	r3, [r7]
 4922 000c 1193     		str	r3, [sp, #68]
 4923              	.LVL531:
 4924              		.loc 1 393 0
 4925 000e 0022     		movs	r2, #0
 4926 0010 8821     		movs	r1, #136
 4927 0012 FFF7FEFF 		bl	VL53L0X_WrByte
 4928              	.LVL532:
 4929              		.loc 1 403 0
 4930 0016 4FF47A72 		mov	r2, #1000
 4931              		.loc 1 406 0
 4932 001a 4FF4C873 		mov	r3, #400
 4933              		.loc 1 407 0
 4934 001e 5C49     		ldr	r1, .L564+4
 4935              		.loc 1 403 0
 4936 0020 A5F85221 		strh	r2, [r5, #338]	@ movhi
 4937              		.loc 1 406 0
 4938 0024 A5F85431 		strh	r3, [r5, #340]	@ movhi
 4939              		.loc 1 412 0
 4940 0028 5A4A     		ldr	r2, .L564+8
 4941              		.loc 1 407 0
 4942 002a C5F85811 		str	r1, [r5, #344]
 4943              		.loc 1 395 0
 4944 002e 0023     		movs	r3, #0
 4945              		.loc 1 412 0
 4946 0030 C5F8D420 		str	r2, [r5, #212]
 4947              		.loc 1 395 0
 4948 0034 85F8F030 		strb	r3, [r5, #240]
 4949              		.loc 1 415 0
 4950 0038 2B62     		str	r3, [r5, #32]
 4951              		.loc 1 418 0
 4952 003a 2846     		mov	r0, r5
 4953 003c 01A9     		add	r1, sp, #4
 4954 003e FFF7FEFF 		bl	VL53L0X_GetDeviceParameters
 4955              	.LVL533:
 4956              		.loc 1 419 0
 4957 0042 0446     		mov	r4, r0
 4958 0044 88B9     		cbnz	r0, .L547
 4959              		.loc 1 421 0
ARM GAS  /var/folders/d2/nstgp4h54kz7g1l847x_b8wc0000gn/T//ccoy4Txs.s 			page 88


 4960 0046 ADF80400 		strh	r0, [sp, #4]	@ movhi
 4961              		.loc 1 423 0
 4962 004a 01AE     		add	r6, sp, #4
 4963 004c 0FCE     		ldmia	r6!, {r0, r1, r2, r3}
 4964              	.LVL534:
 4965 004e 05F1100C 		add	ip, r5, #16
 4966 0052 ACE80F00 		stmia	ip!, {r0, r1, r2, r3}
 4967 0056 0FCE     		ldmia	r6!, {r0, r1, r2, r3}
 4968 0058 ACE80F00 		stmia	ip!, {r0, r1, r2, r3}
 4969 005c 0FCE     		ldmia	r6!, {r0, r1, r2, r3}
 4970 005e ACE80F00 		stmia	ip!, {r0, r1, r2, r3}
 4971 0062 96E80F00 		ldm	r6, {r0, r1, r2, r3}
 4972 0066 8CE80F00 		stm	ip, {r0, r1, r2, r3}
 4973              	.L547:
 4974              		.loc 1 427 0
 4975 006a 4B4B     		ldr	r3, .L564+12
 4976 006c C5F83431 		str	r3, [r5, #308]
 4977              		.loc 1 433 0
 4978 0070 0126     		movs	r6, #1
 4979              		.loc 1 430 0
 4980 0072 4FF42063 		mov	r3, #2560
 4981              		.loc 1 428 0
 4982 0076 4FF4FA72 		mov	r2, #500
 4983              		.loc 1 430 0
 4984 007a A5F83C31 		strh	r3, [r5, #316]	@ movhi
 4985              		.loc 1 428 0
 4986 007e A5F83821 		strh	r2, [r5, #312]	@ movhi
 4987              		.loc 1 435 0
 4988 0082 8021     		movs	r1, #128
 4989 0084 3246     		mov	r2, r6
 4990              		.loc 1 433 0
 4991 0086 85F85061 		strb	r6, [r5, #336]
 4992              		.loc 1 435 0
 4993 008a 2846     		mov	r0, r5
 4994 008c FFF7FEFF 		bl	VL53L0X_WrByte
 4995              	.LVL535:
 4996              		.loc 1 436 0
 4997 0090 3246     		mov	r2, r6
 4998              		.loc 1 435 0
 4999 0092 8046     		mov	r8, r0
 5000              	.LVL536:
 5001              		.loc 1 436 0
 5002 0094 FF21     		movs	r1, #255
 5003 0096 2846     		mov	r0, r5
 5004 0098 FFF7FEFF 		bl	VL53L0X_WrByte
 5005              	.LVL537:
 5006              		.loc 1 437 0
 5007 009c 0022     		movs	r2, #0
 5008              		.loc 1 436 0
 5009 009e 48EA0000 		orr	r0, r8, r0
 5010              		.loc 1 437 0
 5011 00a2 1146     		mov	r1, r2
 5012              		.loc 1 436 0
 5013 00a4 0443     		orrs	r4, r4, r0
 5014              	.LVL538:
 5015              		.loc 1 437 0
 5016 00a6 2846     		mov	r0, r5
ARM GAS  /var/folders/d2/nstgp4h54kz7g1l847x_b8wc0000gn/T//ccoy4Txs.s 			page 89


 5017 00a8 FFF7FEFF 		bl	VL53L0X_WrByte
 5018              	.LVL539:
 5019              		.loc 1 436 0
 5020 00ac 64B2     		sxtb	r4, r4
 5021              	.LVL540:
 5022              		.loc 1 438 0
 5023 00ae 0DF10302 		add	r2, sp, #3
 5024              		.loc 1 437 0
 5025 00b2 0443     		orrs	r4, r4, r0
 5026              	.LVL541:
 5027              		.loc 1 438 0
 5028 00b4 9121     		movs	r1, #145
 5029 00b6 2846     		mov	r0, r5
 5030 00b8 FFF7FEFF 		bl	VL53L0X_RdByte
 5031              	.LVL542:
 5032              		.loc 1 437 0
 5033 00bc 64B2     		sxtb	r4, r4
 5034              	.LVL543:
 5035              		.loc 1 439 0
 5036 00be 9DF80330 		ldrb	r3, [sp, #3]	@ zero_extendqisi2
 5037 00c2 85F83A31 		strb	r3, [r5, #314]
 5038              		.loc 1 438 0
 5039 00c6 0443     		orrs	r4, r4, r0
 5040              	.LVL544:
 5041              		.loc 1 440 0
 5042 00c8 3246     		mov	r2, r6
 5043 00ca 0021     		movs	r1, #0
 5044 00cc 2846     		mov	r0, r5
 5045 00ce FFF7FEFF 		bl	VL53L0X_WrByte
 5046              	.LVL545:
 5047              		.loc 1 438 0
 5048 00d2 64B2     		sxtb	r4, r4
 5049              	.LVL546:
 5050              		.loc 1 441 0
 5051 00d4 0022     		movs	r2, #0
 5052              		.loc 1 440 0
 5053 00d6 0443     		orrs	r4, r4, r0
 5054              	.LVL547:
 5055              		.loc 1 441 0
 5056 00d8 FF21     		movs	r1, #255
 5057 00da 2846     		mov	r0, r5
 5058 00dc FFF7FEFF 		bl	VL53L0X_WrByte
 5059              	.LVL548:
 5060              		.loc 1 440 0
 5061 00e0 64B2     		sxtb	r4, r4
 5062              	.LVL549:
 5063              		.loc 1 441 0
 5064 00e2 0443     		orrs	r4, r4, r0
 5065              	.LVL550:
 5066              		.loc 1 442 0
 5067 00e4 0022     		movs	r2, #0
 5068 00e6 8021     		movs	r1, #128
 5069 00e8 2846     		mov	r0, r5
 5070 00ea FFF7FEFF 		bl	VL53L0X_WrByte
 5071              	.LVL551:
 5072              		.loc 1 441 0
 5073 00ee 64B2     		sxtb	r4, r4
ARM GAS  /var/folders/d2/nstgp4h54kz7g1l847x_b8wc0000gn/T//ccoy4Txs.s 			page 90


 5074              	.LVL552:
 5075              		.loc 1 442 0
 5076 00f0 2043     		orrs	r0, r0, r4
 5077 00f2 40B2     		sxtb	r0, r0
 5078              	.LVL553:
 5079              		.loc 1 446 0
 5080 00f4 78B9     		cbnz	r0, .L549
 5081              	.LVL554:
 5082              		.loc 1 447 0
 5083 00f6 0146     		mov	r1, r0
 5084 00f8 3246     		mov	r2, r6
 5085 00fa 2846     		mov	r0, r5
 5086              		.loc 1 445 0
 5087 00fc 3446     		mov	r4, r6
 5088              		.loc 1 447 0
 5089 00fe FFF7FEFF 		bl	VL53L0X_SetLimitCheckEnable
 5090              	.LVL555:
 5091              	.L550:
 5092              		.loc 1 446 0
 5093 0102 40B9     		cbnz	r0, .L549
 5094              	.LVL556:
 5095              		.loc 1 447 0 discriminator 2
 5096 0104 0122     		movs	r2, #1
 5097 0106 A1B2     		uxth	r1, r4
 5098 0108 2846     		mov	r0, r5
 5099              		.loc 1 445 0 discriminator 2
 5100 010a 1444     		add	r4, r4, r2
 5101              	.LVL557:
 5102              		.loc 1 447 0 discriminator 2
 5103 010c FFF7FEFF 		bl	VL53L0X_SetLimitCheckEnable
 5104              	.LVL558:
 5105              		.loc 1 445 0 discriminator 2
 5106 0110 062C     		cmp	r4, #6
 5107 0112 F6D1     		bne	.L550
 5108              		.loc 1 454 0
 5109 0114 30B1     		cbz	r0, .L562
 5110              	.LVL559:
 5111              	.L549:
 5112              		.loc 1 512 0
 5113 0116 119A     		ldr	r2, [sp, #68]
 5114 0118 3B68     		ldr	r3, [r7]
 5115 011a 9A42     		cmp	r2, r3
 5116 011c 33D1     		bne	.L563
 5117 011e 12B0     		add	sp, sp, #72
 5118              		.cfi_remember_state
 5119              		.cfi_def_cfa_offset 24
 5120              		@ sp needed
 5121 0120 BDE8F081 		pop	{r4, r5, r6, r7, r8, pc}
 5122              	.LVL560:
 5123              	.L562:
 5124              		.cfi_restore_state
 5125              	.LBB110:
 5126              	.LBB111:
 5127              		.loc 1 1650 0
 5128 0124 6885     		strh	r0, [r5, #42]	@ movhi
 5129              	.LVL561:
 5130              	.LBE111:
ARM GAS  /var/folders/d2/nstgp4h54kz7g1l847x_b8wc0000gn/T//ccoy4Txs.s 			page 91


 5131              	.LBE110:
 5132              		.loc 1 463 0
 5133 0126 0246     		mov	r2, r0
 5134 0128 0421     		movs	r1, #4
 5135 012a 2846     		mov	r0, r5
 5136 012c FFF7FEFF 		bl	VL53L0X_SetLimitCheckEnable
 5137              	.LVL562:
 5138              		.loc 1 466 0
 5139 0130 0028     		cmp	r0, #0
 5140 0132 F0D1     		bne	.L549
 5141              		.loc 1 467 0
 5142 0134 0246     		mov	r2, r0
 5143 0136 0521     		movs	r1, #5
 5144 0138 2846     		mov	r0, r5
 5145              	.LVL563:
 5146 013a FFF7FEFF 		bl	VL53L0X_SetLimitCheckEnable
 5147              	.LVL564:
 5148              		.loc 1 471 0
 5149 013e 0028     		cmp	r0, #0
 5150 0140 E9D1     		bne	.L549
 5151              	.LVL565:
 5152              	.LBB112:
 5153              	.LBB113:
 5154              		.loc 1 1746 0
 5155 0142 4FF49013 		mov	r3, #1179648
 5156 0146 6B63     		str	r3, [r5, #52]
 5157              	.LVL566:
 5158              	.LBE113:
 5159              	.LBE112:
 5160              		.loc 1 477 0
 5161 0148 4FF48042 		mov	r2, #16384
 5162 014c 0121     		movs	r1, #1
 5163 014e 2846     		mov	r0, r5
 5164 0150 FFF7FEFF 		bl	VL53L0X_SetLimitCheckValue
 5165              	.LVL567:
 5166              		.loc 1 483 0
 5167 0154 0028     		cmp	r0, #0
 5168 0156 DED1     		bne	.L549
 5169              	.LVL568:
 5170              	.LBB114:
 5171              	.LBB115:
 5172              		.loc 1 1763 0
 5173 0158 4FF40C13 		mov	r3, #2293760
 5174 015c EB63     		str	r3, [r5, #60]
 5175              	.LVL569:
 5176              	.LBE115:
 5177              	.LBE114:
 5178              	.LBB116:
 5179              	.LBB117:
 5180              		.loc 1 1737 0
 5181 015e 95F82B30 		ldrb	r3, [r5, #43]	@ zero_extendqisi2
 5182 0162 03B1     		cbz	r3, .L561
 5183              		.loc 1 1772 0
 5184 0164 0023     		movs	r3, #0
 5185              	.L561:
 5186              	.LBE117:
 5187              	.LBE116:
ARM GAS  /var/folders/d2/nstgp4h54kz7g1l847x_b8wc0000gn/T//ccoy4Txs.s 			page 92


 5188              		.loc 1 497 0
 5189 0166 FF22     		movs	r2, #255
 5190              	.LBB119:
 5191              	.LBB118:
 5192              		.loc 1 1772 0
 5193 0168 2B64     		str	r3, [r5, #64]
 5194              	.LVL570:
 5195              	.LBE118:
 5196              	.LBE119:
 5197              		.loc 1 497 0
 5198 016a 85F83021 		strb	r2, [r5, #304]
 5199              		.loc 1 498 0
 5200 016e 0121     		movs	r1, #1
 5201 0170 2846     		mov	r0, r5
 5202 0172 FFF7FEFF 		bl	VL53L0X_WrByte
 5203              	.LVL571:
 5204              		.loc 1 503 0
 5205 0176 0123     		movs	r3, #1
 5206 0178 85F83231 		strb	r3, [r5, #306]
 5207              		.loc 1 506 0
 5208 017c 0028     		cmp	r0, #0
 5209 017e CAD1     		bne	.L549
 5210              		.loc 1 507 0
 5211 0180 85F81501 		strb	r0, [r5, #277]
 5212 0184 C7E7     		b	.L549
 5213              	.LVL572:
 5214              	.L563:
 5215              		.loc 1 512 0
 5216 0186 FFF7FEFF 		bl	__stack_chk_fail
 5217              	.LVL573:
 5218              	.L565:
 5219 018a 00BF     		.align	2
 5220              	.L564:
 5221 018c 00000000 		.word	__stack_chk_guard
 5222 0190 856B0100 		.word	93061
 5223 0194 A4700900 		.word	618660
 5224 0198 64008403 		.word	58982500
 5225              		.cfi_endproc
 5226              	.LFE23:
 5227              		.size	VL53L0X_DataInit, .-VL53L0X_DataInit
 5228              		.section	.text.VL53L0X_SetDmaxCalParameters,"ax",%progbits
 5229              		.align	1
 5230              		.p2align 4,,15
 5231              		.global	VL53L0X_SetDmaxCalParameters
 5232              		.syntax unified
 5233              		.thumb
 5234              		.thumb_func
 5235              		.fpu fpv4-sp-d16
 5236              		.type	VL53L0X_SetDmaxCalParameters, %function
 5237              	VL53L0X_SetDmaxCalParameters:
 5238              	.LFB67:
 5239              		.loc 1 2027 0
 5240              		.cfi_startproc
 5241              		@ args = 0, pretend = 0, frame = 8
 5242              		@ frame_needed = 0, uses_anonymous_args = 0
 5243              	.LVL574:
 5244 0000 30B5     		push	{r4, r5, lr}
ARM GAS  /var/folders/d2/nstgp4h54kz7g1l847x_b8wc0000gn/T//ccoy4Txs.s 			page 93


 5245              		.cfi_def_cfa_offset 12
 5246              		.cfi_offset 4, -12
 5247              		.cfi_offset 5, -8
 5248              		.cfi_offset 14, -4
 5249 0002 114D     		ldr	r5, .L576
 5250 0004 83B0     		sub	sp, sp, #12
 5251              		.cfi_def_cfa_offset 24
 5252              		.loc 1 2027 0
 5253 0006 2B68     		ldr	r3, [r5]
 5254 0008 0193     		str	r3, [sp, #4]
 5255              	.LVL575:
 5256 000a 0446     		mov	r4, r0
 5257              		.loc 1 2035 0
 5258 000c 29B1     		cbz	r1, .L567
 5259              		.loc 1 2035 0 is_stmt 0 discriminator 1
 5260 000e 22B1     		cbz	r2, .L567
 5261              		.loc 1 2050 0 is_stmt 1
 5262 0010 A0F85411 		strh	r1, [r0, #340]	@ movhi
 5263              		.loc 1 2051 0
 5264 0014 C0F85821 		str	r2, [r0, #344]
 5265 0018 0BE0     		b	.L569
 5266              	.L567:
 5267              		.loc 1 2040 0
 5268 001a 0421     		movs	r1, #4
 5269              	.LVL576:
 5270 001c 2046     		mov	r0, r4
 5271              	.LVL577:
 5272 001e FFF7FEFF 		bl	VL53L0X_get_info_from_device
 5273              	.LVL578:
 5274              		.loc 1 2042 0
 5275 0022 D4F82031 		ldr	r3, [r4, #288]
 5276              	.LVL579:
 5277              		.loc 1 2046 0
 5278 0026 C4F85831 		str	r3, [r4, #344]
 5279              		.loc 1 2045 0
 5280 002a 4FF4C873 		mov	r3, #400
 5281              	.LVL580:
 5282 002e A4F85431 		strh	r3, [r4, #340]	@ movhi
 5283              	.LVL581:
 5284              	.L569:
 5285              		.loc 1 2057 0
 5286 0032 019A     		ldr	r2, [sp, #4]
 5287 0034 2B68     		ldr	r3, [r5]
 5288 0036 9A42     		cmp	r2, r3
 5289 0038 4FF00000 		mov	r0, #0
 5290 003c 01D1     		bne	.L575
 5291 003e 03B0     		add	sp, sp, #12
 5292              		.cfi_remember_state
 5293              		.cfi_def_cfa_offset 12
 5294              		@ sp needed
 5295 0040 30BD     		pop	{r4, r5, pc}
 5296              	.LVL582:
 5297              	.L575:
 5298              		.cfi_restore_state
 5299 0042 FFF7FEFF 		bl	__stack_chk_fail
 5300              	.LVL583:
 5301              	.L577:
ARM GAS  /var/folders/d2/nstgp4h54kz7g1l847x_b8wc0000gn/T//ccoy4Txs.s 			page 94


 5302 0046 00BF     		.align	2
 5303              	.L576:
 5304 0048 00000000 		.word	__stack_chk_guard
 5305              		.cfi_endproc
 5306              	.LFE67:
 5307              		.size	VL53L0X_SetDmaxCalParameters, .-VL53L0X_SetDmaxCalParameters
 5308              		.section	.text.VL53L0X_GetDmaxCalParameters,"ax",%progbits
 5309              		.align	1
 5310              		.p2align 4,,15
 5311              		.global	VL53L0X_GetDmaxCalParameters
 5312              		.syntax unified
 5313              		.thumb
 5314              		.thumb_func
 5315              		.fpu fpv4-sp-d16
 5316              		.type	VL53L0X_GetDmaxCalParameters, %function
 5317              	VL53L0X_GetDmaxCalParameters:
 5318              	.LFB68:
 5319              		.loc 1 2061 0
 5320              		.cfi_startproc
 5321              		@ args = 0, pretend = 0, frame = 8
 5322              		@ frame_needed = 0, uses_anonymous_args = 0
 5323              	.LVL584:
 5324 0000 30B5     		push	{r4, r5, lr}
 5325              		.cfi_def_cfa_offset 12
 5326              		.cfi_offset 4, -12
 5327              		.cfi_offset 5, -8
 5328              		.cfi_offset 14, -4
 5329 0002 094B     		ldr	r3, .L582
 5330              		.loc 1 2066 0
 5331 0004 B0F85451 		ldrh	r5, [r0, #340]
 5332              		.loc 1 2061 0
 5333 0008 1C68     		ldr	r4, [r3]
 5334              		.loc 1 2066 0
 5335 000a 0D80     		strh	r5, [r1]	@ movhi
 5336              		.loc 1 2061 0
 5337 000c 83B0     		sub	sp, sp, #12
 5338              		.cfi_def_cfa_offset 24
 5339              		.loc 1 2067 0
 5340 000e D0F85811 		ldr	r1, [r0, #344]
 5341              	.LVL585:
 5342 0012 1160     		str	r1, [r2]
 5343              		.loc 1 2061 0
 5344 0014 0194     		str	r4, [sp, #4]
 5345              	.LVL586:
 5346              		.loc 1 2072 0
 5347 0016 019A     		ldr	r2, [sp, #4]
 5348              	.LVL587:
 5349 0018 1B68     		ldr	r3, [r3]
 5350 001a 9A42     		cmp	r2, r3
 5351 001c 02D1     		bne	.L581
 5352 001e 0020     		movs	r0, #0
 5353              	.LVL588:
 5354 0020 03B0     		add	sp, sp, #12
 5355              		.cfi_remember_state
 5356              		.cfi_def_cfa_offset 12
 5357              		@ sp needed
 5358 0022 30BD     		pop	{r4, r5, pc}
ARM GAS  /var/folders/d2/nstgp4h54kz7g1l847x_b8wc0000gn/T//ccoy4Txs.s 			page 95


 5359              	.LVL589:
 5360              	.L581:
 5361              		.cfi_restore_state
 5362 0024 FFF7FEFF 		bl	__stack_chk_fail
 5363              	.LVL590:
 5364              	.L583:
 5365              		.align	2
 5366              	.L582:
 5367 0028 00000000 		.word	__stack_chk_guard
 5368              		.cfi_endproc
 5369              	.LFE68:
 5370              		.size	VL53L0X_GetDmaxCalParameters, .-VL53L0X_GetDmaxCalParameters
 5371              		.section	.text.VL53L0X_PerformSingleHistogramMeasurement,"ax",%progbits
 5372              		.align	1
 5373              		.p2align 4,,15
 5374              		.global	VL53L0X_PerformSingleHistogramMeasurement
 5375              		.syntax unified
 5376              		.thumb
 5377              		.thumb_func
 5378              		.fpu fpv4-sp-d16
 5379              		.type	VL53L0X_PerformSingleHistogramMeasurement, %function
 5380              	VL53L0X_PerformSingleHistogramMeasurement:
 5381              	.LFB111:
 5382              		.cfi_startproc
 5383              		@ args = 0, pretend = 0, frame = 8
 5384              		@ frame_needed = 0, uses_anonymous_args = 0
 5385 0000 00B5     		push	{lr}
 5386              		.cfi_def_cfa_offset 4
 5387              		.cfi_offset 14, -4
 5388 0002 074B     		ldr	r3, .L588
 5389 0004 83B0     		sub	sp, sp, #12
 5390              		.cfi_def_cfa_offset 16
 5391 0006 1A68     		ldr	r2, [r3]
 5392 0008 0192     		str	r2, [sp, #4]
 5393 000a 019A     		ldr	r2, [sp, #4]
 5394 000c 1B68     		ldr	r3, [r3]
 5395 000e 9A42     		cmp	r2, r3
 5396 0010 04D1     		bne	.L587
 5397 0012 6FF06200 		mvn	r0, #98
 5398 0016 03B0     		add	sp, sp, #12
 5399              		.cfi_remember_state
 5400              		.cfi_def_cfa_offset 4
 5401              		@ sp needed
 5402 0018 5DF804FB 		ldr	pc, [sp], #4
 5403              	.L587:
 5404              		.cfi_restore_state
 5405 001c FFF7FEFF 		bl	__stack_chk_fail
 5406              	.L589:
 5407              		.align	2
 5408              	.L588:
 5409 0020 00000000 		.word	__stack_chk_guard
 5410              		.cfi_endproc
 5411              	.LFE111:
 5412              		.size	VL53L0X_PerformSingleHistogramMeasurement, .-VL53L0X_PerformSingleHistogramMeasurement
 5413              		.section	.text.VL53L0X_PerformRefCalibration,"ax",%progbits
 5414              		.align	1
 5415              		.p2align 4,,15
ARM GAS  /var/folders/d2/nstgp4h54kz7g1l847x_b8wc0000gn/T//ccoy4Txs.s 			page 96


 5416              		.global	VL53L0X_PerformRefCalibration
 5417              		.syntax unified
 5418              		.thumb
 5419              		.thumb_func
 5420              		.fpu fpv4-sp-d16
 5421              		.type	VL53L0X_PerformRefCalibration, %function
 5422              	VL53L0X_PerformRefCalibration:
 5423              	.LFB71:
 5424              		.loc 1 2124 0
 5425              		.cfi_startproc
 5426              		@ args = 0, pretend = 0, frame = 8
 5427              		@ frame_needed = 0, uses_anonymous_args = 0
 5428              	.LVL591:
 5429              		.loc 1 2124 0
 5430 0000 10B5     		push	{r4, lr}
 5431              		.cfi_def_cfa_offset 8
 5432              		.cfi_offset 4, -8
 5433              		.cfi_offset 14, -4
 5434 0002 084B     		ldr	r3, .L595
 5435 0004 82B0     		sub	sp, sp, #8
 5436              		.cfi_def_cfa_offset 16
 5437              		.loc 1 2124 0
 5438 0006 1C68     		ldr	r4, [r3]
 5439 0008 0194     		str	r4, [sp, #4]
 5440              	.LVL592:
 5441              		.loc 1 2128 0
 5442 000a 019C     		ldr	r4, [sp, #4]
 5443 000c 1B68     		ldr	r3, [r3]
 5444 000e 9C42     		cmp	r4, r3
 5445 0010 05D1     		bne	.L594
 5446 0012 0123     		movs	r3, #1
 5447              		.loc 1 2133 0
 5448 0014 02B0     		add	sp, sp, #8
 5449              		.cfi_remember_state
 5450              		.cfi_def_cfa_offset 8
 5451              		@ sp needed
 5452 0016 BDE81040 		pop	{r4, lr}
 5453              		.cfi_restore 14
 5454              		.cfi_restore 4
 5455              		.cfi_def_cfa_offset 0
 5456              		.loc 1 2128 0
 5457 001a FFF7FEBF 		b	VL53L0X_perform_ref_calibration
 5458              	.LVL593:
 5459              	.L594:
 5460              		.cfi_restore_state
 5461 001e FFF7FEFF 		bl	__stack_chk_fail
 5462              	.LVL594:
 5463              	.L596:
 5464 0022 00BF     		.align	2
 5465              	.L595:
 5466 0024 00000000 		.word	__stack_chk_guard
 5467              		.cfi_endproc
 5468              	.LFE71:
 5469              		.size	VL53L0X_PerformRefCalibration, .-VL53L0X_PerformRefCalibration
 5470              		.section	.text.VL53L0X_PerformXTalkMeasurement,"ax",%progbits
 5471              		.align	1
 5472              		.p2align 4,,15
ARM GAS  /var/folders/d2/nstgp4h54kz7g1l847x_b8wc0000gn/T//ccoy4Txs.s 			page 97


 5473              		.global	VL53L0X_PerformXTalkMeasurement
 5474              		.syntax unified
 5475              		.thumb
 5476              		.thumb_func
 5477              		.fpu fpv4-sp-d16
 5478              		.type	VL53L0X_PerformXTalkMeasurement, %function
 5479              	VL53L0X_PerformXTalkMeasurement:
 5480              	.LFB72:
 5481              		.loc 1 2138 0
 5482              		.cfi_startproc
 5483              		@ args = 0, pretend = 0, frame = 8
 5484              		@ frame_needed = 0, uses_anonymous_args = 0
 5485              	.LVL595:
 5486 0000 00B5     		push	{lr}
 5487              		.cfi_def_cfa_offset 4
 5488              		.cfi_offset 14, -4
 5489 0002 074B     		ldr	r3, .L601
 5490              	.LVL596:
 5491 0004 83B0     		sub	sp, sp, #12
 5492              		.cfi_def_cfa_offset 16
 5493              		.loc 1 2138 0
 5494 0006 1A68     		ldr	r2, [r3]
 5495              	.LVL597:
 5496 0008 0192     		str	r2, [sp, #4]
 5497              	.LVL598:
 5498              		.loc 1 2150 0
 5499 000a 019A     		ldr	r2, [sp, #4]
 5500 000c 1B68     		ldr	r3, [r3]
 5501 000e 9A42     		cmp	r2, r3
 5502 0010 04D1     		bne	.L600
 5503 0012 6FF06200 		mvn	r0, #98
 5504              	.LVL599:
 5505 0016 03B0     		add	sp, sp, #12
 5506              		.cfi_remember_state
 5507              		.cfi_def_cfa_offset 4
 5508              		@ sp needed
 5509 0018 5DF804FB 		ldr	pc, [sp], #4
 5510              	.LVL600:
 5511              	.L600:
 5512              		.cfi_restore_state
 5513 001c FFF7FEFF 		bl	__stack_chk_fail
 5514              	.LVL601:
 5515              	.L602:
 5516              		.align	2
 5517              	.L601:
 5518 0020 00000000 		.word	__stack_chk_guard
 5519              		.cfi_endproc
 5520              	.LFE72:
 5521              		.size	VL53L0X_PerformXTalkMeasurement, .-VL53L0X_PerformXTalkMeasurement
 5522              		.section	.text.VL53L0X_PerformXTalkCalibration,"ax",%progbits
 5523              		.align	1
 5524              		.p2align 4,,15
 5525              		.global	VL53L0X_PerformXTalkCalibration
 5526              		.syntax unified
 5527              		.thumb
 5528              		.thumb_func
 5529              		.fpu fpv4-sp-d16
ARM GAS  /var/folders/d2/nstgp4h54kz7g1l847x_b8wc0000gn/T//ccoy4Txs.s 			page 98


 5530              		.type	VL53L0X_PerformXTalkCalibration, %function
 5531              	VL53L0X_PerformXTalkCalibration:
 5532              	.LFB73:
 5533              		.loc 1 2155 0
 5534              		.cfi_startproc
 5535              		@ args = 0, pretend = 0, frame = 8
 5536              		@ frame_needed = 0, uses_anonymous_args = 0
 5537              	.LVL602:
 5538 0000 10B5     		push	{r4, lr}
 5539              		.cfi_def_cfa_offset 8
 5540              		.cfi_offset 4, -8
 5541              		.cfi_offset 14, -4
 5542 0002 074B     		ldr	r3, .L608
 5543 0004 82B0     		sub	sp, sp, #8
 5544              		.cfi_def_cfa_offset 16
 5545              		.loc 1 2155 0
 5546 0006 1C68     		ldr	r4, [r3]
 5547 0008 0194     		str	r4, [sp, #4]
 5548              	.LVL603:
 5549              		.loc 1 2159 0
 5550 000a 019C     		ldr	r4, [sp, #4]
 5551 000c 1B68     		ldr	r3, [r3]
 5552 000e 9C42     		cmp	r4, r3
 5553 0010 04D1     		bne	.L607
 5554              		.loc 1 2164 0
 5555 0012 02B0     		add	sp, sp, #8
 5556              		.cfi_remember_state
 5557              		.cfi_def_cfa_offset 8
 5558              		@ sp needed
 5559 0014 BDE81040 		pop	{r4, lr}
 5560              		.cfi_restore 14
 5561              		.cfi_restore 4
 5562              		.cfi_def_cfa_offset 0
 5563              		.loc 1 2159 0
 5564 0018 FFF7FEBF 		b	VL53L0X_perform_xtalk_calibration
 5565              	.LVL604:
 5566              	.L607:
 5567              		.cfi_restore_state
 5568 001c FFF7FEFF 		bl	__stack_chk_fail
 5569              	.LVL605:
 5570              	.L609:
 5571              		.align	2
 5572              	.L608:
 5573 0020 00000000 		.word	__stack_chk_guard
 5574              		.cfi_endproc
 5575              	.LFE73:
 5576              		.size	VL53L0X_PerformXTalkCalibration, .-VL53L0X_PerformXTalkCalibration
 5577              		.section	.text.VL53L0X_PerformOffsetCalibration,"ax",%progbits
 5578              		.align	1
 5579              		.p2align 4,,15
 5580              		.global	VL53L0X_PerformOffsetCalibration
 5581              		.syntax unified
 5582              		.thumb
 5583              		.thumb_func
 5584              		.fpu fpv4-sp-d16
 5585              		.type	VL53L0X_PerformOffsetCalibration, %function
 5586              	VL53L0X_PerformOffsetCalibration:
ARM GAS  /var/folders/d2/nstgp4h54kz7g1l847x_b8wc0000gn/T//ccoy4Txs.s 			page 99


 5587              	.LFB74:
 5588              		.loc 1 2168 0
 5589              		.cfi_startproc
 5590              		@ args = 0, pretend = 0, frame = 8
 5591              		@ frame_needed = 0, uses_anonymous_args = 0
 5592              	.LVL606:
 5593 0000 10B5     		push	{r4, lr}
 5594              		.cfi_def_cfa_offset 8
 5595              		.cfi_offset 4, -8
 5596              		.cfi_offset 14, -4
 5597 0002 074B     		ldr	r3, .L615
 5598 0004 82B0     		sub	sp, sp, #8
 5599              		.cfi_def_cfa_offset 16
 5600              		.loc 1 2168 0
 5601 0006 1C68     		ldr	r4, [r3]
 5602 0008 0194     		str	r4, [sp, #4]
 5603              	.LVL607:
 5604              		.loc 1 2172 0
 5605 000a 019C     		ldr	r4, [sp, #4]
 5606 000c 1B68     		ldr	r3, [r3]
 5607 000e 9C42     		cmp	r4, r3
 5608 0010 04D1     		bne	.L614
 5609              		.loc 1 2177 0
 5610 0012 02B0     		add	sp, sp, #8
 5611              		.cfi_remember_state
 5612              		.cfi_def_cfa_offset 8
 5613              		@ sp needed
 5614 0014 BDE81040 		pop	{r4, lr}
 5615              		.cfi_restore 14
 5616              		.cfi_restore 4
 5617              		.cfi_def_cfa_offset 0
 5618              		.loc 1 2172 0
 5619 0018 FFF7FEBF 		b	VL53L0X_perform_offset_calibration
 5620              	.LVL608:
 5621              	.L614:
 5622              		.cfi_restore_state
 5623 001c FFF7FEFF 		bl	__stack_chk_fail
 5624              	.LVL609:
 5625              	.L616:
 5626              		.align	2
 5627              	.L615:
 5628 0020 00000000 		.word	__stack_chk_guard
 5629              		.cfi_endproc
 5630              	.LFE74:
 5631              		.size	VL53L0X_PerformOffsetCalibration, .-VL53L0X_PerformOffsetCalibration
 5632              		.section	.text.VL53L0X_GetMeasurementDataReady,"ax",%progbits
 5633              		.align	1
 5634              		.p2align 4,,15
 5635              		.global	VL53L0X_GetMeasurementDataReady
 5636              		.syntax unified
 5637              		.thumb
 5638              		.thumb_func
 5639              		.fpu fpv4-sp-d16
 5640              		.type	VL53L0X_GetMeasurementDataReady, %function
 5641              	VL53L0X_GetMeasurementDataReady:
 5642              	.LFB78:
 5643              		.loc 1 2337 0
ARM GAS  /var/folders/d2/nstgp4h54kz7g1l847x_b8wc0000gn/T//ccoy4Txs.s 			page 100


 5644              		.cfi_startproc
 5645              		@ args = 0, pretend = 0, frame = 8
 5646              		@ frame_needed = 0, uses_anonymous_args = 0
 5647              	.LVL610:
 5648 0000 30B5     		push	{r4, r5, lr}
 5649              		.cfi_def_cfa_offset 12
 5650              		.cfi_offset 4, -12
 5651              		.cfi_offset 5, -8
 5652              		.cfi_offset 14, -4
 5653 0002 184C     		ldr	r4, .L630
 5654              		.loc 1 2347 0
 5655 0004 90F8DA30 		ldrb	r3, [r0, #218]	@ zero_extendqisi2
 5656              		.loc 1 2337 0
 5657 0008 2268     		ldr	r2, [r4]
 5658 000a 83B0     		sub	sp, sp, #12
 5659              		.cfi_def_cfa_offset 24
 5660              		.loc 1 2347 0
 5661 000c 042B     		cmp	r3, #4
 5662              		.loc 1 2337 0
 5663 000e 0192     		str	r2, [sp, #4]
 5664              	.LVL611:
 5665 0010 0D46     		mov	r5, r1
 5666              	.LBB120:
 5667              	.LBB121:
 5668              		.loc 1 2935 0
 5669 0012 0DF10302 		add	r2, sp, #3
 5670              	.LBE121:
 5671              	.LBE120:
 5672              		.loc 1 2347 0
 5673 0016 11D0     		beq	.L628
 5674              		.loc 1 2356 0
 5675 0018 1421     		movs	r1, #20
 5676              	.LVL612:
 5677 001a FFF7FEFF 		bl	VL53L0X_RdByte
 5678              	.LVL613:
 5679              		.loc 1 2358 0
 5680 001e 20B9     		cbnz	r0, .L621
 5681              		.loc 1 2359 0
 5682 0020 9DF80330 		ldrb	r3, [sp, #3]	@ zero_extendqisi2
 5683 0024 DB07     		lsls	r3, r3, #31
 5684 0026 06D4     		bmi	.L627
 5685              		.loc 1 2362 0
 5686 0028 2870     		strb	r0, [r5]
 5687              	.LVL614:
 5688              	.L621:
 5689              		.loc 1 2368 0
 5690 002a 019A     		ldr	r2, [sp, #4]
 5691 002c 2368     		ldr	r3, [r4]
 5692 002e 9A42     		cmp	r2, r3
 5693 0030 15D1     		bne	.L629
 5694 0032 03B0     		add	sp, sp, #12
 5695              		.cfi_remember_state
 5696              		.cfi_def_cfa_offset 12
 5697              		@ sp needed
 5698 0034 30BD     		pop	{r4, r5, pc}
 5699              	.LVL615:
 5700              	.L627:
ARM GAS  /var/folders/d2/nstgp4h54kz7g1l847x_b8wc0000gn/T//ccoy4Txs.s 			page 101


 5701              		.cfi_restore_state
 5702              		.loc 1 2360 0
 5703 0036 0123     		movs	r3, #1
 5704 0038 2B70     		strb	r3, [r5]
 5705 003a F6E7     		b	.L621
 5706              	.LVL616:
 5707              	.L628:
 5708              	.LBB123:
 5709              	.LBB122:
 5710              		.loc 1 2935 0
 5711 003c 1321     		movs	r1, #19
 5712              	.LVL617:
 5713 003e FFF7FEFF 		bl	VL53L0X_RdByte
 5714              	.LVL618:
 5715              		.loc 1 2936 0
 5716 0042 9DF80330 		ldrb	r3, [sp, #3]	@ zero_extendqisi2
 5717              		.loc 1 2938 0
 5718 0046 13F0180F 		tst	r3, #24
 5719 004a 03F00703 		and	r3, r3, #7
 5720              	.LVL619:
 5721              		.loc 1 2939 0
 5722 004e 18BF     		it	ne
 5723 0050 6FF00500 		mvnne	r0, #5
 5724              	.LVL620:
 5725              	.LBE122:
 5726              	.LBE123:
 5727              		.loc 1 2350 0
 5728 0054 042B     		cmp	r3, #4
 5729 0056 EED0     		beq	.L627
 5730              		.loc 1 2354 0
 5731 0058 0023     		movs	r3, #0
 5732              	.LVL621:
 5733 005a 2B70     		strb	r3, [r5]
 5734 005c E5E7     		b	.L621
 5735              	.LVL622:
 5736              	.L629:
 5737              		.loc 1 2368 0
 5738 005e FFF7FEFF 		bl	__stack_chk_fail
 5739              	.LVL623:
 5740              	.L631:
 5741 0062 00BF     		.align	2
 5742              	.L630:
 5743 0064 00000000 		.word	__stack_chk_guard
 5744              		.cfi_endproc
 5745              	.LFE78:
 5746              		.size	VL53L0X_GetMeasurementDataReady, .-VL53L0X_GetMeasurementDataReady
 5747              		.section	.text.VL53L0X_WaitDeviceReadyForNewMeasurement,"ax",%progbits
 5748              		.align	1
 5749              		.p2align 4,,15
 5750              		.global	VL53L0X_WaitDeviceReadyForNewMeasurement
 5751              		.syntax unified
 5752              		.thumb
 5753              		.thumb_func
 5754              		.fpu fpv4-sp-d16
 5755              		.type	VL53L0X_WaitDeviceReadyForNewMeasurement, %function
 5756              	VL53L0X_WaitDeviceReadyForNewMeasurement:
 5757              	.LFB79:
ARM GAS  /var/folders/d2/nstgp4h54kz7g1l847x_b8wc0000gn/T//ccoy4Txs.s 			page 102


 5758              		.loc 1 2372 0
 5759              		.cfi_startproc
 5760              		@ args = 0, pretend = 0, frame = 8
 5761              		@ frame_needed = 0, uses_anonymous_args = 0
 5762              	.LVL624:
 5763 0000 00B5     		push	{lr}
 5764              		.cfi_def_cfa_offset 4
 5765              		.cfi_offset 14, -4
 5766 0002 074B     		ldr	r3, .L636
 5767 0004 83B0     		sub	sp, sp, #12
 5768              		.cfi_def_cfa_offset 16
 5769              		.loc 1 2372 0
 5770 0006 1A68     		ldr	r2, [r3]
 5771 0008 0192     		str	r2, [sp, #4]
 5772              	.LVL625:
 5773              		.loc 1 2382 0
 5774 000a 019A     		ldr	r2, [sp, #4]
 5775 000c 1B68     		ldr	r3, [r3]
 5776 000e 9A42     		cmp	r2, r3
 5777 0010 04D1     		bne	.L635
 5778 0012 6FF06200 		mvn	r0, #98
 5779              	.LVL626:
 5780 0016 03B0     		add	sp, sp, #12
 5781              		.cfi_remember_state
 5782              		.cfi_def_cfa_offset 4
 5783              		@ sp needed
 5784 0018 5DF804FB 		ldr	pc, [sp], #4
 5785              	.LVL627:
 5786              	.L635:
 5787              		.cfi_restore_state
 5788 001c FFF7FEFF 		bl	__stack_chk_fail
 5789              	.LVL628:
 5790              	.L637:
 5791              		.align	2
 5792              	.L636:
 5793 0020 00000000 		.word	__stack_chk_guard
 5794              		.cfi_endproc
 5795              	.LFE79:
 5796              		.size	VL53L0X_WaitDeviceReadyForNewMeasurement, .-VL53L0X_WaitDeviceReadyForNewMeasurement
 5797              		.section	.text.VL53L0X_GetRangingMeasurementData,"ax",%progbits
 5798              		.align	1
 5799              		.p2align 4,,15
 5800              		.global	VL53L0X_GetRangingMeasurementData
 5801              		.syntax unified
 5802              		.thumb
 5803              		.thumb_func
 5804              		.fpu fpv4-sp-d16
 5805              		.type	VL53L0X_GetRangingMeasurementData, %function
 5806              	VL53L0X_GetRangingMeasurementData:
 5807              	.LFB80:
 5808              		.loc 1 2387 0
 5809              		.cfi_startproc
 5810              		@ args = 0, pretend = 0, frame = 48
 5811              		@ frame_needed = 0, uses_anonymous_args = 0
 5812              	.LVL629:
 5813 0000 2DE9F047 		push	{r4, r5, r6, r7, r8, r9, r10, lr}
 5814              		.cfi_def_cfa_offset 32
ARM GAS  /var/folders/d2/nstgp4h54kz7g1l847x_b8wc0000gn/T//ccoy4Txs.s 			page 103


 5815              		.cfi_offset 4, -32
 5816              		.cfi_offset 5, -28
 5817              		.cfi_offset 6, -24
 5818              		.cfi_offset 7, -20
 5819              		.cfi_offset 8, -16
 5820              		.cfi_offset 9, -12
 5821              		.cfi_offset 10, -8
 5822              		.cfi_offset 14, -4
 5823 0004 564F     		ldr	r7, .L659
 5824 0006 8EB0     		sub	sp, sp, #56
 5825              		.cfi_def_cfa_offset 88
 5826              		.loc 1 2387 0
 5827 0008 3B68     		ldr	r3, [r7]
 5828 000a 0D93     		str	r3, [sp, #52]
 5829              	.LVL630:
 5830 000c 0C46     		mov	r4, r1
 5831              		.loc 1 2411 0
 5832 000e 0C23     		movs	r3, #12
 5833 0010 0AAA     		add	r2, sp, #40
 5834 0012 1421     		movs	r1, #20
 5835              	.LVL631:
 5836              		.loc 1 2387 0
 5837 0014 0546     		mov	r5, r0
 5838              		.loc 1 2411 0
 5839 0016 FFF7FEFF 		bl	VL53L0X_ReadMulti
 5840              	.LVL632:
 5841 001a 8646     		mov	lr, r0
 5842              	.LVL633:
 5843              		.loc 1 2413 0
 5844 001c 0028     		cmp	r0, #0
 5845 001e 40F08B80 		bne	.L639
 5846              		.loc 1 2425 0
 5847 0022 9DF82EE0 		ldrb	lr, [sp, #46]	@ zero_extendqisi2
 5848              		.loc 1 2430 0
 5849 0026 9DF830C0 		ldrb	ip, [sp, #48]	@ zero_extendqisi2
 5850              		.loc 1 2425 0
 5851 002a 9DF82F20 		ldrb	r2, [sp, #47]	@ zero_extendqisi2
 5852              		.loc 1 2430 0
 5853 002e 9DF83110 		ldrb	r1, [sp, #49]	@ zero_extendqisi2
 5854              		.loc 1 2434 0
 5855 0032 9DF82A60 		ldrb	r6, [sp, #42]	@ zero_extendqisi2
 5856 0036 9DF82B30 		ldrb	r3, [sp, #43]	@ zero_extendqisi2
 5857              		.loc 1 2415 0
 5858 003a A075     		strb	r0, [r4, #22]
 5859              		.loc 1 2425 0
 5860 003c 02EB0E22 		add	r2, r2, lr, lsl #8
 5861              		.loc 1 2430 0
 5862 0040 01EB0C21 		add	r1, r1, ip, lsl #8
 5863              		.loc 1 2425 0
 5864 0044 92B2     		uxth	r2, r2
 5865              		.loc 1 2432 0
 5866 0046 89B2     		uxth	r1, r1
 5867 0048 4902     		lsls	r1, r1, #9
 5868              		.loc 1 2425 0
 5869 004a 5202     		lsls	r2, r2, #9
 5870              		.loc 1 2431 0
 5871 004c C4E90321 		strd	r2, r1, [r4, #12]
ARM GAS  /var/folders/d2/nstgp4h54kz7g1l847x_b8wc0000gn/T//ccoy4Txs.s 			page 104


 5872              		.loc 1 2434 0
 5873 0050 03EB0623 		add	r3, r3, r6, lsl #8
 5874              		.loc 1 2423 0
 5875 0054 C4E90000 		strd	r0, r0, [r4]
 5876              		.loc 1 2434 0
 5877 0058 9BB2     		uxth	r3, r3
 5878              		.loc 1 2437 0
 5879 005a A382     		strh	r3, [r4, #20]	@ movhi
 5880              		.loc 1 2418 0
 5881 005c 9DF83280 		ldrb	r8, [sp, #50]	@ zero_extendqisi2
 5882 0060 9DF83360 		ldrb	r6, [sp, #51]	@ zero_extendqisi2
 5883              		.loc 1 2443 0
 5884 0064 B5F852E1 		ldrh	lr, [r5, #338]
 5885              		.loc 1 2447 0
 5886 0068 95F831C1 		ldrb	ip, [r5, #305]	@ zero_extendqisi2
 5887              		.loc 1 2440 0
 5888 006c 9DF82810 		ldrb	r1, [sp, #40]	@ zero_extendqisi2
 5889              		.loc 1 2418 0
 5890 0070 06EB0826 		add	r6, r6, r8, lsl #8
 5891              		.loc 1 2450 0
 5892 0074 BEF57A7F 		cmp	lr, #1000
 5893              		.loc 1 2418 0
 5894 0078 B6B2     		uxth	r6, r6
 5895              	.LVL634:
 5896              		.loc 1 2450 0
 5897 007a 1FD0     		beq	.L640
 5898              		.loc 1 2453 0
 5899 007c 06FB0EF6 		mul	r6, r6, lr
 5900              	.LVL635:
 5901 0080 DFF8E090 		ldr	r9, .L659+4
 5902              		.loc 1 2462 0
 5903 0084 95F81C80 		ldrb	r8, [r5, #28]	@ zero_extendqisi2
 5904              	.LVL636:
 5905              		.loc 1 2456 0
 5906 0088 D5F820E0 		ldr	lr, [r5, #32]
 5907              	.LVL637:
 5908              		.loc 1 2453 0
 5909 008c 06F5FA76 		add	r6, r6, #500
 5910 0090 A9FB0696 		umull	r9, r6, r9, r6
 5911 0094 B609     		lsrs	r6, r6, #6
 5912              	.LVL638:
 5913              		.loc 1 2462 0
 5914 0096 B8F1000F 		cmp	r8, #0
 5915 009a 0ED0     		beq	.L655
 5916              		.loc 1 2466 0
 5917 009c 1FFA8EFE 		uxth	lr, lr
 5918 00a0 03FB0EFE 		mul	lr, r3, lr
 5919              	.LVL639:
 5920 00a4 4FEA2E2E 		asr	lr, lr, #8
 5921              		.loc 1 2464 0
 5922 00a8 7245     		cmp	r2, lr
 5923 00aa 4DD0     		beq	.L657
 5924              		.loc 1 2475 0
 5925 00ac B6B2     		uxth	r6, r6
 5926 00ae 02FB06F6 		mul	r6, r2, r6
 5927              	.LVL640:
 5928              		.loc 1 2477 0
ARM GAS  /var/folders/d2/nstgp4h54kz7g1l847x_b8wc0000gn/T//ccoy4Txs.s 			page 105


 5929 00b2 A2EB0E0E 		sub	lr, r2, lr
 5930              		.loc 1 2476 0
 5931 00b6 B6FBFEF6 		udiv	r6, r6, lr
 5932              	.L655:
 5933              		.loc 1 2474 0
 5934 00ba B6B2     		uxth	r6, r6
 5935              	.LVL641:
 5936              	.L640:
 5937              		.loc 1 2487 0
 5938 00bc BCF1000F 		cmp	ip, #0
 5939 00c0 47D0     		beq	.L644
 5940 00c2 B001     		lsls	r0, r6, #6
 5941              	.LVL642:
 5942 00c4 C0B2     		uxtb	r0, r0
 5943 00c6 B608     		lsrs	r6, r6, #2
 5944              	.LVL643:
 5945              	.L656:
 5946              		.loc 1 2494 0
 5947 00c8 E075     		strb	r0, [r4, #23]
 5948              	.LVL644:
 5949              		.loc 1 2503 0
 5950 00ca 0DF10B00 		add	r0, sp, #11
 5951              		.loc 1 2493 0
 5952 00ce 2681     		strh	r6, [r4, #8]	@ movhi
 5953              		.loc 1 2503 0
 5954 00d0 CDE90040 		strd	r4, r0, [sp]
 5955              	.LVL645:
 5956 00d4 2846     		mov	r0, r5
 5957 00d6 FFF7FEFF 		bl	VL53L0X_get_pal_range_status
 5958              	.LVL646:
 5959              		.loc 1 2507 0
 5960 00da 8646     		mov	lr, r0
 5961 00dc 60BB     		cbnz	r0, .L639
 5962              		.loc 1 2508 0
 5963 00de 9DF80B80 		ldrb	r8, [sp, #11]	@ zero_extendqisi2
 5964 00e2 84F81880 		strb	r8, [r4, #24]
 5965              	.LVL647:
 5966              		.loc 1 2514 0
 5967 00e6 05F15006 		add	r6, r5, #80
 5968 00ea 0FCE     		ldmia	r6!, {r0, r1, r2, r3}
 5969 00ec 0DF10C0C 		add	ip, sp, #12
 5970 00f0 ACE80F00 		stmia	ip!, {r0, r1, r2, r3}
 5971              		.loc 1 2517 0
 5972 00f4 2389     		ldrh	r3, [r4, #8]
 5973              		.loc 1 2533 0
 5974 00f6 ADF81430 		strh	r3, [sp, #20]	@ movhi
 5975              		.loc 1 2514 0
 5976 00fa 96E80700 		ldm	r6, {r0, r1, r2}
 5977              		.loc 1 2521 0
 5978 00fe 6389     		ldrh	r3, [r4, #10]
 5979              		.loc 1 2533 0
 5980 0100 ADF81630 		strh	r3, [sp, #22]	@ movhi
 5981              		.loc 1 2525 0
 5982 0104 E368     		ldr	r3, [r4, #12]
 5983              		.loc 1 2519 0
 5984 0106 94F817A0 		ldrb	r10, [r4, #23]	@ zero_extendqisi2
 5985              		.loc 1 2529 0
ARM GAS  /var/folders/d2/nstgp4h54kz7g1l847x_b8wc0000gn/T//ccoy4Txs.s 			page 106


 5986 010a B4F81490 		ldrh	r9, [r4, #20]
 5987              		.loc 1 2533 0
 5988 010e 0693     		str	r3, [sp, #24]
 5989              		.loc 1 2527 0
 5990 0110 2369     		ldr	r3, [r4, #16]
 5991              		.loc 1 2533 0
 5992 0112 6468     		ldr	r4, [r4, #4]
 5993              	.LVL648:
 5994 0114 0494     		str	r4, [sp, #16]
 5995              		.loc 1 2514 0
 5996 0116 8CE80700 		stm	ip, {r0, r1, r2}
 5997              	.LVL649:
 5998              		.loc 1 2533 0
 5999 011a 03AC     		add	r4, sp, #12
 6000 011c 8DF82480 		strb	r8, [sp, #36]
 6001 0120 8DF823A0 		strb	r10, [sp, #35]
 6002 0124 0793     		str	r3, [sp, #28]
 6003 0126 ADF82090 		strh	r9, [sp, #32]	@ movhi
 6004 012a 0FCC     		ldmia	r4!, {r0, r1, r2, r3}
 6005              	.LVL650:
 6006 012c 5035     		adds	r5, r5, #80
 6007              	.LVL651:
 6008 012e 0FC5     		stmia	r5!, {r0, r1, r2, r3}
 6009              	.LVL652:
 6010 0130 9CE80700 		ldm	ip, {r0, r1, r2}
 6011 0134 86E80700 		stm	r6, {r0, r1, r2}
 6012              	.LVL653:
 6013              	.L639:
 6014              		.loc 1 2538 0
 6015 0138 0D9A     		ldr	r2, [sp, #52]
 6016 013a 3B68     		ldr	r3, [r7]
 6017 013c 9A42     		cmp	r2, r3
 6018 013e 7046     		mov	r0, lr
 6019 0140 0CD1     		bne	.L658
 6020 0142 0EB0     		add	sp, sp, #56
 6021              		.cfi_remember_state
 6022              		.cfi_def_cfa_offset 32
 6023              		@ sp needed
 6024 0144 BDE8F087 		pop	{r4, r5, r6, r7, r8, r9, r10, pc}
 6025              	.LVL654:
 6026              	.L657:
 6027              		.cfi_restore_state
 6028              		.loc 1 2468 0
 6029 0148 BCF1000F 		cmp	ip, #0
 6030 014c 03D1     		bne	.L647
 6031              		.loc 1 2471 0
 6032 014e 48F6E026 		movw	r6, #35552
 6033              	.LVL655:
 6034              	.L644:
 6035              		.loc 1 2494 0
 6036 0152 0020     		movs	r0, #0
 6037              	.LVL656:
 6038 0154 B8E7     		b	.L656
 6039              	.LVL657:
 6040              	.L647:
 6041 0156 40F6AE06 		movw	r6, #2222
 6042              	.LVL658:
ARM GAS  /var/folders/d2/nstgp4h54kz7g1l847x_b8wc0000gn/T//ccoy4Txs.s 			page 107


 6043 015a B5E7     		b	.L656
 6044              	.LVL659:
 6045              	.L658:
 6046              		.loc 1 2538 0
 6047 015c FFF7FEFF 		bl	__stack_chk_fail
 6048              	.LVL660:
 6049              	.L660:
 6050              		.align	2
 6051              	.L659:
 6052 0160 00000000 		.word	__stack_chk_guard
 6053 0164 D34D6210 		.word	274877907
 6054              		.cfi_endproc
 6055              	.LFE80:
 6056              		.size	VL53L0X_GetRangingMeasurementData, .-VL53L0X_GetRangingMeasurementData
 6057              		.section	.text.VL53L0X_GetMeasurementRefSignal,"ax",%progbits
 6058              		.align	1
 6059              		.p2align 4,,15
 6060              		.global	VL53L0X_GetMeasurementRefSignal
 6061              		.syntax unified
 6062              		.thumb
 6063              		.thumb_func
 6064              		.fpu fpv4-sp-d16
 6065              		.type	VL53L0X_GetMeasurementRefSignal, %function
 6066              	VL53L0X_GetMeasurementRefSignal:
 6067              	.LFB81:
 6068              		.loc 1 2542 0
 6069              		.cfi_startproc
 6070              		@ args = 0, pretend = 0, frame = 8
 6071              		@ frame_needed = 0, uses_anonymous_args = 0
 6072              	.LVL661:
 6073 0000 10B5     		push	{r4, lr}
 6074              		.cfi_def_cfa_offset 8
 6075              		.cfi_offset 4, -8
 6076              		.cfi_offset 14, -4
 6077 0002 0B4B     		ldr	r3, .L667
 6078              		.loc 1 2550 0
 6079 0004 90F82A20 		ldrb	r2, [r0, #42]	@ zero_extendqisi2
 6080              		.loc 1 2542 0
 6081 0008 1C68     		ldr	r4, [r3]
 6082 000a 82B0     		sub	sp, sp, #8
 6083              		.cfi_def_cfa_offset 16
 6084              		.loc 1 2542 0
 6085 000c 0194     		str	r4, [sp, #4]
 6086              	.LVL662:
 6087              		.loc 1 2550 0
 6088 000e 4AB1     		cbz	r2, .L664
 6089              		.loc 1 2551 0
 6090 0010 D0F84821 		ldr	r2, [r0, #328]
 6091 0014 0A60     		str	r2, [r1]
 6092              	.LVL663:
 6093              		.loc 1 2547 0
 6094 0016 0020     		movs	r0, #0
 6095              	.LVL664:
 6096              	.L662:
 6097              		.loc 1 2558 0
 6098 0018 019A     		ldr	r2, [sp, #4]
 6099 001a 1B68     		ldr	r3, [r3]
ARM GAS  /var/folders/d2/nstgp4h54kz7g1l847x_b8wc0000gn/T//ccoy4Txs.s 			page 108


 6100 001c 9A42     		cmp	r2, r3
 6101 001e 04D1     		bne	.L666
 6102 0020 02B0     		add	sp, sp, #8
 6103              		.cfi_remember_state
 6104              		.cfi_def_cfa_offset 8
 6105              		@ sp needed
 6106 0022 10BD     		pop	{r4, pc}
 6107              	.LVL665:
 6108              	.L664:
 6109              		.cfi_restore_state
 6110              		.loc 1 2553 0
 6111 0024 6FF01D00 		mvn	r0, #29
 6112              	.LVL666:
 6113 0028 F6E7     		b	.L662
 6114              	.LVL667:
 6115              	.L666:
 6116              		.loc 1 2558 0
 6117 002a FFF7FEFF 		bl	__stack_chk_fail
 6118              	.LVL668:
 6119              	.L668:
 6120 002e 00BF     		.align	2
 6121              	.L667:
 6122 0030 00000000 		.word	__stack_chk_guard
 6123              		.cfi_endproc
 6124              	.LFE81:
 6125              		.size	VL53L0X_GetMeasurementRefSignal, .-VL53L0X_GetMeasurementRefSignal
 6126              		.section	.text.VL53L0X_GetHistogramMeasurementData,"ax",%progbits
 6127              		.align	1
 6128              		.p2align 4,,15
 6129              		.global	VL53L0X_GetHistogramMeasurementData
 6130              		.syntax unified
 6131              		.thumb
 6132              		.thumb_func
 6133              		.fpu fpv4-sp-d16
 6134              		.type	VL53L0X_GetHistogramMeasurementData, %function
 6135              	VL53L0X_GetHistogramMeasurementData:
 6136              	.LFB109:
 6137              		.cfi_startproc
 6138              		@ args = 0, pretend = 0, frame = 8
 6139              		@ frame_needed = 0, uses_anonymous_args = 0
 6140 0000 00B5     		push	{lr}
 6141              		.cfi_def_cfa_offset 4
 6142              		.cfi_offset 14, -4
 6143 0002 074B     		ldr	r3, .L673
 6144 0004 83B0     		sub	sp, sp, #12
 6145              		.cfi_def_cfa_offset 16
 6146 0006 1A68     		ldr	r2, [r3]
 6147 0008 0192     		str	r2, [sp, #4]
 6148 000a 019A     		ldr	r2, [sp, #4]
 6149 000c 1B68     		ldr	r3, [r3]
 6150 000e 9A42     		cmp	r2, r3
 6151 0010 04D1     		bne	.L672
 6152 0012 6FF06200 		mvn	r0, #98
 6153 0016 03B0     		add	sp, sp, #12
 6154              		.cfi_remember_state
 6155              		.cfi_def_cfa_offset 4
 6156              		@ sp needed
ARM GAS  /var/folders/d2/nstgp4h54kz7g1l847x_b8wc0000gn/T//ccoy4Txs.s 			page 109


 6157 0018 5DF804FB 		ldr	pc, [sp], #4
 6158              	.L672:
 6159              		.cfi_restore_state
 6160 001c FFF7FEFF 		bl	__stack_chk_fail
 6161              	.L674:
 6162              		.align	2
 6163              	.L673:
 6164 0020 00000000 		.word	__stack_chk_guard
 6165              		.cfi_endproc
 6166              	.LFE109:
 6167              		.size	VL53L0X_GetHistogramMeasurementData, .-VL53L0X_GetHistogramMeasurementData
 6168              		.section	.text.VL53L0X_SetNumberOfROIZones,"ax",%progbits
 6169              		.align	1
 6170              		.p2align 4,,15
 6171              		.global	VL53L0X_SetNumberOfROIZones
 6172              		.syntax unified
 6173              		.thumb
 6174              		.thumb_func
 6175              		.fpu fpv4-sp-d16
 6176              		.type	VL53L0X_SetNumberOfROIZones, %function
 6177              	VL53L0X_SetNumberOfROIZones:
 6178              	.LFB84:
 6179              		.loc 1 2603 0
 6180              		.cfi_startproc
 6181              		@ args = 0, pretend = 0, frame = 8
 6182              		@ frame_needed = 0, uses_anonymous_args = 0
 6183              	.LVL669:
 6184              		.loc 1 2603 0
 6185 0000 00B5     		push	{lr}
 6186              		.cfi_def_cfa_offset 4
 6187              		.cfi_offset 14, -4
 6188 0002 094B     		ldr	r3, .L681
 6189 0004 83B0     		sub	sp, sp, #12
 6190              		.cfi_def_cfa_offset 16
 6191              		.loc 1 2603 0
 6192 0006 1A68     		ldr	r2, [r3]
 6193 0008 0192     		str	r2, [sp, #4]
 6194              	.LVL670:
 6195              		.loc 1 2615 0
 6196 000a 019A     		ldr	r2, [sp, #4]
 6197 000c 1B68     		ldr	r3, [r3]
 6198              		.loc 1 2609 0
 6199 000e 0129     		cmp	r1, #1
 6200              	.LVL671:
 6201              		.loc 1 2615 0
 6202 0010 14BF     		ite	ne
 6203 0012 6FF00300 		mvnne	r0, #3
 6204              	.LVL672:
 6205 0016 0020     		moveq	r0, #0
 6206 0018 9A42     		cmp	r2, r3
 6207              	.LVL673:
 6208 001a 02D1     		bne	.L680
 6209 001c 03B0     		add	sp, sp, #12
 6210              		.cfi_remember_state
 6211              		.cfi_def_cfa_offset 4
 6212              		@ sp needed
 6213 001e 5DF804FB 		ldr	pc, [sp], #4
ARM GAS  /var/folders/d2/nstgp4h54kz7g1l847x_b8wc0000gn/T//ccoy4Txs.s 			page 110


 6214              	.L680:
 6215              		.cfi_restore_state
 6216 0022 FFF7FEFF 		bl	__stack_chk_fail
 6217              	.LVL674:
 6218              	.L682:
 6219 0026 00BF     		.align	2
 6220              	.L681:
 6221 0028 00000000 		.word	__stack_chk_guard
 6222              		.cfi_endproc
 6223              	.LFE84:
 6224              		.size	VL53L0X_SetNumberOfROIZones, .-VL53L0X_SetNumberOfROIZones
 6225              		.section	.text.VL53L0X_GetNumberOfROIZones,"ax",%progbits
 6226              		.align	1
 6227              		.p2align 4,,15
 6228              		.global	VL53L0X_GetNumberOfROIZones
 6229              		.syntax unified
 6230              		.thumb
 6231              		.thumb_func
 6232              		.fpu fpv4-sp-d16
 6233              		.type	VL53L0X_GetNumberOfROIZones, %function
 6234              	VL53L0X_GetNumberOfROIZones:
 6235              	.LFB85:
 6236              		.loc 1 2619 0
 6237              		.cfi_startproc
 6238              		@ args = 0, pretend = 0, frame = 8
 6239              		@ frame_needed = 0, uses_anonymous_args = 0
 6240              	.LVL675:
 6241 0000 00B5     		push	{lr}
 6242              		.cfi_def_cfa_offset 4
 6243              		.cfi_offset 14, -4
 6244 0002 084B     		ldr	r3, .L687
 6245 0004 83B0     		sub	sp, sp, #12
 6246              		.cfi_def_cfa_offset 16
 6247              		.loc 1 2619 0
 6248 0006 1868     		ldr	r0, [r3]
 6249              	.LVL676:
 6250 0008 0190     		str	r0, [sp, #4]
 6251              	.LVL677:
 6252              		.loc 1 2625 0
 6253 000a 0122     		movs	r2, #1
 6254 000c 0A70     		strb	r2, [r1]
 6255              		.loc 1 2629 0
 6256 000e 019A     		ldr	r2, [sp, #4]
 6257 0010 1B68     		ldr	r3, [r3]
 6258 0012 9A42     		cmp	r2, r3
 6259 0014 03D1     		bne	.L686
 6260 0016 0020     		movs	r0, #0
 6261 0018 03B0     		add	sp, sp, #12
 6262              		.cfi_remember_state
 6263              		.cfi_def_cfa_offset 4
 6264              		@ sp needed
 6265 001a 5DF804FB 		ldr	pc, [sp], #4
 6266              	.L686:
 6267              		.cfi_restore_state
 6268 001e FFF7FEFF 		bl	__stack_chk_fail
 6269              	.LVL678:
 6270              	.L688:
ARM GAS  /var/folders/d2/nstgp4h54kz7g1l847x_b8wc0000gn/T//ccoy4Txs.s 			page 111


 6271 0022 00BF     		.align	2
 6272              	.L687:
 6273 0024 00000000 		.word	__stack_chk_guard
 6274              		.cfi_endproc
 6275              	.LFE85:
 6276              		.size	VL53L0X_GetNumberOfROIZones, .-VL53L0X_GetNumberOfROIZones
 6277              		.section	.text.VL53L0X_GetMaxNumberOfROIZones,"ax",%progbits
 6278              		.align	1
 6279              		.p2align 4,,15
 6280              		.global	VL53L0X_GetMaxNumberOfROIZones
 6281              		.syntax unified
 6282              		.thumb
 6283              		.thumb_func
 6284              		.fpu fpv4-sp-d16
 6285              		.type	VL53L0X_GetMaxNumberOfROIZones, %function
 6286              	VL53L0X_GetMaxNumberOfROIZones:
 6287              	.LFB115:
 6288              		.cfi_startproc
 6289              		@ args = 0, pretend = 0, frame = 8
 6290              		@ frame_needed = 0, uses_anonymous_args = 0
 6291 0000 00B5     		push	{lr}
 6292              		.cfi_def_cfa_offset 4
 6293              		.cfi_offset 14, -4
 6294 0002 084B     		ldr	r3, .L693
 6295 0004 83B0     		sub	sp, sp, #12
 6296              		.cfi_def_cfa_offset 16
 6297 0006 1868     		ldr	r0, [r3]
 6298 0008 0190     		str	r0, [sp, #4]
 6299 000a 0122     		movs	r2, #1
 6300 000c 0A70     		strb	r2, [r1]
 6301 000e 019A     		ldr	r2, [sp, #4]
 6302 0010 1B68     		ldr	r3, [r3]
 6303 0012 9A42     		cmp	r2, r3
 6304 0014 03D1     		bne	.L692
 6305 0016 0020     		movs	r0, #0
 6306 0018 03B0     		add	sp, sp, #12
 6307              		.cfi_remember_state
 6308              		.cfi_def_cfa_offset 4
 6309              		@ sp needed
 6310 001a 5DF804FB 		ldr	pc, [sp], #4
 6311              	.L692:
 6312              		.cfi_restore_state
 6313 001e FFF7FEFF 		bl	__stack_chk_fail
 6314              	.L694:
 6315 0022 00BF     		.align	2
 6316              	.L693:
 6317 0024 00000000 		.word	__stack_chk_guard
 6318              		.cfi_endproc
 6319              	.LFE115:
 6320              		.size	VL53L0X_GetMaxNumberOfROIZones, .-VL53L0X_GetMaxNumberOfROIZones
 6321              		.section	.text.VL53L0X_GetGpioConfig,"ax",%progbits
 6322              		.align	1
 6323              		.p2align 4,,15
 6324              		.global	VL53L0X_GetGpioConfig
 6325              		.syntax unified
 6326              		.thumb
 6327              		.thumb_func
ARM GAS  /var/folders/d2/nstgp4h54kz7g1l847x_b8wc0000gn/T//ccoy4Txs.s 			page 112


 6328              		.fpu fpv4-sp-d16
 6329              		.type	VL53L0X_GetGpioConfig, %function
 6330              	VL53L0X_GetGpioConfig:
 6331              	.LFB88:
 6332              		.loc 1 2746 0
 6333              		.cfi_startproc
 6334              		@ args = 4, pretend = 0, frame = 8
 6335              		@ frame_needed = 0, uses_anonymous_args = 0
 6336              	.LVL679:
 6337              		.loc 1 2746 0
 6338 0000 2DE9F041 		push	{r4, r5, r6, r7, r8, lr}
 6339              		.cfi_def_cfa_offset 24
 6340              		.cfi_offset 4, -24
 6341              		.cfi_offset 5, -20
 6342              		.cfi_offset 6, -16
 6343              		.cfi_offset 7, -12
 6344              		.cfi_offset 8, -8
 6345              		.cfi_offset 14, -4
 6346 0004 1D4C     		ldr	r4, .L707
 6347              	.LBB124:
 6348              	.LBB125:
 6349              		.loc 1 937 0
 6350 0006 067C     		ldrb	r6, [r0, #16]	@ zero_extendqisi2
 6351              	.LBE125:
 6352              	.LBE124:
 6353              		.loc 1 2746 0
 6354 0008 2768     		ldr	r7, [r4]
 6355              	.LBB127:
 6356              	.LBB126:
 6357              		.loc 1 937 0
 6358 000a 1670     		strb	r6, [r2]
 6359              	.LBE126:
 6360              	.LBE127:
 6361              		.loc 1 2746 0
 6362 000c 82B0     		sub	sp, sp, #8
 6363              		.cfi_def_cfa_offset 32
 6364              		.loc 1 2746 0
 6365 000e 0197     		str	r7, [sp, #4]
 6366              	.LVL680:
 6367 0010 DDF82080 		ldr	r8, [sp, #32]
 6368              		.loc 1 2758 0
 6369 0014 41B1     		cbz	r1, .L705
 6370              		.loc 1 2759 0
 6371 0016 6FF00900 		mvn	r0, #9
 6372              	.LVL681:
 6373              	.L696:
 6374              		.loc 1 2811 0
 6375 001a 019A     		ldr	r2, [sp, #4]
 6376 001c 2368     		ldr	r3, [r4]
 6377 001e 9A42     		cmp	r2, r3
 6378 0020 29D1     		bne	.L706
 6379 0022 02B0     		add	sp, sp, #8
 6380              		.cfi_remember_state
 6381              		.cfi_def_cfa_offset 24
 6382              		@ sp needed
 6383 0024 BDE8F081 		pop	{r4, r5, r6, r7, r8, pc}
 6384              	.LVL682:
ARM GAS  /var/folders/d2/nstgp4h54kz7g1l847x_b8wc0000gn/T//ccoy4Txs.s 			page 113


