ARM GAS  /var/folders/d2/nstgp4h54kz7g1l847x_b8wc0000gn/T//cc2apEbl.s 			page 1


   1              		.cpu cortex-m4
   2              		.eabi_attribute 27, 1
   3              		.eabi_attribute 28, 1
   4              		.eabi_attribute 20, 1
   5              		.eabi_attribute 21, 1
   6              		.eabi_attribute 23, 3
   7              		.eabi_attribute 24, 1
   8              		.eabi_attribute 25, 1
   9              		.eabi_attribute 26, 1
  10              		.eabi_attribute 30, 2
  11              		.eabi_attribute 34, 1
  12              		.eabi_attribute 18, 4
  13              		.file	"vl53l0x_api_core.c"
  14              		.text
  15              	.Ltext0:
  16              		.cfi_sections	.debug_frame
  17              		.section	.text.VL53L0X_encode_timeout.part.0,"ax",%progbits
  18              		.align	1
  19              		.p2align 4,,15
  20              		.syntax unified
  21              		.thumb
  22              		.thumb_func
  23              		.fpu fpv4-sp-d16
  24              		.type	VL53L0X_encode_timeout.part.0, %function
  25              	VL53L0X_encode_timeout.part.0:
  26              	.LFB28:
  27              		.file 1 "../e-puck2_main-processor/src/sensors/VL53L0X/Api/core/src/vl53l0x_api_core.c"
  28              		.loc 1 500 0
  29              		.cfi_startproc
  30              		@ args = 0, pretend = 0, frame = 8
  31              		@ frame_needed = 0, uses_anonymous_args = 0
  32              	.LVL0:
  33 0000 10B5     		push	{r4, lr}
  34              		.cfi_def_cfa_offset 8
  35              		.cfi_offset 4, -8
  36              		.cfi_offset 14, -4
  37 0002 0E49     		ldr	r1, .L10
  38 0004 82B0     		sub	sp, sp, #8
  39              		.cfi_def_cfa_offset 16
  40              		.loc 1 500 0
  41 0006 0B68     		ldr	r3, [r1]
  42 0008 0193     		str	r3, [sp, #4]
  43              		.loc 1 511 0
  44 000a 0138     		subs	r0, r0, #1
  45              	.LVL1:
  46              		.loc 1 513 0
  47 000c 30F0FF03 		bics	r3, r0, #255
  48 0010 09D0     		beq	.L2
  49              		.loc 1 508 0
  50 0012 0023     		movs	r3, #0
  51              	.LVL2:
  52              	.L3:
  53              		.loc 1 514 0
  54 0014 4008     		lsrs	r0, r0, #1
  55              	.LVL3:
  56              		.loc 1 515 0
  57 0016 0133     		adds	r3, r3, #1
ARM GAS  /var/folders/d2/nstgp4h54kz7g1l847x_b8wc0000gn/T//cc2apEbl.s 			page 2


  58              	.LVL4:
  59              		.loc 1 513 0
  60 0018 20F0FF02 		bic	r2, r0, #255
  61              		.loc 1 515 0
  62 001c 9BB2     		uxth	r3, r3
  63              	.LVL5:
  64              		.loc 1 513 0
  65 001e 002A     		cmp	r2, #0
  66 0020 F8D1     		bne	.L3
  67 0022 1B02     		lsls	r3, r3, #8
  68              	.LVL6:
  69 0024 9BB2     		uxth	r3, r3
  70              	.L2:
  71              	.LVL7:
  72              		.loc 1 524 0
  73 0026 019C     		ldr	r4, [sp, #4]
  74 0028 0A68     		ldr	r2, [r1]
  75              		.loc 1 518 0
  76 002a 1844     		add	r0, r0, r3
  77              	.LVL8:
  78              		.loc 1 524 0
  79 002c 9442     		cmp	r4, r2
  80 002e 80B2     		uxth	r0, r0
  81 0030 01D1     		bne	.L9
  82 0032 02B0     		add	sp, sp, #8
  83              		.cfi_remember_state
  84              		.cfi_def_cfa_offset 8
  85              		@ sp needed
  86 0034 10BD     		pop	{r4, pc}
  87              	.L9:
  88              		.cfi_restore_state
  89 0036 FFF7FEFF 		bl	__stack_chk_fail
  90              	.LVL9:
  91              	.L11:
  92 003a 00BF     		.align	2
  93              	.L10:
  94 003c 00000000 		.word	__stack_chk_guard
  95              		.cfi_endproc
  96              	.LFE28:
  97              		.size	VL53L0X_encode_timeout.part.0, .-VL53L0X_encode_timeout.part.0
  98              		.section	.text.set_sequence_step_timeout.part.1,"ax",%progbits
  99              		.align	1
 100              		.p2align 4,,15
 101              		.syntax unified
 102              		.thumb
 103              		.thumb_func
 104              		.fpu fpv4-sp-d16
 105              		.type	set_sequence_step_timeout.part.1, %function
 106              	set_sequence_step_timeout.part.1:
 107              	.LFB29:
 108              		.loc 1 688 0
 109              		.cfi_startproc
 110              		@ args = 0, pretend = 0, frame = 16
 111              		@ frame_needed = 0, uses_anonymous_args = 0
 112              	.LVL10:
 113 0000 2DE9F043 		push	{r4, r5, r6, r7, r8, r9, lr}
 114              		.cfi_def_cfa_offset 28
ARM GAS  /var/folders/d2/nstgp4h54kz7g1l847x_b8wc0000gn/T//cc2apEbl.s 			page 3


 115              		.cfi_offset 4, -28
 116              		.cfi_offset 5, -24
 117              		.cfi_offset 6, -20
 118              		.cfi_offset 7, -16
 119              		.cfi_offset 8, -12
 120              		.cfi_offset 9, -8
 121              		.cfi_offset 14, -4
 122 0004 4B4E     		ldr	r6, .L29
 123 0006 85B0     		sub	sp, sp, #20
 124              		.cfi_def_cfa_offset 48
 125              		.loc 1 688 0
 126 0008 3368     		ldr	r3, [r6]
 127 000a 0393     		str	r3, [sp, #12]
 128              		.loc 1 733 0
 129 000c 0329     		cmp	r1, #3
 130              		.loc 1 688 0
 131 000e 1746     		mov	r7, r2
 132 0010 0546     		mov	r5, r0
 133              		.loc 1 733 0
 134 0012 57D0     		beq	.L24
 135              		.loc 1 763 0
 136 0014 0429     		cmp	r1, #4
 137 0016 40F08780 		bne	.L20
 138              		.loc 1 771 0
 139 001a 01A9     		add	r1, sp, #4
 140              	.LVL11:
 141 001c FFF7FEFF 		bl	VL53L0X_GetSequenceStepEnables
 142              	.LVL12:
 143              		.loc 1 774 0
 144 0020 9DF80700 		ldrb	r0, [sp, #7]	@ zero_extendqisi2
 145 0024 78BB     		cbnz	r0, .L25
 146              		.loc 1 773 0
 147 0026 8046     		mov	r8, r0
 148 0028 0DF10109 		add	r9, sp, #1
 149              	.LVL13:
 150              	.L16:
 151              		.loc 1 797 0
 152 002c 4A46     		mov	r2, r9
 153 002e 0121     		movs	r1, #1
 154 0030 2846     		mov	r0, r5
 155 0032 FFF7FEFF 		bl	VL53L0X_GetVcselPulsePeriod
 156              	.LVL14:
 157              		.loc 1 801 0
 158 0036 0446     		mov	r4, r0
 159 0038 E8B9     		cbnz	r0, .L15
 160              	.LVL15:
 161              	.LBB108:
 162              	.LBB109:
 163              	.LBB110:
 164              	.LBB111:
 165              		.loc 1 494 0
 166 003a 9DF80120 		ldrb	r2, [sp, #1]	@ zero_extendqisi2
 167              		.loc 1 493 0
 168 003e 3E4B     		ldr	r3, .L29+4
 169              	.LBE111:
 170              	.LBE110:
 171              		.loc 1 555 0
ARM GAS  /var/folders/d2/nstgp4h54kz7g1l847x_b8wc0000gn/T//cc2apEbl.s 			page 4


 172 0040 3E48     		ldr	r0, .L29+8
 173              	.LVL16:
 174              	.LBB113:
 175              	.LBB112:
 176              		.loc 1 493 0
 177 0042 03FB02F3 		mul	r3, r3, r2
 178              	.LBE112:
 179              	.LBE113:
 180              		.loc 1 551 0
 181 0046 03F5FA73 		add	r3, r3, #500
 182              	.LVL17:
 183              		.loc 1 555 0
 184 004a A0FB0323 		umull	r2, r3, r0, r3
 185 004e DA09     		lsrs	r2, r3, #7
 186              		.loc 1 554 0
 187 0050 4FF47A70 		mov	r0, #1000
 188              		.loc 1 551 0
 189 0054 9B09     		lsrs	r3, r3, #6
 190              		.loc 1 555 0
 191 0056 00FB0720 		mla	r0, r0, r7, r2
 192              		.loc 1 553 0
 193 005a B0FBF3F0 		udiv	r0, r0, r3
 194              	.LVL18:
 195              	.LBE109:
 196              	.LBE108:
 197              	.LBB114:
 198              	.LBB115:
 199              		.loc 1 510 0
 200 005e 10EB0800 		adds	r0, r0, r8
 201              	.LVL19:
 202 0062 5DD1     		bne	.L26
 203              		.loc 1 506 0
 204 0064 0246     		mov	r2, r0
 205              	.LVL20:
 206              	.L17:
 207              	.LBE115:
 208              	.LBE114:
 209              		.loc 1 814 0
 210 0066 7121     		movs	r1, #113
 211 0068 2846     		mov	r0, r5
 212 006a FFF7FEFF 		bl	VL53L0X_WrWord
 213              	.LVL21:
 214              		.loc 1 818 0
 215 006e 0446     		mov	r4, r0
 216 0070 08B9     		cbnz	r0, .L15
 217              		.loc 1 819 0
 218 0072 C5F8DC70 		str	r7, [r5, #220]
 219              	.LVL22:
 220              	.L15:
 221              		.loc 1 830 0
 222 0076 039A     		ldr	r2, [sp, #12]
 223 0078 3368     		ldr	r3, [r6]
 224 007a 9A42     		cmp	r2, r3
 225 007c 2046     		mov	r0, r4
 226 007e 56D1     		bne	.L27
 227 0080 05B0     		add	sp, sp, #20
 228              		.cfi_remember_state
ARM GAS  /var/folders/d2/nstgp4h54kz7g1l847x_b8wc0000gn/T//cc2apEbl.s 			page 5


 229              		.cfi_def_cfa_offset 28
 230              		@ sp needed
 231 0082 BDE8F083 		pop	{r4, r5, r6, r7, r8, r9, pc}
 232              	.LVL23:
 233              	.L25:
 234              		.cfi_restore_state
 235              		.loc 1 777 0
 236 0086 0DF10109 		add	r9, sp, #1
 237 008a 4A46     		mov	r2, r9
 238 008c 0021     		movs	r1, #0
 239 008e 2846     		mov	r0, r5
 240 0090 FFF7FEFF 		bl	VL53L0X_GetVcselPulsePeriod
 241              	.LVL24:
 242              		.loc 1 783 0
 243 0094 0446     		mov	r4, r0
 244 0096 0028     		cmp	r0, #0
 245 0098 EDD1     		bne	.L15
 246              		.loc 1 784 0
 247 009a 0DF10202 		add	r2, sp, #2
 248 009e 5121     		movs	r1, #81
 249 00a0 2846     		mov	r0, r5
 250              	.LVL25:
 251 00a2 FFF7FEFF 		bl	VL53L0X_RdWord
 252              	.LVL26:
 253              		.loc 1 787 0
 254 00a6 BDF80230 		ldrh	r3, [sp, #2]
 255              	.LBB117:
 256              	.LBB118:
 257              		.loc 1 534 0
 258 00aa 5FFA83F8 		uxtb	r8, r3
 259              		.loc 1 535 0
 260 00ae 1B0A     		lsrs	r3, r3, #8
 261 00b0 08FA03F8 		lsl	r8, r8, r3
 262              		.loc 1 534 0
 263 00b4 08F10108 		add	r8, r8, #1
 264              	.LBE118:
 265              	.LBE117:
 266              		.loc 1 786 0
 267 00b8 1FFA88F8 		uxth	r8, r8
 268              	.LVL27:
 269              		.loc 1 795 0
 270 00bc 0446     		mov	r4, r0
 271 00be 0028     		cmp	r0, #0
 272 00c0 B4D0     		beq	.L16
 273 00c2 D8E7     		b	.L15
 274              	.LVL28:
 275              	.L24:
 276              		.loc 1 736 0
 277 00c4 0DF10102 		add	r2, sp, #1
 278              	.LVL29:
 279 00c8 0021     		movs	r1, #0
 280              	.LVL30:
 281 00ca FFF7FEFF 		bl	VL53L0X_GetVcselPulsePeriod
 282              	.LVL31:
 283              	.LBB119:
 284              	.LBB120:
 285              	.LBB121:
ARM GAS  /var/folders/d2/nstgp4h54kz7g1l847x_b8wc0000gn/T//cc2apEbl.s 			page 6


 286              	.LBB122:
 287              		.loc 1 494 0
 288 00ce 9DF80120 		ldrb	r2, [sp, #1]	@ zero_extendqisi2
 289              		.loc 1 493 0
 290 00d2 194B     		ldr	r3, .L29+4
 291              	.LBE122:
 292              	.LBE121:
 293              	.LBE120:
 294              	.LBE119:
 295              		.loc 1 736 0
 296 00d4 0446     		mov	r4, r0
 297              	.LVL32:
 298              	.LBB126:
 299              	.LBB125:
 300              	.LBB124:
 301              	.LBB123:
 302              		.loc 1 493 0
 303 00d6 03FB02F3 		mul	r3, r3, r2
 304              	.LBE123:
 305              	.LBE124:
 306              		.loc 1 555 0
 307 00da 1848     		ldr	r0, .L29+8
 308              		.loc 1 551 0
 309 00dc 03F5FA73 		add	r3, r3, #500
 310              	.LVL33:
 311              		.loc 1 555 0
 312 00e0 A0FB0323 		umull	r2, r3, r0, r3
 313              	.LVL34:
 314 00e4 DA09     		lsrs	r2, r3, #7
 315              		.loc 1 554 0
 316 00e6 4FF47A70 		mov	r0, #1000
 317              		.loc 1 551 0
 318 00ea 9B09     		lsrs	r3, r3, #6
 319              		.loc 1 555 0
 320 00ec 00FB0720 		mla	r0, r0, r7, r2
 321              		.loc 1 553 0
 322 00f0 B0FBF3F0 		udiv	r0, r0, r3
 323 00f4 80B2     		uxth	r0, r0
 324              	.LVL35:
 325              	.LBE125:
 326              	.LBE126:
 327              	.LBB127:
 328              	.LBB128:
 329              		.loc 1 510 0
 330 00f6 80B9     		cbnz	r0, .L28
 331              	.LVL36:
 332              	.L14:
 333              	.LBE128:
 334              	.LBE127:
 335              		.loc 1 743 0
 336 00f8 ADF80200 		strh	r0, [sp, #2]	@ movhi
 337              		.loc 1 746 0
 338 00fc A5F8D800 		strh	r0, [r5, #216]	@ movhi
 339              		.loc 1 751 0
 340 0100 002C     		cmp	r4, #0
 341 0102 B8D1     		bne	.L15
 342              		.loc 1 752 0
ARM GAS  /var/folders/d2/nstgp4h54kz7g1l847x_b8wc0000gn/T//cc2apEbl.s 			page 7


 343 0104 0246     		mov	r2, r0
 344 0106 5121     		movs	r1, #81
 345 0108 2846     		mov	r0, r5
 346 010a FFF7FEFF 		bl	VL53L0X_WrWord
 347              	.LVL37:
 348              		.loc 1 757 0
 349 010e 0446     		mov	r4, r0
 350 0110 0028     		cmp	r0, #0
 351 0112 B0D1     		bne	.L15
 352              		.loc 1 758 0
 353 0114 C5F8E470 		str	r7, [r5, #228]
 354 0118 ADE7     		b	.L15
 355              	.LVL38:
 356              	.L28:
 357              	.LBB130:
 358              	.LBB129:
 359 011a FFF7FEFF 		bl	VL53L0X_encode_timeout.part.0
 360              	.LVL39:
 361 011e EBE7     		b	.L14
 362              	.LVL40:
 363              	.L26:
 364              	.LBE129:
 365              	.LBE130:
 366              	.LBB131:
 367              	.LBB116:
 368 0120 FFF7FEFF 		bl	VL53L0X_encode_timeout.part.0
 369              	.LVL41:
 370 0124 0246     		mov	r2, r0
 371 0126 9EE7     		b	.L17
 372              	.LVL42:
 373              	.L20:
 374              	.LBE116:
 375              	.LBE131:
 376              		.loc 1 826 0
 377 0128 6FF00304 		mvn	r4, #3
 378 012c A3E7     		b	.L15
 379              	.LVL43:
 380              	.L27:
 381              		.loc 1 830 0
 382 012e FFF7FEFF 		bl	__stack_chk_fail
 383              	.LVL44:
 384              	.L30:
 385 0132 00BF     		.align	2
 386              	.L29:
 387 0134 00000000 		.word	__stack_chk_guard
 388 0138 002F3A00 		.word	3813120
 389 013c D34D6210 		.word	274877907
 390              		.cfi_endproc
 391              	.LFE29:
 392              		.size	set_sequence_step_timeout.part.1, .-set_sequence_step_timeout.part.1
 393              		.section	.text.VL53L0X_reverse_bytes,"ax",%progbits
 394              		.align	1
 395              		.p2align 4,,15
 396              		.global	VL53L0X_reverse_bytes
 397              		.syntax unified
 398              		.thumb
 399              		.thumb_func
ARM GAS  /var/folders/d2/nstgp4h54kz7g1l847x_b8wc0000gn/T//cc2apEbl.s 			page 8


 400              		.fpu fpv4-sp-d16
 401              		.type	VL53L0X_reverse_bytes, %function
 402              	VL53L0X_reverse_bytes:
 403              	.LFB3:
 404              		.loc 1 45 0
 405              		.cfi_startproc
 406              		@ args = 0, pretend = 0, frame = 8
 407              		@ frame_needed = 0, uses_anonymous_args = 0
 408              	.LVL45:
 409 0000 30B5     		push	{r4, r5, lr}
 410              		.cfi_def_cfa_offset 12
 411              		.cfi_offset 4, -12
 412              		.cfi_offset 5, -8
 413              		.cfi_offset 14, -4
 414 0002 0D4D     		ldr	r5, .L41
 415 0004 83B0     		sub	sp, sp, #12
 416              		.cfi_def_cfa_offset 24
 417              		.loc 1 45 0
 418 0006 2B68     		ldr	r3, [r5]
 419 0008 0193     		str	r3, [sp, #4]
 420              	.LVL46:
 421              		.loc 1 52 0
 422 000a 4C08     		lsrs	r4, r1, #1
 423              	.LVL47:
 424 000c 0AD0     		beq	.L32
 425 000e 431E     		subs	r3, r0, #1
 426 0010 1C44     		add	r4, r4, r3
 427              	.LVL48:
 428 0012 0844     		add	r0, r0, r1
 429              	.LVL49:
 430              	.L33:
 431              		.loc 1 54 0 discriminator 3
 432 0014 13F8012F 		ldrb	r2, [r3, #1]!	@ zero_extendqisi2
 433              	.LVL50:
 434              		.loc 1 55 0 discriminator 3
 435 0018 10F8011D 		ldrb	r1, [r0, #-1]!	@ zero_extendqisi2
 436              	.LVL51:
 437 001c 1970     		strb	r1, [r3]
 438              		.loc 1 52 0 discriminator 3
 439 001e A342     		cmp	r3, r4
 440              		.loc 1 56 0 discriminator 3
 441 0020 0270     		strb	r2, [r0]
 442              	.LVL52:
 443              		.loc 1 52 0 discriminator 3
 444 0022 F7D1     		bne	.L33
 445              	.LVL53:
 446              	.L32:
 447              		.loc 1 59 0
 448 0024 019A     		ldr	r2, [sp, #4]
 449 0026 2B68     		ldr	r3, [r5]
 450 0028 9A42     		cmp	r2, r3
 451 002a 4FF00000 		mov	r0, #0
 452 002e 01D1     		bne	.L40
 453 0030 03B0     		add	sp, sp, #12
 454              		.cfi_remember_state
 455              		.cfi_def_cfa_offset 12
 456              		@ sp needed
ARM GAS  /var/folders/d2/nstgp4h54kz7g1l847x_b8wc0000gn/T//cc2apEbl.s 			page 9


 457 0032 30BD     		pop	{r4, r5, pc}
 458              	.L40:
 459              		.cfi_restore_state
 460 0034 FFF7FEFF 		bl	__stack_chk_fail
 461              	.LVL54:
 462              	.L42:
 463              		.align	2
 464              	.L41:
 465 0038 00000000 		.word	__stack_chk_guard
 466              		.cfi_endproc
 467              	.LFE3:
 468              		.size	VL53L0X_reverse_bytes, .-VL53L0X_reverse_bytes
 469              		.section	.text.VL53L0X_measurement_poll_for_completion,"ax",%progbits
 470              		.align	1
 471              		.p2align 4,,15
 472              		.global	VL53L0X_measurement_poll_for_completion
 473              		.syntax unified
 474              		.thumb
 475              		.thumb_func
 476              		.fpu fpv4-sp-d16
 477              		.type	VL53L0X_measurement_poll_for_completion, %function
 478              	VL53L0X_measurement_poll_for_completion:
 479              	.LFB4:
 480              		.loc 1 62 0
 481              		.cfi_startproc
 482              		@ args = 0, pretend = 0, frame = 8
 483              		@ frame_needed = 0, uses_anonymous_args = 0
 484              	.LVL55:
 485 0000 F0B5     		push	{r4, r5, r6, r7, lr}
 486              		.cfi_def_cfa_offset 20
 487              		.cfi_offset 4, -20
 488              		.cfi_offset 5, -16
 489              		.cfi_offset 6, -12
 490              		.cfi_offset 7, -8
 491              		.cfi_offset 14, -4
 492 0002 134F     		ldr	r7, .L54
 493 0004 83B0     		sub	sp, sp, #12
 494              		.cfi_def_cfa_offset 32
 495              		.loc 1 64 0
 496 0006 02AE     		add	r6, sp, #8
 497 0008 0022     		movs	r2, #0
 498              		.loc 1 62 0
 499 000a 3B68     		ldr	r3, [r7]
 500              		.loc 1 64 0
 501 000c 06F8052D 		strb	r2, [r6, #-5]!
 502              		.loc 1 62 0
 503 0010 0546     		mov	r5, r0
 504 0012 0193     		str	r3, [sp, #4]
 505              	.LVL56:
 506              		.loc 1 64 0
 507 0014 4FF4FA64 		mov	r4, #2000
 508 0018 08E0     		b	.L45
 509              	.LVL57:
 510              	.L52:
 511              		.loc 1 76 0
 512 001a 9DF80330 		ldrb	r3, [sp, #3]	@ zero_extendqisi2
 513 001e 012B     		cmp	r3, #1
ARM GAS  /var/folders/d2/nstgp4h54kz7g1l847x_b8wc0000gn/T//cc2apEbl.s 			page 10


 514 0020 0AD0     		beq	.L44
 515              	.LVL58:
 516              		.loc 1 80 0
 517 0022 013C     		subs	r4, r4, #1
 518              	.LVL59:
 519 0024 0ED0     		beq	.L47
 520              		.loc 1 85 0
 521 0026 2846     		mov	r0, r5
 522              	.LVL60:
 523 0028 FFF7FEFF 		bl	VL53L0X_PollingDelay
 524              	.LVL61:
 525              	.L45:
 526              		.loc 1 72 0
 527 002c 3146     		mov	r1, r6
 528 002e 2846     		mov	r0, r5
 529 0030 FFF7FEFF 		bl	VL53L0X_GetMeasurementDataReady
 530              	.LVL62:
 531              		.loc 1 73 0
 532 0034 0028     		cmp	r0, #0
 533 0036 F0D0     		beq	.L52
 534              	.LVL63:
 535              	.L44:
 536              		.loc 1 91 0
 537 0038 019A     		ldr	r2, [sp, #4]
 538 003a 3B68     		ldr	r3, [r7]
 539 003c 9A42     		cmp	r2, r3
 540 003e 04D1     		bne	.L53
 541 0040 03B0     		add	sp, sp, #12
 542              		.cfi_remember_state
 543              		.cfi_def_cfa_offset 20
 544              		@ sp needed
 545 0042 F0BD     		pop	{r4, r5, r6, r7, pc}
 546              	.LVL64:
 547              	.L47:
 548              		.cfi_restore_state
 549              		.loc 1 81 0
 550 0044 6FF00600 		mvn	r0, #6
 551              	.LVL65:
 552 0048 F6E7     		b	.L44
 553              	.LVL66:
 554              	.L53:
 555              		.loc 1 91 0
 556 004a FFF7FEFF 		bl	__stack_chk_fail
 557              	.LVL67:
 558              	.L55:
 559 004e 00BF     		.align	2
 560              	.L54:
 561 0050 00000000 		.word	__stack_chk_guard
 562              		.cfi_endproc
 563              	.LFE4:
 564              		.size	VL53L0X_measurement_poll_for_completion, .-VL53L0X_measurement_poll_for_completion
 565              		.section	.text.VL53L0X_decode_vcsel_period,"ax",%progbits
 566              		.align	1
 567              		.p2align 4,,15
 568              		.global	VL53L0X_decode_vcsel_period
 569              		.syntax unified
 570              		.thumb
ARM GAS  /var/folders/d2/nstgp4h54kz7g1l847x_b8wc0000gn/T//cc2apEbl.s 			page 11


 571              		.thumb_func
 572              		.fpu fpv4-sp-d16
 573              		.type	VL53L0X_decode_vcsel_period, %function
 574              	VL53L0X_decode_vcsel_period:
 575              	.LFB5:
 576              		.loc 1 95 0
 577              		.cfi_startproc
 578              		@ args = 0, pretend = 0, frame = 8
 579              		@ frame_needed = 0, uses_anonymous_args = 0
 580              	.LVL68:
 581 0000 00B5     		push	{lr}
 582              		.cfi_def_cfa_offset 4
 583              		.cfi_offset 14, -4
 584 0002 084B     		ldr	r3, .L60
 585 0004 83B0     		sub	sp, sp, #12
 586              		.cfi_def_cfa_offset 16
 587              		.loc 1 95 0
 588 0006 1A68     		ldr	r2, [r3]
 589 0008 0192     		str	r2, [sp, #4]
 590              	.LVL69:
 591              		.loc 1 106 0
 592 000a 019A     		ldr	r2, [sp, #4]
 593 000c 1B68     		ldr	r3, [r3]
 594 000e 9A42     		cmp	r2, r3
 595 0010 06D1     		bne	.L59
 596 0012 0130     		adds	r0, r0, #1
 597              	.LVL70:
 598 0014 4000     		lsls	r0, r0, #1
 599 0016 00F0FE00 		and	r0, r0, #254
 600 001a 03B0     		add	sp, sp, #12
 601              		.cfi_remember_state
 602              		.cfi_def_cfa_offset 4
 603              		@ sp needed
 604 001c 5DF804FB 		ldr	pc, [sp], #4
 605              	.LVL71:
 606              	.L59:
 607              		.cfi_restore_state
 608 0020 FFF7FEFF 		bl	__stack_chk_fail
 609              	.LVL72:
 610              	.L61:
 611              		.align	2
 612              	.L60:
 613 0024 00000000 		.word	__stack_chk_guard
 614              		.cfi_endproc
 615              	.LFE5:
 616              		.size	VL53L0X_decode_vcsel_period, .-VL53L0X_decode_vcsel_period
 617              		.section	.text.VL53L0X_encode_vcsel_period,"ax",%progbits
 618              		.align	1
 619              		.p2align 4,,15
 620              		.global	VL53L0X_encode_vcsel_period
 621              		.syntax unified
 622              		.thumb
 623              		.thumb_func
 624              		.fpu fpv4-sp-d16
 625              		.type	VL53L0X_encode_vcsel_period, %function
 626              	VL53L0X_encode_vcsel_period:
 627              	.LFB6:
ARM GAS  /var/folders/d2/nstgp4h54kz7g1l847x_b8wc0000gn/T//cc2apEbl.s 			page 12


 628              		.loc 1 109 0
 629              		.cfi_startproc
 630              		@ args = 0, pretend = 0, frame = 8
 631              		@ frame_needed = 0, uses_anonymous_args = 0
 632              	.LVL73:
 633 0000 00B5     		push	{lr}
 634              		.cfi_def_cfa_offset 4
 635              		.cfi_offset 14, -4
 636 0002 084B     		ldr	r3, .L66
 637 0004 83B0     		sub	sp, sp, #12
 638              		.cfi_def_cfa_offset 16
 639              		.loc 1 109 0
 640 0006 1A68     		ldr	r2, [r3]
 641 0008 0192     		str	r2, [sp, #4]
 642              	.LVL74:
 643              		.loc 1 120 0
 644 000a 019A     		ldr	r2, [sp, #4]
 645 000c 1B68     		ldr	r3, [r3]
 646 000e 9A42     		cmp	r2, r3
 647 0010 05D1     		bne	.L65
 648 0012 4008     		lsrs	r0, r0, #1
 649              	.LVL75:
 650 0014 0138     		subs	r0, r0, #1
 651 0016 C0B2     		uxtb	r0, r0
 652 0018 03B0     		add	sp, sp, #12
 653              		.cfi_remember_state
 654              		.cfi_def_cfa_offset 4
 655              		@ sp needed
 656 001a 5DF804FB 		ldr	pc, [sp], #4
 657              	.LVL76:
 658              	.L65:
 659              		.cfi_restore_state
 660 001e FFF7FEFF 		bl	__stack_chk_fail
 661              	.LVL77:
 662              	.L67:
 663 0022 00BF     		.align	2
 664              	.L66:
 665 0024 00000000 		.word	__stack_chk_guard
 666              		.cfi_endproc
 667              	.LFE6:
 668              		.size	VL53L0X_encode_vcsel_period, .-VL53L0X_encode_vcsel_period
 669              		.section	.text.VL53L0X_isqrt,"ax",%progbits
 670              		.align	1
 671              		.p2align 4,,15
 672              		.global	VL53L0X_isqrt
 673              		.syntax unified
 674              		.thumb
 675              		.thumb_func
 676              		.fpu fpv4-sp-d16
 677              		.type	VL53L0X_isqrt, %function
 678              	VL53L0X_isqrt:
 679              	.LFB7:
 680              		.loc 1 124 0
 681              		.cfi_startproc
 682              		@ args = 0, pretend = 0, frame = 8
 683              		@ frame_needed = 0, uses_anonymous_args = 0
 684              	.LVL78:
ARM GAS  /var/folders/d2/nstgp4h54kz7g1l847x_b8wc0000gn/T//cc2apEbl.s 			page 13


 685 0000 10B5     		push	{r4, lr}
 686              		.cfi_def_cfa_offset 8
 687              		.cfi_offset 4, -8
 688              		.cfi_offset 14, -4
 689 0002 114C     		ldr	r4, .L82
 690 0004 82B0     		sub	sp, sp, #8
 691              		.cfi_def_cfa_offset 16
 692              		.loc 1 124 0
 693 0006 2368     		ldr	r3, [r4]
 694 0008 0193     		str	r3, [sp, #4]
 695              	.LVL79:
 696              		.loc 1 137 0
 697 000a B0F1804F 		cmp	r0, #1073741824
 698              		.loc 1 132 0
 699 000e 4FF08043 		mov	r3, #1073741824
 700              		.loc 1 137 0
 701 0012 03D2     		bcs	.L69
 702              	.LVL80:
 703              	.L70:
 704              		.loc 1 138 0
 705 0014 9B08     		lsrs	r3, r3, #2
 706              	.LVL81:
 707              		.loc 1 137 0
 708 0016 9842     		cmp	r0, r3
 709 0018 FCD3     		bcc	.L70
 710              		.loc 1 141 0
 711 001a 83B1     		cbz	r3, .L80
 712              	.LVL82:
 713              	.L69:
 714              		.loc 1 132 0
 715 001c 0022     		movs	r2, #0
 716              	.LVL83:
 717              	.L73:
 718              		.loc 1 142 0
 719 001e D118     		adds	r1, r2, r3
 720 0020 8142     		cmp	r1, r0
 721 0022 4FEA5202 		lsr	r2, r2, #1
 722              	.LVL84:
 723              		.loc 1 143 0
 724 0026 9CBF     		itt	ls
 725 0028 401A     		subls	r0, r0, r1
 726              	.LVL85:
 727              		.loc 1 144 0
 728 002a D218     		addls	r2, r2, r3
 729              	.LVL86:
 730              		.loc 1 141 0
 731 002c 9B08     		lsrs	r3, r3, #2
 732              	.LVL87:
 733 002e F6D1     		bne	.L73
 734              	.LVL88:
 735              	.L68:
 736              		.loc 1 152 0
 737 0030 0199     		ldr	r1, [sp, #4]
 738 0032 2368     		ldr	r3, [r4]
 739              	.LVL89:
 740 0034 9942     		cmp	r1, r3
 741 0036 1046     		mov	r0, r2
ARM GAS  /var/folders/d2/nstgp4h54kz7g1l847x_b8wc0000gn/T//cc2apEbl.s 			page 14


 742              	.LVL90:
 743 0038 03D1     		bne	.L81
 744 003a 02B0     		add	sp, sp, #8
 745              		.cfi_remember_state
 746              		.cfi_def_cfa_offset 8
 747              		@ sp needed
 748 003c 10BD     		pop	{r4, pc}
 749              	.LVL91:
 750              	.L80:
 751              		.cfi_restore_state
 752              		.loc 1 131 0
 753 003e 1A46     		mov	r2, r3
 754              		.loc 1 151 0
 755 0040 F6E7     		b	.L68
 756              	.LVL92:
 757              	.L81:
 758              		.loc 1 152 0
 759 0042 FFF7FEFF 		bl	__stack_chk_fail
 760              	.LVL93:
 761              	.L83:
 762 0046 00BF     		.align	2
 763              	.L82:
 764 0048 00000000 		.word	__stack_chk_guard
 765              		.cfi_endproc
 766              	.LFE7:
 767              		.size	VL53L0X_isqrt, .-VL53L0X_isqrt
 768              		.section	.text.VL53L0X_quadrature_sum,"ax",%progbits
 769              		.align	1
 770              		.p2align 4,,15
 771              		.global	VL53L0X_quadrature_sum
 772              		.syntax unified
 773              		.thumb
 774              		.thumb_func
 775              		.fpu fpv4-sp-d16
 776              		.type	VL53L0X_quadrature_sum, %function
 777              	VL53L0X_quadrature_sum:
 778              	.LFB8:
 779              		.loc 1 156 0
 780              		.cfi_startproc
 781              		@ args = 0, pretend = 0, frame = 8
 782              		@ frame_needed = 0, uses_anonymous_args = 0
 783              	.LVL94:
 784 0000 10B5     		push	{r4, lr}
 785              		.cfi_def_cfa_offset 8
 786              		.cfi_offset 4, -8
 787              		.cfi_offset 14, -4
 788 0002 174C     		ldr	r4, .L100
 789 0004 82B0     		sub	sp, sp, #8
 790              		.cfi_def_cfa_offset 16
 791              		.loc 1 156 0
 792 0006 2368     		ldr	r3, [r4]
 793 0008 0193     		str	r3, [sp, #4]
 794              	.LVL95:
 795              		.loc 1 169 0
 796 000a B0F5803F 		cmp	r0, #65536
 797 000e 1AD2     		bcs	.L92
 798              		.loc 1 169 0 is_stmt 0 discriminator 1
ARM GAS  /var/folders/d2/nstgp4h54kz7g1l847x_b8wc0000gn/T//cc2apEbl.s 			page 15


 799 0010 B1F5803F 		cmp	r1, #65536
 800 0014 17D2     		bcs	.L92
 801              		.loc 1 172 0 is_stmt 1
 802 0016 01FB01F1 		mul	r1, r1, r1
 803              	.LVL96:
 804 001a 00FB0011 		mla	r1, r0, r0, r1
 805              	.LVL97:
 806              	.LBB132:
 807              	.LBB133:
 808              		.loc 1 137 0
 809 001e B1F1804F 		cmp	r1, #1073741824
 810              		.loc 1 132 0
 811 0022 4FF08043 		mov	r3, #1073741824
 812              		.loc 1 137 0
 813 0026 03D2     		bcs	.L86
 814              	.LVL98:
 815              	.L87:
 816              		.loc 1 138 0
 817 0028 9B08     		lsrs	r3, r3, #2
 818              	.LVL99:
 819              		.loc 1 137 0
 820 002a 9942     		cmp	r1, r3
 821 002c FCD3     		bcc	.L87
 822              		.loc 1 141 0
 823 002e 93B1     		cbz	r3, .L98
 824              	.LVL100:
 825              	.L86:
 826              		.loc 1 132 0
 827 0030 0020     		movs	r0, #0
 828              	.LVL101:
 829              	.L89:
 830              		.loc 1 142 0
 831 0032 C218     		adds	r2, r0, r3
 832 0034 8A42     		cmp	r2, r1
 833 0036 4FEA5000 		lsr	r0, r0, #1
 834              	.LVL102:
 835              		.loc 1 143 0
 836 003a 9CBF     		itt	ls
 837 003c 891A     		subls	r1, r1, r2
 838              	.LVL103:
 839              		.loc 1 144 0
 840 003e C018     		addls	r0, r0, r3
 841              	.LVL104:
 842              		.loc 1 141 0
 843 0040 9B08     		lsrs	r3, r3, #2
 844              	.LVL105:
 845 0042 F6D1     		bne	.L89
 846 0044 01E0     		b	.L84
 847              	.LVL106:
 848              	.L92:
 849              	.LBE133:
 850              	.LBE132:
 851              		.loc 1 170 0
 852 0046 4FF6FF70 		movw	r0, #65535
 853              	.LVL107:
 854              	.L84:
 855              		.loc 1 175 0
ARM GAS  /var/folders/d2/nstgp4h54kz7g1l847x_b8wc0000gn/T//cc2apEbl.s 			page 16


 856 004a 019A     		ldr	r2, [sp, #4]
 857 004c 2368     		ldr	r3, [r4]
 858 004e 9A42     		cmp	r2, r3
 859 0050 03D1     		bne	.L99
 860 0052 02B0     		add	sp, sp, #8
 861              		.cfi_remember_state
 862              		.cfi_def_cfa_offset 8
 863              		@ sp needed
 864 0054 10BD     		pop	{r4, pc}
 865              	.LVL108:
 866              	.L98:
 867              		.cfi_restore_state
 868              	.LBB135:
 869              	.LBB134:
 870              		.loc 1 131 0
 871 0056 1846     		mov	r0, r3
 872              	.LVL109:
 873              	.LBE134:
 874              	.LBE135:
 875              		.loc 1 174 0
 876 0058 F7E7     		b	.L84
 877              	.LVL110:
 878              	.L99:
 879              		.loc 1 175 0
 880 005a FFF7FEFF 		bl	__stack_chk_fail
 881              	.LVL111:
 882              	.L101:
 883 005e 00BF     		.align	2
 884              	.L100:
 885 0060 00000000 		.word	__stack_chk_guard
 886              		.cfi_endproc
 887              	.LFE8:
 888              		.size	VL53L0X_quadrature_sum, .-VL53L0X_quadrature_sum
 889              		.section	.text.VL53L0X_device_read_strobe,"ax",%progbits
 890              		.align	1
 891              		.p2align 4,,15
 892              		.global	VL53L0X_device_read_strobe
 893              		.syntax unified
 894              		.thumb
 895              		.thumb_func
 896              		.fpu fpv4-sp-d16
 897              		.type	VL53L0X_device_read_strobe, %function
 898              	VL53L0X_device_read_strobe:
 899              	.LFB9:
 900              		.loc 1 179 0
 901              		.cfi_startproc
 902              		@ args = 0, pretend = 0, frame = 8
 903              		@ frame_needed = 0, uses_anonymous_args = 0
 904              	.LVL112:
 905 0000 F0B5     		push	{r4, r5, r6, r7, lr}
 906              		.cfi_def_cfa_offset 20
 907              		.cfi_offset 4, -20
 908              		.cfi_offset 5, -16
 909              		.cfi_offset 6, -12
 910              		.cfi_offset 7, -8
 911              		.cfi_offset 14, -4
 912 0002 174F     		ldr	r7, .L111
ARM GAS  /var/folders/d2/nstgp4h54kz7g1l847x_b8wc0000gn/T//cc2apEbl.s 			page 17


 913 0004 83B0     		sub	sp, sp, #12
 914              		.cfi_def_cfa_offset 32
 915              		.loc 1 179 0
 916 0006 3B68     		ldr	r3, [r7]
 917 0008 0193     		str	r3, [sp, #4]
 918              	.LVL113:
 919              		.loc 1 185 0
 920 000a 0022     		movs	r2, #0
 921 000c 8321     		movs	r1, #131
 922              		.loc 1 179 0
 923 000e 0646     		mov	r6, r0
 924              		.loc 1 185 0
 925 0010 FFF7FEFF 		bl	VL53L0X_WrByte
 926              	.LVL114:
 927              		.loc 1 189 0
 928 0014 0446     		mov	r4, r0
 929 0016 80B9     		cbnz	r0, .L103
 930 0018 4FF4FA65 		mov	r5, #2000
 931 001c 02E0     		b	.L104
 932              	.LVL115:
 933              	.L109:
 934              		.loc 1 193 0 discriminator 1
 935 001e 60B9     		cbnz	r0, .L103
 936              	.LVL116:
 937              		.loc 1 197 0
 938 0020 013D     		subs	r5, r5, #1
 939              	.LVL117:
 940 0022 17D0     		beq	.L108
 941              	.LVL118:
 942              	.L104:
 943              		.loc 1 192 0
 944 0024 0DF10302 		add	r2, sp, #3
 945 0028 8321     		movs	r1, #131
 946 002a 3046     		mov	r0, r6
 947              	.LVL119:
 948 002c FFF7FEFF 		bl	VL53L0X_RdByte
 949              	.LVL120:
 950              		.loc 1 193 0
 951 0030 9DF80330 		ldrb	r3, [sp, #3]	@ zero_extendqisi2
 952              		.loc 1 192 0
 953 0034 0446     		mov	r4, r0
 954              	.LVL121:
 955              		.loc 1 193 0
 956 0036 002B     		cmp	r3, #0
 957 0038 F1D0     		beq	.L109
 958              	.LVL122:
 959              	.L103:
 960              		.loc 1 204 0
 961 003a 0122     		movs	r2, #1
 962 003c 3046     		mov	r0, r6
 963 003e 8321     		movs	r1, #131
 964 0040 FFF7FEFF 		bl	VL53L0X_WrByte
 965              	.LVL123:
 966              		.loc 1 209 0
 967 0044 019A     		ldr	r2, [sp, #4]
 968 0046 3B68     		ldr	r3, [r7]
 969              		.loc 1 204 0
ARM GAS  /var/folders/d2/nstgp4h54kz7g1l847x_b8wc0000gn/T//cc2apEbl.s 			page 18


 970 0048 2043     		orrs	r0, r0, r4
 971              	.LVL124:
 972              		.loc 1 209 0
 973 004a 9A42     		cmp	r2, r3
 974 004c 40B2     		sxtb	r0, r0
 975 004e 04D1     		bne	.L110
 976 0050 03B0     		add	sp, sp, #12
 977              		.cfi_remember_state
 978              		.cfi_def_cfa_offset 20
 979              		@ sp needed
 980 0052 F0BD     		pop	{r4, r5, r6, r7, pc}
 981              	.LVL125:
 982              	.L108:
 983              		.cfi_restore_state
 984              		.loc 1 200 0
 985 0054 6FF00604 		mvn	r4, #6
 986 0058 EFE7     		b	.L103
 987              	.LVL126:
 988              	.L110:
 989              		.loc 1 209 0
 990 005a FFF7FEFF 		bl	__stack_chk_fail
 991              	.LVL127:
 992              	.L112:
 993 005e 00BF     		.align	2
 994              	.L111:
 995 0060 00000000 		.word	__stack_chk_guard
 996              		.cfi_endproc
 997              	.LFE9:
 998              		.size	VL53L0X_device_read_strobe, .-VL53L0X_device_read_strobe
 999              		.section	.text.VL53L0X_get_info_from_device,"ax",%progbits
 1000              		.align	1
 1001              		.p2align 4,,15
 1002              		.global	VL53L0X_get_info_from_device
 1003              		.syntax unified
 1004              		.thumb
 1005              		.thumb_func
 1006              		.fpu fpv4-sp-d16
 1007              		.type	VL53L0X_get_info_from_device, %function
 1008              	VL53L0X_get_info_from_device:
 1009              	.LFB10:
 1010              		.loc 1 212 0
 1011              		.cfi_startproc
 1012              		@ args = 0, pretend = 0, frame = 64
 1013              		@ frame_needed = 0, uses_anonymous_args = 0
 1014              	.LVL128:
 1015 0000 2DE9F04F 		push	{r4, r5, r6, r7, r8, r9, r10, fp, lr}
 1016              		.cfi_def_cfa_offset 36
 1017              		.cfi_offset 4, -36
 1018              		.cfi_offset 5, -32
 1019              		.cfi_offset 6, -28
 1020              		.cfi_offset 7, -24
 1021              		.cfi_offset 8, -20
 1022              		.cfi_offset 9, -16
 1023              		.cfi_offset 10, -12
 1024              		.cfi_offset 11, -8
 1025              		.cfi_offset 14, -4
 1026 0004 DFF8B485 		ldr	r8, .L150
ARM GAS  /var/folders/d2/nstgp4h54kz7g1l847x_b8wc0000gn/T//cc2apEbl.s 			page 19


 1027              		.loc 1 238 0
 1028 0008 90F8F060 		ldrb	r6, [r0, #240]	@ zero_extendqisi2
 1029              		.loc 1 212 0
 1030 000c D8F80030 		ldr	r3, [r8]
 1031 0010 91B0     		sub	sp, sp, #68
 1032              		.cfi_def_cfa_offset 104
 1033              		.loc 1 221 0
 1034 0012 4FF0000B 		mov	fp, #0
 1035              		.loc 1 243 0
 1036 0016 072E     		cmp	r6, #7
 1037              		.loc 1 212 0
 1038 0018 0F93     		str	r3, [sp, #60]
 1039              	.LVL129:
 1040              		.loc 1 222 0
 1041 001a CDE906BB 		strd	fp, fp, [sp, #24]
 1042              	.LVL130:
 1043              		.loc 1 243 0
 1044 001e 0AD1     		bne	.L144
 1045 0020 5C46     		mov	r4, fp
 1046              	.LVL131:
 1047              	.L114:
 1048              		.loc 1 475 0
 1049 0022 0F9A     		ldr	r2, [sp, #60]
 1050 0024 D8F80030 		ldr	r3, [r8]
 1051 0028 9A42     		cmp	r2, r3
 1052 002a 2046     		mov	r0, r4
 1053 002c 40F0C482 		bne	.L145
 1054 0030 11B0     		add	sp, sp, #68
 1055              		.cfi_remember_state
 1056              		.cfi_def_cfa_offset 36
 1057              		@ sp needed
 1058 0032 BDE8F08F 		pop	{r4, r5, r6, r7, r8, r9, r10, fp, pc}
 1059              	.LVL132:
 1060              	.L144:
 1061              		.cfi_restore_state
 1062 0036 0F46     		mov	r7, r1
 1063              		.loc 1 245 0
 1064 0038 0122     		movs	r2, #1
 1065 003a 8021     		movs	r1, #128
 1066              	.LVL133:
 1067 003c 0546     		mov	r5, r0
 1068 003e FFF7FEFF 		bl	VL53L0X_WrByte
 1069              	.LVL134:
 1070              		.loc 1 246 0
 1071 0042 0122     		movs	r2, #1
 1072              		.loc 1 245 0
 1073 0044 8146     		mov	r9, r0
 1074              	.LVL135:
 1075              		.loc 1 246 0
 1076 0046 FF21     		movs	r1, #255
 1077 0048 2846     		mov	r0, r5
 1078 004a FFF7FEFF 		bl	VL53L0X_WrByte
 1079              	.LVL136:
 1080              		.loc 1 247 0
 1081 004e 5A46     		mov	r2, fp
 1082              		.loc 1 246 0
 1083 0050 49EA0009 		orr	r9, r9, r0
ARM GAS  /var/folders/d2/nstgp4h54kz7g1l847x_b8wc0000gn/T//cc2apEbl.s 			page 20


 1084              	.LVL137:
 1085              		.loc 1 247 0
 1086 0054 5946     		mov	r1, fp
 1087 0056 2846     		mov	r0, r5
 1088 0058 FFF7FEFF 		bl	VL53L0X_WrByte
 1089              	.LVL138:
 1090              		.loc 1 246 0
 1091 005c 4FFA89F9 		sxtb	r9, r9
 1092              	.LVL139:
 1093              		.loc 1 249 0
 1094 0060 0622     		movs	r2, #6
 1095              		.loc 1 247 0
 1096 0062 49EA0009 		orr	r9, r9, r0
 1097              	.LVL140:
 1098              		.loc 1 249 0
 1099 0066 FF21     		movs	r1, #255
 1100 0068 2846     		mov	r0, r5
 1101 006a FFF7FEFF 		bl	VL53L0X_WrByte
 1102              	.LVL141:
 1103              		.loc 1 247 0
 1104 006e 4FFA89F9 		sxtb	r9, r9
 1105              	.LVL142:
 1106              		.loc 1 249 0
 1107 0072 49EA0009 		orr	r9, r9, r0
 1108              	.LVL143:
 1109              		.loc 1 250 0
 1110 0076 0DF11102 		add	r2, sp, #17
 1111 007a 8321     		movs	r1, #131
 1112 007c 2846     		mov	r0, r5
 1113 007e FFF7FEFF 		bl	VL53L0X_RdByte
 1114              	.LVL144:
 1115              		.loc 1 251 0
 1116 0082 9DF81120 		ldrb	r2, [sp, #17]	@ zero_extendqisi2
 1117              		.loc 1 249 0
 1118 0086 4FFA89F9 		sxtb	r9, r9
 1119              	.LVL145:
 1120              		.loc 1 250 0
 1121 008a 49EA0009 		orr	r9, r9, r0
 1122              	.LVL146:
 1123              		.loc 1 251 0
 1124 008e 42F00402 		orr	r2, r2, #4
 1125 0092 8321     		movs	r1, #131
 1126 0094 2846     		mov	r0, r5
 1127 0096 FFF7FEFF 		bl	VL53L0X_WrByte
 1128              	.LVL147:
 1129              		.loc 1 250 0
 1130 009a 4FFA89F9 		sxtb	r9, r9
 1131              	.LVL148:
 1132              		.loc 1 252 0
 1133 009e 0722     		movs	r2, #7
 1134              		.loc 1 251 0
 1135 00a0 49EA0009 		orr	r9, r9, r0
 1136              	.LVL149:
 1137              		.loc 1 252 0
 1138 00a4 FF21     		movs	r1, #255
 1139 00a6 2846     		mov	r0, r5
 1140 00a8 FFF7FEFF 		bl	VL53L0X_WrByte
ARM GAS  /var/folders/d2/nstgp4h54kz7g1l847x_b8wc0000gn/T//cc2apEbl.s 			page 21


 1141              	.LVL150:
 1142              		.loc 1 251 0
 1143 00ac 4FFA89F9 		sxtb	r9, r9
 1144              	.LVL151:
 1145              		.loc 1 253 0
 1146 00b0 0122     		movs	r2, #1
 1147 00b2 8121     		movs	r1, #129
 1148              		.loc 1 252 0
 1149 00b4 49EA0009 		orr	r9, r9, r0
 1150              	.LVL152:
 1151              		.loc 1 253 0
 1152 00b8 2846     		mov	r0, r5
 1153 00ba FFF7FEFF 		bl	VL53L0X_WrByte
 1154              	.LVL153:
 1155              		.loc 1 252 0
 1156 00be 4FFA89F9 		sxtb	r9, r9
 1157              	.LVL154:
 1158              		.loc 1 253 0
 1159 00c2 49EA0009 		orr	r9, r9, r0
 1160              	.LVL155:
 1161              		.loc 1 255 0
 1162 00c6 2846     		mov	r0, r5
 1163 00c8 FFF7FEFF 		bl	VL53L0X_PollingDelay
 1164              	.LVL156:
 1165              		.loc 1 253 0
 1166 00cc 4FFA89F9 		sxtb	r9, r9
 1167              	.LVL157:
 1168              		.loc 1 255 0
 1169 00d0 49EA0009 		orr	r9, r9, r0
 1170              	.LVL158:
 1171              		.loc 1 257 0
 1172 00d4 0122     		movs	r2, #1
 1173 00d6 8021     		movs	r1, #128
 1174 00d8 2846     		mov	r0, r5
 1175 00da FFF7FEFF 		bl	VL53L0X_WrByte
 1176              	.LVL159:
 1177              		.loc 1 255 0
 1178 00de 4FFA89F9 		sxtb	r9, r9
 1179              	.LVL160:
 1180              		.loc 1 257 0
 1181 00e2 49EA0000 		orr	r0, r9, r0
 1182              		.loc 1 259 0
 1183 00e6 17F0010A 		ands	r10, r7, #1
 1184              		.loc 1 257 0
 1185 00ea 44B2     		sxtb	r4, r0
 1186              	.LVL161:
 1187              		.loc 1 259 0
 1188 00ec 13D0     		beq	.L127
 1189              		.loc 1 259 0 is_stmt 0 discriminator 1
 1190 00ee F307     		lsls	r3, r6, #31
 1191 00f0 40F1FE81 		bpl	.L146
 1192              		.loc 1 291 0 is_stmt 1
 1193 00f4 17F00203 		ands	r3, r7, #2
 1194              		.loc 1 219 0
 1195 00f8 CDE901BB 		strd	fp, fp, [sp, #4]
 1196              	.LVL162:
 1197              		.loc 1 291 0
ARM GAS  /var/folders/d2/nstgp4h54kz7g1l847x_b8wc0000gn/T//cc2apEbl.s 			page 22


 1198 00fc 0093     		str	r3, [sp]
 1199 00fe 10D1     		bne	.L147
 1200              	.L116:
 1201              		.loc 1 356 0
 1202 0100 17F0040B 		ands	fp, r7, #4
 1203 0104 00F0EA80 		beq	.L129
 1204              		.loc 1 356 0 is_stmt 0 discriminator 1
 1205 0108 7007     		lsls	r0, r6, #29
 1206 010a 40F16B81 		bpl	.L148
 1207              		.loc 1 227 0 is_stmt 1
 1208 010e 0023     		movs	r3, #0
 1209 0110 0393     		str	r3, [sp, #12]
 1210              		.loc 1 226 0
 1211 0112 9946     		mov	r9, r3
 1212 0114 E5E0     		b	.L117
 1213              	.LVL163:
 1214              	.L127:
 1215              		.loc 1 219 0
 1216 0116 CDE901AA 		strd	r10, r10, [sp, #4]
 1217              	.LVL164:
 1218              	.L115:
 1219              		.loc 1 291 0
 1220 011a 17F00203 		ands	r3, r7, #2
 1221 011e 0093     		str	r3, [sp]
 1222 0120 EED0     		beq	.L116
 1223              	.L147:
 1224              		.loc 1 291 0 is_stmt 0 discriminator 1
 1225 0122 16F00209 		ands	r9, r6, #2
 1226 0126 EBD1     		bne	.L116
 1227              		.loc 1 294 0 is_stmt 1
 1228 0128 0222     		movs	r2, #2
 1229 012a 9421     		movs	r1, #148
 1230 012c 2846     		mov	r0, r5
 1231 012e FFF7FEFF 		bl	VL53L0X_WrByte
 1232              	.LVL165:
 1233 0132 8346     		mov	fp, r0
 1234              	.LVL166:
 1235              		.loc 1 295 0
 1236 0134 2846     		mov	r0, r5
 1237 0136 FFF7FEFF 		bl	VL53L0X_device_read_strobe
 1238              	.LVL167:
 1239 013a 4BEA0000 		orr	r0, fp, r0
 1240 013e 0443     		orrs	r4, r4, r0
 1241              	.LVL168:
 1242              		.loc 1 296 0
 1243 0140 0DF11202 		add	r2, sp, #18
 1244 0144 9021     		movs	r1, #144
 1245 0146 2846     		mov	r0, r5
 1246 0148 FFF7FEFF 		bl	VL53L0X_RdByte
 1247              	.LVL169:
 1248              		.loc 1 295 0
 1249 014c 64B2     		sxtb	r4, r4
 1250              	.LVL170:
 1251              		.loc 1 298 0
 1252 014e 7B22     		movs	r2, #123
 1253 0150 9421     		movs	r1, #148
 1254              		.loc 1 296 0
ARM GAS  /var/folders/d2/nstgp4h54kz7g1l847x_b8wc0000gn/T//cc2apEbl.s 			page 23


 1255 0152 0443     		orrs	r4, r4, r0
 1256              	.LVL171:
 1257              		.loc 1 298 0
 1258 0154 2846     		mov	r0, r5
 1259 0156 FFF7FEFF 		bl	VL53L0X_WrByte
 1260              	.LVL172:
 1261              		.loc 1 296 0
 1262 015a 64B2     		sxtb	r4, r4
 1263              	.LVL173:
 1264              		.loc 1 298 0
 1265 015c 0443     		orrs	r4, r4, r0
 1266              	.LVL174:
 1267              		.loc 1 299 0
 1268 015e 2846     		mov	r0, r5
 1269 0160 FFF7FEFF 		bl	VL53L0X_device_read_strobe
 1270              	.LVL175:
 1271              		.loc 1 298 0
 1272 0164 64B2     		sxtb	r4, r4
 1273              	.LVL176:
 1274              		.loc 1 300 0
 1275 0166 0DF11302 		add	r2, sp, #19
 1276              		.loc 1 299 0
 1277 016a 0443     		orrs	r4, r4, r0
 1278              	.LVL177:
 1279              		.loc 1 300 0
 1280 016c 9021     		movs	r1, #144
 1281 016e 2846     		mov	r0, r5
 1282 0170 FFF7FEFF 		bl	VL53L0X_RdByte
 1283              	.LVL178:
 1284              		.loc 1 299 0
 1285 0174 64B2     		sxtb	r4, r4
 1286              	.LVL179:
 1287              		.loc 1 302 0
 1288 0176 7722     		movs	r2, #119
 1289 0178 9421     		movs	r1, #148
 1290              		.loc 1 300 0
 1291 017a 0443     		orrs	r4, r4, r0
 1292              	.LVL180:
 1293              		.loc 1 302 0
 1294 017c 2846     		mov	r0, r5
 1295 017e FFF7FEFF 		bl	VL53L0X_WrByte
 1296              	.LVL181:
 1297              		.loc 1 300 0
 1298 0182 64B2     		sxtb	r4, r4
 1299              	.LVL182:
 1300              		.loc 1 302 0
 1301 0184 0443     		orrs	r4, r4, r0
 1302              	.LVL183:
 1303              		.loc 1 303 0
 1304 0186 2846     		mov	r0, r5
 1305 0188 FFF7FEFF 		bl	VL53L0X_device_read_strobe
 1306              	.LVL184:
 1307              		.loc 1 302 0
 1308 018c 64B2     		sxtb	r4, r4
 1309              	.LVL185:
 1310              		.loc 1 303 0
 1311 018e 0443     		orrs	r4, r4, r0
ARM GAS  /var/folders/d2/nstgp4h54kz7g1l847x_b8wc0000gn/T//cc2apEbl.s 			page 24


 1312              	.LVL186:
 1313              		.loc 1 304 0
 1314 0190 05AA     		add	r2, sp, #20
 1315 0192 9021     		movs	r1, #144
 1316 0194 2846     		mov	r0, r5
 1317 0196 FFF7FEFF 		bl	VL53L0X_RdDWord
 1318              	.LVL187:
 1319              		.loc 1 306 0
 1320 019a 059B     		ldr	r3, [sp, #20]
 1321              		.loc 1 303 0
 1322 019c 64B2     		sxtb	r4, r4
 1323              	.LVL188:
 1324              		.loc 1 311 0
 1325 019e DA00     		lsls	r2, r3, #3
 1326              		.loc 1 307 0
 1327 01a0 C3F38641 		ubfx	r1, r3, #18, #7
 1328              		.loc 1 304 0
 1329 01a4 0443     		orrs	r4, r4, r0
 1330              	.LVL189:
 1331              		.loc 1 311 0
 1332 01a6 02F07802 		and	r2, r2, #120
 1333              		.loc 1 308 0
 1334 01aa C3F3C620 		ubfx	r0, r3, #11, #7
 1335              		.loc 1 306 0
 1336 01ae 4FEA536C 		lsr	ip, r3, #25
 1337              		.loc 1 311 0
 1338 01b2 8DF81120 		strb	r2, [sp, #17]
 1339              		.loc 1 309 0
 1340 01b6 C3F30613 		ubfx	r3, r3, #4, #7
 1341              		.loc 1 313 0
 1342 01ba 7822     		movs	r2, #120
 1343              		.loc 1 307 0
 1344 01bc 8DF82910 		strb	r1, [sp, #41]
 1345              		.loc 1 308 0
 1346 01c0 8DF82A00 		strb	r0, [sp, #42]
 1347              		.loc 1 313 0
 1348 01c4 9421     		movs	r1, #148
 1349 01c6 2846     		mov	r0, r5
 1350              		.loc 1 306 0
 1351 01c8 8DF828C0 		strb	ip, [sp, #40]
 1352              		.loc 1 309 0
 1353 01cc 8DF82B30 		strb	r3, [sp, #43]
 1354              		.loc 1 313 0
 1355 01d0 FFF7FEFF 		bl	VL53L0X_WrByte
 1356              	.LVL190:
 1357              		.loc 1 304 0
 1358 01d4 64B2     		sxtb	r4, r4
 1359              	.LVL191:
 1360              		.loc 1 313 0
 1361 01d6 0443     		orrs	r4, r4, r0
 1362              	.LVL192:
 1363              		.loc 1 314 0
 1364 01d8 2846     		mov	r0, r5
 1365 01da FFF7FEFF 		bl	VL53L0X_device_read_strobe
 1366              	.LVL193:
 1367              		.loc 1 313 0
 1368 01de 64B2     		sxtb	r4, r4
ARM GAS  /var/folders/d2/nstgp4h54kz7g1l847x_b8wc0000gn/T//cc2apEbl.s 			page 25


 1369              	.LVL194:
 1370              		.loc 1 315 0
 1371 01e0 05AA     		add	r2, sp, #20
 1372              		.loc 1 314 0
 1373 01e2 0443     		orrs	r4, r4, r0
 1374              	.LVL195:
 1375              		.loc 1 315 0
 1376 01e4 9021     		movs	r1, #144
 1377 01e6 2846     		mov	r0, r5
 1378 01e8 FFF7FEFF 		bl	VL53L0X_RdDWord
 1379              	.LVL196:
 1380              		.loc 1 318 0
 1381 01ec 059B     		ldr	r3, [sp, #20]
 1382              		.loc 1 317 0
 1383 01ee 9DF811C0 		ldrb	ip, [sp, #17]	@ zero_extendqisi2
 1384              		.loc 1 324 0
 1385 01f2 9901     		lsls	r1, r3, #6
 1386 01f4 01F04001 		and	r1, r1, #64
 1387              		.loc 1 314 0
 1388 01f8 64B2     		sxtb	r4, r4
 1389              	.LVL197:
 1390              		.loc 1 319 0
 1391 01fa C3F38652 		ubfx	r2, r3, #22, #7
 1392              		.loc 1 315 0
 1393 01fe 0443     		orrs	r4, r4, r0
 1394              	.LVL198:
 1395              		.loc 1 324 0
 1396 0200 8DF81110 		strb	r1, [sp, #17]
 1397              		.loc 1 321 0
 1398 0204 C3F30620 		ubfx	r0, r3, #8, #7
 1399              		.loc 1 320 0
 1400 0208 C3F3C631 		ubfx	r1, r3, #15, #7
 1401              		.loc 1 317 0
 1402 020c 0CEB537C 		add	ip, ip, r3, lsr #29
 1403              		.loc 1 319 0
 1404 0210 8DF82D20 		strb	r2, [sp, #45]
 1405              		.loc 1 322 0
 1406 0214 C3F34603 		ubfx	r3, r3, #1, #7
 1407              		.loc 1 326 0
 1408 0218 7922     		movs	r2, #121
 1409              		.loc 1 320 0
 1410 021a 8DF82E10 		strb	r1, [sp, #46]
 1411              		.loc 1 321 0
 1412 021e 8DF82F00 		strb	r0, [sp, #47]
 1413              		.loc 1 326 0
 1414 0222 9421     		movs	r1, #148
 1415 0224 2846     		mov	r0, r5
 1416              		.loc 1 317 0
 1417 0226 8DF82CC0 		strb	ip, [sp, #44]
 1418              		.loc 1 322 0
 1419 022a 8DF83030 		strb	r3, [sp, #48]
 1420              		.loc 1 326 0
 1421 022e FFF7FEFF 		bl	VL53L0X_WrByte
 1422              	.LVL199:
 1423              		.loc 1 315 0
 1424 0232 64B2     		sxtb	r4, r4
 1425              	.LVL200:
ARM GAS  /var/folders/d2/nstgp4h54kz7g1l847x_b8wc0000gn/T//cc2apEbl.s 			page 26


 1426              		.loc 1 326 0
 1427 0234 0443     		orrs	r4, r4, r0
 1428              	.LVL201:
 1429              		.loc 1 328 0
 1430 0236 2846     		mov	r0, r5
 1431 0238 FFF7FEFF 		bl	VL53L0X_device_read_strobe
 1432              	.LVL202:
 1433              		.loc 1 326 0
 1434 023c 64B2     		sxtb	r4, r4
 1435              	.LVL203:
 1436              		.loc 1 330 0
 1437 023e 05AA     		add	r2, sp, #20
 1438              		.loc 1 328 0
 1439 0240 0443     		orrs	r4, r4, r0
 1440              	.LVL204:
 1441              		.loc 1 330 0
 1442 0242 9021     		movs	r1, #144
 1443 0244 2846     		mov	r0, r5
 1444 0246 FFF7FEFF 		bl	VL53L0X_RdDWord
 1445              	.LVL205:
 1446              		.loc 1 333 0
 1447 024a 059B     		ldr	r3, [sp, #20]
 1448              		.loc 1 332 0
 1449 024c 9DF81120 		ldrb	r2, [sp, #17]	@ zero_extendqisi2
 1450              		.loc 1 328 0
 1451 0250 64B2     		sxtb	r4, r4
 1452              	.LVL206:
 1453              		.loc 1 332 0
 1454 0252 02EB9362 		add	r2, r2, r3, lsr #26
 1455              		.loc 1 334 0
 1456 0256 C3F3C641 		ubfx	r1, r3, #19, #7
 1457              		.loc 1 338 0
 1458 025a 4FEA830C 		lsl	ip, r3, #2
 1459              		.loc 1 330 0
 1460 025e 0443     		orrs	r4, r4, r0
 1461              	.LVL207:
 1462              		.loc 1 335 0
 1463 0260 C3F30630 		ubfx	r0, r3, #12, #7
 1464              		.loc 1 338 0
 1465 0264 0CF07C0C 		and	ip, ip, #124
 1466              		.loc 1 336 0
 1467 0268 C3F34613 		ubfx	r3, r3, #5, #7
 1468              		.loc 1 332 0
 1469 026c 8DF83120 		strb	r2, [sp, #49]
 1470              		.loc 1 334 0
 1471 0270 8DF83210 		strb	r1, [sp, #50]
 1472              		.loc 1 340 0
 1473 0274 7A22     		movs	r2, #122
 1474 0276 9421     		movs	r1, #148
 1475              		.loc 1 335 0
 1476 0278 8DF83300 		strb	r0, [sp, #51]
 1477              		.loc 1 340 0
 1478 027c 2846     		mov	r0, r5
 1479              		.loc 1 338 0
 1480 027e 8DF811C0 		strb	ip, [sp, #17]
 1481              		.loc 1 336 0
 1482 0282 8DF83430 		strb	r3, [sp, #52]
ARM GAS  /var/folders/d2/nstgp4h54kz7g1l847x_b8wc0000gn/T//cc2apEbl.s 			page 27


 1483              		.loc 1 340 0
 1484 0286 FFF7FEFF 		bl	VL53L0X_WrByte
 1485              	.LVL208:
 1486              		.loc 1 330 0
 1487 028a 64B2     		sxtb	r4, r4
 1488              	.LVL209:
 1489              		.loc 1 340 0
 1490 028c 0443     		orrs	r4, r4, r0
 1491              	.LVL210:
 1492              		.loc 1 342 0
 1493 028e 2846     		mov	r0, r5
 1494 0290 FFF7FEFF 		bl	VL53L0X_device_read_strobe
 1495              	.LVL211:
 1496              		.loc 1 340 0
 1497 0294 64B2     		sxtb	r4, r4
 1498              	.LVL212:
 1499              		.loc 1 344 0
 1500 0296 05AA     		add	r2, sp, #20
 1501              		.loc 1 342 0
 1502 0298 0443     		orrs	r4, r4, r0
 1503              	.LVL213:
 1504              		.loc 1 344 0
 1505 029a 9021     		movs	r1, #144
 1506 029c 2846     		mov	r0, r5
 1507 029e FFF7FEFF 		bl	VL53L0X_RdDWord
 1508              	.LVL214:
 1509              		.loc 1 347 0
 1510 02a2 059B     		ldr	r3, [sp, #20]
 1511              		.loc 1 346 0
 1512 02a4 9DF81120 		ldrb	r2, [sp, #17]	@ zero_extendqisi2
 1513              		.loc 1 352 0
 1514 02a8 8DF83A90 		strb	r9, [sp, #58]
 1515              		.loc 1 342 0
 1516 02ac 64B2     		sxtb	r4, r4
 1517              	.LVL215:
 1518              		.loc 1 346 0
 1519 02ae 02EB9372 		add	r2, r2, r3, lsr #30
 1520              		.loc 1 348 0
 1521 02b2 C3F3C65E 		ubfx	lr, r3, #23, #7
 1522              		.loc 1 349 0
 1523 02b6 C3F3064C 		ubfx	ip, r3, #16, #7
 1524              		.loc 1 350 0
 1525 02ba C3F34621 		ubfx	r1, r3, #9, #7
 1526              		.loc 1 344 0
 1527 02be 0443     		orrs	r4, r4, r0
 1528              	.LVL216:
 1529              		.loc 1 351 0
 1530 02c0 C3F38603 		ubfx	r3, r3, #2, #7
 1531              		.loc 1 344 0
 1532 02c4 64B2     		sxtb	r4, r4
 1533              	.LVL217:
 1534              		.loc 1 346 0
 1535 02c6 8DF83520 		strb	r2, [sp, #53]
 1536              		.loc 1 348 0
 1537 02ca 8DF836E0 		strb	lr, [sp, #54]
 1538              		.loc 1 349 0
 1539 02ce 8DF837C0 		strb	ip, [sp, #55]
ARM GAS  /var/folders/d2/nstgp4h54kz7g1l847x_b8wc0000gn/T//cc2apEbl.s 			page 28


 1540              		.loc 1 350 0
 1541 02d2 8DF83810 		strb	r1, [sp, #56]
 1542              		.loc 1 351 0
 1543 02d6 8DF83930 		strb	r3, [sp, #57]
 1544 02da 11E7     		b	.L116
 1545              	.L129:
 1546              		.loc 1 227 0
 1547 02dc CDF80CB0 		str	fp, [sp, #12]
 1548              		.loc 1 226 0
 1549 02e0 D946     		mov	r9, fp
 1550              	.LVL218:
 1551              	.L117:
 1552              		.loc 1 396 0
 1553 02e2 0022     		movs	r2, #0
 1554 02e4 8121     		movs	r1, #129
 1555 02e6 2846     		mov	r0, r5
 1556 02e8 FFF7FEFF 		bl	VL53L0X_WrByte
 1557              	.LVL219:
 1558              		.loc 1 397 0
 1559 02ec 0622     		movs	r2, #6
 1560              		.loc 1 396 0
 1561 02ee 0443     		orrs	r4, r4, r0
 1562              	.LVL220:
 1563              		.loc 1 397 0
 1564 02f0 FF21     		movs	r1, #255
 1565 02f2 2846     		mov	r0, r5
 1566 02f4 FFF7FEFF 		bl	VL53L0X_WrByte
 1567              	.LVL221:
 1568              		.loc 1 396 0
 1569 02f8 64B2     		sxtb	r4, r4
 1570              	.LVL222:
 1571              		.loc 1 398 0
 1572 02fa 0DF11102 		add	r2, sp, #17
 1573              		.loc 1 397 0
 1574 02fe 0443     		orrs	r4, r4, r0
 1575              	.LVL223:
 1576              		.loc 1 398 0
 1577 0300 8321     		movs	r1, #131
 1578 0302 2846     		mov	r0, r5
 1579 0304 FFF7FEFF 		bl	VL53L0X_RdByte
 1580              	.LVL224:
 1581              		.loc 1 399 0
 1582 0308 9DF81120 		ldrb	r2, [sp, #17]	@ zero_extendqisi2
 1583              		.loc 1 397 0
 1584 030c 64B2     		sxtb	r4, r4
 1585              	.LVL225:
 1586              		.loc 1 398 0
 1587 030e 0443     		orrs	r4, r4, r0
 1588              	.LVL226:
 1589              		.loc 1 399 0
 1590 0310 02F0FB02 		and	r2, r2, #251
 1591 0314 8321     		movs	r1, #131
 1592 0316 2846     		mov	r0, r5
 1593 0318 FFF7FEFF 		bl	VL53L0X_WrByte
 1594              	.LVL227:
 1595              		.loc 1 398 0
 1596 031c 64B2     		sxtb	r4, r4
ARM GAS  /var/folders/d2/nstgp4h54kz7g1l847x_b8wc0000gn/T//cc2apEbl.s 			page 29


 1597              	.LVL228:
 1598              		.loc 1 400 0
 1599 031e 0122     		movs	r2, #1
 1600              		.loc 1 399 0
 1601 0320 0443     		orrs	r4, r4, r0
 1602              	.LVL229:
 1603              		.loc 1 400 0
 1604 0322 FF21     		movs	r1, #255
 1605 0324 2846     		mov	r0, r5
 1606 0326 FFF7FEFF 		bl	VL53L0X_WrByte
 1607              	.LVL230:
 1608              		.loc 1 399 0
 1609 032a 64B2     		sxtb	r4, r4
 1610              	.LVL231:
 1611              		.loc 1 401 0
 1612 032c 0122     		movs	r2, #1
 1613              		.loc 1 400 0
 1614 032e 0443     		orrs	r4, r4, r0
 1615              	.LVL232:
 1616              		.loc 1 401 0
 1617 0330 0021     		movs	r1, #0
 1618 0332 2846     		mov	r0, r5
 1619 0334 FFF7FEFF 		bl	VL53L0X_WrByte
 1620              	.LVL233:
 1621              		.loc 1 400 0
 1622 0338 64B2     		sxtb	r4, r4
 1623              	.LVL234:
 1624              		.loc 1 403 0
 1625 033a 0022     		movs	r2, #0
 1626              		.loc 1 401 0
 1627 033c 0443     		orrs	r4, r4, r0
 1628              	.LVL235:
 1629              		.loc 1 403 0
 1630 033e FF21     		movs	r1, #255
 1631 0340 2846     		mov	r0, r5
 1632 0342 FFF7FEFF 		bl	VL53L0X_WrByte
 1633              	.LVL236:
 1634              		.loc 1 401 0
 1635 0346 64B2     		sxtb	r4, r4
 1636              	.LVL237:
 1637              		.loc 1 403 0
 1638 0348 0443     		orrs	r4, r4, r0
 1639              	.LVL238:
 1640              		.loc 1 404 0
 1641 034a 0022     		movs	r2, #0
 1642 034c 8021     		movs	r1, #128
 1643 034e 2846     		mov	r0, r5
 1644 0350 FFF7FEFF 		bl	VL53L0X_WrByte
 1645              	.LVL239:
 1646              		.loc 1 403 0
 1647 0354 64B2     		sxtb	r4, r4
 1648              	.LVL240:
 1649              		.loc 1 404 0
 1650 0356 0443     		orrs	r4, r4, r0
 1651              	.LVL241:
 1652 0358 64B2     		sxtb	r4, r4
 1653              	.LVL242:
ARM GAS  /var/folders/d2/nstgp4h54kz7g1l847x_b8wc0000gn/T//cc2apEbl.s 			page 30


 1654              		.loc 1 407 0
 1655 035a 002C     		cmp	r4, #0
 1656 035c 7FF461AE 		bne	.L114
 1657              		.loc 1 410 0
 1658 0360 BAF1000F 		cmp	r10, #0
 1659 0364 14D0     		beq	.L119
 1660              		.loc 1 410 0 is_stmt 0 discriminator 1
 1661 0366 F107     		lsls	r1, r6, #31
 1662 0368 12D4     		bmi	.L119
 1663              		.loc 1 412 0 is_stmt 1
 1664 036a 9DF80430 		ldrb	r3, [sp, #4]	@ zero_extendqisi2
 1665 036e 85F81331 		strb	r3, [r5, #275]
 1666              		.loc 1 415 0
 1667 0372 9DF80830 		ldrb	r3, [sp, #8]	@ zero_extendqisi2
 1668 0376 85F81431 		strb	r3, [r5, #276]
 1669              	.LVL243:
 1670 037a 08A9     		add	r1, sp, #32
 1671 037c 05F59572 		add	r2, r5, #298
 1672 0380 05F5987C 		add	ip, r5, #304
 1673              	.LVL244:
 1674              	.L120:
 1675              		.loc 1 420 0 discriminator 3
 1676 0384 11F8013B 		ldrb	r3, [r1], #1	@ zero_extendqisi2
 1677              	.LVL245:
 1678              		.loc 1 419 0 discriminator 3
 1679 0388 02F8013B 		strb	r3, [r2], #1
 1680              	.LVL246:
 1681              		.loc 1 418 0 discriminator 3
 1682 038c 6245     		cmp	r2, ip
 1683 038e F9D1     		bne	.L120
 1684              	.LVL247:
 1685              	.L119:
 1686              		.loc 1 424 0
 1687 0390 009B     		ldr	r3, [sp]
 1688 0392 73B1     		cbz	r3, .L121
 1689              		.loc 1 424 0 is_stmt 0 discriminator 1
 1690 0394 B207     		lsls	r2, r6, #30
 1691 0396 0CD4     		bmi	.L121
 1692              		.loc 1 426 0 is_stmt 1
 1693 0398 9DF81210 		ldrb	r1, [sp, #18]	@ zero_extendqisi2
 1694              		.loc 1 429 0
 1695 039c 9DF81320 		ldrb	r2, [sp, #19]	@ zero_extendqisi2
 1696              		.loc 1 426 0
 1697 03a0 85F8F110 		strb	r1, [r5, #241]
 1698              		.loc 1 429 0
 1699 03a4 85F8F220 		strb	r2, [r5, #242]
 1700              	.LVL248:
 1701              		.loc 1 434 0
 1702 03a8 0AA9     		add	r1, sp, #40
 1703 03aa 05F1F300 		add	r0, r5, #243
 1704              	.LVL249:
 1705 03ae FFF7FEFF 		bl	strcpy
 1706              	.LVL250:
 1707              	.L121:
 1708              		.loc 1 438 0
 1709 03b2 BBF1000F 		cmp	fp, #0
 1710 03b6 11D0     		beq	.L122
ARM GAS  /var/folders/d2/nstgp4h54kz7g1l847x_b8wc0000gn/T//cc2apEbl.s 			page 31


 1711              		.loc 1 438 0 is_stmt 0 discriminator 1
 1712 03b8 7307     		lsls	r3, r6, #29
 1713 03ba 0FD4     		bmi	.L122
 1714              		.loc 1 446 0 is_stmt 1
 1715 03bc 039B     		ldr	r3, [sp, #12]
 1716              		.loc 1 440 0
 1717 03be 069A     		ldr	r2, [sp, #24]
 1718 03c0 C5F81821 		str	r2, [r5, #280]
 1719              		.loc 1 446 0
 1720 03c4 5B02     		lsls	r3, r3, #9
 1721              		.loc 1 450 0
 1722 03c6 C5F82031 		str	r3, [r5, #288]
 1723              		.loc 1 443 0
 1724 03ca 079B     		ldr	r3, [sp, #28]
 1725 03cc C5F81C31 		str	r3, [r5, #284]
 1726              	.LVL251:
 1727              		.loc 1 455 0
 1728 03d0 B9F1000F 		cmp	r9, #0
 1729 03d4 40F0E380 		bne	.L149
 1730 03d8 4B46     		mov	r3, r9
 1731              	.LVL252:
 1732              	.L123:
 1733              		.loc 1 464 0
 1734 03da EB60     		str	r3, [r5, #12]
 1735              	.LVL253:
 1736              	.L122:
 1737              		.loc 1 468 0
 1738 03dc 3E43     		orrs	r6, r6, r7
 1739              	.LVL254:
 1740              		.loc 1 469 0
 1741 03de 85F8F060 		strb	r6, [r5, #240]
 1742 03e2 1EE6     		b	.L114
 1743              	.LVL255:
 1744              	.L148:
 1745              		.loc 1 359 0
 1746 03e4 7B22     		movs	r2, #123
 1747 03e6 9421     		movs	r1, #148
 1748 03e8 2846     		mov	r0, r5
 1749 03ea FFF7FEFF 		bl	VL53L0X_WrByte
 1750              	.LVL256:
 1751 03ee 8146     		mov	r9, r0
 1752              	.LVL257:
 1753              		.loc 1 360 0
 1754 03f0 2846     		mov	r0, r5
 1755 03f2 FFF7FEFF 		bl	VL53L0X_device_read_strobe
 1756              	.LVL258:
 1757 03f6 49EA0000 		orr	r0, r9, r0
 1758 03fa 0443     		orrs	r4, r4, r0
 1759              	.LVL259:
 1760              		.loc 1 361 0
 1761 03fc 06AA     		add	r2, sp, #24
 1762 03fe 9021     		movs	r1, #144
 1763 0400 2846     		mov	r0, r5
 1764 0402 FFF7FEFF 		bl	VL53L0X_RdDWord
 1765              	.LVL260:
 1766              		.loc 1 360 0
 1767 0406 64B2     		sxtb	r4, r4
ARM GAS  /var/folders/d2/nstgp4h54kz7g1l847x_b8wc0000gn/T//cc2apEbl.s 			page 32


 1768              	.LVL261:
 1769              		.loc 1 363 0
 1770 0408 7C22     		movs	r2, #124
 1771 040a 9421     		movs	r1, #148
 1772              		.loc 1 361 0
 1773 040c 0443     		orrs	r4, r4, r0
 1774              	.LVL262:
 1775              		.loc 1 363 0
 1776 040e 2846     		mov	r0, r5
 1777 0410 FFF7FEFF 		bl	VL53L0X_WrByte
 1778              	.LVL263:
 1779              		.loc 1 361 0
 1780 0414 64B2     		sxtb	r4, r4
 1781              	.LVL264:
 1782              		.loc 1 363 0
 1783 0416 0443     		orrs	r4, r4, r0
 1784              	.LVL265:
 1785              		.loc 1 364 0
 1786 0418 2846     		mov	r0, r5
 1787 041a FFF7FEFF 		bl	VL53L0X_device_read_strobe
 1788              	.LVL266:
 1789              		.loc 1 363 0
 1790 041e 64B2     		sxtb	r4, r4
 1791              	.LVL267:
 1792              		.loc 1 365 0
 1793 0420 07AA     		add	r2, sp, #28
 1794              		.loc 1 364 0
 1795 0422 0443     		orrs	r4, r4, r0
 1796              	.LVL268:
 1797              		.loc 1 365 0
 1798 0424 9021     		movs	r1, #144
 1799 0426 2846     		mov	r0, r5
 1800 0428 FFF7FEFF 		bl	VL53L0X_RdDWord
 1801              	.LVL269:
 1802              		.loc 1 364 0
 1803 042c 64B2     		sxtb	r4, r4
 1804              	.LVL270:
 1805              		.loc 1 367 0
 1806 042e 7322     		movs	r2, #115
 1807 0430 9421     		movs	r1, #148
 1808              		.loc 1 365 0
 1809 0432 0443     		orrs	r4, r4, r0
 1810              	.LVL271:
 1811              		.loc 1 367 0
 1812 0434 2846     		mov	r0, r5
 1813 0436 FFF7FEFF 		bl	VL53L0X_WrByte
 1814              	.LVL272:
 1815              		.loc 1 365 0
 1816 043a 64B2     		sxtb	r4, r4
 1817              	.LVL273:
 1818              		.loc 1 367 0
 1819 043c 0443     		orrs	r4, r4, r0
 1820              	.LVL274:
 1821              		.loc 1 368 0
 1822 043e 2846     		mov	r0, r5
 1823 0440 FFF7FEFF 		bl	VL53L0X_device_read_strobe
 1824              	.LVL275:
ARM GAS  /var/folders/d2/nstgp4h54kz7g1l847x_b8wc0000gn/T//cc2apEbl.s 			page 33


 1825              		.loc 1 367 0
 1826 0444 64B2     		sxtb	r4, r4
 1827              	.LVL276:
 1828              		.loc 1 368 0
 1829 0446 0443     		orrs	r4, r4, r0
 1830              	.LVL277:
 1831              		.loc 1 369 0
 1832 0448 05AA     		add	r2, sp, #20
 1833 044a 9021     		movs	r1, #144
 1834 044c 2846     		mov	r0, r5
 1835 044e FFF7FEFF 		bl	VL53L0X_RdDWord
 1836              	.LVL278:
 1837              		.loc 1 372 0
 1838 0452 059A     		ldr	r2, [sp, #20]
 1839              		.loc 1 368 0
 1840 0454 64B2     		sxtb	r4, r4
 1841              	.LVL279:
 1842              		.loc 1 372 0
 1843 0456 1302     		lsls	r3, r2, #8
 1844              		.loc 1 374 0
 1845 0458 9421     		movs	r1, #148
 1846 045a 7422     		movs	r2, #116
 1847              		.loc 1 369 0
 1848 045c 0443     		orrs	r4, r4, r0
 1849              	.LVL280:
 1850              		.loc 1 374 0
 1851 045e 2846     		mov	r0, r5
 1852              		.loc 1 371 0
 1853 0460 1FFA83F9 		uxth	r9, r3
 1854              		.loc 1 374 0
 1855 0464 FFF7FEFF 		bl	VL53L0X_WrByte
 1856              	.LVL281:
 1857              		.loc 1 369 0
 1858 0468 64B2     		sxtb	r4, r4
 1859              	.LVL282:
 1860              		.loc 1 374 0
 1861 046a 0443     		orrs	r4, r4, r0
 1862              	.LVL283:
 1863              		.loc 1 375 0
 1864 046c 2846     		mov	r0, r5
 1865 046e FFF7FEFF 		bl	VL53L0X_device_read_strobe
 1866              	.LVL284:
 1867              		.loc 1 374 0
 1868 0472 64B2     		sxtb	r4, r4
 1869              	.LVL285:
 1870              		.loc 1 376 0
 1871 0474 05AA     		add	r2, sp, #20
 1872              		.loc 1 375 0
 1873 0476 0443     		orrs	r4, r4, r0
 1874              	.LVL286:
 1875              		.loc 1 376 0
 1876 0478 9021     		movs	r1, #144
 1877 047a 2846     		mov	r0, r5
 1878 047c FFF7FEFF 		bl	VL53L0X_RdDWord
 1879              	.LVL287:
 1880              		.loc 1 379 0
 1881 0480 9DF81730 		ldrb	r3, [sp, #23]	@ zero_extendqisi2
ARM GAS  /var/folders/d2/nstgp4h54kz7g1l847x_b8wc0000gn/T//cc2apEbl.s 			page 34


 1882              		.loc 1 375 0
 1883 0484 64B2     		sxtb	r4, r4
 1884              	.LVL288:
 1885              		.loc 1 378 0
 1886 0486 43EA0903 		orr	r3, r3, r9
 1887              		.loc 1 381 0
 1888 048a 7522     		movs	r2, #117
 1889 048c 9421     		movs	r1, #148
 1890              		.loc 1 376 0
 1891 048e 0443     		orrs	r4, r4, r0
 1892              	.LVL289:
 1893              		.loc 1 381 0
 1894 0490 2846     		mov	r0, r5
 1895              		.loc 1 378 0
 1896 0492 0393     		str	r3, [sp, #12]
 1897              		.loc 1 381 0
 1898 0494 FFF7FEFF 		bl	VL53L0X_WrByte
 1899              	.LVL290:
 1900              		.loc 1 376 0
 1901 0498 64B2     		sxtb	r4, r4
 1902              	.LVL291:
 1903              		.loc 1 381 0
 1904 049a 0443     		orrs	r4, r4, r0
 1905              	.LVL292:
 1906              		.loc 1 382 0
 1907 049c 2846     		mov	r0, r5
 1908 049e FFF7FEFF 		bl	VL53L0X_device_read_strobe
 1909              	.LVL293:
 1910              		.loc 1 381 0
 1911 04a2 64B2     		sxtb	r4, r4
 1912              	.LVL294:
 1913              		.loc 1 383 0
 1914 04a4 05AA     		add	r2, sp, #20
 1915              		.loc 1 382 0
 1916 04a6 0443     		orrs	r4, r4, r0
 1917              	.LVL295:
 1918              		.loc 1 383 0
 1919 04a8 9021     		movs	r1, #144
 1920 04aa 2846     		mov	r0, r5
 1921 04ac FFF7FEFF 		bl	VL53L0X_RdDWord
 1922              	.LVL296:
 1923              		.loc 1 386 0
 1924 04b0 059A     		ldr	r2, [sp, #20]
 1925              		.loc 1 382 0
 1926 04b2 64B2     		sxtb	r4, r4
 1927              	.LVL297:
 1928              		.loc 1 388 0
 1929 04b4 9421     		movs	r1, #148
 1930              		.loc 1 383 0
 1931 04b6 0443     		orrs	r4, r4, r0
 1932              	.LVL298:
 1933              		.loc 1 386 0
 1934 04b8 4FEA0229 		lsl	r9, r2, #8
 1935              		.loc 1 388 0
 1936 04bc 2846     		mov	r0, r5
 1937 04be 7622     		movs	r2, #118
 1938 04c0 FFF7FEFF 		bl	VL53L0X_WrByte
ARM GAS  /var/folders/d2/nstgp4h54kz7g1l847x_b8wc0000gn/T//cc2apEbl.s 			page 35


 1939              	.LVL299:
 1940              		.loc 1 383 0
 1941 04c4 64B2     		sxtb	r4, r4
 1942              	.LVL300:
 1943              		.loc 1 388 0
 1944 04c6 0443     		orrs	r4, r4, r0
 1945              	.LVL301:
 1946              		.loc 1 389 0
 1947 04c8 2846     		mov	r0, r5
 1948 04ca FFF7FEFF 		bl	VL53L0X_device_read_strobe
 1949              	.LVL302:
 1950              		.loc 1 388 0
 1951 04ce 64B2     		sxtb	r4, r4
 1952              		.loc 1 390 0
 1953 04d0 05AA     		add	r2, sp, #20
 1954              		.loc 1 389 0
 1955 04d2 0443     		orrs	r4, r4, r0
 1956              		.loc 1 390 0
 1957 04d4 9021     		movs	r1, #144
 1958 04d6 2846     		mov	r0, r5
 1959 04d8 FFF7FEFF 		bl	VL53L0X_RdDWord
 1960              	.LVL303:
 1961              		.loc 1 389 0
 1962 04dc 64B2     		sxtb	r4, r4
 1963              		.loc 1 393 0
 1964 04de 9DF81720 		ldrb	r2, [sp, #23]	@ zero_extendqisi2
 1965              		.loc 1 385 0
 1966 04e2 1FFA89F9 		uxth	r9, r9
 1967              	.LVL304:
 1968              		.loc 1 390 0
 1969 04e6 0443     		orrs	r4, r4, r0
 1970              	.LVL305:
 1971 04e8 64B2     		sxtb	r4, r4
 1972              	.LVL306:
 1973              		.loc 1 392 0
 1974 04ea 42EA0909 		orr	r9, r2, r9
 1975              	.LVL307:
 1976 04ee F8E6     		b	.L117
 1977              	.LVL308:
 1978              	.L146:
 1979              		.loc 1 261 0
 1980 04f0 6B22     		movs	r2, #107
 1981 04f2 9421     		movs	r1, #148
 1982 04f4 2846     		mov	r0, r5
 1983 04f6 FFF7FEFF 		bl	VL53L0X_WrByte
 1984              	.LVL309:
 1985 04fa 8146     		mov	r9, r0
 1986              	.LVL310:
 1987              		.loc 1 262 0
 1988 04fc 2846     		mov	r0, r5
 1989 04fe FFF7FEFF 		bl	VL53L0X_device_read_strobe
 1990              	.LVL311:
 1991 0502 49EA0000 		orr	r0, r9, r0
 1992 0506 0443     		orrs	r4, r4, r0
 1993              	.LVL312:
 1994              		.loc 1 263 0
 1995 0508 05AA     		add	r2, sp, #20
ARM GAS  /var/folders/d2/nstgp4h54kz7g1l847x_b8wc0000gn/T//cc2apEbl.s 			page 36


 1996 050a 9021     		movs	r1, #144
 1997 050c 2846     		mov	r0, r5
 1998 050e FFF7FEFF 		bl	VL53L0X_RdDWord
 1999              	.LVL313:
 2000              		.loc 1 265 0
 2001 0512 DDF814C0 		ldr	ip, [sp, #20]
 2002              		.loc 1 262 0
 2003 0516 64B2     		sxtb	r4, r4
 2004              	.LVL314:
 2005              		.loc 1 265 0
 2006 0518 CCF30623 		ubfx	r3, ip, #8, #7
 2007              		.loc 1 268 0
 2008 051c 2422     		movs	r2, #36
 2009 051e 9421     		movs	r1, #148
 2010              		.loc 1 263 0
 2011 0520 0443     		orrs	r4, r4, r0
 2012              	.LVL315:
 2013              		.loc 1 265 0
 2014 0522 0193     		str	r3, [sp, #4]
 2015              		.loc 1 268 0
 2016 0524 2846     		mov	r0, r5
 2017              		.loc 1 266 0
 2018 0526 CCF3C033 		ubfx	r3, ip, #15, #1
 2019 052a 0293     		str	r3, [sp, #8]
 2020              		.loc 1 268 0
 2021 052c FFF7FEFF 		bl	VL53L0X_WrByte
 2022              	.LVL316:
 2023              		.loc 1 263 0
 2024 0530 64B2     		sxtb	r4, r4
 2025              	.LVL317:
 2026              		.loc 1 268 0
 2027 0532 0443     		orrs	r4, r4, r0
 2028              	.LVL318:
 2029              		.loc 1 269 0
 2030 0534 2846     		mov	r0, r5
 2031 0536 FFF7FEFF 		bl	VL53L0X_device_read_strobe
 2032              	.LVL319:
 2033              		.loc 1 268 0
 2034 053a 64B2     		sxtb	r4, r4
 2035              	.LVL320:
 2036              		.loc 1 270 0
 2037 053c 05AA     		add	r2, sp, #20
 2038              		.loc 1 269 0
 2039 053e 0443     		orrs	r4, r4, r0
 2040              	.LVL321:
 2041              		.loc 1 270 0
 2042 0540 9021     		movs	r1, #144
 2043 0542 2846     		mov	r0, r5
 2044 0544 FFF7FEFF 		bl	VL53L0X_RdDWord
 2045              	.LVL322:
 2046              		.loc 1 273 0
 2047 0548 059B     		ldr	r3, [sp, #20]
 2048              		.loc 1 279 0
 2049 054a 8DF82330 		strb	r3, [sp, #35]
 2050              		.loc 1 273 0
 2051 054e 190E     		lsrs	r1, r3, #24
 2052              		.loc 1 269 0
ARM GAS  /var/folders/d2/nstgp4h54kz7g1l847x_b8wc0000gn/T//cc2apEbl.s 			page 37


 2053 0550 64B2     		sxtb	r4, r4
 2054              	.LVL323:
 2055              		.loc 1 275 0
 2056 0552 4FEA134C 		lsr	ip, r3, #16
 2057              		.loc 1 281 0
 2058 0556 2522     		movs	r2, #37
 2059              		.loc 1 277 0
 2060 0558 1B0A     		lsrs	r3, r3, #8
 2061              		.loc 1 270 0
 2062 055a 0443     		orrs	r4, r4, r0
 2063              	.LVL324:
 2064              		.loc 1 273 0
 2065 055c 8DF82010 		strb	r1, [sp, #32]
 2066              		.loc 1 281 0
 2067 0560 2846     		mov	r0, r5
 2068 0562 9421     		movs	r1, #148
 2069              		.loc 1 277 0
 2070 0564 8DF82230 		strb	r3, [sp, #34]
 2071              		.loc 1 275 0
 2072 0568 8DF821C0 		strb	ip, [sp, #33]
 2073              		.loc 1 281 0
 2074 056c FFF7FEFF 		bl	VL53L0X_WrByte
 2075              	.LVL325:
 2076              		.loc 1 270 0
 2077 0570 64B2     		sxtb	r4, r4
 2078              	.LVL326:
 2079              		.loc 1 281 0
 2080 0572 0443     		orrs	r4, r4, r0
 2081              	.LVL327:
 2082              		.loc 1 282 0
 2083 0574 2846     		mov	r0, r5
 2084 0576 FFF7FEFF 		bl	VL53L0X_device_read_strobe
 2085              	.LVL328:
 2086              		.loc 1 281 0
 2087 057a 64B2     		sxtb	r4, r4
 2088              	.LVL329:
 2089              		.loc 1 283 0
 2090 057c 05AA     		add	r2, sp, #20
 2091              		.loc 1 282 0
 2092 057e 0443     		orrs	r4, r4, r0
 2093              	.LVL330:
 2094              		.loc 1 283 0
 2095 0580 9021     		movs	r1, #144
 2096 0582 2846     		mov	r0, r5
 2097 0584 FFF7FEFF 		bl	VL53L0X_RdDWord
 2098              	.LVL331:
 2099              		.loc 1 285 0
 2100 0588 059B     		ldr	r3, [sp, #20]
 2101              		.loc 1 282 0
 2102 058a 64B2     		sxtb	r4, r4
 2103              	.LVL332:
 2104              		.loc 1 285 0
 2105 058c 1A0E     		lsrs	r2, r3, #24
 2106              		.loc 1 283 0
 2107 058e 0443     		orrs	r4, r4, r0
 2108              	.LVL333:
 2109              		.loc 1 287 0
ARM GAS  /var/folders/d2/nstgp4h54kz7g1l847x_b8wc0000gn/T//cc2apEbl.s 			page 38


 2110 0590 1B0C     		lsrs	r3, r3, #16
 2111              		.loc 1 283 0
 2112 0592 64B2     		sxtb	r4, r4
 2113              	.LVL334:
 2114              		.loc 1 285 0
 2115 0594 8DF82420 		strb	r2, [sp, #36]
 2116              		.loc 1 287 0
 2117 0598 8DF82530 		strb	r3, [sp, #37]
 2118 059c BDE5     		b	.L115
 2119              	.LVL335:
 2120              	.L149:
 2121              		.loc 1 456 0
 2122 059e A9F5C853 		sub	r3, r9, #6400
 2123              	.LVL336:
 2124              		.loc 1 460 0
 2125 05a2 4FF47A79 		mov	r9, #1000
 2126              	.LVL337:
 2127 05a6 09FB03F9 		mul	r9, r9, r3
 2128 05aa 4FEA1919 		lsr	r9, r9, #4
 2129              		.loc 1 461 0
 2130 05ae C9F10009 		rsb	r9, r9, #0
 2131 05b2 0FFA89F3 		sxth	r3, r9
 2132              	.LVL338:
 2133 05b6 10E7     		b	.L123
 2134              	.LVL339:
 2135              	.L145:
 2136              		.loc 1 475 0
 2137 05b8 FFF7FEFF 		bl	__stack_chk_fail
 2138              	.LVL340:
 2139              	.L151:
 2140              		.align	2
 2141              	.L150:
 2142 05bc 00000000 		.word	__stack_chk_guard
 2143              		.cfi_endproc
 2144              	.LFE10:
 2145              		.size	VL53L0X_get_info_from_device, .-VL53L0X_get_info_from_device
 2146              		.section	.text.VL53L0X_calc_macro_period_ps,"ax",%progbits
 2147              		.align	1
 2148              		.p2align 4,,15
 2149              		.global	VL53L0X_calc_macro_period_ps
 2150              		.syntax unified
 2151              		.thumb
 2152              		.thumb_func
 2153              		.fpu fpv4-sp-d16
 2154              		.type	VL53L0X_calc_macro_period_ps, %function
 2155              	VL53L0X_calc_macro_period_ps:
 2156              	.LFB11:
 2157              		.loc 1 479 0
 2158              		.cfi_startproc
 2159              		@ args = 0, pretend = 0, frame = 8
 2160              		@ frame_needed = 0, uses_anonymous_args = 0
 2161              	.LVL341:
 2162 0000 00B5     		push	{lr}
 2163              		.cfi_def_cfa_offset 4
 2164              		.cfi_offset 14, -4
 2165 0002 084B     		ldr	r3, .L156
 2166              		.loc 1 493 0
ARM GAS  /var/folders/d2/nstgp4h54kz7g1l847x_b8wc0000gn/T//cc2apEbl.s 			page 39


 2167 0004 0848     		ldr	r0, .L156+4
 2168              	.LVL342:
 2169              		.loc 1 479 0
 2170 0006 1A68     		ldr	r2, [r3]
 2171 0008 83B0     		sub	sp, sp, #12
 2172              		.cfi_def_cfa_offset 16
 2173              		.loc 1 498 0
 2174 000a 00FB01F0 		mul	r0, r0, r1
 2175              		.loc 1 479 0
 2176 000e 0192     		str	r2, [sp, #4]
 2177              	.LVL343:
 2178              		.loc 1 498 0
 2179 0010 019A     		ldr	r2, [sp, #4]
 2180 0012 1B68     		ldr	r3, [r3]
 2181 0014 9A42     		cmp	r2, r3
 2182 0016 02D1     		bne	.L155
 2183 0018 03B0     		add	sp, sp, #12
 2184              		.cfi_remember_state
 2185              		.cfi_def_cfa_offset 4
 2186              		@ sp needed
 2187 001a 5DF804FB 		ldr	pc, [sp], #4
 2188              	.L155:
 2189              		.cfi_restore_state
 2190 001e FFF7FEFF 		bl	__stack_chk_fail
 2191              	.LVL344:
 2192              	.L157:
 2193 0022 00BF     		.align	2
 2194              	.L156:
 2195 0024 00000000 		.word	__stack_chk_guard
 2196 0028 002F3A00 		.word	3813120
 2197              		.cfi_endproc
 2198              	.LFE11:
 2199              		.size	VL53L0X_calc_macro_period_ps, .-VL53L0X_calc_macro_period_ps
 2200              		.section	.text.VL53L0X_encode_timeout,"ax",%progbits
 2201              		.align	1
 2202              		.p2align 4,,15
 2203              		.global	VL53L0X_encode_timeout
 2204              		.syntax unified
 2205              		.thumb
 2206              		.thumb_func
 2207              		.fpu fpv4-sp-d16
 2208              		.type	VL53L0X_encode_timeout, %function
 2209              	VL53L0X_encode_timeout:
 2210              	.LFB12:
 2211              		.loc 1 501 0
 2212              		.cfi_startproc
 2213              		@ args = 0, pretend = 0, frame = 8
 2214              		@ frame_needed = 0, uses_anonymous_args = 0
 2215              	.LVL345:
 2216 0000 00B5     		push	{lr}
 2217              		.cfi_def_cfa_offset 4
 2218              		.cfi_offset 14, -4
 2219 0002 0A4B     		ldr	r3, .L164
 2220 0004 83B0     		sub	sp, sp, #12
 2221              		.cfi_def_cfa_offset 16
 2222              		.loc 1 501 0
 2223 0006 1A68     		ldr	r2, [r3]
ARM GAS  /var/folders/d2/nstgp4h54kz7g1l847x_b8wc0000gn/T//cc2apEbl.s 			page 40


 2224 0008 0192     		str	r2, [sp, #4]
 2225              	.LVL346:
 2226 000a 019A     		ldr	r2, [sp, #4]
 2227 000c 1B68     		ldr	r3, [r3]
 2228              		.loc 1 510 0
 2229 000e 30B1     		cbz	r0, .L159
 2230 0010 9A42     		cmp	r2, r3
 2231 0012 09D1     		bne	.L163
 2232              		.loc 1 524 0
 2233 0014 03B0     		add	sp, sp, #12
 2234              		.cfi_remember_state
 2235              		.cfi_def_cfa_offset 4
 2236              		@ sp needed
 2237 0016 5DF804EB 		ldr	lr, [sp], #4
 2238              		.cfi_restore 14
 2239              		.cfi_def_cfa_offset 0
 2240 001a FFF7FEBF 		b	VL53L0X_encode_timeout.part.0
 2241              	.LVL347:
 2242              	.L159:
 2243              		.cfi_restore_state
 2244 001e 9A42     		cmp	r2, r3
 2245 0020 02D1     		bne	.L163
 2246 0022 03B0     		add	sp, sp, #12
 2247              		.cfi_remember_state
 2248              		.cfi_def_cfa_offset 4
 2249              		@ sp needed
 2250 0024 5DF804FB 		ldr	pc, [sp], #4
 2251              	.LVL348:
 2252              	.L163:
 2253              		.cfi_restore_state
 2254 0028 FFF7FEFF 		bl	__stack_chk_fail
 2255              	.LVL349:
 2256              	.L165:
 2257              		.align	2
 2258              	.L164:
 2259 002c 00000000 		.word	__stack_chk_guard
 2260              		.cfi_endproc
 2261              	.LFE12:
 2262              		.size	VL53L0X_encode_timeout, .-VL53L0X_encode_timeout
 2263              		.section	.text.VL53L0X_decode_timeout,"ax",%progbits
 2264              		.align	1
 2265              		.p2align 4,,15
 2266              		.global	VL53L0X_decode_timeout
 2267              		.syntax unified
 2268              		.thumb
 2269              		.thumb_func
 2270              		.fpu fpv4-sp-d16
 2271              		.type	VL53L0X_decode_timeout, %function
 2272              	VL53L0X_decode_timeout:
 2273              	.LFB13:
 2274              		.loc 1 527 0
 2275              		.cfi_startproc
 2276              		@ args = 0, pretend = 0, frame = 8
 2277              		@ frame_needed = 0, uses_anonymous_args = 0
 2278              	.LVL350:
 2279 0000 00B5     		push	{lr}
 2280              		.cfi_def_cfa_offset 4
ARM GAS  /var/folders/d2/nstgp4h54kz7g1l847x_b8wc0000gn/T//cc2apEbl.s 			page 41


 2281              		.cfi_offset 14, -4
 2282 0002 094B     		ldr	r3, .L170
 2283 0004 83B0     		sub	sp, sp, #12
 2284              		.cfi_def_cfa_offset 16
 2285              		.loc 1 527 0
 2286 0006 1A68     		ldr	r2, [r3]
 2287 0008 0192     		str	r2, [sp, #4]
 2288              	.LVL351:
 2289              		.loc 1 538 0
 2290 000a 0199     		ldr	r1, [sp, #4]
 2291 000c 1A68     		ldr	r2, [r3]
 2292              		.loc 1 534 0
 2293 000e C3B2     		uxtb	r3, r0
 2294              		.loc 1 538 0
 2295 0010 9142     		cmp	r1, r2
 2296              		.loc 1 535 0
 2297 0012 4FEA1020 		lsr	r0, r0, #8
 2298              	.LVL352:
 2299 0016 03FA00F0 		lsl	r0, r3, r0
 2300              		.loc 1 538 0
 2301 001a 03D1     		bne	.L169
 2302 001c 0130     		adds	r0, r0, #1
 2303 001e 03B0     		add	sp, sp, #12
 2304              		.cfi_remember_state
 2305              		.cfi_def_cfa_offset 4
 2306              		@ sp needed
 2307 0020 5DF804FB 		ldr	pc, [sp], #4
 2308              	.L169:
 2309              		.cfi_restore_state
 2310 0024 FFF7FEFF 		bl	__stack_chk_fail
 2311              	.LVL353:
 2312              	.L171:
 2313              		.align	2
 2314              	.L170:
 2315 0028 00000000 		.word	__stack_chk_guard
 2316              		.cfi_endproc
 2317              	.LFE13:
 2318              		.size	VL53L0X_decode_timeout, .-VL53L0X_decode_timeout
 2319              		.section	.text.VL53L0X_calc_timeout_mclks,"ax",%progbits
 2320              		.align	1
 2321              		.p2align 4,,15
 2322              		.global	VL53L0X_calc_timeout_mclks
 2323              		.syntax unified
 2324              		.thumb
 2325              		.thumb_func
 2326              		.fpu fpv4-sp-d16
 2327              		.type	VL53L0X_calc_timeout_mclks, %function
 2328              	VL53L0X_calc_timeout_mclks:
 2329              	.LFB14:
 2330              		.loc 1 545 0
 2331              		.cfi_startproc
 2332              		@ args = 0, pretend = 0, frame = 8
 2333              		@ frame_needed = 0, uses_anonymous_args = 0
 2334              	.LVL354:
 2335 0000 30B5     		push	{r4, r5, lr}
 2336              		.cfi_def_cfa_offset 12
 2337              		.cfi_offset 4, -12
ARM GAS  /var/folders/d2/nstgp4h54kz7g1l847x_b8wc0000gn/T//cc2apEbl.s 			page 42


 2338              		.cfi_offset 5, -8
 2339              		.cfi_offset 14, -4
 2340 0002 0E4C     		ldr	r4, .L176
 2341              	.LBB136:
 2342              	.LBB137:
 2343              		.loc 1 493 0
 2344 0004 0E4B     		ldr	r3, .L176+4
 2345              	.LBE137:
 2346              	.LBE136:
 2347              		.loc 1 545 0
 2348 0006 2068     		ldr	r0, [r4]
 2349              	.LVL355:
 2350              		.loc 1 555 0
 2351 0008 0E4D     		ldr	r5, .L176+8
 2352              		.loc 1 545 0
 2353 000a 83B0     		sub	sp, sp, #12
 2354              		.cfi_def_cfa_offset 24
 2355              		.loc 1 545 0
 2356 000c 0190     		str	r0, [sp, #4]
 2357              	.LVL356:
 2358              	.LBB139:
 2359              	.LBB138:
 2360              		.loc 1 493 0
 2361 000e 03FB02F0 		mul	r0, r3, r2
 2362              	.LBE138:
 2363              	.LBE139:
 2364              		.loc 1 551 0
 2365 0012 00F5FA70 		add	r0, r0, #500
 2366              	.LVL357:
 2367              		.loc 1 555 0
 2368 0016 A5FB0030 		umull	r3, r0, r5, r0
 2369              	.LVL358:
 2370              		.loc 1 558 0
 2371 001a 019D     		ldr	r5, [sp, #4]
 2372 001c 2268     		ldr	r2, [r4]
 2373              	.LVL359:
 2374              		.loc 1 554 0
 2375 001e 4FF47A73 		mov	r3, #1000
 2376              		.loc 1 555 0
 2377 0022 C409     		lsrs	r4, r0, #7
 2378              		.loc 1 558 0
 2379 0024 9542     		cmp	r5, r2
 2380              		.loc 1 551 0
 2381 0026 4FEA9010 		lsr	r0, r0, #6
 2382              		.loc 1 555 0
 2383 002a 03FB0141 		mla	r1, r3, r1, r4
 2384              	.LVL360:
 2385              		.loc 1 558 0
 2386 002e B1FBF0F0 		udiv	r0, r1, r0
 2387 0032 01D1     		bne	.L175
 2388 0034 03B0     		add	sp, sp, #12
 2389              		.cfi_remember_state
 2390              		.cfi_def_cfa_offset 12
 2391              		@ sp needed
 2392 0036 30BD     		pop	{r4, r5, pc}
 2393              	.L175:
 2394              		.cfi_restore_state
ARM GAS  /var/folders/d2/nstgp4h54kz7g1l847x_b8wc0000gn/T//cc2apEbl.s 			page 43


 2395 0038 FFF7FEFF 		bl	__stack_chk_fail
 2396              	.LVL361:
 2397              	.L177:
 2398              		.align	2
 2399              	.L176:
 2400 003c 00000000 		.word	__stack_chk_guard
 2401 0040 002F3A00 		.word	3813120
 2402 0044 D34D6210 		.word	274877907
 2403              		.cfi_endproc
 2404              	.LFE14:
 2405              		.size	VL53L0X_calc_timeout_mclks, .-VL53L0X_calc_timeout_mclks
 2406              		.section	.text.VL53L0X_calc_timeout_us,"ax",%progbits
 2407              		.align	1
 2408              		.p2align 4,,15
 2409              		.global	VL53L0X_calc_timeout_us
 2410              		.syntax unified
 2411              		.thumb
 2412              		.thumb_func
 2413              		.fpu fpv4-sp-d16
 2414              		.type	VL53L0X_calc_timeout_us, %function
 2415              	VL53L0X_calc_timeout_us:
 2416              	.LFB15:
 2417              		.loc 1 564 0
 2418              		.cfi_startproc
 2419              		@ args = 0, pretend = 0, frame = 8
 2420              		@ frame_needed = 0, uses_anonymous_args = 0
 2421              	.LVL362:
 2422 0000 30B5     		push	{r4, r5, lr}
 2423              		.cfi_def_cfa_offset 12
 2424              		.cfi_offset 4, -12
 2425              		.cfi_offset 5, -8
 2426              		.cfi_offset 14, -4
 2427              	.LBB140:
 2428              	.LBB141:
 2429              		.loc 1 493 0
 2430 0002 0E4B     		ldr	r3, .L182
 2431              	.LBE141:
 2432              	.LBE140:
 2433              		.loc 1 570 0
 2434 0004 0E4C     		ldr	r4, .L182+4
 2435              		.loc 1 564 0
 2436 0006 0F4D     		ldr	r5, .L182+8
 2437              	.LBB143:
 2438              	.LBB142:
 2439              		.loc 1 493 0
 2440 0008 03FB02F3 		mul	r3, r3, r2
 2441              	.LBE142:
 2442              	.LBE143:
 2443              		.loc 1 564 0
 2444 000c 83B0     		sub	sp, sp, #12
 2445              		.cfi_def_cfa_offset 24
 2446              		.loc 1 570 0
 2447 000e 03F5FA73 		add	r3, r3, #500
 2448 0012 A4FB0323 		umull	r2, r3, r4, r3
 2449              	.LVL363:
 2450              		.loc 1 564 0
 2451 0016 2A68     		ldr	r2, [r5]
ARM GAS  /var/folders/d2/nstgp4h54kz7g1l847x_b8wc0000gn/T//cc2apEbl.s 			page 44


 2452 0018 0192     		str	r2, [sp, #4]
 2453              	.LVL364:
 2454              		.loc 1 570 0
 2455 001a 9B09     		lsrs	r3, r3, #6
 2456              		.loc 1 573 0
 2457 001c 01FB03F0 		mul	r0, r1, r3
 2458              	.LVL365:
 2459              		.loc 1 576 0
 2460 0020 019A     		ldr	r2, [sp, #4]
 2461 0022 2B68     		ldr	r3, [r5]
 2462              		.loc 1 573 0
 2463 0024 00F5FA70 		add	r0, r0, #500
 2464              		.loc 1 576 0
 2465 0028 9A42     		cmp	r2, r3
 2466              		.loc 1 572 0
 2467 002a A4FB0010 		umull	r1, r0, r4, r0
 2468              	.LVL366:
 2469              		.loc 1 576 0
 2470 002e 02D1     		bne	.L181
 2471 0030 8009     		lsrs	r0, r0, #6
 2472 0032 03B0     		add	sp, sp, #12
 2473              		.cfi_remember_state
 2474              		.cfi_def_cfa_offset 12
 2475              		@ sp needed
 2476 0034 30BD     		pop	{r4, r5, pc}
 2477              	.L181:
 2478              		.cfi_restore_state
 2479 0036 FFF7FEFF 		bl	__stack_chk_fail
 2480              	.LVL367:
 2481              	.L183:
 2482 003a 00BF     		.align	2
 2483              	.L182:
 2484 003c 002F3A00 		.word	3813120
 2485 0040 D34D6210 		.word	274877907
 2486 0044 00000000 		.word	__stack_chk_guard
 2487              		.cfi_endproc
 2488              	.LFE15:
 2489              		.size	VL53L0X_calc_timeout_us, .-VL53L0X_calc_timeout_us
 2490              		.section	.text.get_sequence_step_timeout,"ax",%progbits
 2491              		.align	1
 2492              		.p2align 4,,15
 2493              		.global	get_sequence_step_timeout
 2494              		.syntax unified
 2495              		.thumb
 2496              		.thumb_func
 2497              		.fpu fpv4-sp-d16
 2498              		.type	get_sequence_step_timeout, %function
 2499              	get_sequence_step_timeout:
 2500              	.LFB16:
 2501              		.loc 1 582 0
 2502              		.cfi_startproc
 2503              		@ args = 0, pretend = 0, frame = 24
 2504              		@ frame_needed = 0, uses_anonymous_args = 0
 2505              	.LVL368:
 2506 0000 2DE9F043 		push	{r4, r5, r6, r7, r8, r9, lr}
 2507              		.cfi_def_cfa_offset 28
 2508              		.cfi_offset 4, -28
ARM GAS  /var/folders/d2/nstgp4h54kz7g1l847x_b8wc0000gn/T//cc2apEbl.s 			page 45


 2509              		.cfi_offset 5, -24
 2510              		.cfi_offset 6, -20
 2511              		.cfi_offset 7, -16
 2512              		.cfi_offset 8, -12
 2513              		.cfi_offset 9, -8
 2514              		.cfi_offset 14, -4
 2515 0004 5D4D     		ldr	r5, .L208
 2516 0006 87B0     		sub	sp, sp, #28
 2517              		.cfi_def_cfa_offset 56
 2518              		.loc 1 585 0
 2519 0008 0024     		movs	r4, #0
 2520              		.loc 1 582 0
 2521 000a 2B68     		ldr	r3, [r5]
 2522 000c 0593     		str	r3, [sp, #20]
 2523              	.LVL369:
 2524              		.loc 1 594 0
 2525 000e 0229     		cmp	r1, #2
 2526              		.loc 1 582 0
 2527 0010 1646     		mov	r6, r2
 2528              		.loc 1 585 0
 2529 0012 8DF80740 		strb	r4, [sp, #7]
 2530              	.LVL370:
 2531              		.loc 1 587 0
 2532 0016 ADF80840 		strh	r4, [sp, #8]	@ movhi
 2533              	.LVL371:
 2534              		.loc 1 582 0
 2535 001a 0746     		mov	r7, r0
 2536              		.loc 1 594 0
 2537 001c 0DD9     		bls	.L203
 2538              		.loc 1 611 0
 2539 001e 0329     		cmp	r1, #3
 2540 0020 4FD0     		beq	.L204
 2541              		.loc 1 638 0
 2542 0022 0429     		cmp	r1, #4
 2543 0024 2AD0     		beq	.L205
 2544              		.loc 1 583 0
 2545 0026 2046     		mov	r0, r4
 2546              	.LVL372:
 2547              	.L187:
 2548              		.loc 1 682 0
 2549 0028 3460     		str	r4, [r6]
 2550              		.loc 1 685 0
 2551 002a 059A     		ldr	r2, [sp, #20]
 2552 002c 2B68     		ldr	r3, [r5]
 2553 002e 9A42     		cmp	r2, r3
 2554 0030 40F0A180 		bne	.L206
 2555 0034 07B0     		add	sp, sp, #28
 2556              		.cfi_remember_state
 2557              		.cfi_def_cfa_offset 28
 2558              		@ sp needed
 2559 0036 BDE8F083 		pop	{r4, r5, r6, r7, r8, r9, pc}
 2560              	.LVL373:
 2561              	.L203:
 2562              		.cfi_restore_state
 2563              		.loc 1 598 0
 2564 003a 2146     		mov	r1, r4
 2565              	.LVL374:
ARM GAS  /var/folders/d2/nstgp4h54kz7g1l847x_b8wc0000gn/T//cc2apEbl.s 			page 46


 2566 003c 0DF10602 		add	r2, sp, #6
 2567              	.LVL375:
 2568 0040 FFF7FEFF 		bl	VL53L0X_GetVcselPulsePeriod
 2569              	.LVL376:
 2570              		.loc 1 601 0
 2571 0044 28B9     		cbnz	r0, .L186
 2572              		.loc 1 602 0
 2573 0046 3846     		mov	r0, r7
 2574              	.LVL377:
 2575 0048 0DF10702 		add	r2, sp, #7
 2576 004c 4621     		movs	r1, #70
 2577 004e FFF7FEFF 		bl	VL53L0X_RdByte
 2578              	.LVL378:
 2579              	.L186:
 2580              	.LBB144:
 2581              	.LBB145:
 2582              	.LBB146:
 2583              	.LBB147:
 2584              		.loc 1 494 0
 2585 0052 9DF80610 		ldrb	r1, [sp, #6]	@ zero_extendqisi2
 2586              		.loc 1 493 0
 2587 0056 4A4B     		ldr	r3, .L208+4
 2588              	.LBE147:
 2589              	.LBE146:
 2590              		.loc 1 570 0
 2591 0058 4A4A     		ldr	r2, .L208+8
 2592              	.LBE145:
 2593              	.LBE144:
 2594              	.LBB151:
 2595              	.LBB152:
 2596              		.loc 1 534 0
 2597 005a 9DF80740 		ldrb	r4, [sp, #7]	@ zero_extendqisi2
 2598              	.LBE152:
 2599              	.LBE151:
 2600              	.LBB153:
 2601              	.LBB150:
 2602              	.LBB149:
 2603              	.LBB148:
 2604              		.loc 1 493 0
 2605 005e 03FB01F3 		mul	r3, r3, r1
 2606              	.LBE148:
 2607              	.LBE149:
 2608              		.loc 1 570 0
 2609 0062 03F5FA73 		add	r3, r3, #500
 2610 0066 A2FB0313 		umull	r1, r3, r2, r3
 2611 006a 9B09     		lsrs	r3, r3, #6
 2612              		.loc 1 573 0
 2613 006c 04FB0333 		mla	r3, r4, r3, r3
 2614 0070 03F5FA74 		add	r4, r3, #500
 2615              		.loc 1 572 0
 2616 0074 A2FB0434 		umull	r3, r4, r2, r4
 2617 0078 A409     		lsrs	r4, r4, #6
 2618              	.LVL379:
 2619              	.LBE150:
 2620              	.LBE153:
 2621 007a D5E7     		b	.L187
 2622              	.LVL380:
ARM GAS  /var/folders/d2/nstgp4h54kz7g1l847x_b8wc0000gn/T//cc2apEbl.s 			page 47


 2623              	.L205:
 2624              		.loc 1 640 0
 2625 007c 03A9     		add	r1, sp, #12
 2626              	.LVL381:
 2627 007e FFF7FEFF 		bl	VL53L0X_GetSequenceStepEnables
 2628              	.LVL382:
 2629              		.loc 1 643 0
 2630 0082 9DF80F30 		ldrb	r3, [sp, #15]	@ zero_extendqisi2
 2631 0086 002B     		cmp	r3, #0
 2632 0088 48D0     		beq	.L196
 2633              		.loc 1 645 0
 2634 008a 0DF10609 		add	r9, sp, #6
 2635 008e 4A46     		mov	r2, r9
 2636 0090 2146     		mov	r1, r4
 2637 0092 3846     		mov	r0, r7
 2638 0094 FFF7FEFF 		bl	VL53L0X_GetVcselPulsePeriod
 2639              	.LVL383:
 2640              		.loc 1 651 0
 2641 0098 0028     		cmp	r0, #0
 2642 009a 4CD0     		beq	.L207
 2643              	.LVL384:
 2644              	.L191:
 2645              	.LBB154:
 2646              	.LBB155:
 2647              	.LBB156:
 2648              	.LBB157:
 2649              		.loc 1 494 0
 2650 009c 9DF80610 		ldrb	r1, [sp, #6]	@ zero_extendqisi2
 2651              		.loc 1 493 0
 2652 00a0 374B     		ldr	r3, .L208+4
 2653              	.LBE157:
 2654              	.LBE156:
 2655              		.loc 1 570 0
 2656 00a2 384A     		ldr	r2, .L208+8
 2657              	.LBB159:
 2658              	.LBB158:
 2659              		.loc 1 493 0
 2660 00a4 03FB01F3 		mul	r3, r3, r1
 2661              	.LBE158:
 2662              	.LBE159:
 2663              		.loc 1 570 0
 2664 00a8 03F5FA73 		add	r3, r3, #500
 2665 00ac A2FB0313 		umull	r1, r3, r2, r3
 2666 00b0 9B09     		lsrs	r3, r3, #6
 2667              		.loc 1 573 0
 2668 00b2 04FB03F4 		mul	r4, r4, r3
 2669 00b6 04F5FA74 		add	r4, r4, #500
 2670              		.loc 1 572 0
 2671 00ba A2FB0434 		umull	r3, r4, r2, r4
 2672 00be A409     		lsrs	r4, r4, #6
 2673              	.LVL385:
 2674 00c0 B2E7     		b	.L187
 2675              	.LVL386:
 2676              	.L204:
 2677              	.LBE155:
 2678              	.LBE154:
 2679              		.loc 1 613 0
ARM GAS  /var/folders/d2/nstgp4h54kz7g1l847x_b8wc0000gn/T//cc2apEbl.s 			page 48


 2680 00c2 0DF10602 		add	r2, sp, #6
 2681              	.LVL387:
 2682 00c6 2146     		mov	r1, r4
 2683              	.LVL388:
 2684 00c8 FFF7FEFF 		bl	VL53L0X_GetVcselPulsePeriod
 2685              	.LVL389:
 2686              		.loc 1 618 0
 2687 00cc 0028     		cmp	r0, #0
 2688 00ce ABD1     		bne	.L187
 2689              		.loc 1 621 0
 2690 00d0 0146     		mov	r1, r0
 2691 00d2 0DF10602 		add	r2, sp, #6
 2692 00d6 3846     		mov	r0, r7
 2693              	.LVL390:
 2694 00d8 FFF7FEFF 		bl	VL53L0X_GetVcselPulsePeriod
 2695              	.LVL391:
 2696              		.loc 1 625 0
 2697 00dc 20B9     		cbnz	r0, .L189
 2698              		.loc 1 626 0
 2699 00de 3846     		mov	r0, r7
 2700              	.LVL392:
 2701 00e0 02AA     		add	r2, sp, #8
 2702 00e2 5121     		movs	r1, #81
 2703 00e4 FFF7FEFF 		bl	VL53L0X_RdWord
 2704              	.LVL393:
 2705              	.L189:
 2706              		.loc 1 631 0
 2707 00e8 BDF80810 		ldrh	r1, [sp, #8]
 2708              	.LVL394:
 2709              	.LBB160:
 2710              	.LBB161:
 2711              	.LBB162:
 2712              	.LBB163:
 2713              		.loc 1 494 0
 2714 00ec 9DF80670 		ldrb	r7, [sp, #6]	@ zero_extendqisi2
 2715              	.LVL395:
 2716              		.loc 1 493 0
 2717 00f0 234C     		ldr	r4, .L208+4
 2718              	.LBE163:
 2719              	.LBE162:
 2720              		.loc 1 570 0
 2721 00f2 244A     		ldr	r2, .L208+8
 2722              	.LBE161:
 2723              	.LBE160:
 2724              	.LBB169:
 2725              	.LBB170:
 2726              		.loc 1 534 0
 2727 00f4 CBB2     		uxtb	r3, r1
 2728              	.LBE170:
 2729              	.LBE169:
 2730              	.LBB173:
 2731              	.LBB166:
 2732              	.LBB165:
 2733              	.LBB164:
 2734              		.loc 1 493 0
 2735 00f6 04FB07F4 		mul	r4, r4, r7
 2736              	.LBE164:
ARM GAS  /var/folders/d2/nstgp4h54kz7g1l847x_b8wc0000gn/T//cc2apEbl.s 			page 49


 2737              	.LBE165:
 2738              	.LBE166:
 2739              	.LBE173:
 2740              	.LBB174:
 2741              	.LBB171:
 2742              		.loc 1 535 0
 2743 00fa 090A     		lsrs	r1, r1, #8
 2744              	.LVL396:
 2745 00fc 8B40     		lsls	r3, r3, r1
 2746              	.LBE171:
 2747              	.LBE174:
 2748              	.LBB175:
 2749              	.LBB167:
 2750              		.loc 1 570 0
 2751 00fe 04F5FA74 		add	r4, r4, #500
 2752              	.LBE167:
 2753              	.LBE175:
 2754              	.LBB176:
 2755              	.LBB172:
 2756              		.loc 1 534 0
 2757 0102 0133     		adds	r3, r3, #1
 2758              	.LBE172:
 2759              	.LBE176:
 2760              	.LBB177:
 2761              	.LBB168:
 2762              		.loc 1 570 0
 2763 0104 A2FB0414 		umull	r1, r4, r2, r4
 2764              		.loc 1 573 0
 2765 0108 9BB2     		uxth	r3, r3
 2766              		.loc 1 570 0
 2767 010a A409     		lsrs	r4, r4, #6
 2768              		.loc 1 573 0
 2769 010c 04FB03F4 		mul	r4, r4, r3
 2770 0110 04F5FA74 		add	r4, r4, #500
 2771              		.loc 1 572 0
 2772 0114 A2FB0434 		umull	r3, r4, r2, r4
 2773 0118 A409     		lsrs	r4, r4, #6
 2774              	.LVL397:
 2775 011a 85E7     		b	.L187
 2776              	.LVL398:
 2777              	.L196:
 2778              	.LBE168:
 2779              	.LBE177:
 2780              		.loc 1 641 0
 2781 011c 9846     		mov	r8, r3
 2782 011e 0DF10609 		add	r9, sp, #6
 2783              	.LVL399:
 2784              	.L190:
 2785              		.loc 1 662 0
 2786 0122 4A46     		mov	r2, r9
 2787 0124 0121     		movs	r1, #1
 2788 0126 3846     		mov	r0, r7
 2789 0128 FFF7FEFF 		bl	VL53L0X_GetVcselPulsePeriod
 2790              	.LVL400:
 2791              		.loc 1 668 0
 2792 012c 98B1     		cbz	r0, .L192
 2793              	.L202:
ARM GAS  /var/folders/d2/nstgp4h54kz7g1l847x_b8wc0000gn/T//cc2apEbl.s 			page 50


 2794 012e C8F10004 		rsb	r4, r8, #0
 2795 0132 A4B2     		uxth	r4, r4
 2796 0134 B2E7     		b	.L191
 2797              	.LVL401:
 2798              	.L207:
 2799              		.loc 1 652 0
 2800 0136 02AA     		add	r2, sp, #8
 2801 0138 5121     		movs	r1, #81
 2802 013a 3846     		mov	r0, r7
 2803              	.LVL402:
 2804 013c FFF7FEFF 		bl	VL53L0X_RdWord
 2805              	.LVL403:
 2806              		.loc 1 655 0
 2807 0140 BDF80830 		ldrh	r3, [sp, #8]
 2808              	.LBB178:
 2809              	.LBB179:
 2810              		.loc 1 534 0
 2811 0144 DCB2     		uxtb	r4, r3
 2812              		.loc 1 535 0
 2813 0146 1B0A     		lsrs	r3, r3, #8
 2814 0148 9C40     		lsls	r4, r4, r3
 2815              		.loc 1 534 0
 2816 014a 0134     		adds	r4, r4, #1
 2817              	.LBE179:
 2818              	.LBE178:
 2819              		.loc 1 655 0
 2820 014c 1FFA84F8 		uxth	r8, r4
 2821              	.LVL404:
 2822              		.loc 1 660 0
 2823 0150 0028     		cmp	r0, #0
 2824 0152 E6D0     		beq	.L190
 2825 0154 EBE7     		b	.L202
 2826              	.LVL405:
 2827              	.L192:
 2828              		.loc 1 669 0
 2829 0156 3846     		mov	r0, r7
 2830              	.LVL406:
 2831 0158 0DF10A02 		add	r2, sp, #10
 2832 015c 7121     		movs	r1, #113
 2833 015e FFF7FEFF 		bl	VL53L0X_RdWord
 2834              	.LVL407:
 2835              		.loc 1 672 0
 2836 0162 BDF80A30 		ldrh	r3, [sp, #10]
 2837              	.LVL408:
 2838              	.LBB180:
 2839              	.LBB181:
 2840              		.loc 1 534 0
 2841 0166 DCB2     		uxtb	r4, r3
 2842              		.loc 1 535 0
 2843 0168 1B0A     		lsrs	r3, r3, #8
 2844              	.LVL409:
 2845 016a 9C40     		lsls	r4, r4, r3
 2846              		.loc 1 534 0
 2847 016c 0134     		adds	r4, r4, #1
 2848 016e A4EB0804 		sub	r4, r4, r8
 2849 0172 A4B2     		uxth	r4, r4
 2850 0174 92E7     		b	.L191
ARM GAS  /var/folders/d2/nstgp4h54kz7g1l847x_b8wc0000gn/T//cc2apEbl.s 			page 51


 2851              	.LVL410:
 2852              	.L206:
 2853              	.LBE181:
 2854              	.LBE180:
 2855              		.loc 1 685 0
 2856 0176 FFF7FEFF 		bl	__stack_chk_fail
 2857              	.LVL411:
 2858              	.L209:
 2859 017a 00BF     		.align	2
 2860              	.L208:
 2861 017c 00000000 		.word	__stack_chk_guard
 2862 0180 002F3A00 		.word	3813120
 2863 0184 D34D6210 		.word	274877907
 2864              		.cfi_endproc
 2865              	.LFE16:
 2866              		.size	get_sequence_step_timeout, .-get_sequence_step_timeout
 2867              		.section	.text.set_sequence_step_timeout,"ax",%progbits
 2868              		.align	1
 2869              		.p2align 4,,15
 2870              		.global	set_sequence_step_timeout
 2871              		.syntax unified
 2872              		.thumb
 2873              		.thumb_func
 2874              		.fpu fpv4-sp-d16
 2875              		.type	set_sequence_step_timeout, %function
 2876              	set_sequence_step_timeout:
 2877              	.LFB17:
 2878              		.loc 1 691 0
 2879              		.cfi_startproc
 2880              		@ args = 0, pretend = 0, frame = 8
 2881              		@ frame_needed = 0, uses_anonymous_args = 0
 2882              	.LVL412:
 2883 0000 70B5     		push	{r4, r5, r6, lr}
 2884              		.cfi_def_cfa_offset 16
 2885              		.cfi_offset 4, -16
 2886              		.cfi_offset 5, -12
 2887              		.cfi_offset 6, -8
 2888              		.cfi_offset 14, -4
 2889 0002 1E4C     		ldr	r4, .L219
 2890 0004 82B0     		sub	sp, sp, #8
 2891              		.cfi_def_cfa_offset 24
 2892              		.loc 1 691 0
 2893 0006 2368     		ldr	r3, [r4]
 2894 0008 0193     		str	r3, [sp, #4]
 2895              	.LVL413:
 2896              		.loc 1 702 0
 2897 000a 0229     		cmp	r1, #2
 2898 000c 07D9     		bls	.L217
 2899 000e FFF7FEFF 		bl	set_sequence_step_timeout.part.1
 2900              	.LVL414:
 2901              	.L212:
 2902              		.loc 1 830 0
 2903 0012 019A     		ldr	r2, [sp, #4]
 2904 0014 2368     		ldr	r3, [r4]
 2905 0016 9A42     		cmp	r2, r3
 2906 0018 2DD1     		bne	.L218
 2907 001a 02B0     		add	sp, sp, #8
ARM GAS  /var/folders/d2/nstgp4h54kz7g1l847x_b8wc0000gn/T//cc2apEbl.s 			page 52


 2908              		.cfi_remember_state
 2909              		.cfi_def_cfa_offset 16
 2910              		@ sp needed
 2911 001c 70BD     		pop	{r4, r5, r6, pc}
 2912              	.LVL415:
 2913              	.L217:
 2914              		.cfi_restore_state
 2915 001e 1546     		mov	r5, r2
 2916              		.loc 1 706 0
 2917 0020 0021     		movs	r1, #0
 2918              	.LVL416:
 2919 0022 0DF10302 		add	r2, sp, #3
 2920              	.LVL417:
 2921 0026 0646     		mov	r6, r0
 2922 0028 FFF7FEFF 		bl	VL53L0X_GetVcselPulsePeriod
 2923              	.LVL418:
 2924              		.loc 1 710 0
 2925 002c 0028     		cmp	r0, #0
 2926 002e F0D1     		bne	.L212
 2927              	.LVL419:
 2928              	.LBB182:
 2929              	.LBB183:
 2930              	.LBB184:
 2931              	.LBB185:
 2932              		.loc 1 494 0
 2933 0030 9DF80310 		ldrb	r1, [sp, #3]	@ zero_extendqisi2
 2934              		.loc 1 493 0
 2935 0034 124B     		ldr	r3, .L219+4
 2936              	.LBE185:
 2937              	.LBE184:
 2938              		.loc 1 555 0
 2939 0036 134A     		ldr	r2, .L219+8
 2940              	.LBB187:
 2941              	.LBB186:
 2942              		.loc 1 493 0
 2943 0038 03FB01F3 		mul	r3, r3, r1
 2944              	.LBE186:
 2945              	.LBE187:
 2946              		.loc 1 551 0
 2947 003c 03F5FA73 		add	r3, r3, #500
 2948              	.LVL420:
 2949              		.loc 1 555 0
 2950 0040 A2FB0323 		umull	r2, r3, r2, r3
 2951              	.LVL421:
 2952 0044 DA09     		lsrs	r2, r3, #7
 2953              		.loc 1 554 0
 2954 0046 4FF47A71 		mov	r1, #1000
 2955              	.LVL422:
 2956              		.loc 1 551 0
 2957 004a 9B09     		lsrs	r3, r3, #6
 2958              		.loc 1 555 0
 2959 004c 01FB0525 		mla	r5, r1, r5, r2
 2960              	.LVL423:
 2961              		.loc 1 553 0
 2962 0050 B5FBF3F5 		udiv	r5, r5, r3
 2963              	.LVL424:
 2964              	.LBE183:
ARM GAS  /var/folders/d2/nstgp4h54kz7g1l847x_b8wc0000gn/T//cc2apEbl.s 			page 53


 2965              	.LBE182:
 2966              		.loc 1 715 0
 2967 0054 ABB2     		uxth	r3, r5
 2968 0056 B3F5807F 		cmp	r3, #256
 2969 005a 09D8     		bhi	.L215
 2970              		.loc 1 718 0
 2971 005c 013D     		subs	r5, r5, #1
 2972              	.LVL425:
 2973 005e EAB2     		uxtb	r2, r5
 2974              	.LVL426:
 2975 0060 93B2     		uxth	r3, r2
 2976              	.LVL427:
 2977              	.L213:
 2978              		.loc 1 721 0
 2979 0062 A6F8D830 		strh	r3, [r6, #216]	@ movhi
 2980              		.loc 1 727 0
 2981 0066 3046     		mov	r0, r6
 2982              	.LVL428:
 2983 0068 4621     		movs	r1, #70
 2984              	.LVL429:
 2985 006a FFF7FEFF 		bl	VL53L0X_WrByte
 2986              	.LVL430:
 2987 006e D0E7     		b	.L212
 2988              	.LVL431:
 2989              	.L215:
 2990 0070 FF23     		movs	r3, #255
 2991              		.loc 1 716 0
 2992 0072 1A46     		mov	r2, r3
 2993 0074 F5E7     		b	.L213
 2994              	.LVL432:
 2995              	.L218:
 2996              		.loc 1 830 0
 2997 0076 FFF7FEFF 		bl	__stack_chk_fail
 2998              	.LVL433:
 2999              	.L220:
 3000 007a 00BF     		.align	2
 3001              	.L219:
 3002 007c 00000000 		.word	__stack_chk_guard
 3003 0080 002F3A00 		.word	3813120
 3004 0084 D34D6210 		.word	274877907
 3005              		.cfi_endproc
 3006              	.LFE17:
 3007              		.size	set_sequence_step_timeout, .-set_sequence_step_timeout
 3008              		.section	.text.VL53L0X_set_vcsel_pulse_period,"ax",%progbits
 3009              		.align	1
 3010              		.p2align 4,,15
 3011              		.global	VL53L0X_set_vcsel_pulse_period
 3012              		.syntax unified
 3013              		.thumb
 3014              		.thumb_func
 3015              		.fpu fpv4-sp-d16
 3016              		.type	VL53L0X_set_vcsel_pulse_period, %function
 3017              	VL53L0X_set_vcsel_pulse_period:
 3018              	.LFB18:
 3019              		.loc 1 834 0
 3020              		.cfi_startproc
 3021              		@ args = 0, pretend = 0, frame = 32
ARM GAS  /var/folders/d2/nstgp4h54kz7g1l847x_b8wc0000gn/T//cc2apEbl.s 			page 54


 3022              		@ frame_needed = 0, uses_anonymous_args = 0
 3023              	.LVL434:
 3024 0000 2DE9F041 		push	{r4, r5, r6, r7, r8, lr}
 3025              		.cfi_def_cfa_offset 24
 3026              		.cfi_offset 4, -24
 3027              		.cfi_offset 5, -20
 3028              		.cfi_offset 6, -16
 3029              		.cfi_offset 7, -12
 3030              		.cfi_offset 8, -8
 3031              		.cfi_offset 14, -4
 3032 0004 864E     		ldr	r6, .L270
 3033 0006 88B0     		sub	sp, sp, #32
 3034              		.cfi_def_cfa_offset 56
 3035              		.loc 1 834 0
 3036 0008 1746     		mov	r7, r2
 3037 000a 3368     		ldr	r3, [r6]
 3038 000c 0793     		str	r3, [sp, #28]
 3039              	.LVL435:
 3040              		.loc 1 845 0
 3041 000e 0022     		movs	r2, #0
 3042              	.LVL436:
 3043              		.loc 1 849 0
 3044 0010 17F00108 		ands	r8, r7, #1
 3045              		.loc 1 845 0
 3046 0014 8DF80F20 		strb	r2, [sp, #15]
 3047              		.loc 1 849 0
 3048 0018 4BD1     		bne	.L245
 3049 001a 0546     		mov	r5, r0
 3050              		.loc 1 852 0
 3051 001c 61BB     		cbnz	r1, .L223
 3052              		.loc 1 852 0 is_stmt 0 discriminator 1
 3053 001e A7F10C03 		sub	r3, r7, #12
 3054 0022 062B     		cmp	r3, #6
 3055 0024 45D8     		bhi	.L245
 3056              		.loc 1 872 0 is_stmt 1
 3057 0026 0C2F     		cmp	r7, #12
 3058 0028 46D0     		beq	.L259
 3059              		.loc 1 880 0
 3060 002a 0E2F     		cmp	r7, #14
 3061 002c 50D0     		beq	.L260
 3062              		.loc 1 888 0
 3063 002e 102F     		cmp	r7, #16
 3064 0030 50D0     		beq	.L261
 3065              		.loc 1 896 0
 3066 0032 122F     		cmp	r7, #18
 3067 0034 78D0     		beq	.L262
 3068              	.LVL437:
 3069              	.L230:
 3070              	.LBB188:
 3071              	.LBB189:
 3072              		.loc 1 117 0
 3073 0036 7B08     		lsrs	r3, r7, #1
 3074 0038 013B     		subs	r3, r3, #1
 3075              	.LBE189:
 3076              	.LBE188:
 3077              		.loc 1 1004 0
 3078 003a 05AA     		add	r2, sp, #20
ARM GAS  /var/folders/d2/nstgp4h54kz7g1l847x_b8wc0000gn/T//cc2apEbl.s 			page 55


 3079 003c 0321     		movs	r1, #3
 3080 003e 2846     		mov	r0, r5
 3081              	.LBB193:
 3082              	.LBB190:
 3083              		.loc 1 117 0
 3084 0040 DCB2     		uxtb	r4, r3
 3085              	.LVL438:
 3086              	.LBE190:
 3087              	.LBE193:
 3088              		.loc 1 1004 0
 3089 0042 FFF7FEFF 		bl	get_sequence_step_timeout
 3090              	.LVL439:
 3091              		.loc 1 1008 0
 3092 0046 0028     		cmp	r0, #0
 3093 0048 46D0     		beq	.L263
 3094              	.L236:
 3095              		.loc 1 1030 0
 3096 004a 85F8E870 		strb	r7, [r5, #232]
 3097              	.L237:
 3098              		.loc 1 1062 0
 3099 004e 58B9     		cbnz	r0, .L222
 3100              	.LVL440:
 3101              		.loc 1 1067 0
 3102 0050 6969     		ldr	r1, [r5, #20]
 3103 0052 2846     		mov	r0, r5
 3104              	.LVL441:
 3105 0054 FFF7FEFF 		bl	VL53L0X_SetMeasurementTimingBudgetMicroSeconds
 3106              	.LVL442:
 3107              		.loc 1 1074 0
 3108 0058 30B9     		cbnz	r0, .L222
 3109              		.loc 1 1075 0
 3110 005a 0246     		mov	r2, r0
 3111 005c 0123     		movs	r3, #1
 3112 005e 2846     		mov	r0, r5
 3113              	.LVL443:
 3114 0060 0DF10F01 		add	r1, sp, #15
 3115 0064 FFF7FEFF 		bl	VL53L0X_perform_phase_calibration
 3116              	.LVL444:
 3117              	.L222:
 3118              		.loc 1 1079 0
 3119 0068 079A     		ldr	r2, [sp, #28]
 3120 006a 3368     		ldr	r3, [r6]
 3121 006c 9A42     		cmp	r2, r3
 3122 006e 40F0D580 		bne	.L264
 3123 0072 08B0     		add	sp, sp, #32
 3124              		.cfi_remember_state
 3125              		.cfi_def_cfa_offset 24
 3126              		@ sp needed
 3127 0074 BDE8F081 		pop	{r4, r5, r6, r7, r8, pc}
 3128              	.LVL445:
 3129              	.L223:
 3130              		.cfi_restore_state
 3131              		.loc 1 856 0
 3132 0078 0129     		cmp	r1, #1
 3133 007a 1AD1     		bne	.L245
 3134              		.loc 1 856 0 is_stmt 0 discriminator 1
 3135 007c A7F10802 		sub	r2, r7, #8
ARM GAS  /var/folders/d2/nstgp4h54kz7g1l847x_b8wc0000gn/T//cc2apEbl.s 			page 56


 3136 0080 062A     		cmp	r2, #6
 3137 0082 16D8     		bhi	.L245
 3138              		.loc 1 907 0 is_stmt 1
 3139 0084 082F     		cmp	r7, #8
 3140 0086 51D0     		beq	.L265
 3141              		.loc 1 926 0
 3142 0088 0A2F     		cmp	r7, #10
 3143 008a 00F08280 		beq	.L266
 3144              		.loc 1 945 0
 3145 008e 0C2F     		cmp	r7, #12
 3146 0090 00F0A080 		beq	.L267
 3147              		.loc 1 964 0
 3148 0094 0E2F     		cmp	r7, #14
 3149 0096 00F0AF80 		beq	.L268
 3150              	.LVL446:
 3151              	.L235:
 3152              	.LBB194:
 3153              	.LBB191:
 3154              		.loc 1 117 0
 3155 009a 7B08     		lsrs	r3, r7, #1
 3156 009c 013B     		subs	r3, r3, #1
 3157              	.LBE191:
 3158              	.LBE194:
 3159              		.loc 1 1036 0
 3160 009e 04AA     		add	r2, sp, #16
 3161 00a0 0421     		movs	r1, #4
 3162 00a2 2846     		mov	r0, r5
 3163              	.LBB195:
 3164              	.LBB192:
 3165              		.loc 1 117 0
 3166 00a4 DCB2     		uxtb	r4, r3
 3167              	.LVL447:
 3168              	.LBE192:
 3169              	.LBE195:
 3170              		.loc 1 1036 0
 3171 00a6 FFF7FEFF 		bl	get_sequence_step_timeout
 3172              	.LVL448:
 3173              		.loc 1 1040 0
 3174 00aa 80B3     		cbz	r0, .L269
 3175              	.LVL449:
 3176              	.L238:
 3177              		.loc 1 1051 0
 3178 00ac 85F8E070 		strb	r7, [r5, #224]
 3179              		.loc 1 1055 0
 3180 00b0 CDE7     		b	.L237
 3181              	.LVL450:
 3182              	.L245:
 3183 00b2 6FF00300 		mvn	r0, #3
 3184              	.LVL451:
 3185 00b6 D7E7     		b	.L222
 3186              	.LVL452:
 3187              	.L259:
 3188              		.loc 1 874 0
 3189 00b8 1822     		movs	r2, #24
 3190              	.L256:
 3191              		.loc 1 890 0
 3192 00ba 5721     		movs	r1, #87
ARM GAS  /var/folders/d2/nstgp4h54kz7g1l847x_b8wc0000gn/T//cc2apEbl.s 			page 57


 3193              	.LVL453:
 3194 00bc FFF7FEFF 		bl	VL53L0X_WrByte
 3195              	.LVL454:
 3196              		.loc 1 893 0
 3197 00c0 0822     		movs	r2, #8
 3198 00c2 5621     		movs	r1, #86
 3199 00c4 2846     		mov	r0, r5
 3200 00c6 FFF7FEFF 		bl	VL53L0X_WrByte
 3201              	.LVL455:
 3202              		.loc 1 989 0
 3203 00ca 0028     		cmp	r0, #0
 3204 00cc CCD1     		bne	.L222
 3205 00ce B2E7     		b	.L230
 3206              	.LVL456:
 3207              	.L260:
 3208              		.loc 1 882 0
 3209 00d0 3022     		movs	r2, #48
 3210 00d2 F2E7     		b	.L256
 3211              	.L261:
 3212              		.loc 1 890 0
 3213 00d4 4022     		movs	r2, #64
 3214 00d6 F0E7     		b	.L256
 3215              	.LVL457:
 3216              	.L263:
 3217              		.loc 1 1009 0
 3218 00d8 06AA     		add	r2, sp, #24
 3219 00da 0221     		movs	r1, #2
 3220 00dc 2846     		mov	r0, r5
 3221              	.LVL458:
 3222 00de FFF7FEFF 		bl	get_sequence_step_timeout
 3223              	.LVL459:
 3224              		.loc 1 1013 0
 3225 00e2 0028     		cmp	r0, #0
 3226 00e4 B1D1     		bne	.L236
 3227              		.loc 1 1014 0
 3228 00e6 2246     		mov	r2, r4
 3229 00e8 5021     		movs	r1, #80
 3230 00ea 2846     		mov	r0, r5
 3231              	.LVL460:
 3232 00ec FFF7FEFF 		bl	VL53L0X_WrByte
 3233              	.LVL461:
 3234              		.loc 1 1019 0
 3235 00f0 0028     		cmp	r0, #0
 3236 00f2 AAD1     		bne	.L236
 3237              	.LVL462:
 3238              	.LBB196:
 3239              	.LBB197:
 3240 00f4 059A     		ldr	r2, [sp, #20]
 3241 00f6 0321     		movs	r1, #3
 3242 00f8 2846     		mov	r0, r5
 3243              	.LVL463:
 3244 00fa FFF7FEFF 		bl	set_sequence_step_timeout.part.1
 3245              	.LVL464:
 3246              	.LBE197:
 3247              	.LBE196:
 3248              		.loc 1 1025 0
 3249 00fe 0028     		cmp	r0, #0
ARM GAS  /var/folders/d2/nstgp4h54kz7g1l847x_b8wc0000gn/T//cc2apEbl.s 			page 58


 3250 0100 A3D1     		bne	.L236
 3251              		.loc 1 1026 0
 3252 0102 069A     		ldr	r2, [sp, #24]
 3253 0104 0221     		movs	r1, #2
 3254 0106 2846     		mov	r0, r5
 3255              	.LVL465:
 3256 0108 FFF7FEFF 		bl	set_sequence_step_timeout
 3257              	.LVL466:
 3258 010c 9DE7     		b	.L236
 3259              	.L269:
 3260              		.loc 1 1041 0
 3261 010e 2246     		mov	r2, r4
 3262 0110 7021     		movs	r1, #112
 3263 0112 2846     		mov	r0, r5
 3264              	.LVL467:
 3265 0114 FFF7FEFF 		bl	VL53L0X_WrByte
 3266              	.LVL468:
 3267              		.loc 1 1046 0
 3268 0118 0028     		cmp	r0, #0
 3269 011a C7D1     		bne	.L238
 3270              	.LVL469:
 3271              	.LBB198:
 3272              	.LBB199:
 3273 011c 049A     		ldr	r2, [sp, #16]
 3274 011e 0421     		movs	r1, #4
 3275 0120 2846     		mov	r0, r5
 3276              	.LVL470:
 3277 0122 FFF7FEFF 		bl	set_sequence_step_timeout.part.1
 3278              	.LVL471:
 3279 0126 C1E7     		b	.L238
 3280              	.LVL472:
 3281              	.L262:
 3282              	.LBE199:
 3283              	.LBE198:
 3284              		.loc 1 898 0
 3285 0128 5022     		movs	r2, #80
 3286 012a C6E7     		b	.L256
 3287              	.L265:
 3288 012c 0191     		str	r1, [sp, #4]
 3289              		.loc 1 909 0
 3290 012e 1022     		movs	r2, #16
 3291 0130 4821     		movs	r1, #72
 3292              	.LVL473:
 3293 0132 FFF7FEFF 		bl	VL53L0X_WrByte
 3294              	.LVL474:
 3295              		.loc 1 912 0
 3296 0136 3A46     		mov	r2, r7
 3297 0138 4721     		movs	r1, #71
 3298 013a 2846     		mov	r0, r5
 3299 013c FFF7FEFF 		bl	VL53L0X_WrByte
 3300              	.LVL475:
 3301              		.loc 1 916 0
 3302 0140 0222     		movs	r2, #2
 3303              		.loc 1 912 0
 3304 0142 0446     		mov	r4, r0
 3305              	.LVL476:
 3306              		.loc 1 916 0
ARM GAS  /var/folders/d2/nstgp4h54kz7g1l847x_b8wc0000gn/T//cc2apEbl.s 			page 59


 3307 0144 3221     		movs	r1, #50
 3308 0146 2846     		mov	r0, r5
 3309 0148 FFF7FEFF 		bl	VL53L0X_WrByte
 3310              	.LVL477:
 3311              		.loc 1 918 0
 3312 014c 0C22     		movs	r2, #12
 3313              		.loc 1 916 0
 3314 014e 0443     		orrs	r4, r4, r0
 3315              	.LVL478:
 3316              		.loc 1 918 0
 3317 0150 3021     		movs	r1, #48
 3318 0152 2846     		mov	r0, r5
 3319 0154 FFF7FEFF 		bl	VL53L0X_WrByte
 3320              	.LVL479:
 3321              		.loc 1 921 0
 3322 0158 019B     		ldr	r3, [sp, #4]
 3323              		.loc 1 916 0
 3324 015a 64B2     		sxtb	r4, r4
 3325              	.LVL480:
 3326              		.loc 1 921 0
 3327 015c 1A46     		mov	r2, r3
 3328              		.loc 1 918 0
 3329 015e 0443     		orrs	r4, r4, r0
 3330              	.LVL481:
 3331              		.loc 1 921 0
 3332 0160 FF21     		movs	r1, #255
 3333 0162 2846     		mov	r0, r5
 3334 0164 FFF7FEFF 		bl	VL53L0X_WrByte
 3335              	.LVL482:
 3336              		.loc 1 918 0
 3337 0168 64B2     		sxtb	r4, r4
 3338              	.LVL483:
 3339              		.loc 1 922 0
 3340 016a 3022     		movs	r2, #48
 3341              	.L258:
 3342              		.loc 1 978 0
 3343 016c 0443     		orrs	r4, r4, r0
 3344              	.LVL484:
 3345              		.loc 1 979 0
 3346 016e 3021     		movs	r1, #48
 3347 0170 2846     		mov	r0, r5
 3348 0172 FFF7FEFF 		bl	VL53L0X_WrByte
 3349              	.LVL485:
 3350              		.loc 1 978 0
 3351 0176 64B2     		sxtb	r4, r4
 3352              	.LVL486:
 3353              		.loc 1 979 0
 3354 0178 0443     		orrs	r4, r4, r0
 3355              	.LVL487:
 3356              		.loc 1 982 0
 3357 017a 4246     		mov	r2, r8
 3358 017c FF21     		movs	r1, #255
 3359 017e 2846     		mov	r0, r5
 3360 0180 FFF7FEFF 		bl	VL53L0X_WrByte
 3361              	.LVL488:
 3362              		.loc 1 979 0
 3363 0184 64B2     		sxtb	r4, r4
ARM GAS  /var/folders/d2/nstgp4h54kz7g1l847x_b8wc0000gn/T//cc2apEbl.s 			page 60


 3364              	.LVL489:
 3365              		.loc 1 982 0
 3366 0186 2043     		orrs	r0, r0, r4
 3367 0188 40B2     		sxtb	r0, r0
 3368              	.LVL490:
 3369              		.loc 1 989 0
 3370 018a 0028     		cmp	r0, #0
 3371 018c 7FF46CAF 		bne	.L222
 3372 0190 83E7     		b	.L235
 3373              	.LVL491:
 3374              	.L266:
 3375 0192 0191     		str	r1, [sp, #4]
 3376              		.loc 1 928 0
 3377 0194 2822     		movs	r2, #40
 3378 0196 4821     		movs	r1, #72
 3379              	.LVL492:
 3380 0198 FFF7FEFF 		bl	VL53L0X_WrByte
 3381              	.LVL493:
 3382              		.loc 1 931 0
 3383 019c 0822     		movs	r2, #8
 3384 019e 4721     		movs	r1, #71
 3385 01a0 2846     		mov	r0, r5
 3386 01a2 FFF7FEFF 		bl	VL53L0X_WrByte
 3387              	.LVL494:
 3388              		.loc 1 935 0
 3389 01a6 0322     		movs	r2, #3
 3390              		.loc 1 931 0
 3391 01a8 0446     		mov	r4, r0
 3392              	.LVL495:
 3393              		.loc 1 935 0
 3394 01aa 3221     		movs	r1, #50
 3395 01ac 2846     		mov	r0, r5
 3396 01ae FFF7FEFF 		bl	VL53L0X_WrByte
 3397              	.LVL496:
 3398              		.loc 1 937 0
 3399 01b2 0922     		movs	r2, #9
 3400              	.L257:
 3401              		.loc 1 973 0
 3402 01b4 0443     		orrs	r4, r4, r0
 3403              	.LVL497:
 3404              		.loc 1 975 0
 3405 01b6 3021     		movs	r1, #48
 3406 01b8 2846     		mov	r0, r5
 3407 01ba FFF7FEFF 		bl	VL53L0X_WrByte
 3408              	.LVL498:
 3409              		.loc 1 978 0
 3410 01be 019B     		ldr	r3, [sp, #4]
 3411              		.loc 1 973 0
 3412 01c0 64B2     		sxtb	r4, r4
 3413              	.LVL499:
 3414              		.loc 1 978 0
 3415 01c2 1A46     		mov	r2, r3
 3416              		.loc 1 975 0
 3417 01c4 0443     		orrs	r4, r4, r0
 3418              	.LVL500:
 3419              		.loc 1 978 0
 3420 01c6 FF21     		movs	r1, #255
ARM GAS  /var/folders/d2/nstgp4h54kz7g1l847x_b8wc0000gn/T//cc2apEbl.s 			page 61


 3421 01c8 2846     		mov	r0, r5
 3422 01ca FFF7FEFF 		bl	VL53L0X_WrByte
 3423              	.LVL501:
 3424              		.loc 1 975 0
 3425 01ce 64B2     		sxtb	r4, r4
 3426              	.LVL502:
 3427              		.loc 1 979 0
 3428 01d0 2022     		movs	r2, #32
 3429 01d2 CBE7     		b	.L258
 3430              	.LVL503:
 3431              	.L267:
 3432 01d4 0191     		str	r1, [sp, #4]
 3433              		.loc 1 947 0
 3434 01d6 3822     		movs	r2, #56
 3435 01d8 4821     		movs	r1, #72
 3436              	.LVL504:
 3437 01da FFF7FEFF 		bl	VL53L0X_WrByte
 3438              	.LVL505:
 3439              		.loc 1 950 0
 3440 01de 0822     		movs	r2, #8
 3441 01e0 4721     		movs	r1, #71
 3442 01e2 2846     		mov	r0, r5
 3443 01e4 FFF7FEFF 		bl	VL53L0X_WrByte
 3444              	.LVL506:
 3445              		.loc 1 954 0
 3446 01e8 0322     		movs	r2, #3
 3447              		.loc 1 950 0
 3448 01ea 0446     		mov	r4, r0
 3449              	.LVL507:
 3450              		.loc 1 954 0
 3451 01ec 3221     		movs	r1, #50
 3452 01ee 2846     		mov	r0, r5
 3453 01f0 FFF7FEFF 		bl	VL53L0X_WrByte
 3454              	.LVL508:
 3455              		.loc 1 956 0
 3456 01f4 0822     		movs	r2, #8
 3457 01f6 DDE7     		b	.L257
 3458              	.LVL509:
 3459              	.L268:
 3460              		.loc 1 966 0
 3461 01f8 4822     		movs	r2, #72
 3462 01fa 0191     		str	r1, [sp, #4]
 3463 01fc 1146     		mov	r1, r2
 3464              	.LVL510:
 3465 01fe FFF7FEFF 		bl	VL53L0X_WrByte
 3466              	.LVL511:
 3467              		.loc 1 969 0
 3468 0202 0822     		movs	r2, #8
 3469 0204 4721     		movs	r1, #71
 3470 0206 2846     		mov	r0, r5
 3471 0208 FFF7FEFF 		bl	VL53L0X_WrByte
 3472              	.LVL512:
 3473              		.loc 1 973 0
 3474 020c 0322     		movs	r2, #3
 3475              		.loc 1 969 0
 3476 020e 0446     		mov	r4, r0
 3477              	.LVL513:
ARM GAS  /var/folders/d2/nstgp4h54kz7g1l847x_b8wc0000gn/T//cc2apEbl.s 			page 62


 3478              		.loc 1 973 0
 3479 0210 3221     		movs	r1, #50
 3480 0212 2846     		mov	r0, r5
 3481 0214 FFF7FEFF 		bl	VL53L0X_WrByte
 3482              	.LVL514:
 3483              		.loc 1 975 0
 3484 0218 0722     		movs	r2, #7
 3485 021a CBE7     		b	.L257
 3486              	.LVL515:
 3487              	.L264:
 3488              		.loc 1 1079 0
 3489 021c FFF7FEFF 		bl	__stack_chk_fail
 3490              	.LVL516:
 3491              	.L271:
 3492              		.align	2
 3493              	.L270:
 3494 0220 00000000 		.word	__stack_chk_guard
 3495              		.cfi_endproc
 3496              	.LFE18:
 3497              		.size	VL53L0X_set_vcsel_pulse_period, .-VL53L0X_set_vcsel_pulse_period
 3498              		.section	.text.VL53L0X_get_vcsel_pulse_period,"ax",%progbits
 3499              		.align	1
 3500              		.p2align 4,,15
 3501              		.global	VL53L0X_get_vcsel_pulse_period
 3502              		.syntax unified
 3503              		.thumb
 3504              		.thumb_func
 3505              		.fpu fpv4-sp-d16
 3506              		.type	VL53L0X_get_vcsel_pulse_period, %function
 3507              	VL53L0X_get_vcsel_pulse_period:
 3508              	.LFB19:
 3509              		.loc 1 1083 0
 3510              		.cfi_startproc
 3511              		@ args = 0, pretend = 0, frame = 8
 3512              		@ frame_needed = 0, uses_anonymous_args = 0
 3513              	.LVL517:
 3514 0000 30B5     		push	{r4, r5, lr}
 3515              		.cfi_def_cfa_offset 12
 3516              		.cfi_offset 4, -12
 3517              		.cfi_offset 5, -8
 3518              		.cfi_offset 14, -4
 3519 0002 124C     		ldr	r4, .L282
 3520 0004 83B0     		sub	sp, sp, #12
 3521              		.cfi_def_cfa_offset 24
 3522              		.loc 1 1083 0
 3523 0006 2368     		ldr	r3, [r4]
 3524 0008 0193     		str	r3, [sp, #4]
 3525              	.LVL518:
 3526 000a 1546     		mov	r5, r2
 3527              		.loc 1 1087 0
 3528 000c B1B1     		cbz	r1, .L274
 3529 000e 0129     		cmp	r1, #1
 3530 0010 07D0     		beq	.L275
 3531              		.loc 1 1099 0
 3532 0012 6FF00300 		mvn	r0, #3
 3533              	.LVL519:
 3534              	.L273:
ARM GAS  /var/folders/d2/nstgp4h54kz7g1l847x_b8wc0000gn/T//cc2apEbl.s 			page 63


 3535              		.loc 1 1107 0
 3536 0016 019A     		ldr	r2, [sp, #4]
 3537 0018 2368     		ldr	r3, [r4]
 3538 001a 9A42     		cmp	r2, r3
 3539 001c 14D1     		bne	.L281
 3540 001e 03B0     		add	sp, sp, #12
 3541              		.cfi_remember_state
 3542              		.cfi_def_cfa_offset 12
 3543              		@ sp needed
 3544 0020 30BD     		pop	{r4, r5, pc}
 3545              	.LVL520:
 3546              	.L275:
 3547              		.cfi_restore_state
 3548              		.loc 1 1094 0
 3549 0022 0DF10302 		add	r2, sp, #3
 3550              	.LVL521:
 3551 0026 7021     		movs	r1, #112
 3552              	.LVL522:
 3553 0028 FFF7FEFF 		bl	VL53L0X_RdByte
 3554              	.LVL523:
 3555              	.L276:
 3556              		.loc 1 1102 0
 3557 002c 0028     		cmp	r0, #0
 3558 002e F2D1     		bne	.L273
 3559              	.LBB200:
 3560              	.LBB201:
 3561              		.loc 1 103 0
 3562 0030 9DF80330 		ldrb	r3, [sp, #3]	@ zero_extendqisi2
 3563 0034 0133     		adds	r3, r3, #1
 3564 0036 5B00     		lsls	r3, r3, #1
 3565              	.LBE201:
 3566              	.LBE200:
 3567              		.loc 1 1103 0
 3568 0038 2B70     		strb	r3, [r5]
 3569 003a ECE7     		b	.L273
 3570              	.LVL524:
 3571              	.L274:
 3572              		.loc 1 1089 0
 3573 003c 0DF10302 		add	r2, sp, #3
 3574              	.LVL525:
 3575 0040 5021     		movs	r1, #80
 3576              	.LVL526:
 3577 0042 FFF7FEFF 		bl	VL53L0X_RdByte
 3578              	.LVL527:
 3579              		.loc 1 1092 0
 3580 0046 F1E7     		b	.L276
 3581              	.LVL528:
 3582              	.L281:
 3583              		.loc 1 1107 0
 3584 0048 FFF7FEFF 		bl	__stack_chk_fail
 3585              	.LVL529:
 3586              	.L283:
 3587              		.align	2
 3588              	.L282:
 3589 004c 00000000 		.word	__stack_chk_guard
 3590              		.cfi_endproc
 3591              	.LFE19:
ARM GAS  /var/folders/d2/nstgp4h54kz7g1l847x_b8wc0000gn/T//cc2apEbl.s 			page 64


 3592              		.size	VL53L0X_get_vcsel_pulse_period, .-VL53L0X_get_vcsel_pulse_period
 3593              		.section	.text.VL53L0X_set_measurement_timing_budget_micro_seconds,"ax",%progbits
 3594              		.align	1
 3595              		.p2align 4,,15
 3596              		.global	VL53L0X_set_measurement_timing_budget_micro_seconds
 3597              		.syntax unified
 3598              		.thumb
 3599              		.thumb_func
 3600              		.fpu fpv4-sp-d16
 3601              		.type	VL53L0X_set_measurement_timing_budget_micro_seconds, %function
 3602              	VL53L0X_set_measurement_timing_budget_micro_seconds:
 3603              	.LFB20:
 3604              		.loc 1 1113 0
 3605              		.cfi_startproc
 3606              		@ args = 0, pretend = 0, frame = 24
 3607              		@ frame_needed = 0, uses_anonymous_args = 0
 3608              	.LVL530:
 3609 0000 2DE9F041 		push	{r4, r5, r6, r7, r8, lr}
 3610              		.cfi_def_cfa_offset 24
 3611              		.cfi_offset 4, -24
 3612              		.cfi_offset 5, -20
 3613              		.cfi_offset 6, -16
 3614              		.cfi_offset 7, -12
 3615              		.cfi_offset 8, -8
 3616              		.cfi_offset 14, -4
 3617 0004 384D     		ldr	r5, .L317
 3618 0006 86B0     		sub	sp, sp, #24
 3619              		.cfi_def_cfa_offset 48
 3620              		.loc 1 1113 0
 3621 0008 2B68     		ldr	r3, [r5]
 3622 000a 0593     		str	r3, [sp, #20]
 3623              	.LVL531:
 3624 000c 0E46     		mov	r6, r1
 3625              		.loc 1 1131 0
 3626 000e 44F61F63 		movw	r3, #19999
 3627              		.loc 1 1117 0
 3628 0012 4FF4FA61 		mov	r1, #2000
 3629              	.LVL532:
 3630              		.loc 1 1125 0
 3631 0016 0022     		movs	r2, #0
 3632              		.loc 1 1131 0
 3633 0018 9E42     		cmp	r6, r3
 3634              		.loc 1 1125 0
 3635 001a CDE90112 		strd	r1, r2, [sp, #4]
 3636              	.LVL533:
 3637              		.loc 1 1131 0
 3638 001e 5BD9     		bls	.L290
 3639              	.LVL534:
 3640              		.loc 1 1141 0
 3641 0020 03A9     		add	r1, sp, #12
 3642 0022 0746     		mov	r7, r0
 3643 0024 FFF7FEFF 		bl	VL53L0X_GetSequenceStepEnables
 3644              	.LVL535:
 3645              		.loc 1 1143 0
 3646 0028 0446     		mov	r4, r0
 3647 002a C0B9     		cbnz	r0, .L286
 3648              		.loc 1 1143 0 is_stmt 0 discriminator 1
ARM GAS  /var/folders/d2/nstgp4h54kz7g1l847x_b8wc0000gn/T//cc2apEbl.s 			page 65


 3649 002c 9DF80C30 		ldrb	r3, [sp, #12]	@ zero_extendqisi2
 3650              		.loc 1 1137 0 is_stmt 1 discriminator 1
 3651 0030 A6F63638 		subw	r8, r6, #2870
 3652              	.LVL536:
 3653              		.loc 1 1143 0 discriminator 1
 3654 0034 DBB9     		cbnz	r3, .L287
 3655              		.loc 1 1144 0
 3656 0036 9DF80D30 		ldrb	r3, [sp, #13]	@ zero_extendqisi2
 3657 003a C3B9     		cbnz	r3, .L287
 3658              		.loc 1 1145 0
 3659 003c 9DF80E30 		ldrb	r3, [sp, #14]	@ zero_extendqisi2
 3660 0040 ABB9     		cbnz	r3, .L287
 3661              	.LVL537:
 3662              	.L288:
 3663              		.loc 1 1214 0
 3664 0042 9DF80F30 		ldrb	r3, [sp, #15]	@ zero_extendqisi2
 3665 0046 A3BB     		cbnz	r3, .L313
 3666              	.LVL538:
 3667              	.L292:
 3668              		.loc 1 1234 0 discriminator 1
 3669 0048 9DF81030 		ldrb	r3, [sp, #16]	@ zero_extendqisi2
 3670 004c 3BB1     		cbz	r3, .L286
 3671              	.LVL539:
 3672              	.LBB202:
 3673              	.LBB203:
 3674 004e A8F22622 		subw	r2, r8, #550
 3675              	.LVL540:
 3676 0052 0421     		movs	r1, #4
 3677 0054 3846     		mov	r0, r7
 3678 0056 FFF7FEFF 		bl	set_sequence_step_timeout.part.1
 3679              	.LVL541:
 3680              	.LBE203:
 3681              	.LBE202:
 3682              		.loc 1 1251 0
 3683 005a 7E61     		str	r6, [r7, #20]
 3684              	.LBB205:
 3685              	.LBB204:
 3686 005c 0446     		mov	r4, r0
 3687              	.LVL542:
 3688              	.L286:
 3689              	.LBE204:
 3690              	.LBE205:
 3691              		.loc 1 1259 0
 3692 005e 059A     		ldr	r2, [sp, #20]
 3693 0060 2B68     		ldr	r3, [r5]
 3694 0062 9A42     		cmp	r2, r3
 3695 0064 2046     		mov	r0, r4
 3696 0066 3DD1     		bne	.L314
 3697 0068 06B0     		add	sp, sp, #24
 3698              		.cfi_remember_state
 3699              		.cfi_def_cfa_offset 24
 3700              		@ sp needed
 3701 006a BDE8F081 		pop	{r4, r5, r6, r7, r8, pc}
 3702              	.LVL543:
 3703              	.L287:
 3704              		.cfi_restore_state
 3705              		.loc 1 1149 0
ARM GAS  /var/folders/d2/nstgp4h54kz7g1l847x_b8wc0000gn/T//cc2apEbl.s 			page 66


 3706 006e 01AA     		add	r2, sp, #4
 3707 0070 0221     		movs	r1, #2
 3708 0072 3846     		mov	r0, r7
 3709              	.LVL544:
 3710 0074 FFF7FEFF 		bl	get_sequence_step_timeout
 3711              	.LVL545:
 3712              		.loc 1 1156 0
 3713 0078 30BB     		cbnz	r0, .L295
 3714              		.loc 1 1160 0
 3715 007a 9DF80C30 		ldrb	r3, [sp, #12]	@ zero_extendqisi2
 3716 007e 33B1     		cbz	r3, .L289
 3717              		.loc 1 1162 0
 3718 0080 019B     		ldr	r3, [sp, #4]
 3719 0082 03F24E23 		addw	r3, r3, #590
 3720              	.LVL546:
 3721              		.loc 1 1165 0
 3722 0086 9845     		cmp	r8, r3
 3723 0088 26D9     		bls	.L290
 3724              		.loc 1 1167 0
 3725 008a A8EB0308 		sub	r8, r8, r3
 3726              	.LVL547:
 3727              	.L289:
 3728              		.loc 1 1181 0
 3729 008e 9DF80E30 		ldrb	r3, [sp, #14]	@ zero_extendqisi2
 3730 0092 DBB9     		cbnz	r3, .L315
 3731              		.loc 1 1193 0
 3732 0094 9DF80D30 		ldrb	r3, [sp, #13]	@ zero_extendqisi2
 3733 0098 002B     		cmp	r3, #0
 3734 009a D2D0     		beq	.L288
 3735              		.loc 1 1195 0
 3736 009c 019B     		ldr	r3, [sp, #4]
 3737 009e 03F52573 		add	r3, r3, #660
 3738              	.LVL548:
 3739              		.loc 1 1198 0
 3740 00a2 9845     		cmp	r8, r3
 3741 00a4 18D9     		bls	.L290
 3742              	.L312:
 3743              		.loc 1 1200 0
 3744 00a6 A8EB0308 		sub	r8, r8, r3
 3745              	.LVL549:
 3746              		.loc 1 1214 0
 3747 00aa 9DF80F30 		ldrb	r3, [sp, #15]	@ zero_extendqisi2
 3748              	.LVL550:
 3749 00ae 002B     		cmp	r3, #0
 3750 00b0 CAD0     		beq	.L292
 3751              	.LVL551:
 3752              	.L313:
 3753              		.loc 1 1218 0
 3754 00b2 02AA     		add	r2, sp, #8
 3755 00b4 0321     		movs	r1, #3
 3756 00b6 3846     		mov	r0, r7
 3757 00b8 FFF7FEFF 		bl	get_sequence_step_timeout
 3758              	.LVL552:
 3759              		.loc 1 1222 0
 3760 00bc 029B     		ldr	r3, [sp, #8]
 3761 00be 03F52573 		add	r3, r3, #660
 3762              	.LVL553:
ARM GAS  /var/folders/d2/nstgp4h54kz7g1l847x_b8wc0000gn/T//cc2apEbl.s 			page 67


 3763              		.loc 1 1225 0
 3764 00c2 4345     		cmp	r3, r8
 3765 00c4 08D2     		bcs	.L290
 3766              	.LVL554:
 3767              		.loc 1 1234 0
 3768 00c6 50B1     		cbz	r0, .L316
 3769              	.LVL555:
 3770              	.L295:
 3771 00c8 0446     		mov	r4, r0
 3772 00ca C8E7     		b	.L286
 3773              	.LVL556:
 3774              	.L315:
 3775              		.loc 1 1183 0
 3776 00cc 019B     		ldr	r3, [sp, #4]
 3777 00ce 03F2B223 		addw	r3, r3, #690
 3778 00d2 5B00     		lsls	r3, r3, #1
 3779              	.LVL557:
 3780              		.loc 1 1186 0
 3781 00d4 9845     		cmp	r8, r3
 3782 00d6 E6D8     		bhi	.L312
 3783              	.LVL558:
 3784              	.L290:
 3785              		.loc 1 1134 0
 3786 00d8 6FF00304 		mvn	r4, #3
 3787 00dc BFE7     		b	.L286
 3788              	.LVL559:
 3789              	.L316:
 3790              		.loc 1 1226 0
 3791 00de A8EB0308 		sub	r8, r8, r3
 3792              	.LVL560:
 3793 00e2 B1E7     		b	.L292
 3794              	.LVL561:
 3795              	.L314:
 3796              		.loc 1 1259 0
 3797 00e4 FFF7FEFF 		bl	__stack_chk_fail
 3798              	.LVL562:
 3799              	.L318:
 3800              		.align	2
 3801              	.L317:
 3802 00e8 00000000 		.word	__stack_chk_guard
 3803              		.cfi_endproc
 3804              	.LFE20:
 3805              		.size	VL53L0X_set_measurement_timing_budget_micro_seconds, .-VL53L0X_set_measurement_timing_budget
 3806              		.section	.text.VL53L0X_get_measurement_timing_budget_micro_seconds,"ax",%progbits
 3807              		.align	1
 3808              		.p2align 4,,15
 3809              		.global	VL53L0X_get_measurement_timing_budget_micro_seconds
 3810              		.syntax unified
 3811              		.thumb
 3812              		.thumb_func
 3813              		.fpu fpv4-sp-d16
 3814              		.type	VL53L0X_get_measurement_timing_budget_micro_seconds, %function
 3815              	VL53L0X_get_measurement_timing_budget_micro_seconds:
 3816              	.LFB21:
 3817              		.loc 1 1263 0
 3818              		.cfi_startproc
 3819              		@ args = 0, pretend = 0, frame = 24
ARM GAS  /var/folders/d2/nstgp4h54kz7g1l847x_b8wc0000gn/T//cc2apEbl.s 			page 68


 3820              		@ frame_needed = 0, uses_anonymous_args = 0
 3821              	.LVL563:
 3822 0000 F0B5     		push	{r4, r5, r6, r7, lr}
 3823              		.cfi_def_cfa_offset 20
 3824              		.cfi_offset 4, -20
 3825              		.cfi_offset 5, -16
 3826              		.cfi_offset 6, -12
 3827              		.cfi_offset 7, -8
 3828              		.cfi_offset 14, -4
 3829 0002 374E     		ldr	r6, .L349
 3830 0004 87B0     		sub	sp, sp, #28
 3831              		.cfi_def_cfa_offset 48
 3832              		.loc 1 1263 0
 3833 0006 0D46     		mov	r5, r1
 3834              		.loc 1 1281 0
 3835 0008 40F63633 		movw	r3, #2870
 3836              		.loc 1 1263 0
 3837 000c 3168     		ldr	r1, [r6]
 3838              	.LVL564:
 3839 000e 0591     		str	r1, [sp, #20]
 3840              	.LVL565:
 3841              		.loc 1 1281 0
 3842 0010 2B60     		str	r3, [r5]
 3843              		.loc 1 1267 0
 3844 0012 4FF4FA62 		mov	r2, #2000
 3845              		.loc 1 1275 0
 3846 0016 0023     		movs	r3, #0
 3847              		.loc 1 1283 0
 3848 0018 03A9     		add	r1, sp, #12
 3849              		.loc 1 1275 0
 3850 001a CDE90123 		strd	r2, r3, [sp, #4]
 3851              		.loc 1 1263 0
 3852 001e 0746     		mov	r7, r0
 3853              		.loc 1 1283 0
 3854 0020 FFF7FEFF 		bl	VL53L0X_GetSequenceStepEnables
 3855              	.LVL566:
 3856              		.loc 1 1285 0
 3857 0024 0446     		mov	r4, r0
 3858 0026 E8B9     		cbnz	r0, .L320
 3859              		.loc 1 1291 0
 3860 0028 9DF80C30 		ldrb	r3, [sp, #12]	@ zero_extendqisi2
 3861 002c 0BBB     		cbnz	r3, .L321
 3862              		.loc 1 1291 0 is_stmt 0 discriminator 1
 3863 002e 9DF80D30 		ldrb	r3, [sp, #13]	@ zero_extendqisi2
 3864 0032 F3B9     		cbnz	r3, .L321
 3865              		.loc 1 1292 0 is_stmt 1
 3866 0034 9DF80E30 		ldrb	r3, [sp, #14]	@ zero_extendqisi2
 3867 0038 DBB9     		cbnz	r3, .L321
 3868              	.LVL567:
 3869              	.L325:
 3870              		.loc 1 1319 0
 3871 003a 9DF80F30 		ldrb	r3, [sp, #15]	@ zero_extendqisi2
 3872 003e 63B1     		cbz	r3, .L329
 3873              		.loc 1 1320 0
 3874 0040 02AA     		add	r2, sp, #8
 3875 0042 0321     		movs	r1, #3
 3876 0044 3846     		mov	r0, r7
ARM GAS  /var/folders/d2/nstgp4h54kz7g1l847x_b8wc0000gn/T//cc2apEbl.s 			page 69


 3877 0046 FFF7FEFF 		bl	get_sequence_step_timeout
 3878              	.LVL568:
 3879              		.loc 1 1324 0
 3880 004a 029A     		ldr	r2, [sp, #8]
 3881              		.loc 1 1323 0
 3882 004c 2B68     		ldr	r3, [r5]
 3883              		.loc 1 1324 0
 3884 004e 02F52572 		add	r2, r2, #660
 3885              		.loc 1 1323 0
 3886 0052 1344     		add	r3, r3, r2
 3887 0054 2B60     		str	r3, [r5]
 3888              		.loc 1 1329 0
 3889 0056 0028     		cmp	r0, #0
 3890 0058 35D1     		bne	.L332
 3891              	.LVL569:
 3892              	.L329:
 3893              		.loc 1 1330 0
 3894 005a 9DF81030 		ldrb	r3, [sp, #16]	@ zero_extendqisi2
 3895 005e 2BBB     		cbnz	r3, .L326
 3896 0060 2B68     		ldr	r3, [r5]
 3897              	.L327:
 3898              		.loc 1 1341 0
 3899 0062 7B61     		str	r3, [r7, #20]
 3900              	.L320:
 3901              		.loc 1 1348 0
 3902 0064 059A     		ldr	r2, [sp, #20]
 3903 0066 3368     		ldr	r3, [r6]
 3904 0068 9A42     		cmp	r2, r3
 3905 006a 2046     		mov	r0, r4
 3906 006c 35D1     		bne	.L347
 3907 006e 07B0     		add	sp, sp, #28
 3908              		.cfi_remember_state
 3909              		.cfi_def_cfa_offset 20
 3910              		@ sp needed
 3911 0070 F0BD     		pop	{r4, r5, r6, r7, pc}
 3912              	.LVL570:
 3913              	.L321:
 3914              		.cfi_restore_state
 3915              		.loc 1 1295 0
 3916 0072 01AA     		add	r2, sp, #4
 3917 0074 0221     		movs	r1, #2
 3918 0076 3846     		mov	r0, r7
 3919              	.LVL571:
 3920 0078 FFF7FEFF 		bl	get_sequence_step_timeout
 3921              	.LVL572:
 3922              		.loc 1 1299 0
 3923 007c 18BB     		cbnz	r0, .L332
 3924              		.loc 1 1300 0
 3925 007e 9DF80C30 		ldrb	r3, [sp, #12]	@ zero_extendqisi2
 3926 0082 2BB1     		cbz	r3, .L323
 3927              		.loc 1 1302 0
 3928 0084 019A     		ldr	r2, [sp, #4]
 3929              		.loc 1 1301 0
 3930 0086 2B68     		ldr	r3, [r5]
 3931              		.loc 1 1302 0
 3932 0088 02F24E22 		addw	r2, r2, #590
 3933              		.loc 1 1301 0
ARM GAS  /var/folders/d2/nstgp4h54kz7g1l847x_b8wc0000gn/T//cc2apEbl.s 			page 70


 3934 008c 1344     		add	r3, r3, r2
 3935 008e 2B60     		str	r3, [r5]
 3936              	.L323:
 3937              		.loc 1 1306 0
 3938 0090 9DF80E30 		ldrb	r3, [sp, #14]	@ zero_extendqisi2
 3939 0094 CBB9     		cbnz	r3, .L348
 3940              		.loc 1 1310 0
 3941 0096 9DF80D30 		ldrb	r3, [sp, #13]	@ zero_extendqisi2
 3942 009a 002B     		cmp	r3, #0
 3943 009c CDD0     		beq	.L325
 3944              		.loc 1 1312 0
 3945 009e 019A     		ldr	r2, [sp, #4]
 3946              		.loc 1 1311 0
 3947 00a0 2B68     		ldr	r3, [r5]
 3948              		.loc 1 1312 0
 3949 00a2 02F52572 		add	r2, r2, #660
 3950              		.loc 1 1311 0
 3951 00a6 1344     		add	r3, r3, r2
 3952 00a8 2B60     		str	r3, [r5]
 3953              	.LVL573:
 3954 00aa C6E7     		b	.L325
 3955              	.LVL574:
 3956              	.L326:
 3957              		.loc 1 1331 0
 3958 00ac 6A46     		mov	r2, sp
 3959 00ae 0421     		movs	r1, #4
 3960 00b0 3846     		mov	r0, r7
 3961 00b2 FFF7FEFF 		bl	get_sequence_step_timeout
 3962              	.LVL575:
 3963              		.loc 1 1335 0
 3964 00b6 009A     		ldr	r2, [sp]
 3965              		.loc 1 1334 0
 3966 00b8 2B68     		ldr	r3, [r5]
 3967              		.loc 1 1335 0
 3968 00ba 02F22622 		addw	r2, r2, #550
 3969              		.loc 1 1334 0
 3970 00be 1344     		add	r3, r3, r2
 3971 00c0 2B60     		str	r3, [r5]
 3972              		.loc 1 1340 0
 3973 00c2 0028     		cmp	r0, #0
 3974 00c4 CDD0     		beq	.L327
 3975              	.L332:
 3976 00c6 0446     		mov	r4, r0
 3977 00c8 CCE7     		b	.L320
 3978              	.L348:
 3979              		.loc 1 1308 0
 3980 00ca 019A     		ldr	r2, [sp, #4]
 3981              		.loc 1 1307 0
 3982 00cc 2B68     		ldr	r3, [r5]
 3983              		.loc 1 1308 0
 3984 00ce 02F2B222 		addw	r2, r2, #690
 3985              		.loc 1 1307 0
 3986 00d2 03EB4203 		add	r3, r3, r2, lsl #1
 3987 00d6 2B60     		str	r3, [r5]
 3988              	.LVL576:
 3989 00d8 AFE7     		b	.L325
 3990              	.LVL577:
ARM GAS  /var/folders/d2/nstgp4h54kz7g1l847x_b8wc0000gn/T//cc2apEbl.s 			page 71


 3991              	.L347:
 3992              		.loc 1 1348 0
 3993 00da FFF7FEFF 		bl	__stack_chk_fail
 3994              	.LVL578:
 3995              	.L350:
 3996 00de 00BF     		.align	2
 3997              	.L349:
 3998 00e0 00000000 		.word	__stack_chk_guard
 3999              		.cfi_endproc
 4000              	.LFE21:
 4001              		.size	VL53L0X_get_measurement_timing_budget_micro_seconds, .-VL53L0X_get_measurement_timing_budget
 4002              		.section	.text.VL53L0X_load_tuning_settings,"ax",%progbits
 4003              		.align	1
 4004              		.p2align 4,,15
 4005              		.global	VL53L0X_load_tuning_settings
 4006              		.syntax unified
 4007              		.thumb
 4008              		.thumb_func
 4009              		.fpu fpv4-sp-d16
 4010              		.type	VL53L0X_load_tuning_settings, %function
 4011              	VL53L0X_load_tuning_settings:
 4012              	.LFB22:
 4013              		.loc 1 1354 0
 4014              		.cfi_startproc
 4015              		@ args = 0, pretend = 0, frame = 8
 4016              		@ frame_needed = 0, uses_anonymous_args = 0
 4017              	.LVL579:
 4018 0000 F0B5     		push	{r4, r5, r6, r7, lr}
 4019              		.cfi_def_cfa_offset 20
 4020              		.cfi_offset 4, -20
 4021              		.cfi_offset 5, -16
 4022              		.cfi_offset 6, -12
 4023              		.cfi_offset 7, -8
 4024              		.cfi_offset 14, -4
 4025 0002 324F     		ldr	r7, .L376
 4026              		.loc 1 1370 0
 4027 0004 0B78     		ldrb	r3, [r1]	@ zero_extendqisi2
 4028              		.loc 1 1354 0
 4029 0006 3A68     		ldr	r2, [r7]
 4030 0008 83B0     		sub	sp, sp, #12
 4031              		.cfi_def_cfa_offset 32
 4032              		.loc 1 1354 0
 4033 000a 0192     		str	r2, [sp, #4]
 4034              	.LVL580:
 4035              		.loc 1 1370 0
 4036 000c 002B     		cmp	r3, #0
 4037 000e 42D0     		beq	.L353
 4038 0010 0D46     		mov	r5, r1
 4039 0012 0646     		mov	r6, r0
 4040              		.loc 1 1368 0
 4041 0014 0024     		movs	r4, #0
 4042              	.LVL581:
 4043              	.L352:
 4044 0016 621C     		adds	r2, r4, #1
 4045              	.LVL582:
 4046              	.L363:
 4047              		.loc 1 1374 0
ARM GAS  /var/folders/d2/nstgp4h54kz7g1l847x_b8wc0000gn/T//cc2apEbl.s 			page 72


 4048 0018 FF2B     		cmp	r3, #255
 4049 001a 09D0     		beq	.L373
 4050              		.loc 1 1416 0
 4051 001c 042B     		cmp	r3, #4
 4052 001e 0ED9     		bls	.L374
 4053              	.LVL583:
 4054              	.L367:
 4055              		.loc 1 1430 0
 4056 0020 6FF00300 		mvn	r0, #3
 4057              	.LVL584:
 4058              	.L355:
 4059              		.loc 1 1436 0
 4060 0024 019A     		ldr	r2, [sp, #4]
 4061 0026 3B68     		ldr	r3, [r7]
 4062 0028 9A42     		cmp	r2, r3
 4063 002a 4CD1     		bne	.L375
 4064 002c 03B0     		add	sp, sp, #12
 4065              		.cfi_remember_state
 4066              		.cfi_def_cfa_offset 20
 4067              		@ sp needed
 4068 002e F0BD     		pop	{r4, r5, r6, r7, pc}
 4069              	.LVL585:
 4070              	.L373:
 4071              		.cfi_restore_state
 4072              		.loc 1 1378 0
 4073 0030 AB5C     		ldrb	r3, [r5, r2]	@ zero_extendqisi2
 4074              	.LVL586:
 4075 0032 032B     		cmp	r3, #3
 4076 0034 F4D8     		bhi	.L367
 4077 0036 DFE803F0 		tbb	[pc, r3]
 4078              	.L357:
 4079 003a 3B       		.byte	(.L356-.L357)/2
 4080 003b 30       		.byte	(.L358-.L357)/2
 4081 003c 24       		.byte	(.L359-.L357)/2
 4082 003d 19       		.byte	(.L360-.L357)/2
 4083              	.LVL587:
 4084              		.p2align 1
 4085              	.L374:
 4086              		.loc 1 1417 0
 4087 003e A95C     		ldrb	r1, [r5, r2]	@ zero_extendqisi2
 4088              	.LVL588:
 4089              		.loc 1 1418 0
 4090 0040 541C     		adds	r4, r2, #1
 4091              	.LVL589:
 4092 0042 6846     		mov	r0, sp
 4093 0044 2A44     		add	r2, r2, r5
 4094 0046 0DEB030E 		add	lr, sp, r3
 4095              	.LVL590:
 4096              	.L362:
 4097              		.loc 1 1421 0 discriminator 3
 4098 004a 12F801CF 		ldrb	ip, [r2, #1]!	@ zero_extendqisi2
 4099 004e 00F801CB 		strb	ip, [r0], #1
 4100              		.loc 1 1420 0 discriminator 3
 4101 0052 7045     		cmp	r0, lr
 4102 0054 F9D1     		bne	.L362
 4103 0056 1C44     		add	r4, r4, r3
 4104              		.loc 1 1426 0
ARM GAS  /var/folders/d2/nstgp4h54kz7g1l847x_b8wc0000gn/T//cc2apEbl.s 			page 73


 4105 0058 6A46     		mov	r2, sp
 4106 005a 3046     		mov	r0, r6
 4107 005c FFF7FEFF 		bl	VL53L0X_WriteMulti
 4108              	.LVL591:
 4109              		.loc 1 1370 0
 4110 0060 2B5D     		ldrb	r3, [r5, r4]	@ zero_extendqisi2
 4111 0062 002B     		cmp	r3, #0
 4112 0064 DED0     		beq	.L355
 4113              		.loc 1 1370 0 is_stmt 0 discriminator 1
 4114 0066 0028     		cmp	r0, #0
 4115 0068 D5D0     		beq	.L352
 4116 006a DBE7     		b	.L355
 4117              	.LVL592:
 4118              	.L360:
 4119 006c AB18     		adds	r3, r5, r2
 4120              	.LVL593:
 4121              		.loc 1 1409 0 is_stmt 1
 4122 006e 5878     		ldrb	r0, [r3, #1]	@ zero_extendqisi2
 4123 0070 9978     		ldrb	r1, [r3, #2]	@ zero_extendqisi2
 4124 0072 01EB0021 		add	r1, r1, r0, lsl #8
 4125              		.loc 1 1410 0
 4126 0076 A6F83C11 		strh	r1, [r6, #316]	@ movhi
 4127              	.LVL594:
 4128              		.loc 1 1370 0
 4129 007a DB78     		ldrb	r3, [r3, #3]	@ zero_extendqisi2
 4130 007c 5BB1     		cbz	r3, .L353
 4131              	.LVL595:
 4132              	.L361:
 4133 007e 0432     		adds	r2, r2, #4
 4134 0080 CAE7     		b	.L363
 4135              	.LVL596:
 4136              	.L359:
 4137 0082 AB18     		adds	r3, r5, r2
 4138              	.LVL597:
 4139              		.loc 1 1401 0
 4140 0084 5878     		ldrb	r0, [r3, #1]	@ zero_extendqisi2
 4141 0086 9978     		ldrb	r1, [r3, #2]	@ zero_extendqisi2
 4142 0088 01EB0021 		add	r1, r1, r0, lsl #8
 4143              		.loc 1 1402 0
 4144 008c A6F83811 		strh	r1, [r6, #312]	@ movhi
 4145              	.LVL598:
 4146              		.loc 1 1370 0
 4147 0090 DB78     		ldrb	r3, [r3, #3]	@ zero_extendqisi2
 4148 0092 002B     		cmp	r3, #0
 4149 0094 F3D1     		bne	.L361
 4150              	.LVL599:
 4151              	.L353:
 4152              		.loc 1 1355 0
 4153 0096 0020     		movs	r0, #0
 4154 0098 C4E7     		b	.L355
 4155              	.LVL600:
 4156              	.L358:
 4157 009a AB18     		adds	r3, r5, r2
 4158              	.LVL601:
 4159              		.loc 1 1392 0
 4160 009c 5878     		ldrb	r0, [r3, #1]	@ zero_extendqisi2
 4161 009e 9978     		ldrb	r1, [r3, #2]	@ zero_extendqisi2
ARM GAS  /var/folders/d2/nstgp4h54kz7g1l847x_b8wc0000gn/T//cc2apEbl.s 			page 74


 4162 00a0 01EB0021 		add	r1, r1, r0, lsl #8
 4163              		.loc 1 1393 0
 4164 00a4 A6F83611 		strh	r1, [r6, #310]	@ movhi
 4165              	.LVL602:
 4166              		.loc 1 1370 0
 4167 00a8 DB78     		ldrb	r3, [r3, #3]	@ zero_extendqisi2
 4168 00aa 002B     		cmp	r3, #0
 4169 00ac E7D1     		bne	.L361
 4170 00ae F2E7     		b	.L353
 4171              	.LVL603:
 4172              	.L356:
 4173 00b0 AB18     		adds	r3, r5, r2
 4174              	.LVL604:
 4175              		.loc 1 1384 0
 4176 00b2 5878     		ldrb	r0, [r3, #1]	@ zero_extendqisi2
 4177 00b4 9978     		ldrb	r1, [r3, #2]	@ zero_extendqisi2
 4178 00b6 01EB0021 		add	r1, r1, r0, lsl #8
 4179              		.loc 1 1385 0
 4180 00ba A6F83411 		strh	r1, [r6, #308]	@ movhi
 4181              	.LVL605:
 4182              		.loc 1 1370 0
 4183 00be DB78     		ldrb	r3, [r3, #3]	@ zero_extendqisi2
 4184 00c0 002B     		cmp	r3, #0
 4185 00c2 DCD1     		bne	.L361
 4186 00c4 E7E7     		b	.L353
 4187              	.LVL606:
 4188              	.L375:
 4189              		.loc 1 1436 0
 4190 00c6 FFF7FEFF 		bl	__stack_chk_fail
 4191              	.LVL607:
 4192              	.L377:
 4193 00ca 00BF     		.align	2
 4194              	.L376:
 4195 00cc 00000000 		.word	__stack_chk_guard
 4196              		.cfi_endproc
 4197              	.LFE22:
 4198              		.size	VL53L0X_load_tuning_settings, .-VL53L0X_load_tuning_settings
 4199              		.section	.text.VL53L0X_get_total_xtalk_rate,"ax",%progbits
 4200              		.align	1
 4201              		.p2align 4,,15
 4202              		.global	VL53L0X_get_total_xtalk_rate
 4203              		.syntax unified
 4204              		.thumb
 4205              		.thumb_func
 4206              		.fpu fpv4-sp-d16
 4207              		.type	VL53L0X_get_total_xtalk_rate, %function
 4208              	VL53L0X_get_total_xtalk_rate:
 4209              	.LFB23:
 4210              		.loc 1 1441 0
 4211              		.cfi_startproc
 4212              		@ args = 0, pretend = 0, frame = 8
 4213              		@ frame_needed = 0, uses_anonymous_args = 0
 4214              	.LVL608:
 4215 0000 F0B5     		push	{r4, r5, r6, r7, lr}
 4216              		.cfi_def_cfa_offset 20
 4217              		.cfi_offset 4, -20
 4218              		.cfi_offset 5, -16
ARM GAS  /var/folders/d2/nstgp4h54kz7g1l847x_b8wc0000gn/T//cc2apEbl.s 			page 75


 4219              		.cfi_offset 6, -12
 4220              		.cfi_offset 7, -8
 4221              		.cfi_offset 14, -4
 4222 0002 1546     		mov	r5, r2
 4223 0004 0F4C     		ldr	r4, .L386
 4224 0006 83B0     		sub	sp, sp, #12
 4225              		.cfi_def_cfa_offset 32
 4226              		.loc 1 1448 0
 4227 0008 0022     		movs	r2, #0
 4228              	.LVL609:
 4229              		.loc 1 1441 0
 4230 000a 2368     		ldr	r3, [r4]
 4231              		.loc 1 1448 0
 4232 000c 2A60     		str	r2, [r5]
 4233              		.loc 1 1441 0
 4234 000e 0F46     		mov	r7, r1
 4235              		.loc 1 1450 0
 4236 0010 0DF10301 		add	r1, sp, #3
 4237              	.LVL610:
 4238              		.loc 1 1441 0
 4239 0014 0193     		str	r3, [sp, #4]
 4240              	.LVL611:
 4241 0016 0646     		mov	r6, r0
 4242              		.loc 1 1450 0
 4243 0018 FFF7FEFF 		bl	VL53L0X_GetXTalkCompensationEnable
 4244              	.LVL612:
 4245              		.loc 1 1451 0
 4246 001c 48B9     		cbnz	r0, .L379
 4247              		.loc 1 1453 0
 4248 001e 9DF80330 		ldrb	r3, [sp, #3]	@ zero_extendqisi2
 4249 0022 33B1     		cbz	r3, .L379
 4250              	.LVL613:
 4251              	.LBB208:
 4252              	.LBB209:
 4253              		.loc 1 1462 0
 4254 0024 BA8A     		ldrh	r2, [r7, #20]
 4255              		.loc 1 1461 0
 4256 0026 336A     		ldr	r3, [r6, #32]
 4257 0028 03FB02F3 		mul	r3, r3, r2
 4258              	.LVL614:
 4259              		.loc 1 1467 0
 4260 002c 8033     		adds	r3, r3, #128
 4261              	.LVL615:
 4262 002e 1B0A     		lsrs	r3, r3, #8
 4263              	.LVL616:
 4264              		.loc 1 1466 0
 4265 0030 2B60     		str	r3, [r5]
 4266              	.LVL617:
 4267              	.L379:
 4268              	.LBE209:
 4269              	.LBE208:
 4270              		.loc 1 1472 0
 4271 0032 019A     		ldr	r2, [sp, #4]
 4272 0034 2368     		ldr	r3, [r4]
 4273 0036 9A42     		cmp	r2, r3
 4274 0038 01D1     		bne	.L385
 4275 003a 03B0     		add	sp, sp, #12
ARM GAS  /var/folders/d2/nstgp4h54kz7g1l847x_b8wc0000gn/T//cc2apEbl.s 			page 76


 4276              		.cfi_remember_state
 4277              		.cfi_def_cfa_offset 20
 4278              		@ sp needed
 4279 003c F0BD     		pop	{r4, r5, r6, r7, pc}
 4280              	.LVL618:
 4281              	.L385:
 4282              		.cfi_restore_state
 4283 003e FFF7FEFF 		bl	__stack_chk_fail
 4284              	.LVL619:
 4285              	.L387:
 4286 0042 00BF     		.align	2
 4287              	.L386:
 4288 0044 00000000 		.word	__stack_chk_guard
 4289              		.cfi_endproc
 4290              	.LFE23:
 4291              		.size	VL53L0X_get_total_xtalk_rate, .-VL53L0X_get_total_xtalk_rate
 4292              		.section	.text.VL53L0X_get_total_signal_rate,"ax",%progbits
 4293              		.align	1
 4294              		.p2align 4,,15
 4295              		.global	VL53L0X_get_total_signal_rate
 4296              		.syntax unified
 4297              		.thumb
 4298              		.thumb_func
 4299              		.fpu fpv4-sp-d16
 4300              		.type	VL53L0X_get_total_signal_rate, %function
 4301              	VL53L0X_get_total_signal_rate:
 4302              	.LFB24:
 4303              		.loc 1 1477 0
 4304              		.cfi_startproc
 4305              		@ args = 0, pretend = 0, frame = 8
 4306              		@ frame_needed = 0, uses_anonymous_args = 0
 4307              	.LVL620:
 4308 0000 30B5     		push	{r4, r5, lr}
 4309              		.cfi_def_cfa_offset 12
 4310              		.cfi_offset 4, -12
 4311              		.cfi_offset 5, -8
 4312              		.cfi_offset 14, -4
 4313 0002 1446     		mov	r4, r2
 4314 0004 0A4D     		ldr	r5, .L393
 4315              		.loc 1 1484 0
 4316 0006 CA68     		ldr	r2, [r1, #12]
 4317              	.LVL621:
 4318              		.loc 1 1477 0
 4319 0008 2B68     		ldr	r3, [r5]
 4320              		.loc 1 1483 0
 4321 000a 2260     		str	r2, [r4]
 4322              		.loc 1 1477 0
 4323 000c 83B0     		sub	sp, sp, #12
 4324              		.cfi_def_cfa_offset 24
 4325              		.loc 1 1486 0
 4326 000e 6A46     		mov	r2, sp
 4327              		.loc 1 1477 0
 4328 0010 0193     		str	r3, [sp, #4]
 4329              	.LVL622:
 4330              		.loc 1 1486 0
 4331 0012 FFF7FEFF 		bl	VL53L0X_get_total_xtalk_rate
 4332              	.LVL623:
ARM GAS  /var/folders/d2/nstgp4h54kz7g1l847x_b8wc0000gn/T//cc2apEbl.s 			page 77


 4333              		.loc 1 1489 0
 4334 0016 18B9     		cbnz	r0, .L389
 4335              		.loc 1 1490 0
 4336 0018 2368     		ldr	r3, [r4]
 4337 001a 009A     		ldr	r2, [sp]
 4338 001c 1344     		add	r3, r3, r2
 4339 001e 2360     		str	r3, [r4]
 4340              	.L389:
 4341              		.loc 1 1493 0
 4342 0020 019A     		ldr	r2, [sp, #4]
 4343 0022 2B68     		ldr	r3, [r5]
 4344 0024 9A42     		cmp	r2, r3
 4345 0026 01D1     		bne	.L392
 4346 0028 03B0     		add	sp, sp, #12
 4347              		.cfi_remember_state
 4348              		.cfi_def_cfa_offset 12
 4349              		@ sp needed
 4350 002a 30BD     		pop	{r4, r5, pc}
 4351              	.LVL624:
 4352              	.L392:
 4353              		.cfi_restore_state
 4354 002c FFF7FEFF 		bl	__stack_chk_fail
 4355              	.LVL625:
 4356              	.L394:
 4357              		.align	2
 4358              	.L393:
 4359 0030 00000000 		.word	__stack_chk_guard
 4360              		.cfi_endproc
 4361              	.LFE24:
 4362              		.size	VL53L0X_get_total_signal_rate, .-VL53L0X_get_total_signal_rate
 4363              		.section	.text.VL53L0X_calc_dmax,"ax",%progbits
 4364              		.align	1
 4365              		.p2align 4,,15
 4366              		.global	VL53L0X_calc_dmax
 4367              		.syntax unified
 4368              		.thumb
 4369              		.thumb_func
 4370              		.fpu fpv4-sp-d16
 4371              		.type	VL53L0X_calc_dmax, %function
 4372              	VL53L0X_calc_dmax:
 4373              	.LFB25:
 4374              		.loc 1 1504 0
 4375              		.cfi_startproc
 4376              		@ args = 16, pretend = 0, frame = 8
 4377              		@ frame_needed = 0, uses_anonymous_args = 0
 4378              	.LVL626:
 4379 0000 F0B5     		push	{r4, r5, r6, r7, lr}
 4380              		.cfi_def_cfa_offset 20
 4381              		.cfi_offset 4, -20
 4382              		.cfi_offset 5, -16
 4383              		.cfi_offset 6, -12
 4384              		.cfi_offset 7, -8
 4385              		.cfi_offset 14, -4
 4386              		.loc 1 1531 0
 4387 0002 B0F85461 		ldrh	r6, [r0, #340]
 4388              		.loc 1 1538 0
 4389 0006 D0F85851 		ldr	r5, [r0, #344]
ARM GAS  /var/folders/d2/nstgp4h54kz7g1l847x_b8wc0000gn/T//cc2apEbl.s 			page 78


 4390              		.loc 1 1504 0
 4391 000a 4E4C     		ldr	r4, .L427
 4392              		.loc 1 1538 0
 4393 000c 05FB06F5 		mul	r5, r5, r6
 4394              		.loc 1 1504 0
 4395 0010 83B0     		sub	sp, sp, #12
 4396              		.cfi_def_cfa_offset 32
 4397              		.loc 1 1541 0
 4398 0012 8035     		adds	r5, r5, #128
 4399              		.loc 1 1504 0
 4400 0014 2068     		ldr	r0, [r4]
 4401              	.LVL627:
 4402 0016 0190     		str	r0, [sp, #4]
 4403              	.LVL628:
 4404              		.loc 1 1541 0
 4405 0018 2D0A     		lsrs	r5, r5, #8
 4406              	.LVL629:
 4407              		.loc 1 1542 0
 4408 001a 05FB06F5 		mul	r5, r5, r6
 4409              	.LVL630:
 4410              		.loc 1 1504 0
 4411 001e DDE908E7 		ldrd	lr, r7, [sp, #32]
 4412 0022 DDE90A60 		ldrd	r6, r0, [sp, #40]
 4413              	.LVL631:
 4414              		.loc 1 1545 0
 4415 0026 5AB1     		cbz	r2, .L396
 4416              	.LVL632:
 4417              		.loc 1 1549 0
 4418 0028 8902     		lsls	r1, r1, #10
 4419              	.LVL633:
 4420              		.loc 1 1552 0
 4421 002a 01EB5201 		add	r1, r1, r2, lsr #1
 4422              	.LVL634:
 4423              		.loc 1 1556 0
 4424 002e B1FBF2F2 		udiv	r2, r1, r2
 4425              	.LVL635:
 4426              		.loc 1 1560 0
 4427 0032 02EB4202 		add	r2, r2, r2, lsl #1
 4428              	.LVL636:
 4429              		.loc 1 1563 0
 4430 0036 02FB02F2 		mul	r2, r2, r2
 4431              	.LVL637:
 4432              		.loc 1 1566 0
 4433 003a 02F50042 		add	r2, r2, #32768
 4434              	.LVL638:
 4435 003e 120C     		lsrs	r2, r2, #16
 4436              	.LVL639:
 4437              	.L396:
 4438              		.loc 1 1582 0
 4439 0040 07F50041 		add	r1, r7, #32768
 4440 0044 090C     		lsrs	r1, r1, #16
 4441              		.loc 1 1583 0
 4442 0046 DFF80CC1 		ldr	ip, .L427+16
 4443 004a 0331     		adds	r1, r1, #3
 4444              		.loc 1 1569 0
 4445 004c 0EFB03F3 		mul	r3, lr, r3
 4446              	.LVL640:
ARM GAS  /var/folders/d2/nstgp4h54kz7g1l847x_b8wc0000gn/T//cc2apEbl.s 			page 79


 4447              		.loc 1 1583 0
 4448 0050 ACFB01E1 		umull	lr, r1, ip, r1
 4449 0054 8908     		lsrs	r1, r1, #2
 4450              		.loc 1 1572 0
 4451 0056 03F50043 		add	r3, r3, #32768
 4452              	.LVL641:
 4453              		.loc 1 1585 0
 4454 005a C1EBC101 		rsb	r1, r1, r1, lsl #3
 4455              		.loc 1 1572 0
 4456 005e 1B0C     		lsrs	r3, r3, #16
 4457              	.LVL642:
 4458              		.loc 1 1587 0
 4459 0060 B1F5803F 		cmp	r1, #65536
 4460              		.loc 1 1575 0
 4461 0064 03FB03F3 		mul	r3, r3, r3
 4462              	.LVL643:
 4463              		.loc 1 1587 0
 4464 0068 62D2     		bcs	.L409
 4465              		.loc 1 1595 0
 4466 006a F91C     		adds	r1, r7, #3
 4467 006c ACFB0171 		umull	r7, r1, ip, r1
 4468 0070 8908     		lsrs	r1, r1, #2
 4469              	.LVL644:
 4470              		.loc 1 1597 0
 4471 0072 C1EBC101 		rsb	r1, r1, r1, lsl #3
 4472              	.LVL645:
 4473              		.loc 1 1600 0
 4474 0076 01F50041 		add	r1, r1, #32768
 4475 007a 090C     		lsrs	r1, r1, #16
 4476              	.LVL646:
 4477              		.loc 1 1602 0
 4478 007c 01FB01F1 		mul	r1, r1, r1
 4479              	.LVL647:
 4480              	.L397:
 4481              		.loc 1 1631 0
 4482 0080 03EB5603 		add	r3, r3, r6, lsr #1
 4483              	.LVL648:
 4484 0084 0B44     		add	r3, r3, r1
 4485              	.LVL649:
 4486              		.loc 1 1632 0
 4487 0086 B3FBF6F3 		udiv	r3, r3, r6
 4488              	.LVL650:
 4489              		.loc 1 1635 0
 4490 008a 9B03     		lsls	r3, r3, #14
 4491              	.LVL651:
 4492              		.loc 1 1639 0
 4493 008c 2E4F     		ldr	r7, .L427+4
 4494              		.loc 1 1638 0
 4495 008e 7F33     		adds	r3, r3, #127
 4496              	.LVL652:
 4497              		.loc 1 1639 0
 4498 0090 5B08     		lsrs	r3, r3, #1
 4499              	.LVL653:
 4500 0092 A7FB0313 		umull	r1, r3, r7, r3
 4501              	.LVL654:
 4502 0096 9B09     		lsrs	r3, r3, #6
 4503              	.LVL655:
ARM GAS  /var/folders/d2/nstgp4h54kz7g1l847x_b8wc0000gn/T//cc2apEbl.s 			page 80


 4504              		.loc 1 1642 0
 4505 0098 03FB02F2 		mul	r2, r3, r2
 4506              	.LVL656:
 4507              		.loc 1 1651 0
 4508 009c 2B49     		ldr	r1, .L427+8
 4509 009e 02F5FA72 		add	r2, r2, #500
 4510              	.LVL657:
 4511 00a2 A1FB0232 		umull	r3, r2, r1, r2
 4512              	.LVL658:
 4513 00a6 9209     		lsrs	r2, r2, #6
 4514              	.LVL659:
 4515              		.loc 1 1652 0
 4516 00a8 1201     		lsls	r2, r2, #4
 4517              	.LVL660:
 4518              		.loc 1 1654 0
 4519 00aa 02F5FA72 		add	r2, r2, #500
 4520              	.LVL661:
 4521 00ae A1FB0231 		umull	r3, r1, r1, r2
 4522              		.loc 1 1661 0
 4523 00b2 05F12007 		add	r7, r5, #32
 4524              		.loc 1 1654 0
 4525 00b6 8909     		lsrs	r1, r1, #6
 4526              	.LVL662:
 4527              		.loc 1 1661 0
 4528 00b8 BF09     		lsrs	r7, r7, #6
 4529              	.LVL663:
 4530              	.LBB210:
 4531              	.LBB211:
 4532              		.loc 1 132 0
 4533 00ba 4FF08043 		mov	r3, #1073741824
 4534              	.LVL664:
 4535              	.L398:
 4536              		.loc 1 138 0
 4537 00be 9B08     		lsrs	r3, r3, #2
 4538              	.LVL665:
 4539              		.loc 1 137 0
 4540 00c0 9F42     		cmp	r7, r3
 4541 00c2 FCD3     		bcc	.L398
 4542              		.loc 1 141 0
 4543 00c4 002B     		cmp	r3, #0
 4544 00c6 38D0     		beq	.L410
 4545              		.loc 1 131 0
 4546 00c8 0026     		movs	r6, #0
 4547              	.LVL666:
 4548              	.L401:
 4549              		.loc 1 142 0
 4550 00ca 03EB060C 		add	ip, r3, r6
 4551 00ce BC45     		cmp	ip, r7
 4552 00d0 4FEA5606 		lsr	r6, r6, #1
 4553              	.LVL667:
 4554              		.loc 1 143 0
 4555 00d4 9CBF     		itt	ls
 4556 00d6 A7EB0C07 		subls	r7, r7, ip
 4557              	.LVL668:
 4558              		.loc 1 144 0
 4559 00da F618     		addls	r6, r6, r3
 4560              	.LVL669:
ARM GAS  /var/folders/d2/nstgp4h54kz7g1l847x_b8wc0000gn/T//cc2apEbl.s 			page 81


 4561              		.loc 1 141 0
 4562 00dc 9B08     		lsrs	r3, r3, #2
 4563              	.LVL670:
 4564 00de F4D1     		bne	.L401
 4565              	.LVL671:
 4566              	.L399:
 4567              	.LBE211:
 4568              	.LBE210:
 4569              		.loc 1 1669 0
 4570 00e0 49B1     		cbz	r1, .L402
 4571              		.loc 1 1670 0
 4572 00e2 1A4B     		ldr	r3, .L427+8
 4573 00e4 A3FB0232 		umull	r3, r2, r3, r2
 4574 00e8 05EBD212 		add	r2, r5, r2, lsr #7
 4575 00ec B2FBF1F1 		udiv	r1, r2, r1
 4576              	.LVL672:
 4577              	.LBB214:
 4578              	.LBB215:
 4579              		.loc 1 137 0
 4580 00f0 B1F1804F 		cmp	r1, #1073741824
 4581 00f4 1ED2     		bcs	.L411
 4582              	.LVL673:
 4583              	.L402:
 4584              	.LBE215:
 4585              	.LBE214:
 4586              	.LBB218:
 4587              	.LBB212:
 4588              		.loc 1 131 0
 4589 00f6 4FF08043 		mov	r3, #1073741824
 4590              	.L404:
 4591              	.LVL674:
 4592              	.LBE212:
 4593              	.LBE218:
 4594              	.LBB219:
 4595              	.LBB216:
 4596              		.loc 1 138 0
 4597 00fa 9B08     		lsrs	r3, r3, #2
 4598              	.LVL675:
 4599              		.loc 1 137 0
 4600 00fc 8B42     		cmp	r3, r1
 4601 00fe FCD8     		bhi	.L404
 4602              	.LVL676:
 4603              		.loc 1 141 0
 4604 0100 6BB1     		cbz	r3, .L405
 4605              	.LVL677:
 4606              	.L403:
 4607              		.loc 1 132 0
 4608 0102 0022     		movs	r2, #0
 4609              	.LVL678:
 4610              	.L407:
 4611              		.loc 1 142 0
 4612 0104 D518     		adds	r5, r2, r3
 4613 0106 8D42     		cmp	r5, r1
 4614 0108 4FEA5202 		lsr	r2, r2, #1
 4615              	.LVL679:
 4616              		.loc 1 143 0
 4617 010c 9CBF     		itt	ls
ARM GAS  /var/folders/d2/nstgp4h54kz7g1l847x_b8wc0000gn/T//cc2apEbl.s 			page 82


 4618 010e 491B     		subls	r1, r1, r5
 4619              	.LVL680:
 4620              		.loc 1 144 0
 4621 0110 D218     		addls	r2, r2, r3
 4622              	.LVL681:
 4623              		.loc 1 141 0
 4624 0112 9B08     		lsrs	r3, r3, #2
 4625              	.LVL682:
 4626 0114 F6D1     		bne	.L407
 4627 0116 B242     		cmp	r2, r6
 4628 0118 1346     		mov	r3, r2
 4629              	.LVL683:
 4630 011a 28BF     		it	cs
 4631 011c 3346     		movcs	r3, r6
 4632              	.LVL684:
 4633              	.L405:
 4634 011e 0360     		str	r3, [r0]
 4635              	.LVL685:
 4636              	.LBE216:
 4637              	.LBE219:
 4638              		.loc 1 1684 0
 4639 0120 019A     		ldr	r2, [sp, #4]
 4640 0122 2368     		ldr	r3, [r4]
 4641 0124 9A42     		cmp	r2, r3
 4642 0126 4FF00000 		mov	r0, #0
 4643 012a 08D1     		bne	.L426
 4644 012c 03B0     		add	sp, sp, #12
 4645              		.cfi_remember_state
 4646              		.cfi_def_cfa_offset 20
 4647              		@ sp needed
 4648 012e F0BD     		pop	{r4, r5, r6, r7, pc}
 4649              	.LVL686:
 4650              	.L409:
 4651              		.cfi_restore_state
 4652              		.loc 1 1588 0
 4653 0130 0749     		ldr	r1, .L427+12
 4654 0132 A5E7     		b	.L397
 4655              	.LVL687:
 4656              	.L411:
 4657              	.LBB220:
 4658              	.LBB217:
 4659              		.loc 1 132 0
 4660 0134 4FF08043 		mov	r3, #1073741824
 4661 0138 E3E7     		b	.L403
 4662              	.LVL688:
 4663              	.L410:
 4664              	.LBE217:
 4665              	.LBE220:
 4666              	.LBB221:
 4667              	.LBB213:
 4668              		.loc 1 131 0
 4669 013a 1E46     		mov	r6, r3
 4670 013c D0E7     		b	.L399
 4671              	.LVL689:
 4672              	.L426:
 4673              	.LBE213:
 4674              	.LBE221:
ARM GAS  /var/folders/d2/nstgp4h54kz7g1l847x_b8wc0000gn/T//cc2apEbl.s 			page 83


 4675              		.loc 1 1684 0
 4676 013e FFF7FEFF 		bl	__stack_chk_fail
 4677              	.LVL690:
 4678              	.L428:
 4679 0142 00BF     		.align	2
 4680              	.L427:
 4681 0144 00000000 		.word	__stack_chk_guard
 4682 0148 09040281 		.word	-2130574327
 4683 014c D34D6210 		.word	274877907
 4684 0150 0000F0FF 		.word	-1048576
 4685 0154 ABAAAAAA 		.word	-1431655765
 4686              		.cfi_endproc
 4687              	.LFE25:
 4688              		.size	VL53L0X_calc_dmax, .-VL53L0X_calc_dmax
 4689              		.section	.text.VL53L0X_calc_sigma_estimate,"ax",%progbits
 4690              		.align	1
 4691              		.p2align 4,,15
 4692              		.global	VL53L0X_calc_sigma_estimate
 4693              		.syntax unified
 4694              		.thumb
 4695              		.thumb_func
 4696              		.fpu fpv4-sp-d16
 4697              		.type	VL53L0X_calc_sigma_estimate, %function
 4698              	VL53L0X_calc_sigma_estimate:
 4699              	.LFB26:
 4700              		.loc 1 1691 0
 4701              		.cfi_startproc
 4702              		@ args = 0, pretend = 0, frame = 40
 4703              		@ frame_needed = 0, uses_anonymous_args = 0
 4704              	.LVL691:
 4705 0000 2DE9F04F 		push	{r4, r5, r6, r7, r8, r9, r10, fp, lr}
 4706              		.cfi_def_cfa_offset 36
 4707              		.cfi_offset 4, -36
 4708              		.cfi_offset 5, -32
 4709              		.cfi_offset 6, -28
 4710              		.cfi_offset 7, -24
 4711              		.cfi_offset 8, -20
 4712              		.cfi_offset 9, -16
 4713              		.cfi_offset 10, -12
 4714              		.cfi_offset 11, -8
 4715              		.cfi_offset 14, -4
 4716 0004 C24F     		ldr	r7, .L477
 4717              		.loc 1 1749 0
 4718 0006 056A     		ldr	r5, [r0, #32]
 4719              		.loc 1 1691 0
 4720 0008 3E68     		ldr	r6, [r7]
 4721 000a 8FB0     		sub	sp, sp, #60
 4722              		.cfi_def_cfa_offset 96
 4723              		.loc 1 1691 0
 4724 000c 0446     		mov	r4, r0
 4725 000e 0492     		str	r2, [sp, #16]
 4726              	.LBB222:
 4727              	.LBB223:
 4728              		.loc 1 1486 0
 4729 0010 0CAA     		add	r2, sp, #48
 4730              	.LVL692:
 4731              	.LBE223:
ARM GAS  /var/folders/d2/nstgp4h54kz7g1l847x_b8wc0000gn/T//cc2apEbl.s 			page 84


 4732              	.LBE222:
 4733              		.loc 1 1749 0
 4734 0012 0B95     		str	r5, [sp, #44]
 4735              		.loc 1 1691 0
 4736 0014 0593     		str	r3, [sp, #20]
 4737 0016 0D46     		mov	r5, r1
 4738 0018 0D96     		str	r6, [sp, #52]
 4739              	.LVL693:
 4740              		.loc 1 1760 0
 4741 001a D1E903B8 		ldrd	fp, r8, [r1, #12]
 4742              	.LVL694:
 4743              	.LBB226:
 4744              	.LBB224:
 4745              		.loc 1 1486 0
 4746 001e FFF7FEFF 		bl	VL53L0X_get_total_xtalk_rate
 4747              	.LVL695:
 4748              		.loc 1 1489 0
 4749 0022 0028     		cmp	r0, #0
 4750 0024 40F06481 		bne	.L453
 4751              		.loc 1 1490 0
 4752 0028 0C9E     		ldr	r6, [sp, #48]
 4753 002a 5E44     		add	r6, r6, fp
 4754              	.LVL696:
 4755              	.L430:
 4756              	.LBE224:
 4757              	.LBE226:
 4758              		.loc 1 1766 0
 4759 002c 0BAA     		add	r2, sp, #44
 4760 002e 2946     		mov	r1, r5
 4761 0030 2046     		mov	r0, r4
 4762 0032 FFF7FEFF 		bl	VL53L0X_get_total_xtalk_rate
 4763              	.LVL697:
 4764              		.loc 1 1781 0
 4765 0036 0028     		cmp	r0, #0
 4766 0038 40F05381 		bne	.L431
 4767              	.LVL698:
 4768              		.loc 1 1787 0
 4769 003c 94F8E020 		ldrb	r2, [r4, #224]	@ zero_extendqisi2
 4770              	.LVL699:
 4771              		.loc 1 1773 0
 4772 0040 4FF47A7E 		mov	lr, #1000
 4773 0044 0EFB06F3 		mul	r3, lr, r6
 4774              	.LVL700:
 4775              		.loc 1 1805 0
 4776 0048 082A     		cmp	r2, #8
 4777              		.loc 1 1774 0
 4778 004a 03F50043 		add	r3, r3, #32768
 4779              	.LVL701:
 4780              		.loc 1 1805 0
 4781 004e 14BF     		ite	ne
 4782 0050 4FF0030C 		movne	ip, #3
 4783 0054 4FF0020C 		moveq	ip, #2
 4784              	.LVL702:
 4785              		.loc 1 1833 0
 4786 0058 190C     		lsrs	r1, r3, #16
 4787 005a 0791     		str	r1, [sp, #28]
 4788 005c 00F04A81 		beq	.L475
ARM GAS  /var/folders/d2/nstgp4h54kz7g1l847x_b8wc0000gn/T//cc2apEbl.s 			page 85


 4789              	.LVL703:
 4790              		.loc 1 1784 0
 4791 0060 D4F8DC10 		ldr	r1, [r4, #220]
 4792              	.LBB227:
 4793              	.LBB228:
 4794              	.LBB229:
 4795              	.LBB230:
 4796              		.loc 1 494 0
 4797 0064 94F8E800 		ldrb	r0, [r4, #232]	@ zero_extendqisi2
 4798              	.LVL704:
 4799              	.LBE230:
 4800              	.LBE229:
 4801              	.LBE228:
 4802              	.LBE227:
 4803              		.loc 1 1784 0
 4804 0068 0691     		str	r1, [sp, #24]
 4805              	.LBB238:
 4806              	.LBB239:
 4807              	.LBB240:
 4808              	.LBB241:
 4809              		.loc 1 493 0
 4810 006a AA49     		ldr	r1, .L477+4
 4811              	.LBE241:
 4812              	.LBE240:
 4813              	.LBE239:
 4814              	.LBE238:
 4815              	.LBB250:
 4816              	.LBB233:
 4817              		.loc 1 555 0
 4818 006c DFF8BC92 		ldr	r9, .L477+28
 4819              	.LBE233:
 4820              	.LBE250:
 4821              		.loc 1 1794 0
 4822 0070 D4F8E4A0 		ldr	r10, [r4, #228]
 4823              	.LBB251:
 4824              	.LBB244:
 4825              	.LBB243:
 4826              	.LBB242:
 4827              		.loc 1 493 0
 4828 0074 01FB02F2 		mul	r2, r1, r2
 4829              	.LVL705:
 4830              	.LBE242:
 4831              	.LBE243:
 4832              	.LBE244:
 4833              	.LBE251:
 4834              	.LBB252:
 4835              	.LBB234:
 4836              	.LBB232:
 4837              	.LBB231:
 4838 0078 01FB00F1 		mul	r1, r1, r0
 4839              	.LBE231:
 4840              	.LBE232:
 4841              		.loc 1 551 0
 4842 007c 01F5FA71 		add	r1, r1, #500
 4843              		.loc 1 555 0
 4844 0080 A9FB0101 		umull	r0, r1, r9, r1
 4845              	.LBE234:
ARM GAS  /var/folders/d2/nstgp4h54kz7g1l847x_b8wc0000gn/T//cc2apEbl.s 			page 86


 4846              	.LBE252:
 4847              	.LBB253:
 4848              	.LBB245:
 4849              		.loc 1 551 0
 4850 0084 02F5FA72 		add	r2, r2, #500
 4851              		.loc 1 555 0
 4852 0088 A9FB0202 		umull	r0, r2, r9, r2
 4853              	.LBE245:
 4854              	.LBE253:
 4855              	.LBB254:
 4856              	.LBB235:
 4857 008c C809     		lsrs	r0, r1, #7
 4858 008e 0890     		str	r0, [sp, #32]
 4859              	.LBE235:
 4860              	.LBE254:
 4861              	.LBB255:
 4862              	.LBB246:
 4863 0090 D009     		lsrs	r0, r2, #7
 4864 0092 0990     		str	r0, [sp, #36]
 4865              	.LBE246:
 4866              	.LBE255:
 4867              	.LBB256:
 4868              	.LBB236:
 4869 0094 0898     		ldr	r0, [sp, #32]
 4870              		.loc 1 551 0
 4871 0096 8909     		lsrs	r1, r1, #6
 4872              		.loc 1 555 0
 4873 0098 0EFB0A00 		mla	r0, lr, r10, r0
 4874              		.loc 1 553 0
 4875 009c B0FBF1F1 		udiv	r1, r0, r1
 4876              	.LBE236:
 4877              	.LBE256:
 4878              	.LBB257:
 4879              	.LBB247:
 4880              		.loc 1 555 0
 4881 00a0 0698     		ldr	r0, [sp, #24]
 4882              	.LBE247:
 4883              	.LBE257:
 4884              	.LBB258:
 4885              	.LBB237:
 4886              		.loc 1 553 0
 4887 00a2 0891     		str	r1, [sp, #32]
 4888              	.LBE237:
 4889              	.LBE258:
 4890              	.LBB259:
 4891              	.LBB248:
 4892              		.loc 1 555 0
 4893 00a4 0146     		mov	r1, r0
 4894 00a6 0998     		ldr	r0, [sp, #36]
 4895 00a8 0EFB010E 		mla	lr, lr, r1, r0
 4896              	.LBE248:
 4897              	.LBE259:
 4898              		.loc 1 1809 0
 4899 00ac 0899     		ldr	r1, [sp, #32]
 4900              	.LBB260:
 4901              	.LBB249:
 4902              		.loc 1 551 0
ARM GAS  /var/folders/d2/nstgp4h54kz7g1l847x_b8wc0000gn/T//cc2apEbl.s 			page 87


 4903 00ae 9209     		lsrs	r2, r2, #6
 4904              		.loc 1 553 0
 4905 00b0 BEFBF2F2 		udiv	r2, lr, r2
 4906              	.LBE249:
 4907              	.LBE260:
 4908              		.loc 1 1809 0
 4909 00b4 1144     		add	r1, r1, r2
 4910              		.loc 1 1808 0
 4911 00b6 C902     		lsls	r1, r1, #11
 4912 00b8 0CFB01F2 		mul	r2, ip, r1
 4913              		.loc 1 1810 0
 4914 00bc 02F5FA72 		add	r2, r2, #500
 4915 00c0 A9FB0212 		umull	r1, r2, r9, r2
 4916 00c4 9209     		lsrs	r2, r2, #6
 4917              		.loc 1 1811 0
 4918 00c6 40F27761 		movw	r1, #1655
 4919 00ca 01FB02F2 		mul	r2, r1, r2
 4920              		.loc 1 1812 0
 4921 00ce 02F5FA72 		add	r2, r2, #500
 4922              		.loc 1 1815 0
 4923 00d2 06F18001 		add	r1, r6, #128
 4924              	.LVL706:
 4925              		.loc 1 1812 0
 4926 00d6 A9FB0229 		umull	r2, r9, r9, r2
 4927 00da 4FEA9919 		lsr	r9, r9, #6
 4928              		.loc 1 1815 0
 4929 00de 080A     		lsrs	r0, r1, #8
 4930              		.loc 1 1818 0
 4931 00e0 09FB00F0 		mul	r0, r9, r0
 4932              		.loc 1 1758 0
 4933 00e4 4FF47A72 		mov	r2, #1000
 4934              		.loc 1 1822 0
 4935 00e8 8030     		adds	r0, r0, #128
 4936              		.loc 1 1838 0
 4937 00ea 000A     		lsrs	r0, r0, #8
 4938              		.loc 1 1758 0
 4939 00ec 02FB08F8 		mul	r8, r2, r8
 4940 00f0 894A     		ldr	r2, .L477+8
 4941              		.loc 1 1844 0
 4942 00f2 079E     		ldr	r6, [sp, #28]
 4943 00f4 18BF     		it	ne
 4944 00f6 00EB4000 		addne	r0, r0, r0, lsl #1
 4945 00fa 4FEA1848 		lsr	r8, r8, #16
 4946 00fe 14BF     		ite	ne
 4947 0100 8000     		lslne	r0, r0, #2
 4948 0102 0C20     		moveq	r0, #12
 4949 0104 4FEA0848 		lsl	r8, r8, #16
 4950 0108 B8FBF6F8 		udiv	r8, r8, r6
 4951              	.LVL707:
 4952 010c 9045     		cmp	r8, r2
 4953 010e 28BF     		it	cs
 4954 0110 9046     		movcs	r8, r2
 4955              	.LVL708:
 4956              		.loc 1 1850 0
 4957 0112 4FF4167C 		mov	ip, #600
 4958              	.LVL709:
 4959 0116 0CFB08F6 		mul	r6, ip, r8
ARM GAS  /var/folders/d2/nstgp4h54kz7g1l847x_b8wc0000gn/T//cc2apEbl.s 			page 88


 4960              	.LVL710:
 4961              	.LBB261:
 4962              	.LBB262:
 4963              		.loc 1 132 0
 4964 011a 4FF08042 		mov	r2, #1073741824
 4965              	.LVL711:
 4966              	.L435:
 4967              		.loc 1 138 0
 4968 011e 9208     		lsrs	r2, r2, #2
 4969              	.LVL712:
 4970              		.loc 1 137 0
 4971 0120 8242     		cmp	r2, r0
 4972 0122 FCD8     		bhi	.L435
 4973              		.loc 1 131 0
 4974 0124 4FF0000C 		mov	ip, #0
 4975              	.LVL713:
 4976              	.L437:
 4977              		.loc 1 142 0
 4978 0128 0CEB020E 		add	lr, ip, r2
 4979 012c 8645     		cmp	lr, r0
 4980 012e 4FEA5C0C 		lsr	ip, ip, #1
 4981              	.LVL714:
 4982              		.loc 1 143 0
 4983 0132 9CBF     		itt	ls
 4984 0134 A0EB0E00 		subls	r0, r0, lr
 4985              	.LVL715:
 4986              		.loc 1 144 0
 4987 0138 9444     		addls	ip, ip, r2
 4988              	.LVL716:
 4989              		.loc 1 141 0
 4990 013a 9208     		lsrs	r2, r2, #2
 4991              	.LVL717:
 4992 013c F4D1     		bne	.L437
 4993              	.LVL718:
 4994              	.LBE262:
 4995              	.LBE261:
 4996              		.loc 1 1776 0
 4997 013e 0B98     		ldr	r0, [sp, #44]
 4998              		.loc 1 1865 0
 4999 0140 DFF8E8E1 		ldr	lr, .L477+28
 5000              		.loc 1 1776 0
 5001 0144 4FF47A78 		mov	r8, #1000
 5002 0148 08FB00F0 		mul	r0, r8, r0
 5003              		.loc 1 1866 0
 5004 014c B0F5481F 		cmp	r0, #3276800
 5005 0150 28BF     		it	cs
 5006 0152 4FF44810 		movcs	r0, #3276800
 5007              		.loc 1 1865 0
 5008 0156 1B0C     		lsrs	r3, r3, #16
 5009              	.LVL719:
 5010              		.loc 1 1866 0
 5011 0158 4000     		lsls	r0, r0, #1
 5012              		.loc 1 1865 0
 5013 015a 1B04     		lsls	r3, r3, #16
 5014              		.loc 1 1866 0
 5015 015c C0F5FA70 		rsb	r0, r0, #500
 5016 0160 1844     		add	r0, r0, r3
ARM GAS  /var/folders/d2/nstgp4h54kz7g1l847x_b8wc0000gn/T//cc2apEbl.s 			page 89


 5017              		.loc 1 1865 0
 5018 0162 AEFB0080 		umull	r8, r0, lr, r0
 5019              		.loc 1 1869 0
 5020 0166 03F5FA73 		add	r3, r3, #500
 5021              		.loc 1 1881 0
 5022 016a 95F81880 		ldrb	r8, [r5, #24]	@ zero_extendqisi2
 5023              		.loc 1 1855 0
 5024 016e 2D89     		ldrh	r5, [r5, #8]
 5025              	.LVL720:
 5026              		.loc 1 1865 0
 5027 0170 8009     		lsrs	r0, r0, #6
 5028              		.loc 1 1869 0
 5029 0172 AEFB03E3 		umull	lr, r3, lr, r3
 5030              		.loc 1 1873 0
 5031 0176 0002     		lsls	r0, r0, #8
 5032              		.loc 1 1869 0
 5033 0178 9B09     		lsrs	r3, r3, #6
 5034              		.loc 1 1852 0
 5035 017a 4FEA4C0C 		lsl	ip, ip, #1
 5036              	.LVL721:
 5037              		.loc 1 1876 0
 5038 017e B0FBF3F3 		udiv	r3, r0, r3
 5039              	.LVL722:
 5040              		.loc 1 1881 0
 5041 0182 B8F1000F 		cmp	r8, #0
 5042 0186 40F0BD80 		bne	.L456
 5043              		.loc 1 1855 0
 5044 018a 6448     		ldr	r0, .L477+12
 5045              		.loc 1 1885 0
 5046 018c DFF8A081 		ldr	r8, .L477+32
 5047              		.loc 1 1855 0
 5048 0190 00FB05F5 		mul	r5, r0, r5
 5049              	.LVL723:
 5050              		.loc 1 1885 0
 5051 0194 A8FB0505 		umull	r0, r5, r8, r5
 5052              		.loc 1 1879 0
 5053 0198 1B02     		lsls	r3, r3, #8
 5054              	.LVL724:
 5055              		.loc 1 1885 0
 5056 019a AD0A     		lsrs	r5, r5, #10
 5057              	.LVL725:
 5058              		.loc 1 1892 0
 5059 019c C3F58033 		rsb	r3, r3, #65536
 5060              	.LVL726:
 5061 01a0 05FB03F3 		mul	r3, r5, r3
 5062              		.loc 1 1895 0
 5063 01a4 03F50043 		add	r3, r3, #32768
 5064 01a8 1B0C     		lsrs	r3, r3, #16
 5065              	.LVL727:
 5066              		.loc 1 1898 0
 5067 01aa 03F58033 		add	r3, r3, #65536
 5068              	.LVL728:
 5069              		.loc 1 1905 0
 5070 01ae 5B08     		lsrs	r3, r3, #1
 5071              	.LVL729:
 5072              		.loc 1 1907 0
 5073 01b0 03FB03F3 		mul	r3, r3, r3
ARM GAS  /var/folders/d2/nstgp4h54kz7g1l847x_b8wc0000gn/T//cc2apEbl.s 			page 90


 5074              	.LVL730:
 5075              		.loc 1 1910 0
 5076 01b4 9B0B     		lsrs	r3, r3, #14
 5077              	.LVL731:
 5078 01b6 4FF44875 		mov	r5, #800
 5079 01ba 05FB03F5 		mul	r5, r5, r3
 5080 01be 05F50045 		add	r5, r5, #32768
 5081 01c2 2D0C     		lsrs	r5, r5, #16
 5082 01c4 05FB05F0 		mul	r0, r5, r5
 5083              	.LVL732:
 5084              	.L438:
 5085              		.loc 1 1925 0
 5086 01c8 06F50045 		add	r5, r6, #32768
 5087 01cc 2D0C     		lsrs	r5, r5, #16
 5088              	.LVL733:
 5089              		.loc 1 1931 0
 5090 01ce 05FB0505 		mla	r5, r5, r5, r0
 5091              	.LVL734:
 5092              	.LBB263:
 5093              	.LBB264:
 5094              		.loc 1 137 0
 5095 01d2 B5F1804F 		cmp	r5, #1073741824
 5096              		.loc 1 132 0
 5097 01d6 4FF08040 		mov	r0, #1073741824
 5098              		.loc 1 137 0
 5099 01da 02D2     		bcs	.L442
 5100              	.LVL735:
 5101              	.L440:
 5102              		.loc 1 138 0
 5103 01dc 8008     		lsrs	r0, r0, #2
 5104              	.LVL736:
 5105              		.loc 1 137 0
 5106 01de 8542     		cmp	r5, r0
 5107 01e0 FCD3     		bcc	.L440
 5108              	.LVL737:
 5109              	.L442:
 5110              		.loc 1 142 0
 5111 01e2 02EB000E 		add	lr, r2, r0
 5112 01e6 AE45     		cmp	lr, r5
 5113 01e8 4FEA5202 		lsr	r2, r2, #1
 5114              	.LVL738:
 5115              		.loc 1 143 0
 5116 01ec 9CBF     		itt	ls
 5117 01ee A5EB0E05 		subls	r5, r5, lr
 5118              	.LVL739:
 5119              		.loc 1 144 0
 5120 01f2 1218     		addls	r2, r2, r0
 5121              	.LVL740:
 5122              		.loc 1 141 0
 5123 01f4 8008     		lsrs	r0, r0, #2
 5124              	.LVL741:
 5125 01f6 F4D1     		bne	.L442
 5126              	.LVL742:
 5127              	.LBE264:
 5128              	.LBE263:
 5129              		.loc 1 1944 0
 5130 01f8 494D     		ldr	r5, .L477+16
ARM GAS  /var/folders/d2/nstgp4h54kz7g1l847x_b8wc0000gn/T//cc2apEbl.s 			page 91


 5131              		.loc 1 1937 0
 5132 01fa 1204     		lsls	r2, r2, #16
 5133              	.LVL743:
 5134              		.loc 1 1944 0
 5135 01fc 3232     		adds	r2, r2, #50
 5136              	.LVL744:
 5137 01fe A5FB0252 		umull	r5, r2, r5, r2
 5138              	.LVL745:
 5139              		.loc 1 1949 0
 5140 0202 41F2883E 		movw	lr, #5000
 5141              		.loc 1 1946 0
 5142 0206 40F6B538 		movw	r8, #2997
 5143              		.loc 1 1958 0
 5144 020a 069D     		ldr	r5, [sp, #24]
 5145              		.loc 1 1944 0
 5146 020c 5209     		lsrs	r2, r2, #5
 5147 020e B2FBFCF2 		udiv	r2, r2, ip
 5148              	.LVL746:
 5149              		.loc 1 1950 0
 5150 0212 DFF820C1 		ldr	ip, .L477+36
 5151              	.LVL747:
 5152              		.loc 1 1949 0
 5153 0216 08FB02E2 		mla	r2, r8, r2, lr
 5154              	.LVL748:
 5155              		.loc 1 1958 0
 5156 021a 5544     		add	r5, r5, r10
 5157              		.loc 1 1950 0
 5158 021c ACFB02C2 		umull	ip, r2, ip, r2
 5159              	.LVL749:
 5160              		.loc 1 1965 0
 5161 0220 DFF808A1 		ldr	r10, .L477+28
 5162              	.LVL750:
 5163              		.loc 1 1958 0
 5164 0224 05F5FA75 		add	r5, r5, #500
 5165              		.loc 1 1950 0
 5166 0228 520B     		lsrs	r2, r2, #13
 5167              	.LVL751:
 5168              		.loc 1 1965 0
 5169 022a AAFB055A 		umull	r5, r10, r10, r5
 5170              	.LVL752:
 5171 022e B2F5704F 		cmp	r2, #61440
 5172 0232 4FEADA1E 		lsr	lr, r10, #7
 5173 0236 28BF     		it	cs
 5174 0238 4FF47042 		movcs	r2, #61440
 5175              	.LVL753:
 5176              	.LBB265:
 5177              	.LBB266:
 5178              		.loc 1 132 0
 5179 023c 4FF08045 		mov	r5, #1073741824
 5180              	.LBE266:
 5181              	.LBE265:
 5182              		.loc 1 1964 0
 5183 0240 0EF5C81E 		add	lr, lr, #1638400
 5184              		.loc 1 1957 0
 5185 0244 4FEA9A1A 		lsr	r10, r10, #6
 5186              		.loc 1 1964 0
 5187 0248 BEFBFAFE 		udiv	lr, lr, r10
ARM GAS  /var/folders/d2/nstgp4h54kz7g1l847x_b8wc0000gn/T//cc2apEbl.s 			page 92


 5188              	.LVL754:
 5189              	.L443:
 5190              	.LBB268:
 5191              	.LBB267:
 5192              		.loc 1 138 0
 5193 024c AD08     		lsrs	r5, r5, #2
 5194              	.LVL755:
 5195              		.loc 1 137 0
 5196 024e AE45     		cmp	lr, r5
 5197 0250 FCD3     		bcc	.L443
 5198              		.loc 1 141 0
 5199 0252 BDB1     		cbz	r5, .L444
 5200              		.loc 1 131 0
 5201 0254 4FF0000C 		mov	ip, #0
 5202              	.LVL756:
 5203              	.L446:
 5204              		.loc 1 142 0
 5205 0258 05EB0C08 		add	r8, r5, ip
 5206 025c C645     		cmp	lr, r8
 5207 025e 4FEA5C0C 		lsr	ip, ip, #1
 5208              	.LVL757:
 5209              		.loc 1 143 0
 5210 0262 24BF     		itt	cs
 5211 0264 AEEB080E 		subcs	lr, lr, r8
 5212              	.LVL758:
 5213              		.loc 1 144 0
 5214 0268 AC44     		addcs	ip, ip, r5
 5215              	.LVL759:
 5216              		.loc 1 141 0
 5217 026a AD08     		lsrs	r5, r5, #2
 5218              	.LVL760:
 5219 026c F4D1     		bne	.L446
 5220 026e 4FEA0C25 		lsl	r5, ip, #8
 5221              	.LVL761:
 5222 0272 DFF8B8C0 		ldr	ip, .L477+28
 5223              	.LVL762:
 5224 0276 05F5FA75 		add	r5, r5, #500
 5225 027a ACFB05C5 		umull	ip, r5, ip, r5
 5226              	.LVL763:
 5227 027e AD09     		lsrs	r5, r5, #6
 5228 0280 05FB05F5 		mul	r5, r5, r5
 5229              	.L444:
 5230              	.LVL764:
 5231              	.LBE267:
 5232              	.LBE268:
 5233              		.loc 1 1978 0
 5234 0284 02FB0255 		mla	r5, r2, r2, r5
 5235              	.LVL765:
 5236              	.LBB269:
 5237              	.LBB270:
 5238              		.loc 1 137 0
 5239 0288 B5F1804F 		cmp	r5, #1073741824
 5240              		.loc 1 132 0
 5241 028c 4FF08042 		mov	r2, #1073741824
 5242              	.LVL766:
 5243              		.loc 1 137 0
 5244 0290 03D2     		bcs	.L451
ARM GAS  /var/folders/d2/nstgp4h54kz7g1l847x_b8wc0000gn/T//cc2apEbl.s 			page 93


 5245              	.LVL767:
 5246              	.L448:
 5247              		.loc 1 138 0
 5248 0292 9208     		lsrs	r2, r2, #2
 5249              	.LVL768:
 5250              		.loc 1 137 0
 5251 0294 9542     		cmp	r5, r2
 5252 0296 FCD3     		bcc	.L448
 5253              	.LVL769:
 5254              		.loc 1 141 0
 5255 0298 92B1     		cbz	r2, .L449
 5256              	.LVL770:
 5257              	.L451:
 5258              		.loc 1 142 0
 5259 029a 00EB020C 		add	ip, r0, r2
 5260 029e AC45     		cmp	ip, r5
 5261 02a0 4FEA5000 		lsr	r0, r0, #1
 5262              	.LVL771:
 5263              		.loc 1 143 0
 5264 02a4 9CBF     		itt	ls
 5265 02a6 A5EB0C05 		subls	r5, r5, ip
 5266              	.LVL772:
 5267              		.loc 1 144 0
 5268 02aa 8018     		addls	r0, r0, r2
 5269              	.LVL773:
 5270              		.loc 1 141 0
 5271 02ac 9208     		lsrs	r2, r2, #2
 5272              	.LVL774:
 5273 02ae F4D1     		bne	.L451
 5274 02b0 1C4D     		ldr	r5, .L477+20
 5275              	.LVL775:
 5276 02b2 4FF47A72 		mov	r2, #1000
 5277              	.LVL776:
 5278 02b6 02FB00F2 		mul	r2, r2, r0
 5279              	.LVL777:
 5280 02ba AA42     		cmp	r2, r5
 5281 02bc 28BF     		it	cs
 5282 02be 2A46     		movcs	r2, r5
 5283              	.LVL778:
 5284              	.L449:
 5285              	.LBE270:
 5286              	.LBE269:
 5287              		.loc 1 1992 0
 5288 02c0 0498     		ldr	r0, [sp, #16]
 5289              		.loc 1 1994 0
 5290 02c2 4FF44875 		mov	r5, #800
 5291              		.loc 1 1992 0
 5292 02c6 0260     		str	r2, [r0]
 5293              	.LVL779:
 5294              		.loc 1 1994 0
 5295 02c8 0598     		ldr	r0, [sp, #20]
 5296 02ca 0390     		str	r0, [sp, #12]
 5297 02cc 21F0FF01 		bic	r1, r1, #255
 5298              	.LVL780:
 5299              		.loc 1 1993 0
 5300 02d0 C4F84021 		str	r2, [r4, #320]
 5301              		.loc 1 1994 0
ARM GAS  /var/folders/d2/nstgp4h54kz7g1l847x_b8wc0000gn/T//cc2apEbl.s 			page 94


 5302 02d4 2046     		mov	r0, r4
 5303 02d6 CDE90169 		strd	r6, r9, [sp, #4]
 5304 02da 5A46     		mov	r2, fp
 5305 02dc 0095     		str	r5, [sp]
 5306 02de FFF7FEFF 		bl	VL53L0X_calc_dmax
 5307              	.LVL781:
 5308              	.L431:
 5309              		.loc 1 2007 0
 5310 02e2 0D9A     		ldr	r2, [sp, #52]
 5311 02e4 3B68     		ldr	r3, [r7]
 5312 02e6 9A42     		cmp	r2, r3
 5313 02e8 10D1     		bne	.L476
 5314 02ea 0FB0     		add	sp, sp, #60
 5315              		.cfi_remember_state
 5316              		.cfi_def_cfa_offset 36
 5317              		@ sp needed
 5318 02ec BDE8F08F 		pop	{r4, r5, r6, r7, r8, r9, r10, fp, pc}
 5319              	.LVL782:
 5320              	.L453:
 5321              		.cfi_restore_state
 5322              	.LBB271:
 5323              	.LBB225:
 5324              		.loc 1 1483 0
 5325 02f0 5E46     		mov	r6, fp
 5326 02f2 9BE6     		b	.L430
 5327              	.LVL783:
 5328              	.L475:
 5329              	.LBE225:
 5330              	.LBE271:
 5331              		.loc 1 1834 0
 5332 02f4 049A     		ldr	r2, [sp, #16]
 5333              	.LVL784:
 5334 02f6 0B4B     		ldr	r3, .L477+20
 5335              	.LVL785:
 5336 02f8 1360     		str	r3, [r2]
 5337              	.LVL786:
 5338              		.loc 1 1835 0
 5339 02fa C4F84031 		str	r3, [r4, #320]
 5340              		.loc 1 1836 0
 5341 02fe 059B     		ldr	r3, [sp, #20]
 5342 0300 1860     		str	r0, [r3]
 5343 0302 EEE7     		b	.L431
 5344              	.LVL787:
 5345              	.L456:
 5346 0304 0848     		ldr	r0, .L477+24
 5347              		.loc 1 1882 0
 5348 0306 4FF48033 		mov	r3, #65536
 5349              	.LVL788:
 5350 030a 5DE7     		b	.L438
 5351              	.LVL789:
 5352              	.L476:
 5353              		.loc 1 2007 0
 5354 030c FFF7FEFF 		bl	__stack_chk_fail
 5355              	.LVL790:
 5356              	.L478:
 5357              		.align	2
 5358              	.L477:
ARM GAS  /var/folders/d2/nstgp4h54kz7g1l847x_b8wc0000gn/T//cc2apEbl.s 			page 95


 5359 0310 00000000 		.word	__stack_chk_guard
 5360 0314 002F3A00 		.word	3813120
 5361 0318 66666600 		.word	6710886
 5362 031c 9A990600 		.word	432538
 5363 0320 1F85EB51 		.word	1374389535
 5364 0324 AE878F02 		.word	42960814
 5365 0328 00C40900 		.word	640000
 5366 032c D34D6210 		.word	274877907
 5367 0330 517BC637 		.word	935754577
 5368 0334 5917B7D1 		.word	-776530087
 5369              		.cfi_endproc
 5370              	.LFE26:
 5371              		.size	VL53L0X_calc_sigma_estimate, .-VL53L0X_calc_sigma_estimate
 5372              		.section	.text.VL53L0X_get_pal_range_status,"ax",%progbits
 5373              		.align	1
 5374              		.p2align 4,,15
 5375              		.global	VL53L0X_get_pal_range_status
 5376              		.syntax unified
 5377              		.thumb
 5378              		.thumb_func
 5379              		.fpu fpv4-sp-d16
 5380              		.type	VL53L0X_get_pal_range_status, %function
 5381              	VL53L0X_get_pal_range_status:
 5382              	.LFB27:
 5383              		.loc 1 2015 0
 5384              		.cfi_startproc
 5385              		@ args = 8, pretend = 0, frame = 56
 5386              		@ frame_needed = 0, uses_anonymous_args = 0
 5387              	.LVL791:
 5388 0000 2DE9F04F 		push	{r4, r5, r6, r7, r8, r9, r10, fp, lr}
 5389              		.cfi_def_cfa_offset 36
 5390              		.cfi_offset 4, -36
 5391              		.cfi_offset 5, -32
 5392              		.cfi_offset 6, -28
 5393              		.cfi_offset 7, -24
 5394              		.cfi_offset 8, -20
 5395              		.cfi_offset 9, -16
 5396              		.cfi_offset 10, -12
 5397              		.cfi_offset 11, -8
 5398              		.cfi_offset 14, -4
 5399              		.loc 1 2047 0
 5400 0004 4FEAD10A 		lsr	r10, r1, #3
 5401              		.loc 1 2015 0
 5402 0008 8FB0     		sub	sp, sp, #60
 5403              		.cfi_def_cfa_offset 96
 5404              		.loc 1 2015 0
 5405 000a DFF86082 		ldr	r8, .L543
 5406 000e 1899     		ldr	r1, [sp, #96]
 5407              	.LVL792:
 5408 0010 0291     		str	r1, [sp, #8]
 5409              		.loc 1 2047 0
 5410 0012 0AF00F07 		and	r7, r10, #15
 5411              		.loc 1 2049 0
 5412 0016 4FF2A105 		movw	r5, #61601
 5413 001a FD40     		lsrs	r5, r5, r7
 5414              		.loc 1 2021 0
 5415 001c 0024     		movs	r4, #0
ARM GAS  /var/folders/d2/nstgp4h54kz7g1l847x_b8wc0000gn/T//cc2apEbl.s 			page 96


 5416              		.loc 1 2015 0
 5417 001e D8F80010 		ldr	r1, [r8]
 5418 0022 0D91     		str	r1, [sp, #52]
 5419              	.LVL793:
 5420 0024 9B46     		mov	fp, r3
 5421              		.loc 1 2057 0
 5422 0026 05F00103 		and	r3, r5, #1
 5423              	.LVL794:
 5424              		.loc 1 2015 0
 5425 002a 0492     		str	r2, [sp, #16]
 5426              		.loc 1 2057 0
 5427 002c 0393     		str	r3, [sp, #12]
 5428              		.loc 1 2067 0
 5429 002e 2146     		mov	r1, r4
 5430              		.loc 1 2015 0
 5431 0030 199B     		ldr	r3, [sp, #100]
 5432              		.loc 1 2021 0
 5433 0032 8DF81A40 		strb	r4, [sp, #26]
 5434              		.loc 1 2067 0
 5435 0036 0DF11A02 		add	r2, sp, #26
 5436              	.LVL795:
 5437              		.loc 1 2022 0
 5438 003a 8DF81B40 		strb	r4, [sp, #27]
 5439              		.loc 1 2023 0
 5440 003e 8DF81C40 		strb	r4, [sp, #28]
 5441              		.loc 1 2024 0
 5442 0042 8DF81D40 		strb	r4, [sp, #29]
 5443              	.LVL796:
 5444              		.loc 1 2031 0
 5445 0046 ADF81E40 		strh	r4, [sp, #30]	@ movhi
 5446              		.loc 1 2033 0
 5447 004a 0C94     		str	r4, [sp, #48]
 5448              		.loc 1 2015 0
 5449 004c 0546     		mov	r5, r0
 5450 004e 0193     		str	r3, [sp, #4]
 5451              		.loc 1 2067 0
 5452 0050 FFF7FEFF 		bl	VL53L0X_GetLimitCheckEnable
 5453              	.LVL797:
 5454              		.loc 1 2071 0
 5455 0054 9DF81A60 		ldrb	r6, [sp, #26]	@ zero_extendqisi2
 5456              		.loc 1 2067 0
 5457 0058 8146     		mov	r9, r0
 5458              	.LVL798:
 5459              		.loc 1 2071 0
 5460 005a 002E     		cmp	r6, #0
 5461 005c 55D0     		beq	.L480
 5462              		.loc 1 2071 0 is_stmt 0 discriminator 1
 5463 005e 0028     		cmp	r0, #0
 5464 0060 3AD0     		beq	.L536
 5465 0062 2646     		mov	r6, r4
 5466              	.LVL799:
 5467              	.L481:
 5468 0064 0024     		movs	r4, #0
 5469              	.LVL800:
 5470              	.L483:
 5471              		.loc 1 2020 0 is_stmt 1
 5472 0066 4FF00009 		mov	r9, #0
ARM GAS  /var/folders/d2/nstgp4h54kz7g1l847x_b8wc0000gn/T//cc2apEbl.s 			page 97


 5473              	.LVL801:
 5474              	.L486:
 5475              		.loc 1 2191 0
 5476 006a 019B     		ldr	r3, [sp, #4]
 5477 006c 1B78     		ldrb	r3, [r3]	@ zero_extendqisi2
 5478 006e 13B9     		cbnz	r3, .L499
 5479              	.LVL802:
 5480              	.L498:
 5481              		.loc 1 2192 0
 5482 0070 029A     		ldr	r2, [sp, #8]
 5483 0072 0023     		movs	r3, #0
 5484 0074 5381     		strh	r3, [r2, #10]	@ movhi
 5485              	.L499:
 5486              		.loc 1 2196 0
 5487 0076 0DF11B02 		add	r2, sp, #27
 5488 007a 0121     		movs	r1, #1
 5489 007c 2846     		mov	r0, r5
 5490 007e FFF7FEFF 		bl	VL53L0X_GetLimitCheckEnable
 5491              	.LVL803:
 5492              		.loc 1 2200 0
 5493 0082 00BB     		cbnz	r0, .L500
 5494              		.loc 1 2201 0
 5495 0084 9DF81A30 		ldrb	r3, [sp, #26]	@ zero_extendqisi2
 5496              		.loc 1 2217 0
 5497 0088 9DF81C20 		ldrb	r2, [sp, #28]	@ zero_extendqisi2
 5498              		.loc 1 2202 0
 5499 008c 002B     		cmp	r3, #0
 5500 008e 08BF     		it	eq
 5501 0090 0126     		moveq	r6, #1
 5502              	.LVL804:
 5503              		.loc 1 2208 0
 5504 0092 042F     		cmp	r7, #4
 5505 0094 18BF     		it	ne
 5506 0096 9DF81B30 		ldrbne	r3, [sp, #27]	@ zero_extendqisi2
 5507              		.loc 1 2205 0
 5508 009a 85F82E60 		strb	r6, [r5, #46]
 5509              		.loc 1 2210 0
 5510 009e 1ABF     		itte	ne
 5511 00a0 B3FA83F3 		clzne	r3, r3
 5512 00a4 5B09     		lsrne	r3, r3, #5
 5513 00a6 0123     		moveq	r3, #1
 5514              	.LVL805:
 5515              		.loc 1 2213 0
 5516 00a8 85F82F30 		strb	r3, [r5, #47]
 5517              		.loc 1 2226 0
 5518 00ac 9DF81D30 		ldrb	r3, [sp, #29]	@ zero_extendqisi2
 5519              	.LVL806:
 5520              		.loc 1 2219 0
 5521 00b0 002A     		cmp	r2, #0
 5522 00b2 08BF     		it	eq
 5523 00b4 0124     		moveq	r4, #1
 5524              	.LVL807:
 5525              		.loc 1 2228 0
 5526 00b6 002B     		cmp	r3, #0
 5527 00b8 08BF     		it	eq
 5528 00ba 4FF00109 		moveq	r9, #1
 5529              	.LVL808:
ARM GAS  /var/folders/d2/nstgp4h54kz7g1l847x_b8wc0000gn/T//cc2apEbl.s 			page 98


 5530              		.loc 1 2223 0
 5531 00be 85F83040 		strb	r4, [r5, #48]
 5532              		.loc 1 2232 0
 5533 00c2 85F83190 		strb	r9, [r5, #49]
 5534              	.LVL809:
 5535              	.L500:
 5536              		.loc 1 2240 0
 5537 00c6 0D9A     		ldr	r2, [sp, #52]
 5538 00c8 D8F80030 		ldr	r3, [r8]
 5539 00cc 9A42     		cmp	r2, r3
 5540 00ce 40F0C780 		bne	.L537
 5541 00d2 0FB0     		add	sp, sp, #60
 5542              		.cfi_remember_state
 5543              		.cfi_def_cfa_offset 36
 5544              		@ sp needed
 5545 00d4 BDE8F08F 		pop	{r4, r5, r6, r7, r8, r9, r10, fp, pc}
 5546              	.LVL810:
 5547              	.L536:
 5548              		.cfi_restore_state
 5549              		.loc 1 2075 0
 5550 00d8 029C     		ldr	r4, [sp, #8]
 5551 00da 0CAB     		add	r3, sp, #48
 5552 00dc 08AA     		add	r2, sp, #32
 5553 00de 2146     		mov	r1, r4
 5554 00e0 2846     		mov	r0, r5
 5555              	.LVL811:
 5556 00e2 FFF7FEFF 		bl	VL53L0X_calc_sigma_estimate
 5557              	.LVL812:
 5558              		.loc 1 2080 0
 5559 00e6 0028     		cmp	r0, #0
 5560 00e8 40F08D80 		bne	.L508
 5561              		.loc 1 2081 0
 5562 00ec 0C9B     		ldr	r3, [sp, #48]
 5563 00ee 6381     		strh	r3, [r4, #10]	@ movhi
 5564              		.loc 1 2084 0
 5565 00f0 4946     		mov	r1, r9
 5566 00f2 09AA     		add	r2, sp, #36
 5567 00f4 2846     		mov	r0, r5
 5568              	.LVL813:
 5569 00f6 FFF7FEFF 		bl	VL53L0X_GetLimitCheckValue
 5570              	.LVL814:
 5571              		.loc 1 2088 0
 5572 00fa 099E     		ldr	r6, [sp, #36]
 5573              		.loc 1 2084 0
 5574 00fc 8146     		mov	r9, r0
 5575              	.LVL815:
 5576              		.loc 1 2088 0
 5577 00fe 26B1     		cbz	r6, .L480
 5578              		.loc 1 2088 0 is_stmt 0 discriminator 1
 5579 0100 089B     		ldr	r3, [sp, #32]
 5580              		.loc 1 2018 0 is_stmt 1 discriminator 1
 5581 0102 9E42     		cmp	r6, r3
 5582 0104 2CBF     		ite	cs
 5583 0106 0026     		movcs	r6, #0
 5584 0108 0126     		movcc	r6, #1
 5585              	.LVL816:
 5586              	.L480:
ARM GAS  /var/folders/d2/nstgp4h54kz7g1l847x_b8wc0000gn/T//cc2apEbl.s 			page 99


 5587              		.loc 1 2099 0
 5588 010a B9F1000F 		cmp	r9, #0
 5589 010e A9D1     		bne	.L481
 5590              		.loc 1 2100 0
 5591 0110 07AA     		add	r2, sp, #28
 5592 0112 0221     		movs	r1, #2
 5593 0114 2846     		mov	r0, r5
 5594 0116 FFF7FEFF 		bl	VL53L0X_GetLimitCheckEnable
 5595              	.LVL817:
 5596              		.loc 1 2104 0
 5597 011a 9DF81C40 		ldrb	r4, [sp, #28]	@ zero_extendqisi2
 5598              		.loc 1 2100 0
 5599 011e 0346     		mov	r3, r0
 5600              	.LVL818:
 5601              		.loc 1 2104 0
 5602 0120 B4B1     		cbz	r4, .L482
 5603              		.loc 1 2104 0 is_stmt 0 discriminator 1
 5604 0122 0028     		cmp	r0, #0
 5605 0124 40F0A080 		bne	.L510
 5606              		.loc 1 2107 0 is_stmt 1
 5607 0128 0AAA     		add	r2, sp, #40
 5608 012a 0221     		movs	r1, #2
 5609 012c 2846     		mov	r0, r5
 5610              	.LVL819:
 5611 012e FFF7FEFF 		bl	VL53L0X_GetLimitCheckValue
 5612              	.LVL820:
 5613              		.loc 1 2112 0
 5614 0132 0346     		mov	r3, r0
 5615 0134 0028     		cmp	r0, #0
 5616 0136 68D0     		beq	.L538
 5617              	.L484:
 5618              	.LVL821:
 5619              		.loc 1 2123 0
 5620 0138 BDF81E20 		ldrh	r2, [sp, #30]
 5621              		.loc 1 2126 0
 5622 013c 0A9C     		ldr	r4, [sp, #40]
 5623              		.loc 1 2123 0
 5624 013e 5202     		lsls	r2, r2, #9
 5625              	.LVL822:
 5626              		.loc 1 2124 0
 5627 0140 C5F84821 		str	r2, [r5, #328]
 5628              		.loc 1 2126 0
 5629 0144 002C     		cmp	r4, #0
 5630 0146 8ED0     		beq	.L483
 5631              	.L505:
 5632              		.loc 1 2019 0 discriminator 1
 5633 0148 9442     		cmp	r4, r2
 5634 014a 2CBF     		ite	cs
 5635 014c 0024     		movcs	r4, #0
 5636 014e 0124     		movcc	r4, #1
 5637              	.LVL823:
 5638              	.L482:
 5639              		.loc 1 2139 0
 5640 0150 0593     		str	r3, [sp, #20]
 5641 0152 002B     		cmp	r3, #0
 5642 0154 87D1     		bne	.L483
 5643              		.loc 1 2140 0
ARM GAS  /var/folders/d2/nstgp4h54kz7g1l847x_b8wc0000gn/T//cc2apEbl.s 			page 100


 5644 0156 0DF11D02 		add	r2, sp, #29
 5645 015a 0321     		movs	r1, #3
 5646 015c 2846     		mov	r0, r5
 5647 015e FFF7FEFF 		bl	VL53L0X_GetLimitCheckEnable
 5648              	.LVL824:
 5649              		.loc 1 2144 0
 5650 0162 9DF81D90 		ldrb	r9, [sp, #29]	@ zero_extendqisi2
 5651              		.loc 1 2140 0
 5652 0166 0246     		mov	r2, r0
 5653              	.LVL825:
 5654              		.loc 1 2144 0
 5655 0168 B9F1000F 		cmp	r9, #0
 5656 016c 13D0     		beq	.L485
 5657              		.loc 1 2144 0 is_stmt 0 discriminator 1
 5658 016e 059B     		ldr	r3, [sp, #20]
 5659 0170 0028     		cmp	r0, #0
 5660 0172 77D1     		bne	.L512
 5661              		.loc 1 2148 0 is_stmt 1
 5662 0174 BBF1000F 		cmp	fp, #0
 5663 0178 33D1     		bne	.L539
 5664              	.L487:
 5665              	.LVL826:
 5666              		.loc 1 2155 0
 5667 017a 0BAA     		add	r2, sp, #44
 5668 017c 0321     		movs	r1, #3
 5669 017e 2846     		mov	r0, r5
 5670              	.LVL827:
 5671 0180 FFF7FEFF 		bl	VL53L0X_GetLimitCheckValue
 5672              	.LVL828:
 5673              		.loc 1 2159 0
 5674 0184 0B9B     		ldr	r3, [sp, #44]
 5675              		.loc 1 2155 0
 5676 0186 0246     		mov	r2, r0
 5677              	.LVL829:
 5678              		.loc 1 2159 0
 5679 0188 4BB3     		cbz	r3, .L514
 5680              		.loc 1 2020 0 discriminator 1
 5681 018a 5B45     		cmp	r3, fp
 5682 018c 94BF     		ite	ls
 5683 018e 4FF00009 		movls	r9, #0
 5684 0192 4FF00109 		movhi	r9, #1
 5685              	.LVL830:
 5686              	.L485:
 5687              		.loc 1 2166 0
 5688 0196 002A     		cmp	r2, #0
 5689 0198 7FF467AF 		bne	.L486
 5690              		.loc 1 2167 0
 5691 019c 039B     		ldr	r3, [sp, #12]
 5692 019e 53BB     		cbnz	r3, .L540
 5693              		.loc 1 2169 0
 5694 01a0 7B1E     		subs	r3, r7, #1
 5695 01a2 022B     		cmp	r3, #2
 5696 01a4 17D9     		bls	.L541
 5697              		.loc 1 2173 0
 5698 01a6 062F     		cmp	r7, #6
 5699 01a8 29D0     		beq	.L491
 5700              		.loc 1 2173 0 is_stmt 0 discriminator 1
ARM GAS  /var/folders/d2/nstgp4h54kz7g1l847x_b8wc0000gn/T//cc2apEbl.s 			page 101


 5701 01aa 092F     		cmp	r7, #9
 5702 01ac 27D0     		beq	.L491
 5703              		.loc 1 2176 0 is_stmt 1
 5704 01ae 0AF00D0A 		and	r10, r10, #13
 5705 01b2 BAF1080F 		cmp	r10, #8
 5706 01b6 1AD0     		beq	.L493
 5707              		.loc 1 2177 0
 5708 01b8 012C     		cmp	r4, #1
 5709 01ba 18D0     		beq	.L493
 5710              		.loc 1 2180 0
 5711 01bc 042F     		cmp	r7, #4
 5712 01be 46D0     		beq	.L495
 5713              		.loc 1 2180 0 is_stmt 0 discriminator 1
 5714 01c0 B9F1010F 		cmp	r9, #1
 5715 01c4 43D0     		beq	.L495
 5716              		.loc 1 2183 0 is_stmt 1
 5717 01c6 012E     		cmp	r6, #1
 5718 01c8 45D0     		beq	.L542
 5719              		.loc 1 2186 0
 5720 01ca 019A     		ldr	r2, [sp, #4]
 5721              	.LVL831:
 5722 01cc 0023     		movs	r3, #0
 5723 01ce 1370     		strb	r3, [r2]
 5724 01d0 B146     		mov	r9, r6
 5725              	.LVL832:
 5726 01d2 3446     		mov	r4, r6
 5727              	.LVL833:
 5728 01d4 4CE7     		b	.L498
 5729              	.LVL834:
 5730              	.L541:
 5731              		.loc 1 2172 0
 5732 01d6 019A     		ldr	r2, [sp, #4]
 5733              	.LVL835:
 5734 01d8 0523     		movs	r3, #5
 5735 01da 1370     		strb	r3, [r2]
 5736 01dc 4BE7     		b	.L499
 5737              	.LVL836:
 5738              	.L514:
 5739              		.loc 1 2020 0
 5740 01de 9946     		mov	r9, r3
 5741 01e0 D9E7     		b	.L485
 5742              	.LVL837:
 5743              	.L539:
 5744              		.loc 1 2151 0
 5745 01e2 049B     		ldr	r3, [sp, #16]
 5746 01e4 4FEA0329 		lsl	r9, r3, #8
 5747 01e8 B9FBFBFB 		udiv	fp, r9, fp
 5748              	.LVL838:
 5749 01ec C5E7     		b	.L487
 5750              	.LVL839:
 5751              	.L493:
 5752              		.loc 1 2179 0
 5753 01ee 019A     		ldr	r2, [sp, #4]
 5754              	.LVL840:
 5755 01f0 0323     		movs	r3, #3
 5756 01f2 1370     		strb	r3, [r2]
 5757 01f4 3FE7     		b	.L499
ARM GAS  /var/folders/d2/nstgp4h54kz7g1l847x_b8wc0000gn/T//cc2apEbl.s 			page 102


 5758              	.LVL841:
 5759              	.L540:
 5760              		.loc 1 2168 0
 5761 01f6 019A     		ldr	r2, [sp, #4]
 5762              	.LVL842:
 5763 01f8 FF23     		movs	r3, #255
 5764 01fa 1370     		strb	r3, [r2]
 5765 01fc 3BE7     		b	.L499
 5766              	.LVL843:
 5767              	.L491:
 5768              		.loc 1 2175 0
 5769 01fe 019A     		ldr	r2, [sp, #4]
 5770              	.LVL844:
 5771 0200 0423     		movs	r3, #4
 5772 0202 1370     		strb	r3, [r2]
 5773 0204 37E7     		b	.L499
 5774              	.LVL845:
 5775              	.L508:
 5776 0206 4E46     		mov	r6, r9
 5777 0208 2CE7     		b	.L481
 5778              	.LVL846:
 5779              	.L538:
 5780              		.loc 1 2113 0
 5781 020a 0122     		movs	r2, #1
 5782 020c FF21     		movs	r1, #255
 5783 020e 2846     		mov	r0, r5
 5784              	.LVL847:
 5785 0210 FFF7FEFF 		bl	VL53L0X_WrByte
 5786              	.LVL848:
 5787              		.loc 1 2115 0
 5788 0214 0346     		mov	r3, r0
 5789 0216 0028     		cmp	r0, #0
 5790 0218 8ED1     		bne	.L484
 5791              		.loc 1 2116 0
 5792 021a 0DF11E02 		add	r2, sp, #30
 5793 021e B621     		movs	r1, #182
 5794 0220 2846     		mov	r0, r5
 5795              	.LVL849:
 5796 0222 FFF7FEFF 		bl	VL53L0X_RdWord
 5797              	.LVL850:
 5798              		.loc 1 2120 0
 5799 0226 0346     		mov	r3, r0
 5800 0228 0028     		cmp	r0, #0
 5801 022a 85D1     		bne	.L484
 5802              		.loc 1 2121 0
 5803 022c 4A46     		mov	r2, r9
 5804 022e FF21     		movs	r1, #255
 5805 0230 2846     		mov	r0, r5
 5806              	.LVL851:
 5807 0232 FFF7FEFF 		bl	VL53L0X_WrByte
 5808              	.LVL852:
 5809              		.loc 1 2123 0
 5810 0236 BDF81E20 		ldrh	r2, [sp, #30]
 5811              		.loc 1 2126 0
 5812 023a 0A9C     		ldr	r4, [sp, #40]
 5813              		.loc 1 2123 0
 5814 023c 5202     		lsls	r2, r2, #9
ARM GAS  /var/folders/d2/nstgp4h54kz7g1l847x_b8wc0000gn/T//cc2apEbl.s 			page 103


 5815              		.loc 1 2121 0
 5816 023e 0346     		mov	r3, r0
 5817              	.LVL853:
 5818              		.loc 1 2124 0
 5819 0240 C5F84821 		str	r2, [r5, #328]
 5820              		.loc 1 2126 0
 5821 0244 002C     		cmp	r4, #0
 5822 0246 7FF47FAF 		bne	.L505
 5823              		.loc 1 2019 0
 5824 024a 4C46     		mov	r4, r9
 5825 024c 80E7     		b	.L482
 5826              	.LVL854:
 5827              	.L495:
 5828              		.loc 1 2182 0
 5829 024e 019A     		ldr	r2, [sp, #4]
 5830              	.LVL855:
 5831 0250 0223     		movs	r3, #2
 5832 0252 1370     		strb	r3, [r2]
 5833 0254 0FE7     		b	.L499
 5834              	.LVL856:
 5835              	.L542:
 5836              		.loc 1 2184 0
 5837 0256 019A     		ldr	r2, [sp, #4]
 5838              	.LVL857:
 5839 0258 0123     		movs	r3, #1
 5840 025a 1370     		strb	r3, [r2]
 5841 025c 4C46     		mov	r4, r9
 5842              	.LVL858:
 5843 025e 0AE7     		b	.L499
 5844              	.LVL859:
 5845              	.L537:
 5846              		.loc 1 2240 0
 5847 0260 FFF7FEFF 		bl	__stack_chk_fail
 5848              	.LVL860:
 5849              	.L512:
 5850 0264 9946     		mov	r9, r3
 5851 0266 00E7     		b	.L486
 5852              	.LVL861:
 5853              	.L510:
 5854 0268 4C46     		mov	r4, r9
 5855 026a FCE6     		b	.L483
 5856              	.L544:
 5857              		.align	2
 5858              	.L543:
 5859 026c 00000000 		.word	__stack_chk_guard
 5860              		.cfi_endproc
 5861              	.LFE27:
 5862              		.size	VL53L0X_get_pal_range_status, .-VL53L0X_get_pal_range_status
 5863              		.text
 5864              	.Letext0:
 5865              		.file 2 "/Applications/Eclipse_e-puck2.app/Contents/Eclipse_e-puck2/Tools/gcc-arm-none-eabi-7-2017
 5866              		.file 3 "/Applications/Eclipse_e-puck2.app/Contents/Eclipse_e-puck2/Tools/gcc-arm-none-eabi-7-2017
 5867              		.file 4 "../e-puck2_main-processor/src/sensors/VL53L0X/Api/core/src/../inc/vl53l0x_types.h"
 5868              		.file 5 "../e-puck2_main-processor/src/sensors/VL53L0X/Api/core/src/../inc/vl53l0x_device.h"
 5869              		.file 6 "../e-puck2_main-processor/src/sensors/VL53L0X/Api/core/src/../inc/vl53l0x_def.h"
 5870              		.file 7 "/Applications/Eclipse_e-puck2.app/Contents/Eclipse_e-puck2/Tools/gcc-arm-none-eabi-7-2017
 5871              		.file 8 "/Applications/Eclipse_e-puck2.app/Contents/Eclipse_e-puck2/Tools/gcc-arm-none-eabi-7-2017
ARM GAS  /var/folders/d2/nstgp4h54kz7g1l847x_b8wc0000gn/T//cc2apEbl.s 			page 104


 5872              		.file 9 "/Applications/Eclipse_e-puck2.app/Contents/Eclipse_e-puck2/Tools/gcc-arm-none-eabi-7-2017
 5873              		.file 10 "/Applications/Eclipse_e-puck2.app/Contents/Eclipse_e-puck2/Tools/gcc-arm-none-eabi-7-201
 5874              		.file 11 "../e-puck2_main-processor/src/sensors/VL53L0X/Api/core/src/../inc/../../platform/inc/vl5
 5875              		.file 12 "/Applications/Eclipse_e-puck2.app/Contents/Eclipse_e-puck2/Tools/gcc-arm-none-eabi-7-201
 5876              		.file 13 "../e-puck2_main-processor/src/sensors/VL53L0X/Api/core/src/../inc/vl53l0x_api.h"
 5877              		.file 14 "../e-puck2_main-processor/src/sensors/VL53L0X/Api/core/src/../inc/vl53l0x_api_calibratio
 5878              		.file 15 "/Applications/Eclipse_e-puck2.app/Contents/Eclipse_e-puck2/Tools/gcc-arm-none-eabi-7-201
 5879              		.section	.debug_info,"",%progbits
 5880              	.Ldebug_info0:
 5881 0000 A63F0000 		.4byte	0x3fa6
 5882 0004 0400     		.2byte	0x4
 5883 0006 00000000 		.4byte	.Ldebug_abbrev0
 5884 000a 04       		.byte	0x4
 5885 000b 01       		.uleb128 0x1
 5886 000c 27180000 		.4byte	.LASF456
 5887 0010 0C       		.byte	0xc
 5888 0011 EC010000 		.4byte	.LASF457
 5889 0015 071E0000 		.4byte	.LASF458
 5890 0019 E0020000 		.4byte	.Ldebug_ranges0+0x2e0
 5891 001d 00000000 		.4byte	0
 5892 0021 00000000 		.4byte	.Ldebug_line0
 5893 0025 02       		.uleb128 0x2
 5894 0026 04       		.byte	0x4
 5895 0027 07       		.byte	0x7
 5896 0028 80020000 		.4byte	.LASF0
 5897 002c 02       		.uleb128 0x2
 5898 002d 08       		.byte	0x8
 5899 002e 07       		.byte	0x7
 5900 002f 15080000 		.4byte	.LASF1
 5901 0033 03       		.uleb128 0x3
 5902 0034 8E110000 		.4byte	.LASF3
 5903 0038 02       		.byte	0x2
 5904 0039 29       		.byte	0x29
 5905 003a 3E000000 		.4byte	0x3e
 5906 003e 02       		.uleb128 0x2
 5907 003f 01       		.byte	0x1
 5908 0040 06       		.byte	0x6
 5909 0041 EA1B0000 		.4byte	.LASF2
 5910 0045 03       		.uleb128 0x3
 5911 0046 29160000 		.4byte	.LASF4
 5912 004a 02       		.byte	0x2
 5913 004b 2B       		.byte	0x2b
 5914 004c 50000000 		.4byte	0x50
 5915 0050 02       		.uleb128 0x2
 5916 0051 01       		.byte	0x1
 5917 0052 08       		.byte	0x8
 5918 0053 87190000 		.4byte	.LASF5
 5919 0057 03       		.uleb128 0x3
 5920 0058 D60F0000 		.4byte	.LASF6
 5921 005c 02       		.byte	0x2
 5922 005d 37       		.byte	0x37
 5923 005e 62000000 		.4byte	0x62
 5924 0062 02       		.uleb128 0x2
 5925 0063 02       		.byte	0x2
 5926 0064 05       		.byte	0x5
 5927 0065 F4130000 		.4byte	.LASF7
 5928 0069 03       		.uleb128 0x3
ARM GAS  /var/folders/d2/nstgp4h54kz7g1l847x_b8wc0000gn/T//cc2apEbl.s 			page 105


 5929 006a B6080000 		.4byte	.LASF8
 5930 006e 02       		.byte	0x2
 5931 006f 39       		.byte	0x39
 5932 0070 74000000 		.4byte	0x74
 5933 0074 02       		.uleb128 0x2
 5934 0075 02       		.byte	0x2
 5935 0076 07       		.byte	0x7
 5936 0077 1E1C0000 		.4byte	.LASF9
 5937 007b 03       		.uleb128 0x3
 5938 007c 52030000 		.4byte	.LASF10
 5939 0080 02       		.byte	0x2
 5940 0081 4D       		.byte	0x4d
 5941 0082 86000000 		.4byte	0x86
 5942 0086 02       		.uleb128 0x2
 5943 0087 04       		.byte	0x4
 5944 0088 05       		.byte	0x5
 5945 0089 35140000 		.4byte	.LASF11
 5946 008d 03       		.uleb128 0x3
 5947 008e C2190000 		.4byte	.LASF12
 5948 0092 02       		.byte	0x2
 5949 0093 4F       		.byte	0x4f
 5950 0094 98000000 		.4byte	0x98
 5951 0098 02       		.uleb128 0x2
 5952 0099 04       		.byte	0x4
 5953 009a 07       		.byte	0x7
 5954 009b 61170000 		.4byte	.LASF13
 5955 009f 02       		.uleb128 0x2
 5956 00a0 08       		.byte	0x8
 5957 00a1 05       		.byte	0x5
 5958 00a2 DE0E0000 		.4byte	.LASF14
 5959 00a6 03       		.uleb128 0x3
 5960 00a7 FF0A0000 		.4byte	.LASF15
 5961 00ab 02       		.byte	0x2
 5962 00ac 69       		.byte	0x69
 5963 00ad 2C000000 		.4byte	0x2c
 5964 00b1 04       		.uleb128 0x4
 5965 00b2 04       		.byte	0x4
 5966 00b3 05       		.byte	0x5
 5967 00b4 696E7400 		.ascii	"int\000"
 5968 00b8 03       		.uleb128 0x3
 5969 00b9 8A060000 		.4byte	.LASF16
 5970 00bd 03       		.byte	0x3
 5971 00be 14       		.byte	0x14
 5972 00bf 33000000 		.4byte	0x33
 5973 00c3 03       		.uleb128 0x3
 5974 00c4 C50D0000 		.4byte	.LASF17
 5975 00c8 03       		.byte	0x3
 5976 00c9 18       		.byte	0x18
 5977 00ca 45000000 		.4byte	0x45
 5978 00ce 03       		.uleb128 0x3
 5979 00cf AE070000 		.4byte	.LASF18
 5980 00d3 03       		.byte	0x3
 5981 00d4 20       		.byte	0x20
 5982 00d5 57000000 		.4byte	0x57
 5983 00d9 03       		.uleb128 0x3
 5984 00da 65120000 		.4byte	.LASF19
 5985 00de 03       		.byte	0x3
ARM GAS  /var/folders/d2/nstgp4h54kz7g1l847x_b8wc0000gn/T//cc2apEbl.s 			page 106


 5986 00df 24       		.byte	0x24
 5987 00e0 69000000 		.4byte	0x69
 5988 00e4 03       		.uleb128 0x3
 5989 00e5 C7170000 		.4byte	.LASF20
 5990 00e9 03       		.byte	0x3
 5991 00ea 2C       		.byte	0x2c
 5992 00eb 7B000000 		.4byte	0x7b
 5993 00ef 03       		.uleb128 0x3
 5994 00f0 81060000 		.4byte	.LASF21
 5995 00f4 03       		.byte	0x3
 5996 00f5 30       		.byte	0x30
 5997 00f6 8D000000 		.4byte	0x8d
 5998 00fa 05       		.uleb128 0x5
 5999 00fb EF000000 		.4byte	0xef
 6000 00ff 03       		.uleb128 0x3
 6001 0100 3B150000 		.4byte	.LASF22
 6002 0104 03       		.byte	0x3
 6003 0105 3C       		.byte	0x3c
 6004 0106 A6000000 		.4byte	0xa6
 6005 010a 02       		.uleb128 0x2
 6006 010b 08       		.byte	0x8
 6007 010c 04       		.byte	0x4
 6008 010d 3F120000 		.4byte	.LASF23
 6009 0111 03       		.uleb128 0x3
 6010 0112 4F060000 		.4byte	.LASF24
 6011 0116 04       		.byte	0x4
 6012 0117 6D       		.byte	0x6d
 6013 0118 EF000000 		.4byte	0xef
 6014 011c 05       		.uleb128 0x5
 6015 011d 11010000 		.4byte	0x111
 6016 0121 03       		.uleb128 0x3
 6017 0122 7A070000 		.4byte	.LASF25
 6018 0126 05       		.byte	0x5
 6019 0127 36       		.byte	0x36
 6020 0128 C3000000 		.4byte	0xc3
 6021 012c 03       		.uleb128 0x3
 6022 012d E50D0000 		.4byte	.LASF26
 6023 0131 05       		.byte	0x5
 6024 0132 64       		.byte	0x64
 6025 0133 C3000000 		.4byte	0xc3
 6026 0137 06       		.uleb128 0x6
 6027 0138 63       		.byte	0x63
 6028 0139 06       		.byte	0x6
 6029 013a 6E       		.byte	0x6e
 6030 013b 88010000 		.4byte	0x188
 6031 013f 07       		.uleb128 0x7
 6032 0140 3E090000 		.4byte	.LASF27
 6033 0144 06       		.byte	0x6
 6034 0145 6F       		.byte	0x6f
 6035 0146 88010000 		.4byte	0x188
 6036 014a 00       		.byte	0
 6037 014b 07       		.uleb128 0x7
 6038 014c 630E0000 		.4byte	.LASF28
 6039 0150 06       		.byte	0x6
 6040 0151 71       		.byte	0x71
 6041 0152 88010000 		.4byte	0x188
 6042 0156 20       		.byte	0x20
ARM GAS  /var/folders/d2/nstgp4h54kz7g1l847x_b8wc0000gn/T//cc2apEbl.s 			page 107


 6043 0157 07       		.uleb128 0x7
 6044 0158 07030000 		.4byte	.LASF29
 6045 015c 06       		.byte	0x6
 6046 015d 73       		.byte	0x73
 6047 015e 88010000 		.4byte	0x188
 6048 0162 40       		.byte	0x40
 6049 0163 07       		.uleb128 0x7
 6050 0164 BC1A0000 		.4byte	.LASF30
 6051 0168 06       		.byte	0x6
 6052 0169 75       		.byte	0x75
 6053 016a C3000000 		.4byte	0xc3
 6054 016e 60       		.byte	0x60
 6055 016f 07       		.uleb128 0x7
 6056 0170 D1000000 		.4byte	.LASF31
 6057 0174 06       		.byte	0x6
 6058 0175 77       		.byte	0x77
 6059 0176 C3000000 		.4byte	0xc3
 6060 017a 61       		.byte	0x61
 6061 017b 07       		.uleb128 0x7
 6062 017c CF070000 		.4byte	.LASF32
 6063 0180 06       		.byte	0x6
 6064 0181 79       		.byte	0x79
 6065 0182 C3000000 		.4byte	0xc3
 6066 0186 62       		.byte	0x62
 6067 0187 00       		.byte	0
 6068 0188 08       		.uleb128 0x8
 6069 0189 98010000 		.4byte	0x198
 6070 018d 98010000 		.4byte	0x198
 6071 0191 09       		.uleb128 0x9
 6072 0192 25000000 		.4byte	0x25
 6073 0196 1F       		.byte	0x1f
 6074 0197 00       		.byte	0
 6075 0198 02       		.uleb128 0x2
 6076 0199 01       		.byte	0x1
 6077 019a 08       		.byte	0x8
 6078 019b 5D0C0000 		.4byte	.LASF33
 6079 019f 05       		.uleb128 0x5
 6080 01a0 98010000 		.4byte	0x198
 6081 01a4 03       		.uleb128 0x3
 6082 01a5 96050000 		.4byte	.LASF34
 6083 01a9 06       		.byte	0x6
 6084 01aa 7B       		.byte	0x7b
 6085 01ab 37010000 		.4byte	0x137
 6086 01af 03       		.uleb128 0x3
 6087 01b0 69160000 		.4byte	.LASF35
 6088 01b4 06       		.byte	0x6
 6089 01b5 83       		.byte	0x83
 6090 01b6 B8000000 		.4byte	0xb8
 6091 01ba 03       		.uleb128 0x3
 6092 01bb 0D0F0000 		.4byte	.LASF36
 6093 01bf 06       		.byte	0x6
 6094 01c0 B5       		.byte	0xb5
 6095 01c1 C3000000 		.4byte	0xc3
 6096 01c5 03       		.uleb128 0x3
 6097 01c6 9C0E0000 		.4byte	.LASF37
 6098 01ca 06       		.byte	0x6
 6099 01cb C7       		.byte	0xc7
ARM GAS  /var/folders/d2/nstgp4h54kz7g1l847x_b8wc0000gn/T//cc2apEbl.s 			page 108


 6100 01cc C3000000 		.4byte	0xc3
 6101 01d0 03       		.uleb128 0x3
 6102 01d1 F4020000 		.4byte	.LASF38
 6103 01d5 06       		.byte	0x6
 6104 01d6 DA       		.byte	0xda
 6105 01d7 C3000000 		.4byte	0xc3
 6106 01db 06       		.uleb128 0x6
 6107 01dc 40       		.byte	0x40
 6108 01dd 06       		.byte	0x6
 6109 01de EA       		.byte	0xea
 6110 01df 77020000 		.4byte	0x277
 6111 01e3 07       		.uleb128 0x7
 6112 01e4 E3110000 		.4byte	.LASF39
 6113 01e8 06       		.byte	0x6
 6114 01e9 EB       		.byte	0xeb
 6115 01ea BA010000 		.4byte	0x1ba
 6116 01ee 00       		.byte	0
 6117 01ef 07       		.uleb128 0x7
 6118 01f0 00010000 		.4byte	.LASF40
 6119 01f4 06       		.byte	0x6
 6120 01f5 ED       		.byte	0xed
 6121 01f6 C5010000 		.4byte	0x1c5
 6122 01fa 01       		.byte	0x1
 6123 01fb 07       		.uleb128 0x7
 6124 01fc C40C0000 		.4byte	.LASF41
 6125 0200 06       		.byte	0x6
 6126 0201 F0       		.byte	0xf0
 6127 0202 EF000000 		.4byte	0xef
 6128 0206 04       		.byte	0x4
 6129 0207 07       		.uleb128 0x7
 6130 0208 0B0A0000 		.4byte	.LASF42
 6131 020c 06       		.byte	0x6
 6132 020d F2       		.byte	0xf2
 6133 020e EF000000 		.4byte	0xef
 6134 0212 08       		.byte	0x8
 6135 0213 07       		.uleb128 0x7
 6136 0214 79010000 		.4byte	.LASF43
 6137 0218 06       		.byte	0x6
 6138 0219 F5       		.byte	0xf5
 6139 021a C3000000 		.4byte	0xc3
 6140 021e 0C       		.byte	0xc
 6141 021f 07       		.uleb128 0x7
 6142 0220 8D020000 		.4byte	.LASF44
 6143 0224 06       		.byte	0x6
 6144 0225 F7       		.byte	0xf7
 6145 0226 D9000000 		.4byte	0xd9
 6146 022a 0E       		.byte	0xe
 6147 022b 07       		.uleb128 0x7
 6148 022c 0B120000 		.4byte	.LASF45
 6149 0230 06       		.byte	0x6
 6150 0231 F9       		.byte	0xf9
 6151 0232 11010000 		.4byte	0x111
 6152 0236 10       		.byte	0x10
 6153 0237 07       		.uleb128 0x7
 6154 0238 360B0000 		.4byte	.LASF46
 6155 023c 06       		.byte	0x6
 6156 023d FC       		.byte	0xfc
ARM GAS  /var/folders/d2/nstgp4h54kz7g1l847x_b8wc0000gn/T//cc2apEbl.s 			page 109


 6157 023e E4000000 		.4byte	0xe4
 6158 0242 14       		.byte	0x14
 6159 0243 07       		.uleb128 0x7
 6160 0244 11030000 		.4byte	.LASF47
 6161 0248 06       		.byte	0x6
 6162 0249 FF       		.byte	0xff
 6163 024a 77020000 		.4byte	0x277
 6164 024e 18       		.byte	0x18
 6165 024f 0A       		.uleb128 0xa
 6166 0250 FD040000 		.4byte	.LASF48
 6167 0254 06       		.byte	0x6
 6168 0255 0101     		.2byte	0x101
 6169 0257 77020000 		.4byte	0x277
 6170 025b 1E       		.byte	0x1e
 6171 025c 0A       		.uleb128 0xa
 6172 025d A40A0000 		.4byte	.LASF49
 6173 0261 06       		.byte	0x6
 6174 0262 0401     		.2byte	0x104
 6175 0264 87020000 		.4byte	0x287
 6176 0268 24       		.byte	0x24
 6177 0269 0A       		.uleb128 0xa
 6178 026a CD040000 		.4byte	.LASF50
 6179 026e 06       		.byte	0x6
 6180 026f 0701     		.2byte	0x107
 6181 0271 C3000000 		.4byte	0xc3
 6182 0275 3C       		.byte	0x3c
 6183 0276 00       		.byte	0
 6184 0277 08       		.uleb128 0x8
 6185 0278 C3000000 		.4byte	0xc3
 6186 027c 87020000 		.4byte	0x287
 6187 0280 09       		.uleb128 0x9
 6188 0281 25000000 		.4byte	0x25
 6189 0285 05       		.byte	0x5
 6190 0286 00       		.byte	0
 6191 0287 08       		.uleb128 0x8
 6192 0288 11010000 		.4byte	0x111
 6193 028c 97020000 		.4byte	0x297
 6194 0290 09       		.uleb128 0x9
 6195 0291 25000000 		.4byte	0x25
 6196 0295 05       		.byte	0x5
 6197 0296 00       		.byte	0
 6198 0297 0B       		.uleb128 0xb
 6199 0298 58070000 		.4byte	.LASF51
 6200 029c 06       		.byte	0x6
 6201 029d 0901     		.2byte	0x109
 6202 029f DB010000 		.4byte	0x1db
 6203 02a3 0B       		.uleb128 0xb
 6204 02a4 4B110000 		.4byte	.LASF52
 6205 02a8 06       		.byte	0x6
 6206 02a9 1101     		.2byte	0x111
 6207 02ab C3000000 		.4byte	0xc3
 6208 02af 0C       		.uleb128 0xc
 6209 02b0 08       		.byte	0x8
 6210 02b1 06       		.byte	0x6
 6211 02b2 2701     		.2byte	0x127
 6212 02b4 D3020000 		.4byte	0x2d3
 6213 02b8 0A       		.uleb128 0xa
ARM GAS  /var/folders/d2/nstgp4h54kz7g1l847x_b8wc0000gn/T//cc2apEbl.s 			page 110


 6214 02b9 2C080000 		.4byte	.LASF53
 6215 02bd 06       		.byte	0x6
 6216 02be 2801     		.2byte	0x128
 6217 02c0 E4000000 		.4byte	0xe4
 6218 02c4 00       		.byte	0
 6219 02c5 0A       		.uleb128 0xa
 6220 02c6 A5100000 		.4byte	.LASF54
 6221 02ca 06       		.byte	0x6
 6222 02cb 2A01     		.2byte	0x12a
 6223 02cd E4000000 		.4byte	0xe4
 6224 02d1 04       		.byte	0x4
 6225 02d2 00       		.byte	0
 6226 02d3 0B       		.uleb128 0xb
 6227 02d4 7B110000 		.4byte	.LASF55
 6228 02d8 06       		.byte	0x6
 6229 02d9 2C01     		.2byte	0x12c
 6230 02db AF020000 		.4byte	0x2af
 6231 02df 0C       		.uleb128 0xc
 6232 02e0 1C       		.byte	0x1c
 6233 02e1 06       		.byte	0x6
 6234 02e2 3201     		.2byte	0x132
 6235 02e4 6B030000 		.4byte	0x36b
 6236 02e8 0A       		.uleb128 0xa
 6237 02e9 AC1C0000 		.4byte	.LASF56
 6238 02ed 06       		.byte	0x6
 6239 02ee 3301     		.2byte	0x133
 6240 02f0 EF000000 		.4byte	0xef
 6241 02f4 00       		.byte	0
 6242 02f5 0A       		.uleb128 0xa
 6243 02f6 0C0C0000 		.4byte	.LASF57
 6244 02fa 06       		.byte	0x6
 6245 02fb 3401     		.2byte	0x134
 6246 02fd EF000000 		.4byte	0xef
 6247 0301 04       		.byte	0x4
 6248 0302 0A       		.uleb128 0xa
 6249 0303 7A1C0000 		.4byte	.LASF58
 6250 0307 06       		.byte	0x6
 6251 0308 3901     		.2byte	0x139
 6252 030a D9000000 		.4byte	0xd9
 6253 030e 08       		.byte	0x8
 6254 030f 0A       		.uleb128 0xa
 6255 0310 2F050000 		.4byte	.LASF59
 6256 0314 06       		.byte	0x6
 6257 0315 3B01     		.2byte	0x13b
 6258 0317 D9000000 		.4byte	0xd9
 6259 031b 0A       		.byte	0xa
 6260 031c 0A       		.uleb128 0xa
 6261 031d A7000000 		.4byte	.LASF60
 6262 0321 06       		.byte	0x6
 6263 0322 4001     		.2byte	0x140
 6264 0324 11010000 		.4byte	0x111
 6265 0328 0C       		.byte	0xc
 6266 0329 0A       		.uleb128 0xa
 6267 032a 3C030000 		.4byte	.LASF61
 6268 032e 06       		.byte	0x6
 6269 032f 4401     		.2byte	0x144
 6270 0331 11010000 		.4byte	0x111
ARM GAS  /var/folders/d2/nstgp4h54kz7g1l847x_b8wc0000gn/T//cc2apEbl.s 			page 111


 6271 0335 10       		.byte	0x10
 6272 0336 0A       		.uleb128 0xa
 6273 0337 BB090000 		.4byte	.LASF62
 6274 033b 06       		.byte	0x6
 6275 033c 4901     		.2byte	0x149
 6276 033e D9000000 		.4byte	0xd9
 6277 0342 14       		.byte	0x14
 6278 0343 0A       		.uleb128 0xa
 6279 0344 84150000 		.4byte	.LASF63
 6280 0348 06       		.byte	0x6
 6281 0349 4D01     		.2byte	0x14d
 6282 034b C3000000 		.4byte	0xc3
 6283 034f 16       		.byte	0x16
 6284 0350 0A       		.uleb128 0xa
 6285 0351 D41C0000 		.4byte	.LASF64
 6286 0355 06       		.byte	0x6
 6287 0356 5001     		.2byte	0x150
 6288 0358 C3000000 		.4byte	0xc3
 6289 035c 17       		.byte	0x17
 6290 035d 0A       		.uleb128 0xa
 6291 035e C90E0000 		.4byte	.LASF65
 6292 0362 06       		.byte	0x6
 6293 0363 5301     		.2byte	0x153
 6294 0365 C3000000 		.4byte	0xc3
 6295 0369 18       		.byte	0x18
 6296 036a 00       		.byte	0
 6297 036b 0B       		.uleb128 0xb
 6298 036c 89120000 		.4byte	.LASF66
 6299 0370 06       		.byte	0x6
 6300 0371 5701     		.2byte	0x157
 6301 0373 DF020000 		.4byte	0x2df
 6302 0377 0C       		.uleb128 0xc
 6303 0378 68       		.byte	0x68
 6304 0379 06       		.byte	0x6
 6305 037a 6001     		.2byte	0x160
 6306 037c CF030000 		.4byte	0x3cf
 6307 0380 0A       		.uleb128 0xa
 6308 0381 960A0000 		.4byte	.LASF67
 6309 0385 06       		.byte	0x6
 6310 0386 6201     		.2byte	0x162
 6311 0388 CF030000 		.4byte	0x3cf
 6312 038c 00       		.byte	0
 6313 038d 0A       		.uleb128 0xa
 6314 038e 1A070000 		.4byte	.LASF68
 6315 0392 06       		.byte	0x6
 6316 0393 6401     		.2byte	0x164
 6317 0395 C3000000 		.4byte	0xc3
 6318 0399 60       		.byte	0x60
 6319 039a 0A       		.uleb128 0xa
 6320 039b D50E0000 		.4byte	.LASF69
 6321 039f 06       		.byte	0x6
 6322 03a0 6601     		.2byte	0x166
 6323 03a2 C3000000 		.4byte	0xc3
 6324 03a6 61       		.byte	0x61
 6325 03a7 0A       		.uleb128 0xa
 6326 03a8 4F0D0000 		.4byte	.LASF70
 6327 03ac 06       		.byte	0x6
ARM GAS  /var/folders/d2/nstgp4h54kz7g1l847x_b8wc0000gn/T//cc2apEbl.s 			page 112


 6328 03ad 6701     		.2byte	0x167
 6329 03af C3000000 		.4byte	0xc3
 6330 03b3 62       		.byte	0x62
 6331 03b4 0A       		.uleb128 0xa
 6332 03b5 95190000 		.4byte	.LASF71
 6333 03b9 06       		.byte	0x6
 6334 03ba 6801     		.2byte	0x168
 6335 03bc C3000000 		.4byte	0xc3
 6336 03c0 63       		.byte	0x63
 6337 03c1 0A       		.uleb128 0xa
 6338 03c2 30030000 		.4byte	.LASF72
 6339 03c6 06       		.byte	0x6
 6340 03c7 6B01     		.2byte	0x16b
 6341 03c9 21010000 		.4byte	0x121
 6342 03cd 64       		.byte	0x64
 6343 03ce 00       		.byte	0
 6344 03cf 08       		.uleb128 0x8
 6345 03d0 EF000000 		.4byte	0xef
 6346 03d4 DF030000 		.4byte	0x3df
 6347 03d8 09       		.uleb128 0x9
 6348 03d9 25000000 		.4byte	0x25
 6349 03dd 17       		.byte	0x17
 6350 03de 00       		.byte	0
 6351 03df 0B       		.uleb128 0xb
 6352 03e0 871E0000 		.4byte	.LASF73
 6353 03e4 06       		.byte	0x6
 6354 03e5 6E01     		.2byte	0x16e
 6355 03e7 77030000 		.4byte	0x377
 6356 03eb 0C       		.uleb128 0xc
 6357 03ec 0C       		.byte	0xc
 6358 03ed 06       		.byte	0x6
 6359 03ee 7601     		.2byte	0x176
 6360 03f0 0F040000 		.4byte	0x40f
 6361 03f4 0A       		.uleb128 0xa
 6362 03f5 2F090000 		.4byte	.LASF74
 6363 03f9 06       		.byte	0x6
 6364 03fa 7701     		.2byte	0x177
 6365 03fc 77020000 		.4byte	0x277
 6366 0400 00       		.byte	0
 6367 0401 0A       		.uleb128 0xa
 6368 0402 50160000 		.4byte	.LASF75
 6369 0406 06       		.byte	0x6
 6370 0407 7901     		.2byte	0x179
 6371 0409 77020000 		.4byte	0x277
 6372 040d 06       		.byte	0x6
 6373 040e 00       		.byte	0
 6374 040f 0B       		.uleb128 0xb
 6375 0410 810D0000 		.4byte	.LASF76
 6376 0414 06       		.byte	0x6
 6377 0415 7B01     		.2byte	0x17b
 6378 0417 EB030000 		.4byte	0x3eb
 6379 041b 0C       		.uleb128 0xc
 6380 041c 50       		.byte	0x50
 6381 041d 06       		.byte	0x6
 6382 041e 7D01     		.2byte	0x17d
 6383 0420 29050000 		.4byte	0x529
 6384 0424 0A       		.uleb128 0xa
ARM GAS  /var/folders/d2/nstgp4h54kz7g1l847x_b8wc0000gn/T//cc2apEbl.s 			page 113


 6385 0425 A6080000 		.4byte	.LASF77
 6386 0429 06       		.byte	0x6
 6387 042a 7E01     		.2byte	0x17e
 6388 042c 11010000 		.4byte	0x111
 6389 0430 00       		.byte	0
 6390 0431 0A       		.uleb128 0xa
 6391 0432 131D0000 		.4byte	.LASF78
 6392 0436 06       		.byte	0x6
 6393 0437 8001     		.2byte	0x180
 6394 0439 D9000000 		.4byte	0xd9
 6395 043d 04       		.byte	0x4
 6396 043e 0A       		.uleb128 0xa
 6397 043f 0A1B0000 		.4byte	.LASF79
 6398 0443 06       		.byte	0x6
 6399 0444 8301     		.2byte	0x183
 6400 0446 2C010000 		.4byte	0x12c
 6401 044a 06       		.byte	0x6
 6402 044b 0A       		.uleb128 0xa
 6403 044c 51150000 		.4byte	.LASF80
 6404 0450 06       		.byte	0x6
 6405 0451 8601     		.2byte	0x186
 6406 0453 EF000000 		.4byte	0xef
 6407 0457 08       		.byte	0x8
 6408 0458 0A       		.uleb128 0xa
 6409 0459 E9190000 		.4byte	.LASF81
 6410 045d 06       		.byte	0x6
 6411 045e 8801     		.2byte	0x188
 6412 0460 C3000000 		.4byte	0xc3
 6413 0464 0C       		.byte	0xc
 6414 0465 0A       		.uleb128 0xa
 6415 0466 A2190000 		.4byte	.LASF82
 6416 046a 06       		.byte	0x6
 6417 046b 8A01     		.2byte	0x18a
 6418 046d EF000000 		.4byte	0xef
 6419 0471 10       		.byte	0x10
 6420 0472 0A       		.uleb128 0xa
 6421 0473 A1010000 		.4byte	.LASF83
 6422 0477 06       		.byte	0x6
 6423 0478 8C01     		.2byte	0x18c
 6424 047a C3000000 		.4byte	0xc3
 6425 047e 14       		.byte	0x14
 6426 047f 0A       		.uleb128 0xa
 6427 0480 B61C0000 		.4byte	.LASF84
 6428 0484 06       		.byte	0x6
 6429 0485 8F01     		.2byte	0x18f
 6430 0487 D9000000 		.4byte	0xd9
 6431 048b 16       		.byte	0x16
 6432 048c 0A       		.uleb128 0xa
 6433 048d B20B0000 		.4byte	.LASF85
 6434 0491 06       		.byte	0x6
 6435 0492 9101     		.2byte	0x191
 6436 0494 D9000000 		.4byte	0xd9
 6437 0498 18       		.byte	0x18
 6438 0499 0A       		.uleb128 0xa
 6439 049a 13180000 		.4byte	.LASF86
 6440 049e 06       		.byte	0x6
 6441 049f 9401     		.2byte	0x194
ARM GAS  /var/folders/d2/nstgp4h54kz7g1l847x_b8wc0000gn/T//cc2apEbl.s 			page 114


 6442 04a1 D9000000 		.4byte	0xd9
 6443 04a5 1A       		.byte	0x1a
 6444 04a6 0A       		.uleb128 0xa
 6445 04a7 AD0C0000 		.4byte	.LASF87
 6446 04ab 06       		.byte	0x6
 6447 04ac 9901     		.2byte	0x199
 6448 04ae C3000000 		.4byte	0xc3
 6449 04b2 1C       		.byte	0x1c
 6450 04b3 0A       		.uleb128 0xa
 6451 04b4 8D0A0000 		.4byte	.LASF88
 6452 04b8 06       		.byte	0x6
 6453 04b9 9B01     		.2byte	0x19b
 6454 04bb C3000000 		.4byte	0xc3
 6455 04bf 1D       		.byte	0x1d
 6456 04c0 0A       		.uleb128 0xa
 6457 04c1 66050000 		.4byte	.LASF89
 6458 04c5 06       		.byte	0x6
 6459 04c6 9C01     		.2byte	0x19c
 6460 04c8 C3000000 		.4byte	0xc3
 6461 04cc 1E       		.byte	0x1e
 6462 04cd 0A       		.uleb128 0xa
 6463 04ce 07030000 		.4byte	.LASF29
 6464 04d2 06       		.byte	0x6
 6465 04d3 9D01     		.2byte	0x19d
 6466 04d5 88010000 		.4byte	0x188
 6467 04d9 1F       		.byte	0x1f
 6468 04da 0A       		.uleb128 0xa
 6469 04db 490A0000 		.4byte	.LASF90
 6470 04df 06       		.byte	0x6
 6471 04e0 9F01     		.2byte	0x19f
 6472 04e2 C3000000 		.4byte	0xc3
 6473 04e6 3F       		.byte	0x3f
 6474 04e7 0A       		.uleb128 0xa
 6475 04e8 95000000 		.4byte	.LASF91
 6476 04ec 06       		.byte	0x6
 6477 04ed A001     		.2byte	0x1a0
 6478 04ef C3000000 		.4byte	0xc3
 6479 04f3 40       		.byte	0x40
 6480 04f4 0A       		.uleb128 0xa
 6481 04f5 4C0F0000 		.4byte	.LASF92
 6482 04f9 06       		.byte	0x6
 6483 04fa A101     		.2byte	0x1a1
 6484 04fc C3000000 		.4byte	0xc3
 6485 0500 41       		.byte	0x41
 6486 0501 0A       		.uleb128 0xa
 6487 0502 64140000 		.4byte	.LASF93
 6488 0506 06       		.byte	0x6
 6489 0507 A201     		.2byte	0x1a2
 6490 0509 EF000000 		.4byte	0xef
 6491 050d 44       		.byte	0x44
 6492 050e 0A       		.uleb128 0xa
 6493 050f C4000000 		.4byte	.LASF94
 6494 0513 06       		.byte	0x6
 6495 0514 A301     		.2byte	0x1a3
 6496 0516 EF000000 		.4byte	0xef
 6497 051a 48       		.byte	0x48
 6498 051b 0A       		.uleb128 0xa
ARM GAS  /var/folders/d2/nstgp4h54kz7g1l847x_b8wc0000gn/T//cc2apEbl.s 			page 115


 6499 051c E31E0000 		.4byte	.LASF95
 6500 0520 06       		.byte	0x6
 6501 0521 A401     		.2byte	0x1a4
 6502 0523 11010000 		.4byte	0x111
 6503 0527 4C       		.byte	0x4c
 6504 0528 00       		.byte	0
 6505 0529 0B       		.uleb128 0xb
 6506 052a 5E060000 		.4byte	.LASF96
 6507 052e 06       		.byte	0x6
 6508 052f A701     		.2byte	0x1a7
 6509 0531 1B040000 		.4byte	0x41b
 6510 0535 0D       		.uleb128 0xd
 6511 0536 5C01     		.2byte	0x15c
 6512 0538 06       		.byte	0x6
 6513 0539 B101     		.2byte	0x1b1
 6514 053b 97060000 		.4byte	0x697
 6515 053f 0A       		.uleb128 0xa
 6516 0540 030C0000 		.4byte	.LASF97
 6517 0544 06       		.byte	0x6
 6518 0545 B201     		.2byte	0x1b2
 6519 0547 D3020000 		.4byte	0x2d3
 6520 054b 00       		.byte	0
 6521 054c 0A       		.uleb128 0xa
 6522 054d BE050000 		.4byte	.LASF98
 6523 0551 06       		.byte	0x6
 6524 0552 B401     		.2byte	0x1b4
 6525 0554 E4000000 		.4byte	0xe4
 6526 0558 08       		.byte	0x8
 6527 0559 0A       		.uleb128 0xa
 6528 055a EE070000 		.4byte	.LASF99
 6529 055e 06       		.byte	0x6
 6530 055f B601     		.2byte	0x1b6
 6531 0561 E4000000 		.4byte	0xe4
 6532 0565 0C       		.byte	0xc
 6533 0566 0A       		.uleb128 0xa
 6534 0567 4F170000 		.4byte	.LASF100
 6535 056b 06       		.byte	0x6
 6536 056c B801     		.2byte	0x1b8
 6537 056e 97020000 		.4byte	0x297
 6538 0572 10       		.byte	0x10
 6539 0573 0A       		.uleb128 0xa
 6540 0574 100D0000 		.4byte	.LASF101
 6541 0578 06       		.byte	0x6
 6542 0579 BA01     		.2byte	0x1ba
 6543 057b 6B030000 		.4byte	0x36b
 6544 057f 50       		.byte	0x50
 6545 0580 0A       		.uleb128 0xa
 6546 0581 091C0000 		.4byte	.LASF102
 6547 0585 06       		.byte	0x6
 6548 0586 BC01     		.2byte	0x1bc
 6549 0588 DF030000 		.4byte	0x3df
 6550 058c 6C       		.byte	0x6c
 6551 058d 0A       		.uleb128 0xa
 6552 058e 73170000 		.4byte	.LASF103
 6553 0592 06       		.byte	0x6
 6554 0593 BE01     		.2byte	0x1be
 6555 0595 29050000 		.4byte	0x529
ARM GAS  /var/folders/d2/nstgp4h54kz7g1l847x_b8wc0000gn/T//cc2apEbl.s 			page 116


 6556 0599 D4       		.byte	0xd4
 6557 059a 0E       		.uleb128 0xe
 6558 059b 020A0000 		.4byte	.LASF104
 6559 059f 06       		.byte	0x6
 6560 05a0 C001     		.2byte	0x1c0
 6561 05a2 0F040000 		.4byte	0x40f
 6562 05a6 2401     		.2byte	0x124
 6563 05a8 0E       		.uleb128 0xe
 6564 05a9 5D130000 		.4byte	.LASF105
 6565 05ad 06       		.byte	0x6
 6566 05ae C201     		.2byte	0x1c2
 6567 05b0 C3000000 		.4byte	0xc3
 6568 05b4 3001     		.2byte	0x130
 6569 05b6 0E       		.uleb128 0xe
 6570 05b7 311C0000 		.4byte	.LASF106
 6571 05bb 06       		.byte	0x6
 6572 05bc C401     		.2byte	0x1c4
 6573 05be C3000000 		.4byte	0xc3
 6574 05c2 3101     		.2byte	0x131
 6575 05c4 0E       		.uleb128 0xe
 6576 05c5 FE1D0000 		.4byte	.LASF107
 6577 05c9 06       		.byte	0x6
 6578 05ca C601     		.2byte	0x1c6
 6579 05cc A3020000 		.4byte	0x2a3
 6580 05d0 3201     		.2byte	0x132
 6581 05d2 0E       		.uleb128 0xe
 6582 05d3 E3040000 		.4byte	.LASF108
 6583 05d7 06       		.byte	0x6
 6584 05d8 C801     		.2byte	0x1c8
 6585 05da D0010000 		.4byte	0x1d0
 6586 05de 3301     		.2byte	0x133
 6587 05e0 0E       		.uleb128 0xe
 6588 05e1 B61C0000 		.4byte	.LASF84
 6589 05e5 06       		.byte	0x6
 6590 05e6 CA01     		.2byte	0x1ca
 6591 05e8 D9000000 		.4byte	0xd9
 6592 05ec 3401     		.2byte	0x134
 6593 05ee 0E       		.uleb128 0xe
 6594 05ef B20B0000 		.4byte	.LASF85
 6595 05f3 06       		.byte	0x6
 6596 05f4 CC01     		.2byte	0x1cc
 6597 05f6 D9000000 		.4byte	0xd9
 6598 05fa 3601     		.2byte	0x136
 6599 05fc 0E       		.uleb128 0xe
 6600 05fd 13180000 		.4byte	.LASF86
 6601 0601 06       		.byte	0x6
 6602 0602 CF01     		.2byte	0x1cf
 6603 0604 D9000000 		.4byte	0xd9
 6604 0608 3801     		.2byte	0x138
 6605 060a 0E       		.uleb128 0xe
 6606 060b F60B0000 		.4byte	.LASF109
 6607 060f 06       		.byte	0x6
 6608 0610 D201     		.2byte	0x1d2
 6609 0612 C3000000 		.4byte	0xc3
 6610 0616 3A01     		.2byte	0x13a
 6611 0618 0E       		.uleb128 0xe
 6612 0619 97070000 		.4byte	.LASF110
ARM GAS  /var/folders/d2/nstgp4h54kz7g1l847x_b8wc0000gn/T//cc2apEbl.s 			page 117


 6613 061d 06       		.byte	0x6
 6614 061e D401     		.2byte	0x1d4
 6615 0620 D9000000 		.4byte	0xd9
 6616 0624 3C01     		.2byte	0x13c
 6617 0626 0E       		.uleb128 0xe
 6618 0627 8A1C0000 		.4byte	.LASF111
 6619 062b 06       		.byte	0x6
 6620 062c D601     		.2byte	0x1d6
 6621 062e 11010000 		.4byte	0x111
 6622 0632 4001     		.2byte	0x140
 6623 0634 0E       		.uleb128 0xe
 6624 0635 71140000 		.4byte	.LASF112
 6625 0639 06       		.byte	0x6
 6626 063a D901     		.2byte	0x1d9
 6627 063c 11010000 		.4byte	0x111
 6628 0640 4401     		.2byte	0x144
 6629 0642 0E       		.uleb128 0xe
 6630 0643 22150000 		.4byte	.LASF113
 6631 0647 06       		.byte	0x6
 6632 0648 DB01     		.2byte	0x1db
 6633 064a 11010000 		.4byte	0x111
 6634 064e 4801     		.2byte	0x148
 6635 0650 0E       		.uleb128 0xe
 6636 0651 9A170000 		.4byte	.LASF114
 6637 0655 06       		.byte	0x6
 6638 0656 DD01     		.2byte	0x1dd
 6639 0658 97060000 		.4byte	0x697
 6640 065c 4C01     		.2byte	0x14c
 6641 065e 0E       		.uleb128 0xe
 6642 065f 43090000 		.4byte	.LASF115
 6643 0663 06       		.byte	0x6
 6644 0664 DF01     		.2byte	0x1df
 6645 0666 C3000000 		.4byte	0xc3
 6646 066a 5001     		.2byte	0x150
 6647 066c 0E       		.uleb128 0xe
 6648 066d 74090000 		.4byte	.LASF116
 6649 0671 06       		.byte	0x6
 6650 0672 E101     		.2byte	0x1e1
 6651 0674 D9000000 		.4byte	0xd9
 6652 0678 5201     		.2byte	0x152
 6653 067a 0E       		.uleb128 0xe
 6654 067b 6C0B0000 		.4byte	.LASF117
 6655 067f 06       		.byte	0x6
 6656 0680 E301     		.2byte	0x1e3
 6657 0682 D9000000 		.4byte	0xd9
 6658 0686 5401     		.2byte	0x154
 6659 0688 0E       		.uleb128 0xe
 6660 0689 CD190000 		.4byte	.LASF118
 6661 068d 06       		.byte	0x6
 6662 068e E501     		.2byte	0x1e5
 6663 0690 11010000 		.4byte	0x111
 6664 0694 5801     		.2byte	0x158
 6665 0696 00       		.byte	0
 6666 0697 0F       		.uleb128 0xf
 6667 0698 04       		.byte	0x4
 6668 0699 C3000000 		.4byte	0xc3
 6669 069d 0B       		.uleb128 0xb
ARM GAS  /var/folders/d2/nstgp4h54kz7g1l847x_b8wc0000gn/T//cc2apEbl.s 			page 118


 6670 069e 2E1A0000 		.4byte	.LASF119
 6671 06a2 06       		.byte	0x6
 6672 06a3 E801     		.2byte	0x1e8
 6673 06a5 35050000 		.4byte	0x535
 6674 06a9 0B       		.uleb128 0xb
 6675 06aa CE1B0000 		.4byte	.LASF120
 6676 06ae 06       		.byte	0x6
 6677 06af FE01     		.2byte	0x1fe
 6678 06b1 C3000000 		.4byte	0xc3
 6679 06b5 0C       		.uleb128 0xc
 6680 06b6 05       		.byte	0x5
 6681 06b7 06       		.byte	0x6
 6682 06b8 0D02     		.2byte	0x20d
 6683 06ba 00070000 		.4byte	0x700
 6684 06be 0A       		.uleb128 0xa
 6685 06bf CD0A0000 		.4byte	.LASF121
 6686 06c3 06       		.byte	0x6
 6687 06c4 0E02     		.2byte	0x20e
 6688 06c6 C3000000 		.4byte	0xc3
 6689 06ca 00       		.byte	0
 6690 06cb 0A       		.uleb128 0xa
 6691 06cc C71C0000 		.4byte	.LASF122
 6692 06d0 06       		.byte	0x6
 6693 06d1 0F02     		.2byte	0x20f
 6694 06d3 C3000000 		.4byte	0xc3
 6695 06d7 01       		.byte	0x1
 6696 06d8 0A       		.uleb128 0xa
 6697 06d9 460F0000 		.4byte	.LASF123
 6698 06dd 06       		.byte	0x6
 6699 06de 1002     		.2byte	0x210
 6700 06e0 C3000000 		.4byte	0xc3
 6701 06e4 02       		.byte	0x2
 6702 06e5 0A       		.uleb128 0xa
 6703 06e6 020F0000 		.4byte	.LASF124
 6704 06ea 06       		.byte	0x6
 6705 06eb 1102     		.2byte	0x211
 6706 06ed C3000000 		.4byte	0xc3
 6707 06f1 03       		.byte	0x3
 6708 06f2 0A       		.uleb128 0xa
 6709 06f3 600F0000 		.4byte	.LASF125
 6710 06f7 06       		.byte	0x6
 6711 06f8 1202     		.2byte	0x212
 6712 06fa C3000000 		.4byte	0xc3
 6713 06fe 04       		.byte	0x4
 6714 06ff 00       		.byte	0
 6715 0700 0B       		.uleb128 0xb
 6716 0701 97110000 		.4byte	.LASF126
 6717 0705 06       		.byte	0x6
 6718 0706 1302     		.2byte	0x213
 6719 0708 B5060000 		.4byte	0x6b5
 6720 070c 0B       		.uleb128 0xb
 6721 070d 28120000 		.4byte	.LASF127
 6722 0711 06       		.byte	0x6
 6723 0712 1C02     		.2byte	0x21c
 6724 0714 C3000000 		.4byte	0xc3
 6725 0718 10       		.uleb128 0x10
 6726 0719 04       		.byte	0x4
ARM GAS  /var/folders/d2/nstgp4h54kz7g1l847x_b8wc0000gn/T//cc2apEbl.s 			page 119


 6727 071a 03       		.uleb128 0x3
 6728 071b 5D120000 		.4byte	.LASF128
 6729 071f 07       		.byte	0x7
 6730 0720 22       		.byte	0x22
 6731 0721 25070000 		.4byte	0x725
 6732 0725 0F       		.uleb128 0xf
 6733 0726 04       		.byte	0x4
 6734 0727 2B070000 		.4byte	0x72b
 6735 072b 11       		.uleb128 0x11
 6736 072c FA170000 		.4byte	.LASF234
 6737 0730 03       		.uleb128 0x3
 6738 0731 0C1D0000 		.4byte	.LASF129
 6739 0735 08       		.byte	0x8
 6740 0736 2C       		.byte	0x2c
 6741 0737 86000000 		.4byte	0x86
 6742 073b 03       		.uleb128 0x3
 6743 073c 4D050000 		.4byte	.LASF130
 6744 0740 08       		.byte	0x8
 6745 0741 72       		.byte	0x72
 6746 0742 86000000 		.4byte	0x86
 6747 0746 0B       		.uleb128 0xb
 6748 0747 93170000 		.4byte	.LASF131
 6749 074b 09       		.byte	0x9
 6750 074c 6501     		.2byte	0x165
 6751 074e 25000000 		.4byte	0x25
 6752 0752 12       		.uleb128 0x12
 6753 0753 04       		.byte	0x4
 6754 0754 08       		.byte	0x8
 6755 0755 A6       		.byte	0xa6
 6756 0756 71070000 		.4byte	0x771
 6757 075a 13       		.uleb128 0x13
 6758 075b B90D0000 		.4byte	.LASF132
 6759 075f 08       		.byte	0x8
 6760 0760 A8       		.byte	0xa8
 6761 0761 46070000 		.4byte	0x746
 6762 0765 13       		.uleb128 0x13
 6763 0766 34150000 		.4byte	.LASF133
 6764 076a 08       		.byte	0x8
 6765 076b A9       		.byte	0xa9
 6766 076c 71070000 		.4byte	0x771
 6767 0770 00       		.byte	0
 6768 0771 08       		.uleb128 0x8
 6769 0772 50000000 		.4byte	0x50
 6770 0776 81070000 		.4byte	0x781
 6771 077a 09       		.uleb128 0x9
 6772 077b 25000000 		.4byte	0x25
 6773 077f 03       		.byte	0x3
 6774 0780 00       		.byte	0
 6775 0781 06       		.uleb128 0x6
 6776 0782 08       		.byte	0x8
 6777 0783 08       		.byte	0x8
 6778 0784 A3       		.byte	0xa3
 6779 0785 A2070000 		.4byte	0x7a2
 6780 0789 07       		.uleb128 0x7
 6781 078a EF060000 		.4byte	.LASF134
 6782 078e 08       		.byte	0x8
 6783 078f A5       		.byte	0xa5
ARM GAS  /var/folders/d2/nstgp4h54kz7g1l847x_b8wc0000gn/T//cc2apEbl.s 			page 120


 6784 0790 B1000000 		.4byte	0xb1
 6785 0794 00       		.byte	0
 6786 0795 07       		.uleb128 0x7
 6787 0796 8E0B0000 		.4byte	.LASF135
 6788 079a 08       		.byte	0x8
 6789 079b AA       		.byte	0xaa
 6790 079c 52070000 		.4byte	0x752
 6791 07a0 04       		.byte	0x4
 6792 07a1 00       		.byte	0
 6793 07a2 03       		.uleb128 0x3
 6794 07a3 7A100000 		.4byte	.LASF136
 6795 07a7 08       		.byte	0x8
 6796 07a8 AB       		.byte	0xab
 6797 07a9 81070000 		.4byte	0x781
 6798 07ad 03       		.uleb128 0x3
 6799 07ae 6A0D0000 		.4byte	.LASF137
 6800 07b2 08       		.byte	0x8
 6801 07b3 AF       		.byte	0xaf
 6802 07b4 1A070000 		.4byte	0x71a
 6803 07b8 03       		.uleb128 0x3
 6804 07b9 5C040000 		.4byte	.LASF138
 6805 07bd 0A       		.byte	0xa
 6806 07be 16       		.byte	0x16
 6807 07bf 98000000 		.4byte	0x98
 6808 07c3 14       		.uleb128 0x14
 6809 07c4 E2050000 		.4byte	.LASF143
 6810 07c8 18       		.byte	0x18
 6811 07c9 0A       		.byte	0xa
 6812 07ca 2F       		.byte	0x2f
 6813 07cb 16080000 		.4byte	0x816
 6814 07cf 07       		.uleb128 0x7
 6815 07d0 B51E0000 		.4byte	.LASF139
 6816 07d4 0A       		.byte	0xa
 6817 07d5 31       		.byte	0x31
 6818 07d6 16080000 		.4byte	0x816
 6819 07da 00       		.byte	0
 6820 07db 15       		.uleb128 0x15
 6821 07dc 5F6B00   		.ascii	"_k\000"
 6822 07df 0A       		.byte	0xa
 6823 07e0 32       		.byte	0x32
 6824 07e1 B1000000 		.4byte	0xb1
 6825 07e5 04       		.byte	0x4
 6826 07e6 07       		.uleb128 0x7
 6827 07e7 BC000000 		.4byte	.LASF140
 6828 07eb 0A       		.byte	0xa
 6829 07ec 32       		.byte	0x32
 6830 07ed B1000000 		.4byte	0xb1
 6831 07f1 08       		.byte	0x8
 6832 07f2 07       		.uleb128 0x7
 6833 07f3 C9140000 		.4byte	.LASF141
 6834 07f7 0A       		.byte	0xa
 6835 07f8 32       		.byte	0x32
 6836 07f9 B1000000 		.4byte	0xb1
 6837 07fd 0C       		.byte	0xc
 6838 07fe 07       		.uleb128 0x7
 6839 07ff 59080000 		.4byte	.LASF142
 6840 0803 0A       		.byte	0xa
ARM GAS  /var/folders/d2/nstgp4h54kz7g1l847x_b8wc0000gn/T//cc2apEbl.s 			page 121


 6841 0804 32       		.byte	0x32
 6842 0805 B1000000 		.4byte	0xb1
 6843 0809 10       		.byte	0x10
 6844 080a 15       		.uleb128 0x15
 6845 080b 5F7800   		.ascii	"_x\000"
 6846 080e 0A       		.byte	0xa
 6847 080f 33       		.byte	0x33
 6848 0810 1C080000 		.4byte	0x81c
 6849 0814 14       		.byte	0x14
 6850 0815 00       		.byte	0
 6851 0816 0F       		.uleb128 0xf
 6852 0817 04       		.byte	0x4
 6853 0818 C3070000 		.4byte	0x7c3
 6854 081c 08       		.uleb128 0x8
 6855 081d B8070000 		.4byte	0x7b8
 6856 0821 2C080000 		.4byte	0x82c
 6857 0825 09       		.uleb128 0x9
 6858 0826 25000000 		.4byte	0x25
 6859 082a 00       		.byte	0
 6860 082b 00       		.byte	0
 6861 082c 14       		.uleb128 0x14
 6862 082d F8160000 		.4byte	.LASF144
 6863 0831 24       		.byte	0x24
 6864 0832 0A       		.byte	0xa
 6865 0833 37       		.byte	0x37
 6866 0834 A5080000 		.4byte	0x8a5
 6867 0838 07       		.uleb128 0x7
 6868 0839 52020000 		.4byte	.LASF145
 6869 083d 0A       		.byte	0xa
 6870 083e 39       		.byte	0x39
 6871 083f B1000000 		.4byte	0xb1
 6872 0843 00       		.byte	0
 6873 0844 07       		.uleb128 0x7
 6874 0845 4F070000 		.4byte	.LASF146
 6875 0849 0A       		.byte	0xa
 6876 084a 3A       		.byte	0x3a
 6877 084b B1000000 		.4byte	0xb1
 6878 084f 04       		.byte	0x4
 6879 0850 07       		.uleb128 0x7
 6880 0851 91060000 		.4byte	.LASF147
 6881 0855 0A       		.byte	0xa
 6882 0856 3B       		.byte	0x3b
 6883 0857 B1000000 		.4byte	0xb1
 6884 085b 08       		.byte	0x8
 6885 085c 07       		.uleb128 0x7
 6886 085d 810C0000 		.4byte	.LASF148
 6887 0861 0A       		.byte	0xa
 6888 0862 3C       		.byte	0x3c
 6889 0863 B1000000 		.4byte	0xb1
 6890 0867 0C       		.byte	0xc
 6891 0868 07       		.uleb128 0x7
 6892 0869 DA110000 		.4byte	.LASF149
 6893 086d 0A       		.byte	0xa
 6894 086e 3D       		.byte	0x3d
 6895 086f B1000000 		.4byte	0xb1
 6896 0873 10       		.byte	0x10
 6897 0874 07       		.uleb128 0x7
ARM GAS  /var/folders/d2/nstgp4h54kz7g1l847x_b8wc0000gn/T//cc2apEbl.s 			page 122


 6898 0875 7A150000 		.4byte	.LASF150
 6899 0879 0A       		.byte	0xa
 6900 087a 3E       		.byte	0x3e
 6901 087b B1000000 		.4byte	0xb1
 6902 087f 14       		.byte	0x14
 6903 0880 07       		.uleb128 0x7
 6904 0881 EA050000 		.4byte	.LASF151
 6905 0885 0A       		.byte	0xa
 6906 0886 3F       		.byte	0x3f
 6907 0887 B1000000 		.4byte	0xb1
 6908 088b 18       		.byte	0x18
 6909 088c 07       		.uleb128 0x7
 6910 088d 790A0000 		.4byte	.LASF152
 6911 0891 0A       		.byte	0xa
 6912 0892 40       		.byte	0x40
 6913 0893 B1000000 		.4byte	0xb1
 6914 0897 1C       		.byte	0x1c
 6915 0898 07       		.uleb128 0x7
 6916 0899 B4100000 		.4byte	.LASF153
 6917 089d 0A       		.byte	0xa
 6918 089e 41       		.byte	0x41
 6919 089f B1000000 		.4byte	0xb1
 6920 08a3 20       		.byte	0x20
 6921 08a4 00       		.byte	0
 6922 08a5 16       		.uleb128 0x16
 6923 08a6 F2000000 		.4byte	.LASF154
 6924 08aa 0801     		.2byte	0x108
 6925 08ac 0A       		.byte	0xa
 6926 08ad 4A       		.byte	0x4a
 6927 08ae E5080000 		.4byte	0x8e5
 6928 08b2 07       		.uleb128 0x7
 6929 08b3 E21B0000 		.4byte	.LASF155
 6930 08b7 0A       		.byte	0xa
 6931 08b8 4B       		.byte	0x4b
 6932 08b9 E5080000 		.4byte	0x8e5
 6933 08bd 00       		.byte	0
 6934 08be 07       		.uleb128 0x7
 6935 08bf E9170000 		.4byte	.LASF156
 6936 08c3 0A       		.byte	0xa
 6937 08c4 4C       		.byte	0x4c
 6938 08c5 E5080000 		.4byte	0x8e5
 6939 08c9 80       		.byte	0x80
 6940 08ca 17       		.uleb128 0x17
 6941 08cb 521A0000 		.4byte	.LASF157
 6942 08cf 0A       		.byte	0xa
 6943 08d0 4E       		.byte	0x4e
 6944 08d1 B8070000 		.4byte	0x7b8
 6945 08d5 0001     		.2byte	0x100
 6946 08d7 17       		.uleb128 0x17
 6947 08d8 E71D0000 		.4byte	.LASF158
 6948 08dc 0A       		.byte	0xa
 6949 08dd 51       		.byte	0x51
 6950 08de B8070000 		.4byte	0x7b8
 6951 08e2 0401     		.2byte	0x104
 6952 08e4 00       		.byte	0
 6953 08e5 08       		.uleb128 0x8
 6954 08e6 18070000 		.4byte	0x718
ARM GAS  /var/folders/d2/nstgp4h54kz7g1l847x_b8wc0000gn/T//cc2apEbl.s 			page 123


 6955 08ea F5080000 		.4byte	0x8f5
 6956 08ee 09       		.uleb128 0x9
 6957 08ef 25000000 		.4byte	0x25
 6958 08f3 1F       		.byte	0x1f
 6959 08f4 00       		.byte	0
 6960 08f5 16       		.uleb128 0x16
 6961 08f6 6C130000 		.4byte	.LASF159
 6962 08fa 9001     		.2byte	0x190
 6963 08fc 0A       		.byte	0xa
 6964 08fd 5D       		.byte	0x5d
 6965 08fe 33090000 		.4byte	0x933
 6966 0902 07       		.uleb128 0x7
 6967 0903 B51E0000 		.4byte	.LASF139
 6968 0907 0A       		.byte	0xa
 6969 0908 5E       		.byte	0x5e
 6970 0909 33090000 		.4byte	0x933
 6971 090d 00       		.byte	0
 6972 090e 07       		.uleb128 0x7
 6973 090f 880A0000 		.4byte	.LASF160
 6974 0913 0A       		.byte	0xa
 6975 0914 5F       		.byte	0x5f
 6976 0915 B1000000 		.4byte	0xb1
 6977 0919 04       		.byte	0x4
 6978 091a 07       		.uleb128 0x7
 6979 091b 61050000 		.4byte	.LASF161
 6980 091f 0A       		.byte	0xa
 6981 0920 61       		.byte	0x61
 6982 0921 39090000 		.4byte	0x939
 6983 0925 08       		.byte	0x8
 6984 0926 07       		.uleb128 0x7
 6985 0927 F2000000 		.4byte	.LASF154
 6986 092b 0A       		.byte	0xa
 6987 092c 62       		.byte	0x62
 6988 092d A5080000 		.4byte	0x8a5
 6989 0931 88       		.byte	0x88
 6990 0932 00       		.byte	0
 6991 0933 0F       		.uleb128 0xf
 6992 0934 04       		.byte	0x4
 6993 0935 F5080000 		.4byte	0x8f5
 6994 0939 08       		.uleb128 0x8
 6995 093a 49090000 		.4byte	0x949
 6996 093e 49090000 		.4byte	0x949
 6997 0942 09       		.uleb128 0x9
 6998 0943 25000000 		.4byte	0x25
 6999 0947 1F       		.byte	0x1f
 7000 0948 00       		.byte	0
 7001 0949 0F       		.uleb128 0xf
 7002 094a 04       		.byte	0x4
 7003 094b 4F090000 		.4byte	0x94f
 7004 094f 18       		.uleb128 0x18
 7005 0950 14       		.uleb128 0x14
 7006 0951 CF1A0000 		.4byte	.LASF162
 7007 0955 08       		.byte	0x8
 7008 0956 0A       		.byte	0xa
 7009 0957 75       		.byte	0x75
 7010 0958 75090000 		.4byte	0x975
 7011 095c 07       		.uleb128 0x7
ARM GAS  /var/folders/d2/nstgp4h54kz7g1l847x_b8wc0000gn/T//cc2apEbl.s 			page 124


 7012 095d 210F0000 		.4byte	.LASF163
 7013 0961 0A       		.byte	0xa
 7014 0962 76       		.byte	0x76
 7015 0963 75090000 		.4byte	0x975
 7016 0967 00       		.byte	0
 7017 0968 07       		.uleb128 0x7
 7018 0969 CE1C0000 		.4byte	.LASF164
 7019 096d 0A       		.byte	0xa
 7020 096e 77       		.byte	0x77
 7021 096f B1000000 		.4byte	0xb1
 7022 0973 04       		.byte	0x4
 7023 0974 00       		.byte	0
 7024 0975 0F       		.uleb128 0xf
 7025 0976 04       		.byte	0x4
 7026 0977 50000000 		.4byte	0x50
 7027 097b 14       		.uleb128 0x14
 7028 097c 51080000 		.4byte	.LASF165
 7029 0980 68       		.byte	0x68
 7030 0981 0A       		.byte	0xa
 7031 0982 B5       		.byte	0xb5
 7032 0983 A50A0000 		.4byte	0xaa5
 7033 0987 15       		.uleb128 0x15
 7034 0988 5F7000   		.ascii	"_p\000"
 7035 098b 0A       		.byte	0xa
 7036 098c B6       		.byte	0xb6
 7037 098d 75090000 		.4byte	0x975
 7038 0991 00       		.byte	0
 7039 0992 15       		.uleb128 0x15
 7040 0993 5F7200   		.ascii	"_r\000"
 7041 0996 0A       		.byte	0xa
 7042 0997 B7       		.byte	0xb7
 7043 0998 B1000000 		.4byte	0xb1
 7044 099c 04       		.byte	0x4
 7045 099d 15       		.uleb128 0x15
 7046 099e 5F7700   		.ascii	"_w\000"
 7047 09a1 0A       		.byte	0xa
 7048 09a2 B8       		.byte	0xb8
 7049 09a3 B1000000 		.4byte	0xb1
 7050 09a7 08       		.byte	0x8
 7051 09a8 07       		.uleb128 0x7
 7052 09a9 23030000 		.4byte	.LASF166
 7053 09ad 0A       		.byte	0xa
 7054 09ae B9       		.byte	0xb9
 7055 09af 62000000 		.4byte	0x62
 7056 09b3 0C       		.byte	0xc
 7057 09b4 07       		.uleb128 0x7
 7058 09b5 BB0F0000 		.4byte	.LASF167
 7059 09b9 0A       		.byte	0xa
 7060 09ba BA       		.byte	0xba
 7061 09bb 62000000 		.4byte	0x62
 7062 09bf 0E       		.byte	0xe
 7063 09c0 15       		.uleb128 0x15
 7064 09c1 5F626600 		.ascii	"_bf\000"
 7065 09c5 0A       		.byte	0xa
 7066 09c6 BB       		.byte	0xbb
 7067 09c7 50090000 		.4byte	0x950
 7068 09cb 10       		.byte	0x10
ARM GAS  /var/folders/d2/nstgp4h54kz7g1l847x_b8wc0000gn/T//cc2apEbl.s 			page 125


 7069 09cc 07       		.uleb128 0x7
 7070 09cd 111A0000 		.4byte	.LASF168
 7071 09d1 0A       		.byte	0xa
 7072 09d2 BC       		.byte	0xbc
 7073 09d3 B1000000 		.4byte	0xb1
 7074 09d7 18       		.byte	0x18
 7075 09d8 07       		.uleb128 0x7
 7076 09d9 6F050000 		.4byte	.LASF169
 7077 09dd 0A       		.byte	0xa
 7078 09de C3       		.byte	0xc3
 7079 09df 18070000 		.4byte	0x718
 7080 09e3 1C       		.byte	0x1c
 7081 09e4 07       		.uleb128 0x7
 7082 09e5 38040000 		.4byte	.LASF170
 7083 09e9 0A       		.byte	0xa
 7084 09ea C5       		.byte	0xc5
 7085 09eb 060C0000 		.4byte	0xc06
 7086 09ef 20       		.byte	0x20
 7087 09f0 07       		.uleb128 0x7
 7088 09f1 AA120000 		.4byte	.LASF171
 7089 09f5 0A       		.byte	0xa
 7090 09f6 C7       		.byte	0xc7
 7091 09f7 300C0000 		.4byte	0xc30
 7092 09fb 24       		.byte	0x24
 7093 09fc 07       		.uleb128 0x7
 7094 09fd AF1E0000 		.4byte	.LASF172
 7095 0a01 0A       		.byte	0xa
 7096 0a02 CA       		.byte	0xca
 7097 0a03 540C0000 		.4byte	0xc54
 7098 0a07 28       		.byte	0x28
 7099 0a08 07       		.uleb128 0x7
 7100 0a09 2E0E0000 		.4byte	.LASF173
 7101 0a0d 0A       		.byte	0xa
 7102 0a0e CB       		.byte	0xcb
 7103 0a0f 6E0C0000 		.4byte	0xc6e
 7104 0a13 2C       		.byte	0x2c
 7105 0a14 15       		.uleb128 0x15
 7106 0a15 5F756200 		.ascii	"_ub\000"
 7107 0a19 0A       		.byte	0xa
 7108 0a1a CE       		.byte	0xce
 7109 0a1b 50090000 		.4byte	0x950
 7110 0a1f 30       		.byte	0x30
 7111 0a20 15       		.uleb128 0x15
 7112 0a21 5F757000 		.ascii	"_up\000"
 7113 0a25 0A       		.byte	0xa
 7114 0a26 CF       		.byte	0xcf
 7115 0a27 75090000 		.4byte	0x975
 7116 0a2b 38       		.byte	0x38
 7117 0a2c 15       		.uleb128 0x15
 7118 0a2d 5F757200 		.ascii	"_ur\000"
 7119 0a31 0A       		.byte	0xa
 7120 0a32 D0       		.byte	0xd0
 7121 0a33 B1000000 		.4byte	0xb1
 7122 0a37 3C       		.byte	0x3c
 7123 0a38 07       		.uleb128 0x7
 7124 0a39 DD1E0000 		.4byte	.LASF174
 7125 0a3d 0A       		.byte	0xa
ARM GAS  /var/folders/d2/nstgp4h54kz7g1l847x_b8wc0000gn/T//cc2apEbl.s 			page 126


 7126 0a3e D3       		.byte	0xd3
 7127 0a3f 740C0000 		.4byte	0xc74
 7128 0a43 40       		.byte	0x40
 7129 0a44 07       		.uleb128 0x7
 7130 0a45 261D0000 		.4byte	.LASF175
 7131 0a49 0A       		.byte	0xa
 7132 0a4a D4       		.byte	0xd4
 7133 0a4b 840C0000 		.4byte	0xc84
 7134 0a4f 43       		.byte	0x43
 7135 0a50 15       		.uleb128 0x15
 7136 0a51 5F6C6200 		.ascii	"_lb\000"
 7137 0a55 0A       		.byte	0xa
 7138 0a56 D7       		.byte	0xd7
 7139 0a57 50090000 		.4byte	0x950
 7140 0a5b 44       		.byte	0x44
 7141 0a5c 07       		.uleb128 0x7
 7142 0a5d EF160000 		.4byte	.LASF176
 7143 0a61 0A       		.byte	0xa
 7144 0a62 DA       		.byte	0xda
 7145 0a63 B1000000 		.4byte	0xb1
 7146 0a67 4C       		.byte	0x4c
 7147 0a68 07       		.uleb128 0x7
 7148 0a69 13090000 		.4byte	.LASF177
 7149 0a6d 0A       		.byte	0xa
 7150 0a6e DB       		.byte	0xdb
 7151 0a6f 30070000 		.4byte	0x730
 7152 0a73 50       		.byte	0x50
 7153 0a74 07       		.uleb128 0x7
 7154 0a75 1C150000 		.4byte	.LASF178
 7155 0a79 0A       		.byte	0xa
 7156 0a7a DE       		.byte	0xde
 7157 0a7b C30A0000 		.4byte	0xac3
 7158 0a7f 54       		.byte	0x54
 7159 0a80 07       		.uleb128 0x7
 7160 0a81 0F170000 		.4byte	.LASF179
 7161 0a85 0A       		.byte	0xa
 7162 0a86 E2       		.byte	0xe2
 7163 0a87 AD070000 		.4byte	0x7ad
 7164 0a8b 58       		.byte	0x58
 7165 0a8c 07       		.uleb128 0x7
 7166 0a8d DD030000 		.4byte	.LASF180
 7167 0a91 0A       		.byte	0xa
 7168 0a92 E4       		.byte	0xe4
 7169 0a93 A2070000 		.4byte	0x7a2
 7170 0a97 5C       		.byte	0x5c
 7171 0a98 07       		.uleb128 0x7
 7172 0a99 B91D0000 		.4byte	.LASF181
 7173 0a9d 0A       		.byte	0xa
 7174 0a9e E5       		.byte	0xe5
 7175 0a9f B1000000 		.4byte	0xb1
 7176 0aa3 64       		.byte	0x64
 7177 0aa4 00       		.byte	0
 7178 0aa5 19       		.uleb128 0x19
 7179 0aa6 B1000000 		.4byte	0xb1
 7180 0aaa C30A0000 		.4byte	0xac3
 7181 0aae 1A       		.uleb128 0x1a
 7182 0aaf C30A0000 		.4byte	0xac3
ARM GAS  /var/folders/d2/nstgp4h54kz7g1l847x_b8wc0000gn/T//cc2apEbl.s 			page 127


 7183 0ab3 1A       		.uleb128 0x1a
 7184 0ab4 18070000 		.4byte	0x718
 7185 0ab8 1A       		.uleb128 0x1a
 7186 0ab9 000C0000 		.4byte	0xc00
 7187 0abd 1A       		.uleb128 0x1a
 7188 0abe B1000000 		.4byte	0xb1
 7189 0ac2 00       		.byte	0
 7190 0ac3 0F       		.uleb128 0xf
 7191 0ac4 04       		.byte	0x4
 7192 0ac5 CE0A0000 		.4byte	0xace
 7193 0ac9 05       		.uleb128 0x5
 7194 0aca C30A0000 		.4byte	0xac3
 7195 0ace 1B       		.uleb128 0x1b
 7196 0acf 74130000 		.4byte	.LASF182
 7197 0ad3 2804     		.2byte	0x428
 7198 0ad5 0A       		.byte	0xa
 7199 0ad6 3902     		.2byte	0x239
 7200 0ad8 000C0000 		.4byte	0xc00
 7201 0adc 0A       		.uleb128 0xa
 7202 0add 6A030000 		.4byte	.LASF183
 7203 0ae1 0A       		.byte	0xa
 7204 0ae2 3B02     		.2byte	0x23b
 7205 0ae4 B1000000 		.4byte	0xb1
 7206 0ae8 00       		.byte	0
 7207 0ae9 0A       		.uleb128 0xa
 7208 0aea B30E0000 		.4byte	.LASF184
 7209 0aee 0A       		.byte	0xa
 7210 0aef 4002     		.2byte	0x240
 7211 0af1 DB0C0000 		.4byte	0xcdb
 7212 0af5 04       		.byte	0x4
 7213 0af6 0A       		.uleb128 0xa
 7214 0af7 77190000 		.4byte	.LASF185
 7215 0afb 0A       		.byte	0xa
 7216 0afc 4002     		.2byte	0x240
 7217 0afe DB0C0000 		.4byte	0xcdb
 7218 0b02 08       		.byte	0x8
 7219 0b03 0A       		.uleb128 0xa
 7220 0b04 CC1E0000 		.4byte	.LASF186
 7221 0b08 0A       		.byte	0xa
 7222 0b09 4002     		.2byte	0x240
 7223 0b0b DB0C0000 		.4byte	0xcdb
 7224 0b0f 0C       		.byte	0xc
 7225 0b10 0A       		.uleb128 0xa
 7226 0b11 830A0000 		.4byte	.LASF187
 7227 0b15 0A       		.byte	0xa
 7228 0b16 4202     		.2byte	0x242
 7229 0b18 B1000000 		.4byte	0xb1
 7230 0b1c 10       		.byte	0x10
 7231 0b1d 0A       		.uleb128 0xa
 7232 0b1e 5D090000 		.4byte	.LASF188
 7233 0b22 0A       		.byte	0xa
 7234 0b23 4302     		.2byte	0x243
 7235 0b25 BD0E0000 		.4byte	0xebd
 7236 0b29 14       		.byte	0x14
 7237 0b2a 0A       		.uleb128 0xa
 7238 0b2b 8D1D0000 		.4byte	.LASF189
 7239 0b2f 0A       		.byte	0xa
ARM GAS  /var/folders/d2/nstgp4h54kz7g1l847x_b8wc0000gn/T//cc2apEbl.s 			page 128


 7240 0b30 4602     		.2byte	0x246
 7241 0b32 B1000000 		.4byte	0xb1
 7242 0b36 30       		.byte	0x30
 7243 0b37 0A       		.uleb128 0xa
 7244 0b38 C61B0000 		.4byte	.LASF190
 7245 0b3c 0A       		.byte	0xa
 7246 0b3d 4702     		.2byte	0x247
 7247 0b3f D20E0000 		.4byte	0xed2
 7248 0b43 34       		.byte	0x34
 7249 0b44 0A       		.uleb128 0xa
 7250 0b45 350E0000 		.4byte	.LASF191
 7251 0b49 0A       		.byte	0xa
 7252 0b4a 4902     		.2byte	0x249
 7253 0b4c B1000000 		.4byte	0xb1
 7254 0b50 38       		.byte	0x38
 7255 0b51 0A       		.uleb128 0xa
 7256 0b52 35100000 		.4byte	.LASF192
 7257 0b56 0A       		.byte	0xa
 7258 0b57 4B02     		.2byte	0x24b
 7259 0b59 E30E0000 		.4byte	0xee3
 7260 0b5d 3C       		.byte	0x3c
 7261 0b5e 0A       		.uleb128 0xa
 7262 0b5f 47060000 		.4byte	.LASF193
 7263 0b63 0A       		.byte	0xa
 7264 0b64 4E02     		.2byte	0x24e
 7265 0b66 16080000 		.4byte	0x816
 7266 0b6a 40       		.byte	0x40
 7267 0b6b 0A       		.uleb128 0xa
 7268 0b6c E4070000 		.4byte	.LASF194
 7269 0b70 0A       		.byte	0xa
 7270 0b71 4F02     		.2byte	0x24f
 7271 0b73 B1000000 		.4byte	0xb1
 7272 0b77 44       		.byte	0x44
 7273 0b78 0A       		.uleb128 0xa
 7274 0b79 C80B0000 		.4byte	.LASF195
 7275 0b7d 0A       		.byte	0xa
 7276 0b7e 5002     		.2byte	0x250
 7277 0b80 16080000 		.4byte	0x816
 7278 0b84 48       		.byte	0x48
 7279 0b85 0A       		.uleb128 0xa
 7280 0b86 270F0000 		.4byte	.LASF196
 7281 0b8a 0A       		.byte	0xa
 7282 0b8b 5102     		.2byte	0x251
 7283 0b8d E90E0000 		.4byte	0xee9
 7284 0b91 4C       		.byte	0x4c
 7285 0b92 0A       		.uleb128 0xa
 7286 0b93 48160000 		.4byte	.LASF197
 7287 0b97 0A       		.byte	0xa
 7288 0b98 5402     		.2byte	0x254
 7289 0b9a B1000000 		.4byte	0xb1
 7290 0b9e 50       		.byte	0x50
 7291 0b9f 0A       		.uleb128 0xa
 7292 0ba0 7F190000 		.4byte	.LASF198
 7293 0ba4 0A       		.byte	0xa
 7294 0ba5 5502     		.2byte	0x255
 7295 0ba7 000C0000 		.4byte	0xc00
 7296 0bab 54       		.byte	0x54
ARM GAS  /var/folders/d2/nstgp4h54kz7g1l847x_b8wc0000gn/T//cc2apEbl.s 			page 129


 7297 0bac 0A       		.uleb128 0xa
 7298 0bad 33160000 		.4byte	.LASF199
 7299 0bb1 0A       		.byte	0xa
 7300 0bb2 7802     		.2byte	0x278
 7301 0bb4 9B0E0000 		.4byte	0xe9b
 7302 0bb8 58       		.byte	0x58
 7303 0bb9 0E       		.uleb128 0xe
 7304 0bba 6C130000 		.4byte	.LASF159
 7305 0bbe 0A       		.byte	0xa
 7306 0bbf 7C02     		.2byte	0x27c
 7307 0bc1 33090000 		.4byte	0x933
 7308 0bc5 4801     		.2byte	0x148
 7309 0bc7 0E       		.uleb128 0xe
 7310 0bc8 A40C0000 		.4byte	.LASF200
 7311 0bcc 0A       		.byte	0xa
 7312 0bcd 7D02     		.2byte	0x27d
 7313 0bcf F5080000 		.4byte	0x8f5
 7314 0bd3 4C01     		.2byte	0x14c
 7315 0bd5 0E       		.uleb128 0xe
 7316 0bd6 8B0C0000 		.4byte	.LASF201
 7317 0bda 0A       		.byte	0xa
 7318 0bdb 8102     		.2byte	0x281
 7319 0bdd FA0E0000 		.4byte	0xefa
 7320 0be1 DC02     		.2byte	0x2dc
 7321 0be3 0E       		.uleb128 0xe
 7322 0be4 7F1B0000 		.4byte	.LASF202
 7323 0be8 0A       		.byte	0xa
 7324 0be9 8602     		.2byte	0x286
 7325 0beb A00C0000 		.4byte	0xca0
 7326 0bef E002     		.2byte	0x2e0
 7327 0bf1 0E       		.uleb128 0xe
 7328 0bf2 C4140000 		.4byte	.LASF203
 7329 0bf6 0A       		.byte	0xa
 7330 0bf7 8802     		.2byte	0x288
 7331 0bf9 060F0000 		.4byte	0xf06
 7332 0bfd EC02     		.2byte	0x2ec
 7333 0bff 00       		.byte	0
 7334 0c00 0F       		.uleb128 0xf
 7335 0c01 04       		.byte	0x4
 7336 0c02 98010000 		.4byte	0x198
 7337 0c06 0F       		.uleb128 0xf
 7338 0c07 04       		.byte	0x4
 7339 0c08 A50A0000 		.4byte	0xaa5
 7340 0c0c 19       		.uleb128 0x19
 7341 0c0d B1000000 		.4byte	0xb1
 7342 0c11 2A0C0000 		.4byte	0xc2a
 7343 0c15 1A       		.uleb128 0x1a
 7344 0c16 C30A0000 		.4byte	0xac3
 7345 0c1a 1A       		.uleb128 0x1a
 7346 0c1b 18070000 		.4byte	0x718
 7347 0c1f 1A       		.uleb128 0x1a
 7348 0c20 2A0C0000 		.4byte	0xc2a
 7349 0c24 1A       		.uleb128 0x1a
 7350 0c25 B1000000 		.4byte	0xb1
 7351 0c29 00       		.byte	0
 7352 0c2a 0F       		.uleb128 0xf
 7353 0c2b 04       		.byte	0x4
ARM GAS  /var/folders/d2/nstgp4h54kz7g1l847x_b8wc0000gn/T//cc2apEbl.s 			page 130


 7354 0c2c 9F010000 		.4byte	0x19f
 7355 0c30 0F       		.uleb128 0xf
 7356 0c31 04       		.byte	0x4
 7357 0c32 0C0C0000 		.4byte	0xc0c
 7358 0c36 19       		.uleb128 0x19
 7359 0c37 3B070000 		.4byte	0x73b
 7360 0c3b 540C0000 		.4byte	0xc54
 7361 0c3f 1A       		.uleb128 0x1a
 7362 0c40 C30A0000 		.4byte	0xac3
 7363 0c44 1A       		.uleb128 0x1a
 7364 0c45 18070000 		.4byte	0x718
 7365 0c49 1A       		.uleb128 0x1a
 7366 0c4a 3B070000 		.4byte	0x73b
 7367 0c4e 1A       		.uleb128 0x1a
 7368 0c4f B1000000 		.4byte	0xb1
 7369 0c53 00       		.byte	0
 7370 0c54 0F       		.uleb128 0xf
 7371 0c55 04       		.byte	0x4
 7372 0c56 360C0000 		.4byte	0xc36
 7373 0c5a 19       		.uleb128 0x19
 7374 0c5b B1000000 		.4byte	0xb1
 7375 0c5f 6E0C0000 		.4byte	0xc6e
 7376 0c63 1A       		.uleb128 0x1a
 7377 0c64 C30A0000 		.4byte	0xac3
 7378 0c68 1A       		.uleb128 0x1a
 7379 0c69 18070000 		.4byte	0x718
 7380 0c6d 00       		.byte	0
 7381 0c6e 0F       		.uleb128 0xf
 7382 0c6f 04       		.byte	0x4
 7383 0c70 5A0C0000 		.4byte	0xc5a
 7384 0c74 08       		.uleb128 0x8
 7385 0c75 50000000 		.4byte	0x50
 7386 0c79 840C0000 		.4byte	0xc84
 7387 0c7d 09       		.uleb128 0x9
 7388 0c7e 25000000 		.4byte	0x25
 7389 0c82 02       		.byte	0x2
 7390 0c83 00       		.byte	0
 7391 0c84 08       		.uleb128 0x8
 7392 0c85 50000000 		.4byte	0x50
 7393 0c89 940C0000 		.4byte	0xc94
 7394 0c8d 09       		.uleb128 0x9
 7395 0c8e 25000000 		.4byte	0x25
 7396 0c92 00       		.byte	0
 7397 0c93 00       		.byte	0
 7398 0c94 0B       		.uleb128 0xb
 7399 0c95 E4080000 		.4byte	.LASF204
 7400 0c99 0A       		.byte	0xa
 7401 0c9a 1F01     		.2byte	0x11f
 7402 0c9c 7B090000 		.4byte	0x97b
 7403 0ca0 1C       		.uleb128 0x1c
 7404 0ca1 201B0000 		.4byte	.LASF205
 7405 0ca5 0C       		.byte	0xc
 7406 0ca6 0A       		.byte	0xa
 7407 0ca7 2301     		.2byte	0x123
 7408 0ca9 D50C0000 		.4byte	0xcd5
 7409 0cad 0A       		.uleb128 0xa
 7410 0cae B51E0000 		.4byte	.LASF139
ARM GAS  /var/folders/d2/nstgp4h54kz7g1l847x_b8wc0000gn/T//cc2apEbl.s 			page 131


 7411 0cb2 0A       		.byte	0xa
 7412 0cb3 2501     		.2byte	0x125
 7413 0cb5 D50C0000 		.4byte	0xcd5
 7414 0cb9 00       		.byte	0
 7415 0cba 0A       		.uleb128 0xa
 7416 0cbb 8C170000 		.4byte	.LASF206
 7417 0cbf 0A       		.byte	0xa
 7418 0cc0 2601     		.2byte	0x126
 7419 0cc2 B1000000 		.4byte	0xb1
 7420 0cc6 04       		.byte	0x4
 7421 0cc7 0A       		.uleb128 0xa
 7422 0cc8 BF0D0000 		.4byte	.LASF207
 7423 0ccc 0A       		.byte	0xa
 7424 0ccd 2701     		.2byte	0x127
 7425 0ccf DB0C0000 		.4byte	0xcdb
 7426 0cd3 08       		.byte	0x8
 7427 0cd4 00       		.byte	0
 7428 0cd5 0F       		.uleb128 0xf
 7429 0cd6 04       		.byte	0x4
 7430 0cd7 A00C0000 		.4byte	0xca0
 7431 0cdb 0F       		.uleb128 0xf
 7432 0cdc 04       		.byte	0x4
 7433 0cdd 940C0000 		.4byte	0xc94
 7434 0ce1 1C       		.uleb128 0x1c
 7435 0ce2 B6070000 		.4byte	.LASF208
 7436 0ce6 0E       		.byte	0xe
 7437 0ce7 0A       		.byte	0xa
 7438 0ce8 3F01     		.2byte	0x13f
 7439 0cea 160D0000 		.4byte	0xd16
 7440 0cee 0A       		.uleb128 0xa
 7441 0cef 5F1E0000 		.4byte	.LASF209
 7442 0cf3 0A       		.byte	0xa
 7443 0cf4 4001     		.2byte	0x140
 7444 0cf6 160D0000 		.4byte	0xd16
 7445 0cfa 00       		.byte	0
 7446 0cfb 0A       		.uleb128 0xa
 7447 0cfc 400F0000 		.4byte	.LASF210
 7448 0d00 0A       		.byte	0xa
 7449 0d01 4101     		.2byte	0x141
 7450 0d03 160D0000 		.4byte	0xd16
 7451 0d07 06       		.byte	0x6
 7452 0d08 0A       		.uleb128 0xa
 7453 0d09 5B1A0000 		.4byte	.LASF211
 7454 0d0d 0A       		.byte	0xa
 7455 0d0e 4201     		.2byte	0x142
 7456 0d10 74000000 		.4byte	0x74
 7457 0d14 0C       		.byte	0xc
 7458 0d15 00       		.byte	0
 7459 0d16 08       		.uleb128 0x8
 7460 0d17 74000000 		.4byte	0x74
 7461 0d1b 260D0000 		.4byte	0xd26
 7462 0d1f 09       		.uleb128 0x9
 7463 0d20 25000000 		.4byte	0x25
 7464 0d24 02       		.byte	0x2
 7465 0d25 00       		.byte	0
 7466 0d26 0C       		.uleb128 0xc
 7467 0d27 D0       		.byte	0xd0
ARM GAS  /var/folders/d2/nstgp4h54kz7g1l847x_b8wc0000gn/T//cc2apEbl.s 			page 132


 7468 0d28 0A       		.byte	0xa
 7469 0d29 5902     		.2byte	0x259
 7470 0d2b 270E0000 		.4byte	0xe27
 7471 0d2f 0A       		.uleb128 0xa
 7472 0d30 2C1D0000 		.4byte	.LASF212
 7473 0d34 0A       		.byte	0xa
 7474 0d35 5B02     		.2byte	0x25b
 7475 0d37 25000000 		.4byte	0x25
 7476 0d3b 00       		.byte	0
 7477 0d3c 0A       		.uleb128 0xa
 7478 0d3d 871B0000 		.4byte	.LASF213
 7479 0d41 0A       		.byte	0xa
 7480 0d42 5C02     		.2byte	0x25c
 7481 0d44 000C0000 		.4byte	0xc00
 7482 0d48 04       		.byte	0x4
 7483 0d49 0A       		.uleb128 0xa
 7484 0d4a 44080000 		.4byte	.LASF214
 7485 0d4e 0A       		.byte	0xa
 7486 0d4f 5D02     		.2byte	0x25d
 7487 0d51 270E0000 		.4byte	0xe27
 7488 0d55 08       		.byte	0x8
 7489 0d56 0A       		.uleb128 0xa
 7490 0d57 F5150000 		.4byte	.LASF215
 7491 0d5b 0A       		.byte	0xa
 7492 0d5c 5E02     		.2byte	0x25e
 7493 0d5e 2C080000 		.4byte	0x82c
 7494 0d62 24       		.byte	0x24
 7495 0d63 0A       		.uleb128 0xa
 7496 0d64 BA0E0000 		.4byte	.LASF216
 7497 0d68 0A       		.byte	0xa
 7498 0d69 5F02     		.2byte	0x25f
 7499 0d6b B1000000 		.4byte	0xb1
 7500 0d6f 48       		.byte	0x48
 7501 0d70 0A       		.uleb128 0xa
 7502 0d71 651E0000 		.4byte	.LASF217
 7503 0d75 0A       		.byte	0xa
 7504 0d76 6002     		.2byte	0x260
 7505 0d78 2C000000 		.4byte	0x2c
 7506 0d7c 50       		.byte	0x50
 7507 0d7d 0A       		.uleb128 0xa
 7508 0d7e BA010000 		.4byte	.LASF218
 7509 0d82 0A       		.byte	0xa
 7510 0d83 6102     		.2byte	0x261
 7511 0d85 E10C0000 		.4byte	0xce1
 7512 0d89 58       		.byte	0x58
 7513 0d8a 0A       		.uleb128 0xa
 7514 0d8b 200C0000 		.4byte	.LASF219
 7515 0d8f 0A       		.byte	0xa
 7516 0d90 6202     		.2byte	0x262
 7517 0d92 A2070000 		.4byte	0x7a2
 7518 0d96 68       		.byte	0x68
 7519 0d97 0A       		.uleb128 0xa
 7520 0d98 941B0000 		.4byte	.LASF220
 7521 0d9c 0A       		.byte	0xa
 7522 0d9d 6302     		.2byte	0x263
 7523 0d9f A2070000 		.4byte	0x7a2
 7524 0da3 70       		.byte	0x70
ARM GAS  /var/folders/d2/nstgp4h54kz7g1l847x_b8wc0000gn/T//cc2apEbl.s 			page 133


 7525 0da4 0A       		.uleb128 0xa
 7526 0da5 27010000 		.4byte	.LASF221
 7527 0da9 0A       		.byte	0xa
 7528 0daa 6402     		.2byte	0x264
 7529 0dac A2070000 		.4byte	0x7a2
 7530 0db0 78       		.byte	0x78
 7531 0db1 0A       		.uleb128 0xa
 7532 0db2 5F160000 		.4byte	.LASF222
 7533 0db6 0A       		.byte	0xa
 7534 0db7 6502     		.2byte	0x265
 7535 0db9 370E0000 		.4byte	0xe37
 7536 0dbd 80       		.byte	0x80
 7537 0dbe 0A       		.uleb128 0xa
 7538 0dbf 74020000 		.4byte	.LASF223
 7539 0dc3 0A       		.byte	0xa
 7540 0dc4 6602     		.2byte	0x266
 7541 0dc6 470E0000 		.4byte	0xe47
 7542 0dca 88       		.byte	0x88
 7543 0dcb 0A       		.uleb128 0xa
 7544 0dcc 041A0000 		.4byte	.LASF224
 7545 0dd0 0A       		.byte	0xa
 7546 0dd1 6702     		.2byte	0x267
 7547 0dd3 B1000000 		.4byte	0xb1
 7548 0dd7 A0       		.byte	0xa0
 7549 0dd8 0A       		.uleb128 0xa
 7550 0dd9 78040000 		.4byte	.LASF225
 7551 0ddd 0A       		.byte	0xa
 7552 0dde 6802     		.2byte	0x268
 7553 0de0 A2070000 		.4byte	0x7a2
 7554 0de4 A4       		.byte	0xa4
 7555 0de5 0A       		.uleb128 0xa
 7556 0de6 950C0000 		.4byte	.LASF226
 7557 0dea 0A       		.byte	0xa
 7558 0deb 6902     		.2byte	0x269
 7559 0ded A2070000 		.4byte	0x7a2
 7560 0df1 AC       		.byte	0xac
 7561 0df2 0A       		.uleb128 0xa
 7562 0df3 EE0A0000 		.4byte	.LASF227
 7563 0df7 0A       		.byte	0xa
 7564 0df8 6A02     		.2byte	0x26a
 7565 0dfa A2070000 		.4byte	0x7a2
 7566 0dfe B4       		.byte	0xb4
 7567 0dff 0A       		.uleb128 0xa
 7568 0e00 790F0000 		.4byte	.LASF228
 7569 0e04 0A       		.byte	0xa
 7570 0e05 6B02     		.2byte	0x26b
 7571 0e07 A2070000 		.4byte	0x7a2
 7572 0e0b BC       		.byte	0xbc
 7573 0e0c 0A       		.uleb128 0xa
 7574 0e0d BF100000 		.4byte	.LASF229
 7575 0e11 0A       		.byte	0xa
 7576 0e12 6C02     		.2byte	0x26c
 7577 0e14 A2070000 		.4byte	0x7a2
 7578 0e18 C4       		.byte	0xc4
 7579 0e19 0A       		.uleb128 0xa
 7580 0e1a 08110000 		.4byte	.LASF230
 7581 0e1e 0A       		.byte	0xa
ARM GAS  /var/folders/d2/nstgp4h54kz7g1l847x_b8wc0000gn/T//cc2apEbl.s 			page 134


 7582 0e1f 6D02     		.2byte	0x26d
 7583 0e21 B1000000 		.4byte	0xb1
 7584 0e25 CC       		.byte	0xcc
 7585 0e26 00       		.byte	0
 7586 0e27 08       		.uleb128 0x8
 7587 0e28 98010000 		.4byte	0x198
 7588 0e2c 370E0000 		.4byte	0xe37
 7589 0e30 09       		.uleb128 0x9
 7590 0e31 25000000 		.4byte	0x25
 7591 0e35 19       		.byte	0x19
 7592 0e36 00       		.byte	0
 7593 0e37 08       		.uleb128 0x8
 7594 0e38 98010000 		.4byte	0x198
 7595 0e3c 470E0000 		.4byte	0xe47
 7596 0e40 09       		.uleb128 0x9
 7597 0e41 25000000 		.4byte	0x25
 7598 0e45 07       		.byte	0x7
 7599 0e46 00       		.byte	0
 7600 0e47 08       		.uleb128 0x8
 7601 0e48 98010000 		.4byte	0x198
 7602 0e4c 570E0000 		.4byte	0xe57
 7603 0e50 09       		.uleb128 0x9
 7604 0e51 25000000 		.4byte	0x25
 7605 0e55 17       		.byte	0x17
 7606 0e56 00       		.byte	0
 7607 0e57 0C       		.uleb128 0xc
 7608 0e58 F0       		.byte	0xf0
 7609 0e59 0A       		.byte	0xa
 7610 0e5a 7202     		.2byte	0x272
 7611 0e5c 7B0E0000 		.4byte	0xe7b
 7612 0e60 0A       		.uleb128 0xa
 7613 0e61 73070000 		.4byte	.LASF231
 7614 0e65 0A       		.byte	0xa
 7615 0e66 7502     		.2byte	0x275
 7616 0e68 7B0E0000 		.4byte	0xe7b
 7617 0e6c 00       		.byte	0
 7618 0e6d 0A       		.uleb128 0xa
 7619 0e6e D41E0000 		.4byte	.LASF232
 7620 0e72 0A       		.byte	0xa
 7621 0e73 7602     		.2byte	0x276
 7622 0e75 8B0E0000 		.4byte	0xe8b
 7623 0e79 78       		.byte	0x78
 7624 0e7a 00       		.byte	0
 7625 0e7b 08       		.uleb128 0x8
 7626 0e7c 75090000 		.4byte	0x975
 7627 0e80 8B0E0000 		.4byte	0xe8b
 7628 0e84 09       		.uleb128 0x9
 7629 0e85 25000000 		.4byte	0x25
 7630 0e89 1D       		.byte	0x1d
 7631 0e8a 00       		.byte	0
 7632 0e8b 08       		.uleb128 0x8
 7633 0e8c 25000000 		.4byte	0x25
 7634 0e90 9B0E0000 		.4byte	0xe9b
 7635 0e94 09       		.uleb128 0x9
 7636 0e95 25000000 		.4byte	0x25
 7637 0e99 1D       		.byte	0x1d
 7638 0e9a 00       		.byte	0
ARM GAS  /var/folders/d2/nstgp4h54kz7g1l847x_b8wc0000gn/T//cc2apEbl.s 			page 135


 7639 0e9b 1D       		.uleb128 0x1d
 7640 0e9c F0       		.byte	0xf0
 7641 0e9d 0A       		.byte	0xa
 7642 0e9e 5702     		.2byte	0x257
 7643 0ea0 BD0E0000 		.4byte	0xebd
 7644 0ea4 1E       		.uleb128 0x1e
 7645 0ea5 74130000 		.4byte	.LASF182
 7646 0ea9 0A       		.byte	0xa
 7647 0eaa 6E02     		.2byte	0x26e
 7648 0eac 260D0000 		.4byte	0xd26
 7649 0eb0 1E       		.uleb128 0x1e
 7650 0eb1 21160000 		.4byte	.LASF233
 7651 0eb5 0A       		.byte	0xa
 7652 0eb6 7702     		.2byte	0x277
 7653 0eb8 570E0000 		.4byte	0xe57
 7654 0ebc 00       		.byte	0
 7655 0ebd 08       		.uleb128 0x8
 7656 0ebe 98010000 		.4byte	0x198
 7657 0ec2 CD0E0000 		.4byte	0xecd
 7658 0ec6 09       		.uleb128 0x9
 7659 0ec7 25000000 		.4byte	0x25
 7660 0ecb 18       		.byte	0x18
 7661 0ecc 00       		.byte	0
 7662 0ecd 11       		.uleb128 0x11
 7663 0ece D2030000 		.4byte	.LASF235
 7664 0ed2 0F       		.uleb128 0xf
 7665 0ed3 04       		.byte	0x4
 7666 0ed4 CD0E0000 		.4byte	0xecd
 7667 0ed8 1F       		.uleb128 0x1f
 7668 0ed9 E30E0000 		.4byte	0xee3
 7669 0edd 1A       		.uleb128 0x1a
 7670 0ede C30A0000 		.4byte	0xac3
 7671 0ee2 00       		.byte	0
 7672 0ee3 0F       		.uleb128 0xf
 7673 0ee4 04       		.byte	0x4
 7674 0ee5 D80E0000 		.4byte	0xed8
 7675 0ee9 0F       		.uleb128 0xf
 7676 0eea 04       		.byte	0x4
 7677 0eeb 16080000 		.4byte	0x816
 7678 0eef 1F       		.uleb128 0x1f
 7679 0ef0 FA0E0000 		.4byte	0xefa
 7680 0ef4 1A       		.uleb128 0x1a
 7681 0ef5 B1000000 		.4byte	0xb1
 7682 0ef9 00       		.byte	0
 7683 0efa 0F       		.uleb128 0xf
 7684 0efb 04       		.byte	0x4
 7685 0efc 000F0000 		.4byte	0xf00
 7686 0f00 0F       		.uleb128 0xf
 7687 0f01 04       		.byte	0x4
 7688 0f02 EF0E0000 		.4byte	0xeef
 7689 0f06 08       		.uleb128 0x8
 7690 0f07 940C0000 		.4byte	0xc94
 7691 0f0b 160F0000 		.4byte	0xf16
 7692 0f0f 09       		.uleb128 0x9
 7693 0f10 25000000 		.4byte	0x25
 7694 0f14 02       		.byte	0x2
 7695 0f15 00       		.byte	0
ARM GAS  /var/folders/d2/nstgp4h54kz7g1l847x_b8wc0000gn/T//cc2apEbl.s 			page 136


 7696 0f16 20       		.uleb128 0x20
 7697 0f17 55050000 		.4byte	.LASF236
 7698 0f1b 0A       		.byte	0xa
 7699 0f1c 0703     		.2byte	0x307
 7700 0f1e C30A0000 		.4byte	0xac3
 7701 0f22 20       		.uleb128 0x20
 7702 0f23 AB050000 		.4byte	.LASF237
 7703 0f27 0A       		.byte	0xa
 7704 0f28 0803     		.2byte	0x308
 7705 0f2a C90A0000 		.4byte	0xac9
 7706 0f2e 21       		.uleb128 0x21
 7707 0f2f C001     		.2byte	0x1c0
 7708 0f31 0B       		.byte	0xb
 7709 0f32 44       		.byte	0x44
 7710 0f33 5E0F0000 		.4byte	0xf5e
 7711 0f37 07       		.uleb128 0x7
 7712 0f38 AA1E0000 		.4byte	.LASF238
 7713 0f3c 0B       		.byte	0xb
 7714 0f3d 45       		.byte	0x45
 7715 0f3e 9D060000 		.4byte	0x69d
 7716 0f42 00       		.byte	0
 7717 0f43 17       		.uleb128 0x17
 7718 0f44 6E010000 		.4byte	.LASF239
 7719 0f48 0B       		.byte	0xb
 7720 0f49 48       		.byte	0x48
 7721 0f4a A4010000 		.4byte	0x1a4
 7722 0f4e 5C01     		.2byte	0x15c
 7723 0f50 17       		.uleb128 0x17
 7724 0f51 B9140000 		.4byte	.LASF240
 7725 0f55 0B       		.byte	0xb
 7726 0f56 49       		.byte	0x49
 7727 0f57 C3000000 		.4byte	0xc3
 7728 0f5b BF01     		.2byte	0x1bf
 7729 0f5d 00       		.byte	0
 7730 0f5e 03       		.uleb128 0x3
 7731 0f5f 9B040000 		.4byte	.LASF241
 7732 0f63 0B       		.byte	0xb
 7733 0f64 4B       		.byte	0x4b
 7734 0f65 2E0F0000 		.4byte	0xf2e
 7735 0f69 03       		.uleb128 0x3
 7736 0f6a E6000000 		.4byte	.LASF242
 7737 0f6e 0B       		.byte	0xb
 7738 0f6f 52       		.byte	0x52
 7739 0f70 740F0000 		.4byte	0xf74
 7740 0f74 0F       		.uleb128 0xf
 7741 0f75 04       		.byte	0x4
 7742 0f76 5E0F0000 		.4byte	0xf5e
 7743 0f7a 22       		.uleb128 0x22
 7744 0f7b 6F0A0000 		.4byte	.LASF243
 7745 0f7f 0C       		.byte	0xc
 7746 0f80 63       		.byte	0x63
 7747 0f81 000C0000 		.4byte	0xc00
 7748 0f85 23       		.uleb128 0x23
 7749 0f86 04160000 		.4byte	.LASF265
 7750 0f8a 01       		.byte	0x1
 7751 0f8b D907     		.2byte	0x7d9
 7752 0f8d AF010000 		.4byte	0x1af
ARM GAS  /var/folders/d2/nstgp4h54kz7g1l847x_b8wc0000gn/T//cc2apEbl.s 			page 137


 7753 0f91 00000000 		.4byte	.LFB27
 7754 0f95 70020000 		.4byte	.LFE27-.LFB27
 7755 0f99 01       		.uleb128 0x1
 7756 0f9a 9C       		.byte	0x9c
 7757 0f9b 97120000 		.4byte	0x1297
 7758 0f9f 24       		.uleb128 0x24
 7759 0fa0 44657600 		.ascii	"Dev\000"
 7760 0fa4 01       		.byte	0x1
 7761 0fa5 D907     		.2byte	0x7d9
 7762 0fa7 690F0000 		.4byte	0xf69
 7763 0fab 00000000 		.4byte	.LLST217
 7764 0faf 25       		.uleb128 0x25
 7765 0fb0 59000000 		.4byte	.LASF244
 7766 0fb4 01       		.byte	0x1
 7767 0fb5 DA07     		.2byte	0x7da
 7768 0fb7 C3000000 		.4byte	0xc3
 7769 0fbb 1E000000 		.4byte	.LLST218
 7770 0fbf 25       		.uleb128 0x25
 7771 0fc0 B50A0000 		.4byte	.LASF245
 7772 0fc4 01       		.byte	0x1
 7773 0fc5 DB07     		.2byte	0x7db
 7774 0fc7 11010000 		.4byte	0x111
 7775 0fcb 3F000000 		.4byte	.LLST219
 7776 0fcf 25       		.uleb128 0x25
 7777 0fd0 BB090000 		.4byte	.LASF62
 7778 0fd4 01       		.byte	0x1
 7779 0fd5 DC07     		.2byte	0x7dc
 7780 0fd7 D9000000 		.4byte	0xd9
 7781 0fdb 5F000000 		.4byte	.LLST220
 7782 0fdf 25       		.uleb128 0x25
 7783 0fe0 CD0D0000 		.4byte	.LASF246
 7784 0fe4 01       		.byte	0x1
 7785 0fe5 DD07     		.2byte	0x7dd
 7786 0fe7 97120000 		.4byte	0x1297
 7787 0feb 80000000 		.4byte	.LLST221
 7788 0fef 25       		.uleb128 0x25
 7789 0ff0 E60B0000 		.4byte	.LASF247
 7790 0ff4 01       		.byte	0x1
 7791 0ff5 DE07     		.2byte	0x7de
 7792 0ff7 97060000 		.4byte	0x697
 7793 0ffb A0000000 		.4byte	.LLST222
 7794 0fff 26       		.uleb128 0x26
 7795 1000 C1020000 		.4byte	.LASF248
 7796 1004 01       		.byte	0x1
 7797 1005 E007     		.2byte	0x7e0
 7798 1007 AF010000 		.4byte	0x1af
 7799 100b C0000000 		.4byte	.LLST223
 7800 100f 27       		.uleb128 0x27
 7801 1010 A11A0000 		.4byte	.LASF249
 7802 1014 01       		.byte	0x1
 7803 1015 E107     		.2byte	0x7e1
 7804 1017 C3000000 		.4byte	0xc3
 7805 101b 03       		.uleb128 0x3
 7806 101c 91       		.byte	0x91
 7807 101d AC7F     		.sleb128 -84
 7808 101f 26       		.uleb128 0x26
 7809 1020 C8020000 		.4byte	.LASF250
ARM GAS  /var/folders/d2/nstgp4h54kz7g1l847x_b8wc0000gn/T//cc2apEbl.s 			page 138


 7810 1024 01       		.byte	0x1
 7811 1025 E207     		.2byte	0x7e2
 7812 1027 C3000000 		.4byte	0xc3
 7813 102b D1010000 		.4byte	.LLST224
 7814 102f 26       		.uleb128 0x26
 7815 1030 CA120000 		.4byte	.LASF251
 7816 1034 01       		.byte	0x1
 7817 1035 E307     		.2byte	0x7e3
 7818 1037 C3000000 		.4byte	0xc3
 7819 103b 29020000 		.4byte	.LLST225
 7820 103f 26       		.uleb128 0x26
 7821 1040 5B020000 		.4byte	.LASF252
 7822 1044 01       		.byte	0x1
 7823 1045 E407     		.2byte	0x7e4
 7824 1047 C3000000 		.4byte	0xc3
 7825 104b 98020000 		.4byte	.LLST226
 7826 104f 27       		.uleb128 0x27
 7827 1050 F7060000 		.4byte	.LASF253
 7828 1054 01       		.byte	0x1
 7829 1055 E507     		.2byte	0x7e5
 7830 1057 C3000000 		.4byte	0xc3
 7831 105b 03       		.uleb128 0x3
 7832 105c 91       		.byte	0x91
 7833 105d BA7F     		.sleb128 -70
 7834 105f 27       		.uleb128 0x27
 7835 1060 770E0000 		.4byte	.LASF254
 7836 1064 01       		.byte	0x1
 7837 1065 E607     		.2byte	0x7e6
 7838 1067 C3000000 		.4byte	0xc3
 7839 106b 03       		.uleb128 0x3
 7840 106c 91       		.byte	0x91
 7841 106d BB7F     		.sleb128 -69
 7842 106f 27       		.uleb128 0x27
 7843 1070 1A040000 		.4byte	.LASF255
 7844 1074 01       		.byte	0x1
 7845 1075 E707     		.2byte	0x7e7
 7846 1077 C3000000 		.4byte	0xc3
 7847 107b 03       		.uleb128 0x3
 7848 107c 91       		.byte	0x91
 7849 107d BC7F     		.sleb128 -68
 7850 107f 27       		.uleb128 0x27
 7851 1080 15170000 		.4byte	.LASF256
 7852 1084 01       		.byte	0x1
 7853 1085 E807     		.2byte	0x7e8
 7854 1087 C3000000 		.4byte	0xc3
 7855 108b 03       		.uleb128 0x3
 7856 108c 91       		.byte	0x91
 7857 108d BD7F     		.sleb128 -67
 7858 108f 27       		.uleb128 0x27
 7859 1090 8A1C0000 		.4byte	.LASF111
 7860 1094 01       		.byte	0x1
 7861 1095 E907     		.2byte	0x7e9
 7862 1097 11010000 		.4byte	0x111
 7863 109b 02       		.uleb128 0x2
 7864 109c 91       		.byte	0x91
 7865 109d 40       		.sleb128 -64
 7866 109e 27       		.uleb128 0x27
ARM GAS  /var/folders/d2/nstgp4h54kz7g1l847x_b8wc0000gn/T//cc2apEbl.s 			page 139


 7867 109f A0130000 		.4byte	.LASF257
 7868 10a3 01       		.byte	0x1
 7869 10a4 EA07     		.2byte	0x7ea
 7870 10a6 11010000 		.4byte	0x111
 7871 10aa 02       		.uleb128 0x2
 7872 10ab 91       		.byte	0x91
 7873 10ac 44       		.sleb128 -60
 7874 10ad 27       		.uleb128 0x27
 7875 10ae E80C0000 		.4byte	.LASF258
 7876 10b2 01       		.byte	0x1
 7877 10b3 EB07     		.2byte	0x7eb
 7878 10b5 11010000 		.4byte	0x111
 7879 10b9 02       		.uleb128 0x2
 7880 10ba 91       		.byte	0x91
 7881 10bb 48       		.sleb128 -56
 7882 10bc 27       		.uleb128 0x27
 7883 10bd 7B130000 		.4byte	.LASF259
 7884 10c1 01       		.byte	0x1
 7885 10c2 EC07     		.2byte	0x7ec
 7886 10c4 11010000 		.4byte	0x111
 7887 10c8 02       		.uleb128 0x2
 7888 10c9 91       		.byte	0x91
 7889 10ca 4C       		.sleb128 -52
 7890 10cb 26       		.uleb128 0x26
 7891 10cc AA1A0000 		.4byte	.LASF260
 7892 10d0 01       		.byte	0x1
 7893 10d1 ED07     		.2byte	0x7ed
 7894 10d3 11010000 		.4byte	0x111
 7895 10d7 08030000 		.4byte	.LLST227
 7896 10db 27       		.uleb128 0x27
 7897 10dc 350D0000 		.4byte	.LASF261
 7898 10e0 01       		.byte	0x1
 7899 10e1 EE07     		.2byte	0x7ee
 7900 10e3 C3000000 		.4byte	0xc3
 7901 10e7 01       		.uleb128 0x1
 7902 10e8 57       		.byte	0x57
 7903 10e9 27       		.uleb128 0x27
 7904 10ea 661D0000 		.4byte	.LASF262
 7905 10ee 01       		.byte	0x1
 7906 10ef EF07     		.2byte	0x7ef
 7907 10f1 D9000000 		.4byte	0xd9
 7908 10f5 03       		.uleb128 0x3
 7909 10f6 91       		.byte	0x91
 7910 10f7 BE7F     		.sleb128 -66
 7911 10f9 26       		.uleb128 0x26
 7912 10fa B3060000 		.4byte	.LASF263
 7913 10fe 01       		.byte	0x1
 7914 10ff F007     		.2byte	0x7f0
 7915 1101 C3000000 		.4byte	0xc3
 7916 1105 31030000 		.4byte	.LLST228
 7917 1109 27       		.uleb128 0x27
 7918 110a B1170000 		.4byte	.LASF264
 7919 110e 01       		.byte	0x1
 7920 110f F107     		.2byte	0x7f1
 7921 1111 EF000000 		.4byte	0xef
 7922 1115 02       		.uleb128 0x2
 7923 1116 91       		.byte	0x91
ARM GAS  /var/folders/d2/nstgp4h54kz7g1l847x_b8wc0000gn/T//cc2apEbl.s 			page 140


 7924 1117 50       		.sleb128 -48
 7925 1118 26       		.uleb128 0x26
 7926 1119 22150000 		.4byte	.LASF113
 7927 111d 01       		.byte	0x1
 7928 111e F207     		.2byte	0x7f2
 7929 1120 11010000 		.4byte	0x111
 7930 1124 71030000 		.4byte	.LLST229
 7931 1128 28       		.uleb128 0x28
 7932 1129 54000000 		.4byte	.LVL797
 7933 112d E93E0000 		.4byte	0x3ee9
 7934 1131 49110000 		.4byte	0x1149
 7935 1135 29       		.uleb128 0x29
 7936 1136 01       		.uleb128 0x1
 7937 1137 50       		.byte	0x50
 7938 1138 02       		.uleb128 0x2
 7939 1139 75       		.byte	0x75
 7940 113a 00       		.sleb128 0
 7941 113b 29       		.uleb128 0x29
 7942 113c 01       		.uleb128 0x1
 7943 113d 51       		.byte	0x51
 7944 113e 02       		.uleb128 0x2
 7945 113f 74       		.byte	0x74
 7946 1140 00       		.sleb128 0
 7947 1141 29       		.uleb128 0x29
 7948 1142 01       		.uleb128 0x1
 7949 1143 52       		.byte	0x52
 7950 1144 03       		.uleb128 0x3
 7951 1145 91       		.byte	0x91
 7952 1146 BA7F     		.sleb128 -70
 7953 1148 00       		.byte	0
 7954 1149 28       		.uleb128 0x28
 7955 114a 82000000 		.4byte	.LVL803
 7956 114e E93E0000 		.4byte	0x3ee9
 7957 1152 69110000 		.4byte	0x1169
 7958 1156 29       		.uleb128 0x29
 7959 1157 01       		.uleb128 0x1
 7960 1158 50       		.byte	0x50
 7961 1159 02       		.uleb128 0x2
 7962 115a 75       		.byte	0x75
 7963 115b 00       		.sleb128 0
 7964 115c 29       		.uleb128 0x29
 7965 115d 01       		.uleb128 0x1
 7966 115e 51       		.byte	0x51
 7967 115f 01       		.uleb128 0x1
 7968 1160 31       		.byte	0x31
 7969 1161 29       		.uleb128 0x29
 7970 1162 01       		.uleb128 0x1
 7971 1163 52       		.byte	0x52
 7972 1164 03       		.uleb128 0x3
 7973 1165 91       		.byte	0x91
 7974 1166 BB7F     		.sleb128 -69
 7975 1168 00       		.byte	0
 7976 1169 28       		.uleb128 0x28
 7977 116a E6000000 		.4byte	.LVL812
 7978 116e 9D120000 		.4byte	0x129d
 7979 1172 8F110000 		.4byte	0x118f
 7980 1176 29       		.uleb128 0x29
ARM GAS  /var/folders/d2/nstgp4h54kz7g1l847x_b8wc0000gn/T//cc2apEbl.s 			page 141


 7981 1177 01       		.uleb128 0x1
 7982 1178 50       		.byte	0x50
 7983 1179 02       		.uleb128 0x2
 7984 117a 75       		.byte	0x75
 7985 117b 00       		.sleb128 0
 7986 117c 29       		.uleb128 0x29
 7987 117d 01       		.uleb128 0x1
 7988 117e 51       		.byte	0x51
 7989 117f 02       		.uleb128 0x2
 7990 1180 74       		.byte	0x74
 7991 1181 00       		.sleb128 0
 7992 1182 29       		.uleb128 0x29
 7993 1183 01       		.uleb128 0x1
 7994 1184 52       		.byte	0x52
 7995 1185 02       		.uleb128 0x2
 7996 1186 91       		.byte	0x91
 7997 1187 40       		.sleb128 -64
 7998 1188 29       		.uleb128 0x29
 7999 1189 01       		.uleb128 0x1
 8000 118a 53       		.byte	0x53
 8001 118b 02       		.uleb128 0x2
 8002 118c 91       		.byte	0x91
 8003 118d 50       		.sleb128 -48
 8004 118e 00       		.byte	0
 8005 118f 28       		.uleb128 0x28
 8006 1190 FA000000 		.4byte	.LVL814
 8007 1194 F53E0000 		.4byte	0x3ef5
 8008 1198 AF110000 		.4byte	0x11af
 8009 119c 29       		.uleb128 0x29
 8010 119d 01       		.uleb128 0x1
 8011 119e 50       		.byte	0x50
 8012 119f 02       		.uleb128 0x2
 8013 11a0 75       		.byte	0x75
 8014 11a1 00       		.sleb128 0
 8015 11a2 29       		.uleb128 0x29
 8016 11a3 01       		.uleb128 0x1
 8017 11a4 51       		.byte	0x51
 8018 11a5 02       		.uleb128 0x2
 8019 11a6 79       		.byte	0x79
 8020 11a7 00       		.sleb128 0
 8021 11a8 29       		.uleb128 0x29
 8022 11a9 01       		.uleb128 0x1
 8023 11aa 52       		.byte	0x52
 8024 11ab 02       		.uleb128 0x2
 8025 11ac 91       		.byte	0x91
 8026 11ad 44       		.sleb128 -60
 8027 11ae 00       		.byte	0
 8028 11af 28       		.uleb128 0x28
 8029 11b0 1A010000 		.4byte	.LVL817
 8030 11b4 E93E0000 		.4byte	0x3ee9
 8031 11b8 CF110000 		.4byte	0x11cf
 8032 11bc 29       		.uleb128 0x29
 8033 11bd 01       		.uleb128 0x1
 8034 11be 50       		.byte	0x50
 8035 11bf 02       		.uleb128 0x2
 8036 11c0 75       		.byte	0x75
 8037 11c1 00       		.sleb128 0
ARM GAS  /var/folders/d2/nstgp4h54kz7g1l847x_b8wc0000gn/T//cc2apEbl.s 			page 142


 8038 11c2 29       		.uleb128 0x29
 8039 11c3 01       		.uleb128 0x1
 8040 11c4 51       		.byte	0x51
 8041 11c5 01       		.uleb128 0x1
 8042 11c6 32       		.byte	0x32
 8043 11c7 29       		.uleb128 0x29
 8044 11c8 01       		.uleb128 0x1
 8045 11c9 52       		.byte	0x52
 8046 11ca 03       		.uleb128 0x3
 8047 11cb 91       		.byte	0x91
 8048 11cc BC7F     		.sleb128 -68
 8049 11ce 00       		.byte	0
 8050 11cf 28       		.uleb128 0x28
 8051 11d0 32010000 		.4byte	.LVL820
 8052 11d4 F53E0000 		.4byte	0x3ef5
 8053 11d8 EE110000 		.4byte	0x11ee
 8054 11dc 29       		.uleb128 0x29
 8055 11dd 01       		.uleb128 0x1
 8056 11de 50       		.byte	0x50
 8057 11df 02       		.uleb128 0x2
 8058 11e0 75       		.byte	0x75
 8059 11e1 00       		.sleb128 0
 8060 11e2 29       		.uleb128 0x29
 8061 11e3 01       		.uleb128 0x1
 8062 11e4 51       		.byte	0x51
 8063 11e5 01       		.uleb128 0x1
 8064 11e6 32       		.byte	0x32
 8065 11e7 29       		.uleb128 0x29
 8066 11e8 01       		.uleb128 0x1
 8067 11e9 52       		.byte	0x52
 8068 11ea 02       		.uleb128 0x2
 8069 11eb 91       		.byte	0x91
 8070 11ec 48       		.sleb128 -56
 8071 11ed 00       		.byte	0
 8072 11ee 28       		.uleb128 0x28
 8073 11ef 62010000 		.4byte	.LVL824
 8074 11f3 E93E0000 		.4byte	0x3ee9
 8075 11f7 0E120000 		.4byte	0x120e
 8076 11fb 29       		.uleb128 0x29
 8077 11fc 01       		.uleb128 0x1
 8078 11fd 50       		.byte	0x50
 8079 11fe 02       		.uleb128 0x2
 8080 11ff 75       		.byte	0x75
 8081 1200 00       		.sleb128 0
 8082 1201 29       		.uleb128 0x29
 8083 1202 01       		.uleb128 0x1
 8084 1203 51       		.byte	0x51
 8085 1204 01       		.uleb128 0x1
 8086 1205 33       		.byte	0x33
 8087 1206 29       		.uleb128 0x29
 8088 1207 01       		.uleb128 0x1
 8089 1208 52       		.byte	0x52
 8090 1209 03       		.uleb128 0x3
 8091 120a 91       		.byte	0x91
 8092 120b BD7F     		.sleb128 -67
 8093 120d 00       		.byte	0
 8094 120e 28       		.uleb128 0x28
ARM GAS  /var/folders/d2/nstgp4h54kz7g1l847x_b8wc0000gn/T//cc2apEbl.s 			page 143


 8095 120f 84010000 		.4byte	.LVL828
 8096 1213 F53E0000 		.4byte	0x3ef5
 8097 1217 2D120000 		.4byte	0x122d
 8098 121b 29       		.uleb128 0x29
 8099 121c 01       		.uleb128 0x1
 8100 121d 50       		.byte	0x50
 8101 121e 02       		.uleb128 0x2
 8102 121f 75       		.byte	0x75
 8103 1220 00       		.sleb128 0
 8104 1221 29       		.uleb128 0x29
 8105 1222 01       		.uleb128 0x1
 8106 1223 51       		.byte	0x51
 8107 1224 01       		.uleb128 0x1
 8108 1225 33       		.byte	0x33
 8109 1226 29       		.uleb128 0x29
 8110 1227 01       		.uleb128 0x1
 8111 1228 52       		.byte	0x52
 8112 1229 02       		.uleb128 0x2
 8113 122a 91       		.byte	0x91
 8114 122b 4C       		.sleb128 -52
 8115 122c 00       		.byte	0
 8116 122d 28       		.uleb128 0x28
 8117 122e 14020000 		.4byte	.LVL848
 8118 1232 013F0000 		.4byte	0x3f01
 8119 1236 4C120000 		.4byte	0x124c
 8120 123a 29       		.uleb128 0x29
 8121 123b 01       		.uleb128 0x1
 8122 123c 50       		.byte	0x50
 8123 123d 02       		.uleb128 0x2
 8124 123e 75       		.byte	0x75
 8125 123f 00       		.sleb128 0
 8126 1240 29       		.uleb128 0x29
 8127 1241 01       		.uleb128 0x1
 8128 1242 51       		.byte	0x51
 8129 1243 02       		.uleb128 0x2
 8130 1244 09       		.byte	0x9
 8131 1245 FF       		.byte	0xff
 8132 1246 29       		.uleb128 0x29
 8133 1247 01       		.uleb128 0x1
 8134 1248 52       		.byte	0x52
 8135 1249 01       		.uleb128 0x1
 8136 124a 31       		.byte	0x31
 8137 124b 00       		.byte	0
 8138 124c 28       		.uleb128 0x28
 8139 124d 26020000 		.4byte	.LVL850
 8140 1251 0C3F0000 		.4byte	0x3f0c
 8141 1255 6D120000 		.4byte	0x126d
 8142 1259 29       		.uleb128 0x29
 8143 125a 01       		.uleb128 0x1
 8144 125b 50       		.byte	0x50
 8145 125c 02       		.uleb128 0x2
 8146 125d 75       		.byte	0x75
 8147 125e 00       		.sleb128 0
 8148 125f 29       		.uleb128 0x29
 8149 1260 01       		.uleb128 0x1
 8150 1261 51       		.byte	0x51
 8151 1262 02       		.uleb128 0x2
ARM GAS  /var/folders/d2/nstgp4h54kz7g1l847x_b8wc0000gn/T//cc2apEbl.s 			page 144


 8152 1263 09       		.byte	0x9
 8153 1264 B6       		.byte	0xb6
 8154 1265 29       		.uleb128 0x29
 8155 1266 01       		.uleb128 0x1
 8156 1267 52       		.byte	0x52
 8157 1268 03       		.uleb128 0x3
 8158 1269 91       		.byte	0x91
 8159 126a BE7F     		.sleb128 -66
 8160 126c 00       		.byte	0
 8161 126d 28       		.uleb128 0x28
 8162 126e 36020000 		.4byte	.LVL852
 8163 1272 013F0000 		.4byte	0x3f01
 8164 1276 8D120000 		.4byte	0x128d
 8165 127a 29       		.uleb128 0x29
 8166 127b 01       		.uleb128 0x1
 8167 127c 50       		.byte	0x50
 8168 127d 02       		.uleb128 0x2
 8169 127e 75       		.byte	0x75
 8170 127f 00       		.sleb128 0
 8171 1280 29       		.uleb128 0x29
 8172 1281 01       		.uleb128 0x1
 8173 1282 51       		.byte	0x51
 8174 1283 02       		.uleb128 0x2
 8175 1284 09       		.byte	0x9
 8176 1285 FF       		.byte	0xff
 8177 1286 29       		.uleb128 0x29
 8178 1287 01       		.uleb128 0x1
 8179 1288 52       		.byte	0x52
 8180 1289 02       		.uleb128 0x2
 8181 128a 79       		.byte	0x79
 8182 128b 00       		.sleb128 0
 8183 128c 00       		.byte	0
 8184 128d 2A       		.uleb128 0x2a
 8185 128e 64020000 		.4byte	.LVL860
 8186 1292 173F0000 		.4byte	0x3f17
 8187 1296 00       		.byte	0
 8188 1297 0F       		.uleb128 0xf
 8189 1298 04       		.byte	0x4
 8190 1299 6B030000 		.4byte	0x36b
 8191 129d 23       		.uleb128 0x23
 8192 129e 880F0000 		.4byte	.LASF266
 8193 12a2 01       		.byte	0x1
 8194 12a3 9706     		.2byte	0x697
 8195 12a5 AF010000 		.4byte	0x1af
 8196 12a9 00000000 		.4byte	.LFB26
 8197 12ad 38030000 		.4byte	.LFE26-.LFB26
 8198 12b1 01       		.uleb128 0x1
 8199 12b2 9C       		.byte	0x9c
 8200 12b3 D7170000 		.4byte	0x17d7
 8201 12b7 24       		.uleb128 0x24
 8202 12b8 44657600 		.ascii	"Dev\000"
 8203 12bc 01       		.byte	0x1
 8204 12bd 9706     		.2byte	0x697
 8205 12bf 690F0000 		.4byte	0xf69
 8206 12c3 8F030000 		.4byte	.LLST182
 8207 12c7 25       		.uleb128 0x25
 8208 12c8 CD0D0000 		.4byte	.LASF246
ARM GAS  /var/folders/d2/nstgp4h54kz7g1l847x_b8wc0000gn/T//cc2apEbl.s 			page 145


 8209 12cc 01       		.byte	0x1
 8210 12cd 9806     		.2byte	0x698
 8211 12cf 97120000 		.4byte	0x1297
 8212 12d3 AD030000 		.4byte	.LLST183
 8213 12d7 25       		.uleb128 0x25
 8214 12d8 EF1D0000 		.4byte	.LASF267
 8215 12dc 01       		.byte	0x1
 8216 12dd 9906     		.2byte	0x699
 8217 12df D7170000 		.4byte	0x17d7
 8218 12e3 F2030000 		.4byte	.LLST184
 8219 12e7 25       		.uleb128 0x25
 8220 12e8 A5070000 		.4byte	.LASF268
 8221 12ec 01       		.byte	0x1
 8222 12ed 9A06     		.2byte	0x69a
 8223 12ef DD170000 		.4byte	0x17dd
 8224 12f3 12040000 		.4byte	.LLST185
 8225 12f7 2B       		.uleb128 0x2b
 8226 12f8 D1060000 		.4byte	.LASF269
 8227 12fc 01       		.byte	0x1
 8228 12fd 9D06     		.2byte	0x69d
 8229 12ff FA000000 		.4byte	0xfa
 8230 1303 2003     		.2byte	0x320
 8231 1305 2B       		.uleb128 0x2b
 8232 1306 0F050000 		.4byte	.LASF270
 8233 130a 01       		.byte	0x1
 8234 130b 9F06     		.2byte	0x69f
 8235 130d FA000000 		.4byte	0xfa
 8236 1311 5802     		.2byte	0x258
 8237 1313 2C       		.uleb128 0x2c
 8238 1314 0D100000 		.4byte	.LASF271
 8239 1318 01       		.byte	0x1
 8240 1319 A006     		.2byte	0x6a0
 8241 131b 1C010000 		.4byte	0x11c
 8242 131f 00001900 		.4byte	0x190000
 8243 1323 2B       		.uleb128 0x2b
 8244 1324 981C0000 		.4byte	.LASF272
 8245 1328 01       		.byte	0x1
 8246 1329 A106     		.2byte	0x6a1
 8247 132b FA000000 		.4byte	0xfa
 8248 132f 5C12     		.2byte	0x125c
 8249 1331 2C       		.uleb128 0x2c
 8250 1332 C00A0000 		.4byte	.LASF273
 8251 1336 01       		.byte	0x1
 8252 1337 A206     		.2byte	0x6a2
 8253 1339 1C010000 		.4byte	0x11c
 8254 133d AE878F02 		.4byte	0x28f87ae
 8255 1341 2B       		.uleb128 0x2b
 8256 1342 D8130000 		.4byte	.LASF274
 8257 1346 01       		.byte	0x1
 8258 1347 A306     		.2byte	0x6a3
 8259 1349 1C010000 		.4byte	0x11c
 8260 134d 00F0     		.2byte	0xf000
 8261 134f 2C       		.uleb128 0x2c
 8262 1350 FB0C0000 		.4byte	.LASF275
 8263 1354 01       		.byte	0x1
 8264 1355 A406     		.2byte	0x6a4
 8265 1357 1C010000 		.4byte	0x11c
ARM GAS  /var/folders/d2/nstgp4h54kz7g1l847x_b8wc0000gn/T//cc2apEbl.s 			page 146


 8266 135b 66666600 		.4byte	0x666666
 8267 135f 2C       		.uleb128 0x2c
 8268 1360 40070000 		.4byte	.LASF276
 8269 1364 01       		.byte	0x1
 8270 1365 A706     		.2byte	0x6a7
 8271 1367 1C010000 		.4byte	0x11c
 8272 136b 9A990600 		.4byte	0x6999a
 8273 136f 2B       		.uleb128 0x2b
 8274 1370 E3140000 		.4byte	.LASF277
 8275 1374 01       		.byte	0x1
 8276 1375 A806     		.2byte	0x6a8
 8277 1377 FA000000 		.4byte	0xfa
 8278 137b 0080     		.2byte	0x8000
 8279 137d 2C       		.uleb128 0x2c
 8280 137e 680E0000 		.4byte	.LASF278
 8281 1382 01       		.byte	0x1
 8282 1383 A906     		.2byte	0x6a9
 8283 1385 1C010000 		.4byte	0x11c
 8284 1389 00003200 		.4byte	0x320000
 8285 138d 2B       		.uleb128 0x2b
 8286 138e 5D1B0000 		.4byte	.LASF279
 8287 1392 01       		.byte	0x1
 8288 1393 AA06     		.2byte	0x6aa
 8289 1395 FA000000 		.4byte	0xfa
 8290 1399 7706     		.2byte	0x677
 8291 139b 26       		.uleb128 0x26
 8292 139c AB030000 		.4byte	.LASF280
 8293 13a0 01       		.byte	0x1
 8294 13a1 AC06     		.2byte	0x6ac
 8295 13a3 EF000000 		.4byte	0xef
 8296 13a7 32040000 		.4byte	.LLST186
 8297 13ab 26       		.uleb128 0x26
 8298 13ac 5E080000 		.4byte	.LASF281
 8299 13b0 01       		.byte	0x1
 8300 13b1 AD06     		.2byte	0x6ad
 8301 13b3 EF000000 		.4byte	0xef
 8302 13b7 80060000 		.4byte	.LLST187
 8303 13bb 26       		.uleb128 0x26
 8304 13bc CD0B0000 		.4byte	.LASF282
 8305 13c0 01       		.byte	0x1
 8306 13c1 AE06     		.2byte	0x6ae
 8307 13c3 EF000000 		.4byte	0xef
 8308 13c7 BC060000 		.4byte	.LLST188
 8309 13cb 26       		.uleb128 0x26
 8310 13cc F4050000 		.4byte	.LASF283
 8311 13d0 01       		.byte	0x1
 8312 13d1 AF06     		.2byte	0x6af
 8313 13d3 EF000000 		.4byte	0xef
 8314 13d7 E9060000 		.4byte	.LLST189
 8315 13db 26       		.uleb128 0x26
 8316 13dc 17060000 		.4byte	.LASF284
 8317 13e0 01       		.byte	0x1
 8318 13e1 B006     		.2byte	0x6b0
 8319 13e3 11010000 		.4byte	0x111
 8320 13e7 12070000 		.4byte	.LLST190
 8321 13eb 26       		.uleb128 0x26
 8322 13ec 27060000 		.4byte	.LASF285
ARM GAS  /var/folders/d2/nstgp4h54kz7g1l847x_b8wc0000gn/T//cc2apEbl.s 			page 147


 8323 13f0 01       		.byte	0x1
 8324 13f1 B106     		.2byte	0x6b1
 8325 13f3 11010000 		.4byte	0x111
 8326 13f7 36070000 		.4byte	.LLST191
 8327 13fb 26       		.uleb128 0x26
 8328 13fc 37060000 		.4byte	.LASF286
 8329 1400 01       		.byte	0x1
 8330 1401 B206     		.2byte	0x6b2
 8331 1403 11010000 		.4byte	0x111
 8332 1407 5F070000 		.4byte	.LLST192
 8333 140b 26       		.uleb128 0x26
 8334 140c D0110000 		.4byte	.LASF287
 8335 1410 01       		.byte	0x1
 8336 1411 B306     		.2byte	0x6b3
 8337 1413 11010000 		.4byte	0x111
 8338 1417 7D070000 		.4byte	.LLST193
 8339 141b 26       		.uleb128 0x26
 8340 141c C81A0000 		.4byte	.LASF288
 8341 1420 01       		.byte	0x1
 8342 1421 B406     		.2byte	0x6b4
 8343 1423 11010000 		.4byte	0x111
 8344 1427 CF070000 		.4byte	.LLST194
 8345 142b 26       		.uleb128 0x26
 8346 142c 07180000 		.4byte	.LASF289
 8347 1430 01       		.byte	0x1
 8348 1431 B506     		.2byte	0x6b5
 8349 1433 11010000 		.4byte	0x111
 8350 1437 74080000 		.4byte	.LLST195
 8351 143b 2D       		.uleb128 0x2d
 8352 143c 6C150000 		.4byte	.LASF291
 8353 1440 01       		.byte	0x1
 8354 1441 B606     		.2byte	0x6b6
 8355 1443 11010000 		.4byte	0x111
 8356 1447 26       		.uleb128 0x26
 8357 1448 91010000 		.4byte	.LASF290
 8358 144c 01       		.byte	0x1
 8359 144d B706     		.2byte	0x6b7
 8360 144f 11010000 		.4byte	0x111
 8361 1453 A2080000 		.4byte	.LLST196
 8362 1457 2D       		.uleb128 0x2d
 8363 1458 0E140000 		.4byte	.LASF292
 8364 145c 01       		.byte	0x1
 8365 145d B806     		.2byte	0x6b8
 8366 145f 11010000 		.4byte	0x111
 8367 1463 26       		.uleb128 0x26
 8368 1464 210D0000 		.4byte	.LASF293
 8369 1468 01       		.byte	0x1
 8370 1469 B906     		.2byte	0x6b9
 8371 146b 11010000 		.4byte	0x111
 8372 146f 250D0000 		.4byte	.LLST197
 8373 1473 27       		.uleb128 0x27
 8374 1474 BF030000 		.4byte	.LASF294
 8375 1478 01       		.byte	0x1
 8376 1479 BA06     		.2byte	0x6ba
 8377 147b 11010000 		.4byte	0x111
 8378 147f 02       		.uleb128 0x2
 8379 1480 91       		.byte	0x91
ARM GAS  /var/folders/d2/nstgp4h54kz7g1l847x_b8wc0000gn/T//cc2apEbl.s 			page 148


 8380 1481 4C       		.sleb128 -52
 8381 1482 26       		.uleb128 0x26
 8382 1483 671C0000 		.4byte	.LASF295
 8383 1487 01       		.byte	0x1
 8384 1488 BB06     		.2byte	0x6bb
 8385 148a EF000000 		.4byte	0xef
 8386 148e BA0D0000 		.4byte	.LLST198
 8387 1492 26       		.uleb128 0x26
 8388 1493 C1020000 		.4byte	.LASF248
 8389 1497 01       		.byte	0x1
 8390 1498 BC06     		.2byte	0x6bc
 8391 149a AF010000 		.4byte	0x1af
 8392 149e 0E0E0000 		.4byte	.LLST199
 8393 14a2 2D       		.uleb128 0x2d
 8394 14a3 95130000 		.4byte	.LASF296
 8395 14a7 01       		.byte	0x1
 8396 14a8 BD06     		.2byte	0x6bd
 8397 14aa 11010000 		.4byte	0x111
 8398 14ae 26       		.uleb128 0x26
 8399 14af A3160000 		.4byte	.LASF297
 8400 14b3 01       		.byte	0x1
 8401 14b4 BE06     		.2byte	0x6be
 8402 14b6 11010000 		.4byte	0x111
 8403 14ba 5A0E0000 		.4byte	.LLST200
 8404 14be 26       		.uleb128 0x26
 8405 14bf 43050000 		.4byte	.LASF298
 8406 14c3 01       		.byte	0x1
 8407 14c4 BF06     		.2byte	0x6bf
 8408 14c6 11010000 		.4byte	0x111
 8409 14ca B00E0000 		.4byte	.LLST201
 8410 14ce 26       		.uleb128 0x26
 8411 14cf 48050000 		.4byte	.LASF299
 8412 14d3 01       		.byte	0x1
 8413 14d4 C006     		.2byte	0x6c0
 8414 14d6 11010000 		.4byte	0x111
 8415 14da EC0E0000 		.4byte	.LLST202
 8416 14de 26       		.uleb128 0x26
 8417 14df 06100000 		.4byte	.LASF300
 8418 14e3 01       		.byte	0x1
 8419 14e4 C106     		.2byte	0x6c1
 8420 14e6 11010000 		.4byte	0x111
 8421 14ea 270F0000 		.4byte	.LLST203
 8422 14ee 26       		.uleb128 0x26
 8423 14ef D0080000 		.4byte	.LASF301
 8424 14f3 01       		.byte	0x1
 8425 14f4 C206     		.2byte	0x6c2
 8426 14f6 11010000 		.4byte	0x111
 8427 14fa 3A0F0000 		.4byte	.LLST204
 8428 14fe 2D       		.uleb128 0x2d
 8429 14ff 830B0000 		.4byte	.LASF302
 8430 1503 01       		.byte	0x1
 8431 1504 C306     		.2byte	0x6c3
 8432 1506 11010000 		.4byte	0x111
 8433 150a 26       		.uleb128 0x26
 8434 150b A40D0000 		.4byte	.LASF303
 8435 150f 01       		.byte	0x1
 8436 1510 C406     		.2byte	0x6c4
ARM GAS  /var/folders/d2/nstgp4h54kz7g1l847x_b8wc0000gn/T//cc2apEbl.s 			page 149


 8437 1512 11010000 		.4byte	0x111
 8438 1516 690F0000 		.4byte	.LLST205
 8439 151a 27       		.uleb128 0x27
 8440 151b B1120000 		.4byte	.LASF304
 8441 151f 01       		.byte	0x1
 8442 1520 C506     		.2byte	0x6c5
 8443 1522 11010000 		.4byte	0x111
 8444 1526 01       		.uleb128 0x1
 8445 1527 5B       		.byte	0x5b
 8446 1528 2D       		.uleb128 0x2d
 8447 1529 6B190000 		.4byte	.LASF305
 8448 152d 01       		.byte	0x1
 8449 152e C606     		.2byte	0x6c6
 8450 1530 11010000 		.4byte	0x111
 8451 1534 26       		.uleb128 0x26
 8452 1535 CF140000 		.4byte	.LASF306
 8453 1539 01       		.byte	0x1
 8454 153a C706     		.2byte	0x6c7
 8455 153c EF000000 		.4byte	0xef
 8456 1540 D80F0000 		.4byte	.LLST206
 8457 1544 2D       		.uleb128 0x2d
 8458 1545 0A0B0000 		.4byte	.LASF307
 8459 1549 01       		.byte	0x1
 8460 154a C806     		.2byte	0x6c8
 8461 154c EF000000 		.4byte	0xef
 8462 1550 2D       		.uleb128 0x2d
 8463 1551 11110000 		.4byte	.LASF308
 8464 1555 01       		.byte	0x1
 8465 1556 C906     		.2byte	0x6c9
 8466 1558 EF000000 		.4byte	0xef
 8467 155c 26       		.uleb128 0x26
 8468 155d 3A170000 		.4byte	.LASF309
 8469 1561 01       		.byte	0x1
 8470 1562 CA06     		.2byte	0x6ca
 8471 1564 EF000000 		.4byte	0xef
 8472 1568 02100000 		.4byte	.LLST207
 8473 156c 26       		.uleb128 0x26
 8474 156d B8040000 		.4byte	.LASF310
 8475 1571 01       		.byte	0x1
 8476 1572 CB06     		.2byte	0x6cb
 8477 1574 C3000000 		.4byte	0xc3
 8478 1578 EA120000 		.4byte	.LLST208
 8479 157c 26       		.uleb128 0x26
 8480 157d AE020000 		.4byte	.LASF311
 8481 1581 01       		.byte	0x1
 8482 1582 CC06     		.2byte	0x6cc
 8483 1584 C3000000 		.4byte	0xc3
 8484 1588 2F130000 		.4byte	.LLST209
 8485 158c 2E       		.uleb128 0x2e
 8486 158d 2A1A0000 		.4byte	0x1a2a
 8487 1591 10000000 		.4byte	.LBB222
 8488 1595 00020000 		.4byte	.Ldebug_ranges0+0x200
 8489 1599 01       		.byte	0x1
 8490 159a E406     		.2byte	0x6e4
 8491 159c E8150000 		.4byte	0x15e8
 8492 15a0 2F       		.uleb128 0x2f
 8493 15a1 531A0000 		.4byte	0x1a53
ARM GAS  /var/folders/d2/nstgp4h54kz7g1l847x_b8wc0000gn/T//cc2apEbl.s 			page 150


 8494 15a5 5E130000 		.4byte	.LLST210
 8495 15a9 2F       		.uleb128 0x2f
 8496 15aa 471A0000 		.4byte	0x1a47
 8497 15ae 86130000 		.4byte	.LLST211
 8498 15b2 2F       		.uleb128 0x2f
 8499 15b3 3B1A0000 		.4byte	0x1a3b
 8500 15b7 AF130000 		.4byte	.LLST212
 8501 15bb 30       		.uleb128 0x30
 8502 15bc 00020000 		.4byte	.Ldebug_ranges0+0x200
 8503 15c0 31       		.uleb128 0x31
 8504 15c1 AC3E0000 		.4byte	0x3eac
 8505 15c5 31       		.uleb128 0x31
 8506 15c6 B53E0000 		.4byte	0x3eb5
 8507 15ca 32       		.uleb128 0x32
 8508 15cb 22000000 		.4byte	.LVL695
 8509 15cf 781A0000 		.4byte	0x1a78
 8510 15d3 29       		.uleb128 0x29
 8511 15d4 01       		.uleb128 0x1
 8512 15d5 50       		.byte	0x50
 8513 15d6 02       		.uleb128 0x2
 8514 15d7 74       		.byte	0x74
 8515 15d8 00       		.sleb128 0
 8516 15d9 29       		.uleb128 0x29
 8517 15da 01       		.uleb128 0x1
 8518 15db 51       		.byte	0x51
 8519 15dc 02       		.uleb128 0x2
 8520 15dd 75       		.byte	0x75
 8521 15de 00       		.sleb128 0
 8522 15df 29       		.uleb128 0x29
 8523 15e0 01       		.uleb128 0x1
 8524 15e1 52       		.byte	0x52
 8525 15e2 02       		.uleb128 0x2
 8526 15e3 91       		.byte	0x91
 8527 15e4 50       		.sleb128 -48
 8528 15e5 00       		.byte	0
 8529 15e6 00       		.byte	0
 8530 15e7 00       		.byte	0
 8531 15e8 2E       		.uleb128 0x2e
 8532 15e9 3D2A0000 		.4byte	0x2a3d
 8533 15ed 64000000 		.4byte	.LBB227
 8534 15f1 20020000 		.4byte	.Ldebug_ranges0+0x220
 8535 15f5 01       		.byte	0x1
 8536 15f6 0807     		.2byte	0x708
 8537 15f8 51160000 		.4byte	0x1651
 8538 15fc 33       		.uleb128 0x33
 8539 15fd 662A0000 		.4byte	0x2a66
 8540 1601 33       		.uleb128 0x33
 8541 1602 5A2A0000 		.4byte	0x2a5a
 8542 1606 33       		.uleb128 0x33
 8543 1607 4E2A0000 		.4byte	0x2a4e
 8544 160b 30       		.uleb128 0x30
 8545 160c 20020000 		.4byte	.Ldebug_ranges0+0x220
 8546 1610 31       		.uleb128 0x31
 8547 1611 8D3B0000 		.4byte	0x3b8d
 8548 1615 31       		.uleb128 0x31
 8549 1616 923B0000 		.4byte	0x3b92
 8550 161a 31       		.uleb128 0x31
ARM GAS  /var/folders/d2/nstgp4h54kz7g1l847x_b8wc0000gn/T//cc2apEbl.s 			page 151


 8551 161b 9B3B0000 		.4byte	0x3b9b
 8552 161f 34       		.uleb128 0x34
 8553 1620 032B0000 		.4byte	0x2b03
 8554 1624 64000000 		.4byte	.LBB229
 8555 1628 58020000 		.4byte	.Ldebug_ranges0+0x258
 8556 162c 01       		.byte	0x1
 8557 162d 2602     		.2byte	0x226
 8558 162f 33       		.uleb128 0x33
 8559 1630 202B0000 		.4byte	0x2b20
 8560 1634 33       		.uleb128 0x33
 8561 1635 142B0000 		.4byte	0x2b14
 8562 1639 30       		.uleb128 0x30
 8563 163a 58020000 		.4byte	.Ldebug_ranges0+0x258
 8564 163e 31       		.uleb128 0x31
 8565 163f BF3A0000 		.4byte	0x3abf
 8566 1643 31       		.uleb128 0x31
 8567 1644 C63A0000 		.4byte	0x3ac6
 8568 1648 31       		.uleb128 0x31
 8569 1649 CD3A0000 		.4byte	0x3acd
 8570 164d 00       		.byte	0
 8571 164e 00       		.byte	0
 8572 164f 00       		.byte	0
 8573 1650 00       		.byte	0
 8574 1651 2E       		.uleb128 0x2e
 8575 1652 3D2A0000 		.4byte	0x2a3d
 8576 1656 6A000000 		.4byte	.LBB238
 8577 165a 70020000 		.4byte	.Ldebug_ranges0+0x270
 8578 165e 01       		.byte	0x1
 8579 165f FE06     		.2byte	0x6fe
 8580 1661 BA160000 		.4byte	0x16ba
 8581 1665 33       		.uleb128 0x33
 8582 1666 662A0000 		.4byte	0x2a66
 8583 166a 33       		.uleb128 0x33
 8584 166b 5A2A0000 		.4byte	0x2a5a
 8585 166f 33       		.uleb128 0x33
 8586 1670 4E2A0000 		.4byte	0x2a4e
 8587 1674 30       		.uleb128 0x30
 8588 1675 70020000 		.4byte	.Ldebug_ranges0+0x270
 8589 1679 31       		.uleb128 0x31
 8590 167a 8D3B0000 		.4byte	0x3b8d
 8591 167e 31       		.uleb128 0x31
 8592 167f 923B0000 		.4byte	0x3b92
 8593 1683 31       		.uleb128 0x31
 8594 1684 9B3B0000 		.4byte	0x3b9b
 8595 1688 34       		.uleb128 0x34
 8596 1689 032B0000 		.4byte	0x2b03
 8597 168d 6A000000 		.4byte	.LBB240
 8598 1691 B0020000 		.4byte	.Ldebug_ranges0+0x2b0
 8599 1695 01       		.byte	0x1
 8600 1696 2602     		.2byte	0x226
 8601 1698 33       		.uleb128 0x33
 8602 1699 202B0000 		.4byte	0x2b20
 8603 169d 33       		.uleb128 0x33
 8604 169e 142B0000 		.4byte	0x2b14
 8605 16a2 30       		.uleb128 0x30
 8606 16a3 B0020000 		.4byte	.Ldebug_ranges0+0x2b0
 8607 16a7 31       		.uleb128 0x31
ARM GAS  /var/folders/d2/nstgp4h54kz7g1l847x_b8wc0000gn/T//cc2apEbl.s 			page 152


 8608 16a8 BF3A0000 		.4byte	0x3abf
 8609 16ac 31       		.uleb128 0x31
 8610 16ad C63A0000 		.4byte	0x3ac6
 8611 16b1 31       		.uleb128 0x31
 8612 16b2 CD3A0000 		.4byte	0x3acd
 8613 16b6 00       		.byte	0
 8614 16b7 00       		.byte	0
 8615 16b8 00       		.byte	0
 8616 16b9 00       		.byte	0
 8617 16ba 35       		.uleb128 0x35
 8618 16bb 30350000 		.4byte	0x3530
 8619 16bf 1A010000 		.4byte	.LBB261
 8620 16c3 24000000 		.4byte	.LBE261-.LBB261
 8621 16c7 01       		.byte	0x1
 8622 16c8 3C07     		.2byte	0x73c
 8623 16ca EC160000 		.4byte	0x16ec
 8624 16ce 2F       		.uleb128 0x2f
 8625 16cf 40350000 		.4byte	0x3540
 8626 16d3 D8130000 		.4byte	.LLST213
 8627 16d7 36       		.uleb128 0x36
 8628 16d8 1A010000 		.4byte	.LBB262
 8629 16dc 24000000 		.4byte	.LBE262-.LBB262
 8630 16e0 31       		.uleb128 0x31
 8631 16e1 7E3A0000 		.4byte	0x3a7e
 8632 16e5 31       		.uleb128 0x31
 8633 16e6 873A0000 		.4byte	0x3a87
 8634 16ea 00       		.byte	0
 8635 16eb 00       		.byte	0
 8636 16ec 35       		.uleb128 0x35
 8637 16ed 30350000 		.4byte	0x3530
 8638 16f1 D2010000 		.4byte	.LBB263
 8639 16f5 26000000 		.4byte	.LBE263-.LBB263
 8640 16f9 01       		.byte	0x1
 8641 16fa 8E07     		.2byte	0x78e
 8642 16fc 1E170000 		.4byte	0x171e
 8643 1700 2F       		.uleb128 0x2f
 8644 1701 40350000 		.4byte	0x3540
 8645 1705 EB130000 		.4byte	.LLST214
 8646 1709 36       		.uleb128 0x36
 8647 170a D2010000 		.4byte	.LBB264
 8648 170e 26000000 		.4byte	.LBE264-.LBB264
 8649 1712 31       		.uleb128 0x31
 8650 1713 7E3A0000 		.4byte	0x3a7e
 8651 1717 31       		.uleb128 0x31
 8652 1718 873A0000 		.4byte	0x3a87
 8653 171c 00       		.byte	0
 8654 171d 00       		.byte	0
 8655 171e 2E       		.uleb128 0x2e
 8656 171f 30350000 		.4byte	0x3530
 8657 1723 3C020000 		.4byte	.LBB265
 8658 1727 C8020000 		.4byte	.Ldebug_ranges0+0x2c8
 8659 172b 01       		.byte	0x1
 8660 172c AB07     		.2byte	0x7ab
 8661 172e 4C170000 		.4byte	0x174c
 8662 1732 2F       		.uleb128 0x2f
 8663 1733 40350000 		.4byte	0x3540
 8664 1737 FE130000 		.4byte	.LLST215
ARM GAS  /var/folders/d2/nstgp4h54kz7g1l847x_b8wc0000gn/T//cc2apEbl.s 			page 153


 8665 173b 30       		.uleb128 0x30
 8666 173c C8020000 		.4byte	.Ldebug_ranges0+0x2c8
 8667 1740 31       		.uleb128 0x31
 8668 1741 7E3A0000 		.4byte	0x3a7e
 8669 1745 31       		.uleb128 0x31
 8670 1746 873A0000 		.4byte	0x3a87
 8671 174a 00       		.byte	0
 8672 174b 00       		.byte	0
 8673 174c 35       		.uleb128 0x35
 8674 174d 30350000 		.4byte	0x3530
 8675 1751 88020000 		.4byte	.LBB269
 8676 1755 38000000 		.4byte	.LBE269-.LBB269
 8677 1759 01       		.byte	0x1
 8678 175a BA07     		.2byte	0x7ba
 8679 175c 7E170000 		.4byte	0x177e
 8680 1760 2F       		.uleb128 0x2f
 8681 1761 40350000 		.4byte	0x3540
 8682 1765 11140000 		.4byte	.LLST216
 8683 1769 36       		.uleb128 0x36
 8684 176a 88020000 		.4byte	.LBB270
 8685 176e 38000000 		.4byte	.LBE270-.LBB270
 8686 1772 31       		.uleb128 0x31
 8687 1773 7E3A0000 		.4byte	0x3a7e
 8688 1777 31       		.uleb128 0x31
 8689 1778 873A0000 		.4byte	0x3a87
 8690 177c 00       		.byte	0
 8691 177d 00       		.byte	0
 8692 177e 28       		.uleb128 0x28
 8693 177f 36000000 		.4byte	.LVL697
 8694 1783 781A0000 		.4byte	0x1a78
 8695 1787 9E170000 		.4byte	0x179e
 8696 178b 29       		.uleb128 0x29
 8697 178c 01       		.uleb128 0x1
 8698 178d 50       		.byte	0x50
 8699 178e 02       		.uleb128 0x2
 8700 178f 74       		.byte	0x74
 8701 1790 00       		.sleb128 0
 8702 1791 29       		.uleb128 0x29
 8703 1792 01       		.uleb128 0x1
 8704 1793 51       		.byte	0x51
 8705 1794 02       		.uleb128 0x2
 8706 1795 75       		.byte	0x75
 8707 1796 00       		.sleb128 0
 8708 1797 29       		.uleb128 0x29
 8709 1798 01       		.uleb128 0x1
 8710 1799 52       		.byte	0x52
 8711 179a 02       		.uleb128 0x2
 8712 179b 91       		.byte	0x91
 8713 179c 4C       		.sleb128 -52
 8714 179d 00       		.byte	0
 8715 179e 28       		.uleb128 0x28
 8716 179f E2020000 		.4byte	.LVL781
 8717 17a3 E3170000 		.4byte	0x17e3
 8718 17a7 CD170000 		.4byte	0x17cd
 8719 17ab 29       		.uleb128 0x29
 8720 17ac 01       		.uleb128 0x1
 8721 17ad 50       		.byte	0x50
ARM GAS  /var/folders/d2/nstgp4h54kz7g1l847x_b8wc0000gn/T//cc2apEbl.s 			page 154


 8722 17ae 02       		.uleb128 0x2
 8723 17af 74       		.byte	0x74
 8724 17b0 00       		.sleb128 0
 8725 17b1 29       		.uleb128 0x29
 8726 17b2 01       		.uleb128 0x1
 8727 17b3 52       		.byte	0x52
 8728 17b4 02       		.uleb128 0x2
 8729 17b5 7B       		.byte	0x7b
 8730 17b6 00       		.sleb128 0
 8731 17b7 29       		.uleb128 0x29
 8732 17b8 02       		.uleb128 0x2
 8733 17b9 7D       		.byte	0x7d
 8734 17ba 00       		.sleb128 0
 8735 17bb 02       		.uleb128 0x2
 8736 17bc 75       		.byte	0x75
 8737 17bd 00       		.sleb128 0
 8738 17be 29       		.uleb128 0x29
 8739 17bf 02       		.uleb128 0x2
 8740 17c0 7D       		.byte	0x7d
 8741 17c1 04       		.sleb128 4
 8742 17c2 02       		.uleb128 0x2
 8743 17c3 76       		.byte	0x76
 8744 17c4 00       		.sleb128 0
 8745 17c5 29       		.uleb128 0x29
 8746 17c6 02       		.uleb128 0x2
 8747 17c7 7D       		.byte	0x7d
 8748 17c8 08       		.sleb128 8
 8749 17c9 02       		.uleb128 0x2
 8750 17ca 79       		.byte	0x79
 8751 17cb 00       		.sleb128 0
 8752 17cc 00       		.byte	0
 8753 17cd 2A       		.uleb128 0x2a
 8754 17ce 10030000 		.4byte	.LVL790
 8755 17d2 173F0000 		.4byte	0x3f17
 8756 17d6 00       		.byte	0
 8757 17d7 0F       		.uleb128 0xf
 8758 17d8 04       		.byte	0x4
 8759 17d9 11010000 		.4byte	0x111
 8760 17dd 0F       		.uleb128 0xf
 8761 17de 04       		.byte	0x4
 8762 17df EF000000 		.4byte	0xef
 8763 17e3 23       		.uleb128 0x23
 8764 17e4 4B120000 		.4byte	.LASF312
 8765 17e8 01       		.byte	0x1
 8766 17e9 D705     		.2byte	0x5d7
 8767 17eb AF010000 		.4byte	0x1af
 8768 17ef 00000000 		.4byte	.LFB25
 8769 17f3 58010000 		.4byte	.LFE25-.LFB25
 8770 17f7 01       		.uleb128 0x1
 8771 17f8 9C       		.byte	0x9c
 8772 17f9 2A1A0000 		.4byte	0x1a2a
 8773 17fd 24       		.uleb128 0x24
 8774 17fe 44657600 		.ascii	"Dev\000"
 8775 1802 01       		.byte	0x1
 8776 1803 D805     		.2byte	0x5d8
 8777 1805 690F0000 		.4byte	0xf69
 8778 1809 24140000 		.4byte	.LLST158
ARM GAS  /var/folders/d2/nstgp4h54kz7g1l847x_b8wc0000gn/T//cc2apEbl.s 			page 155


 8779 180d 25       		.uleb128 0x25
 8780 180e A40D0000 		.4byte	.LASF303
 8781 1812 01       		.byte	0x1
 8782 1813 D905     		.2byte	0x5d9
 8783 1815 11010000 		.4byte	0x111
 8784 1819 45140000 		.4byte	.LLST159
 8785 181d 25       		.uleb128 0x25
 8786 181e FC1E0000 		.4byte	.LASF313
 8787 1822 01       		.byte	0x1
 8788 1823 DA05     		.2byte	0x5da
 8789 1825 11010000 		.4byte	0x111
 8790 1829 66140000 		.4byte	.LLST160
 8791 182d 25       		.uleb128 0x25
 8792 182e C81A0000 		.4byte	.LASF288
 8793 1832 01       		.byte	0x1
 8794 1833 DB05     		.2byte	0x5db
 8795 1835 11010000 		.4byte	0x111
 8796 1839 87140000 		.4byte	.LLST161
 8797 183d 25       		.uleb128 0x25
 8798 183e 17060000 		.4byte	.LASF284
 8799 1842 01       		.byte	0x1
 8800 1843 DC05     		.2byte	0x5dc
 8801 1845 EF000000 		.4byte	0xef
 8802 1849 A8140000 		.4byte	.LLST162
 8803 184d 25       		.uleb128 0x25
 8804 184e 27060000 		.4byte	.LASF285
 8805 1852 01       		.byte	0x1
 8806 1853 DD05     		.2byte	0x5dd
 8807 1855 11010000 		.4byte	0x111
 8808 1859 C8140000 		.4byte	.LLST163
 8809 185d 25       		.uleb128 0x25
 8810 185e 3A170000 		.4byte	.LASF309
 8811 1862 01       		.byte	0x1
 8812 1863 DE05     		.2byte	0x5de
 8813 1865 EF000000 		.4byte	0xef
 8814 1869 1F150000 		.4byte	.LLST164
 8815 186d 25       		.uleb128 0x25
 8816 186e 9D080000 		.4byte	.LASF314
 8817 1872 01       		.byte	0x1
 8818 1873 DF05     		.2byte	0x5df
 8819 1875 DD170000 		.4byte	0x17dd
 8820 1879 3F150000 		.4byte	.LLST165
 8821 187d 37       		.uleb128 0x37
 8822 187e CD160000 		.4byte	.LASF315
 8823 1882 01       		.byte	0x1
 8824 1883 E105     		.2byte	0x5e1
 8825 1885 FA000000 		.4byte	0xfa
 8826 1889 12       		.byte	0x12
 8827 188a 2B       		.uleb128 0x2b
 8828 188b 44150000 		.4byte	.LASF316
 8829 188f 01       		.byte	0x1
 8830 1890 E205     		.2byte	0x5e2
 8831 1892 1C010000 		.4byte	0x11c
 8832 1896 0040     		.2byte	0x4000
 8833 1898 37       		.uleb128 0x37
 8834 1899 D0100000 		.4byte	.LASF317
 8835 189d 01       		.byte	0x1
ARM GAS  /var/folders/d2/nstgp4h54kz7g1l847x_b8wc0000gn/T//cc2apEbl.s 			page 156


 8836 189e E305     		.2byte	0x5e3
 8837 18a0 1C010000 		.4byte	0x11c
 8838 18a4 42       		.byte	0x42
 8839 18a5 37       		.uleb128 0x37
 8840 18a6 DD150000 		.4byte	.LASF318
 8841 18aa 01       		.byte	0x1
 8842 18ab E405     		.2byte	0x5e4
 8843 18ad FA000000 		.4byte	0xfa
 8844 18b1 06       		.byte	0x6
 8845 18b2 37       		.uleb128 0x37
 8846 18b3 1B090000 		.4byte	.LASF319
 8847 18b7 01       		.byte	0x1
 8848 18b8 E505     		.2byte	0x5e5
 8849 18ba FA000000 		.4byte	0xfa
 8850 18be 07       		.byte	0x7
 8851 18bf 26       		.uleb128 0x26
 8852 18c0 FE130000 		.4byte	.LASF320
 8853 18c4 01       		.byte	0x1
 8854 18c5 E605     		.2byte	0x5e6
 8855 18c7 EF000000 		.4byte	0xef
 8856 18cb 5F150000 		.4byte	.LLST166
 8857 18cf 26       		.uleb128 0x26
 8858 18d0 CF170000 		.4byte	.LASF321
 8859 18d4 01       		.byte	0x1
 8860 18d5 E705     		.2byte	0x5e7
 8861 18d7 11010000 		.4byte	0x111
 8862 18db A0150000 		.4byte	.LLST167
 8863 18df 26       		.uleb128 0x26
 8864 18e0 5A0D0000 		.4byte	.LASF322
 8865 18e4 01       		.byte	0x1
 8866 18e5 E805     		.2byte	0x5e8
 8867 18e7 11010000 		.4byte	0x111
 8868 18eb C8150000 		.4byte	.LLST168
 8869 18ef 26       		.uleb128 0x26
 8870 18f0 A61D0000 		.4byte	.LASF323
 8871 18f4 01       		.byte	0x1
 8872 18f5 E905     		.2byte	0x5e9
 8873 18f7 11010000 		.4byte	0x111
 8874 18fb B6160000 		.4byte	.LLST169
 8875 18ff 26       		.uleb128 0x26
 8876 1900 BE060000 		.4byte	.LASF324
 8877 1904 01       		.byte	0x1
 8878 1905 EA05     		.2byte	0x5ea
 8879 1907 11010000 		.4byte	0x111
 8880 190b 20170000 		.4byte	.LLST170
 8881 190f 26       		.uleb128 0x26
 8882 1910 C11D0000 		.4byte	.LASF325
 8883 1914 01       		.byte	0x1
 8884 1915 EB05     		.2byte	0x5eb
 8885 1917 11010000 		.4byte	0x111
 8886 191b B4170000 		.4byte	.LLST171
 8887 191f 26       		.uleb128 0x26
 8888 1920 D41D0000 		.4byte	.LASF326
 8889 1924 01       		.byte	0x1
 8890 1925 EC05     		.2byte	0x5ec
 8891 1927 11010000 		.4byte	0x111
 8892 192b C7170000 		.4byte	.LLST172
ARM GAS  /var/folders/d2/nstgp4h54kz7g1l847x_b8wc0000gn/T//cc2apEbl.s 			page 157


 8893 192f 26       		.uleb128 0x26
 8894 1930 261B0000 		.4byte	.LASF327
 8895 1934 01       		.byte	0x1
 8896 1935 ED05     		.2byte	0x5ed
 8897 1937 11010000 		.4byte	0x111
 8898 193b E9170000 		.4byte	.LLST173
 8899 193f 26       		.uleb128 0x26
 8900 1940 5C030000 		.4byte	.LASF328
 8901 1944 01       		.byte	0x1
 8902 1945 EE05     		.2byte	0x5ee
 8903 1947 11010000 		.4byte	0x111
 8904 194b 11180000 		.4byte	.LLST174
 8905 194f 26       		.uleb128 0x26
 8906 1950 A9040000 		.4byte	.LASF329
 8907 1954 01       		.byte	0x1
 8908 1955 EF05     		.2byte	0x5ef
 8909 1957 11010000 		.4byte	0x111
 8910 195b 35180000 		.4byte	.LLST175
 8911 195f 26       		.uleb128 0x26
 8912 1960 511B0000 		.4byte	.LASF330
 8913 1964 01       		.byte	0x1
 8914 1965 F005     		.2byte	0x5f0
 8915 1967 11010000 		.4byte	0x111
 8916 196b 57180000 		.4byte	.LLST176
 8917 196f 2D       		.uleb128 0x2d
 8918 1970 1F000000 		.4byte	.LASF331
 8919 1974 01       		.byte	0x1
 8920 1975 F105     		.2byte	0x5f1
 8921 1977 11010000 		.4byte	0x111
 8922 197b 26       		.uleb128 0x26
 8923 197c 07090000 		.4byte	.LASF332
 8924 1980 01       		.byte	0x1
 8925 1981 F205     		.2byte	0x5f2
 8926 1983 11010000 		.4byte	0x111
 8927 1987 BB180000 		.4byte	.LLST177
 8928 198b 26       		.uleb128 0x26
 8929 198c E8130000 		.4byte	.LASF333
 8930 1990 01       		.byte	0x1
 8931 1991 F305     		.2byte	0x5f3
 8932 1993 11010000 		.4byte	0x111
 8933 1997 D9180000 		.4byte	.LLST178
 8934 199b 2D       		.uleb128 0x2d
 8935 199c B9170000 		.4byte	.LASF334
 8936 19a0 01       		.byte	0x1
 8937 19a1 F405     		.2byte	0x5f4
 8938 19a3 11010000 		.4byte	0x111
 8939 19a7 26       		.uleb128 0x26
 8940 19a8 6B1B0000 		.4byte	.LASF335
 8941 19ac 01       		.byte	0x1
 8942 19ad F505     		.2byte	0x5f5
 8943 19af EF000000 		.4byte	0xef
 8944 19b3 4A190000 		.4byte	.LLST179
 8945 19b7 37       		.uleb128 0x37
 8946 19b8 C1020000 		.4byte	.LASF248
 8947 19bc 01       		.byte	0x1
 8948 19bd F705     		.2byte	0x5f7
 8949 19bf AF010000 		.4byte	0x1af
ARM GAS  /var/folders/d2/nstgp4h54kz7g1l847x_b8wc0000gn/T//cc2apEbl.s 			page 158


 8950 19c3 00       		.byte	0
 8951 19c4 2E       		.uleb128 0x2e
 8952 19c5 30350000 		.4byte	0x3530
 8953 19c9 BA000000 		.4byte	.LBB210
 8954 19cd C0010000 		.4byte	.Ldebug_ranges0+0x1c0
 8955 19d1 01       		.byte	0x1
 8956 19d2 8206     		.2byte	0x682
 8957 19d4 F2190000 		.4byte	0x19f2
 8958 19d8 2F       		.uleb128 0x2f
 8959 19d9 40350000 		.4byte	0x3540
 8960 19dd 7C190000 		.4byte	.LLST180
 8961 19e1 30       		.uleb128 0x30
 8962 19e2 C0010000 		.4byte	.Ldebug_ranges0+0x1c0
 8963 19e6 31       		.uleb128 0x31
 8964 19e7 7E3A0000 		.4byte	0x3a7e
 8965 19eb 31       		.uleb128 0x31
 8966 19ec 873A0000 		.4byte	0x3a87
 8967 19f0 00       		.byte	0
 8968 19f1 00       		.byte	0
 8969 19f2 2E       		.uleb128 0x2e
 8970 19f3 30350000 		.4byte	0x3530
 8971 19f7 F0000000 		.4byte	.LBB214
 8972 19fb E0010000 		.4byte	.Ldebug_ranges0+0x1e0
 8973 19ff 01       		.byte	0x1
 8974 1a00 8B06     		.2byte	0x68b
 8975 1a02 201A0000 		.4byte	0x1a20
 8976 1a06 2F       		.uleb128 0x2f
 8977 1a07 40350000 		.4byte	0x3540
 8978 1a0b 9A190000 		.4byte	.LLST181
 8979 1a0f 30       		.uleb128 0x30
 8980 1a10 E0010000 		.4byte	.Ldebug_ranges0+0x1e0
 8981 1a14 31       		.uleb128 0x31
 8982 1a15 7E3A0000 		.4byte	0x3a7e
 8983 1a19 31       		.uleb128 0x31
 8984 1a1a 873A0000 		.4byte	0x3a87
 8985 1a1e 00       		.byte	0
 8986 1a1f 00       		.byte	0
 8987 1a20 2A       		.uleb128 0x2a
 8988 1a21 42010000 		.4byte	.LVL690
 8989 1a25 173F0000 		.4byte	0x3f17
 8990 1a29 00       		.byte	0
 8991 1a2a 38       		.uleb128 0x38
 8992 1a2b E6030000 		.4byte	.LASF338
 8993 1a2f 01       		.byte	0x1
 8994 1a30 C205     		.2byte	0x5c2
 8995 1a32 AF010000 		.4byte	0x1af
 8996 1a36 01       		.byte	0x1
 8997 1a37 781A0000 		.4byte	0x1a78
 8998 1a3b 39       		.uleb128 0x39
 8999 1a3c 44657600 		.ascii	"Dev\000"
 9000 1a40 01       		.byte	0x1
 9001 1a41 C205     		.2byte	0x5c2
 9002 1a43 690F0000 		.4byte	0xf69
 9003 1a47 3A       		.uleb128 0x3a
 9004 1a48 CD0D0000 		.4byte	.LASF246
 9005 1a4c 01       		.byte	0x1
 9006 1a4d C305     		.2byte	0x5c3
ARM GAS  /var/folders/d2/nstgp4h54kz7g1l847x_b8wc0000gn/T//cc2apEbl.s 			page 159


 9007 1a4f 97120000 		.4byte	0x1297
 9008 1a53 3A       		.uleb128 0x3a
 9009 1a54 D4010000 		.4byte	.LASF336
 9010 1a58 01       		.byte	0x1
 9011 1a59 C405     		.2byte	0x5c4
 9012 1a5b D7170000 		.4byte	0x17d7
 9013 1a5f 2D       		.uleb128 0x2d
 9014 1a60 C1020000 		.4byte	.LASF248
 9015 1a64 01       		.byte	0x1
 9016 1a65 C605     		.2byte	0x5c6
 9017 1a67 AF010000 		.4byte	0x1af
 9018 1a6b 2D       		.uleb128 0x2d
 9019 1a6c 401A0000 		.4byte	.LASF337
 9020 1a70 01       		.byte	0x1
 9021 1a71 C705     		.2byte	0x5c7
 9022 1a73 11010000 		.4byte	0x111
 9023 1a77 00       		.byte	0
 9024 1a78 38       		.uleb128 0x38
 9025 1a79 EE110000 		.4byte	.LASF339
 9026 1a7d 01       		.byte	0x1
 9027 1a7e 9E05     		.2byte	0x59e
 9028 1a80 AF010000 		.4byte	0x1af
 9029 1a84 01       		.byte	0x1
 9030 1a85 DE1A0000 		.4byte	0x1ade
 9031 1a89 39       		.uleb128 0x39
 9032 1a8a 44657600 		.ascii	"Dev\000"
 9033 1a8e 01       		.byte	0x1
 9034 1a8f 9E05     		.2byte	0x59e
 9035 1a91 690F0000 		.4byte	0xf69
 9036 1a95 3A       		.uleb128 0x3a
 9037 1a96 CD0D0000 		.4byte	.LASF246
 9038 1a9a 01       		.byte	0x1
 9039 1a9b 9F05     		.2byte	0x59f
 9040 1a9d 97120000 		.4byte	0x1297
 9041 1aa1 3A       		.uleb128 0x3a
 9042 1aa2 8A1A0000 		.4byte	.LASF340
 9043 1aa6 01       		.byte	0x1
 9044 1aa7 A005     		.2byte	0x5a0
 9045 1aa9 D7170000 		.4byte	0x17d7
 9046 1aad 2D       		.uleb128 0x2d
 9047 1aae C1020000 		.4byte	.LASF248
 9048 1ab2 01       		.byte	0x1
 9049 1ab3 A205     		.2byte	0x5a2
 9050 1ab5 AF010000 		.4byte	0x1af
 9051 1ab9 2D       		.uleb128 0x2d
 9052 1aba 940D0000 		.4byte	.LASF341
 9053 1abe 01       		.byte	0x1
 9054 1abf A405     		.2byte	0x5a4
 9055 1ac1 C3000000 		.4byte	0xc3
 9056 1ac5 2D       		.uleb128 0x2d
 9057 1ac6 401A0000 		.4byte	.LASF337
 9058 1aca 01       		.byte	0x1
 9059 1acb A505     		.2byte	0x5a5
 9060 1acd 11010000 		.4byte	0x111
 9061 1ad1 2D       		.uleb128 0x2d
 9062 1ad2 1A1A0000 		.4byte	.LASF342
 9063 1ad6 01       		.byte	0x1
ARM GAS  /var/folders/d2/nstgp4h54kz7g1l847x_b8wc0000gn/T//cc2apEbl.s 			page 160


 9064 1ad7 A605     		.2byte	0x5a6
 9065 1ad9 11010000 		.4byte	0x111
 9066 1add 00       		.byte	0
 9067 1ade 23       		.uleb128 0x23
 9068 1adf D7020000 		.4byte	.LASF343
 9069 1ae3 01       		.byte	0x1
 9070 1ae4 4805     		.2byte	0x548
 9071 1ae6 AF010000 		.4byte	0x1af
 9072 1aea 00000000 		.4byte	.LFB22
 9073 1aee D0000000 		.4byte	.LFE22-.LFB22
 9074 1af2 01       		.uleb128 0x1
 9075 1af3 9C       		.byte	0x9c
 9076 1af4 D91B0000 		.4byte	0x1bd9
 9077 1af8 24       		.uleb128 0x24
 9078 1af9 44657600 		.ascii	"Dev\000"
 9079 1afd 01       		.byte	0x1
 9080 1afe 4805     		.2byte	0x548
 9081 1b00 690F0000 		.4byte	0xf69
 9082 1b04 C3190000 		.4byte	.LLST134
 9083 1b08 25       		.uleb128 0x25
 9084 1b09 BF010000 		.4byte	.LASF344
 9085 1b0d 01       		.byte	0x1
 9086 1b0e 4905     		.2byte	0x549
 9087 1b10 97060000 		.4byte	0x697
 9088 1b14 211A0000 		.4byte	.LLST135
 9089 1b18 26       		.uleb128 0x26
 9090 1b19 C1020000 		.4byte	.LASF248
 9091 1b1d 01       		.byte	0x1
 9092 1b1e 4B05     		.2byte	0x54b
 9093 1b20 AF010000 		.4byte	0x1af
 9094 1b24 7F1A0000 		.4byte	.LLST136
 9095 1b28 3B       		.uleb128 0x3b
 9096 1b29 6900     		.ascii	"i\000"
 9097 1b2b 01       		.byte	0x1
 9098 1b2c 4C05     		.2byte	0x54c
 9099 1b2e B1000000 		.4byte	0xb1
 9100 1b32 B61A0000 		.4byte	.LLST137
 9101 1b36 26       		.uleb128 0x26
 9102 1b37 01180000 		.4byte	.LASF345
 9103 1b3b 01       		.byte	0x1
 9104 1b3c 4D05     		.2byte	0x54d
 9105 1b3e B1000000 		.4byte	0xb1
 9106 1b42 CA1A0000 		.4byte	.LLST138
 9107 1b46 3B       		.uleb128 0x3b
 9108 1b47 6D736200 		.ascii	"msb\000"
 9109 1b4b 01       		.byte	0x1
 9110 1b4c 4E05     		.2byte	0x54e
 9111 1b4e C3000000 		.4byte	0xc3
 9112 1b52 8A1B0000 		.4byte	.LLST139
 9113 1b56 3B       		.uleb128 0x3b
 9114 1b57 6C736200 		.ascii	"lsb\000"
 9115 1b5b 01       		.byte	0x1
 9116 1b5c 4F05     		.2byte	0x54f
 9117 1b5e C3000000 		.4byte	0xc3
 9118 1b62 EE1B0000 		.4byte	.LLST140
 9119 1b66 26       		.uleb128 0x26
 9120 1b67 79080000 		.4byte	.LASF346
ARM GAS  /var/folders/d2/nstgp4h54kz7g1l847x_b8wc0000gn/T//cc2apEbl.s 			page 161


 9121 1b6b 01       		.byte	0x1
 9122 1b6c 5005     		.2byte	0x550
 9123 1b6e C3000000 		.4byte	0xc3
 9124 1b72 261C0000 		.4byte	.LLST141
 9125 1b76 26       		.uleb128 0x26
 9126 1b77 310F0000 		.4byte	.LASF347
 9127 1b7b 01       		.byte	0x1
 9128 1b7c 5105     		.2byte	0x551
 9129 1b7e C3000000 		.4byte	0xc3
 9130 1b82 791C0000 		.4byte	.LLST142
 9131 1b86 26       		.uleb128 0x26
 9132 1b87 041D0000 		.4byte	.LASF348
 9133 1b8b 01       		.byte	0x1
 9134 1b8c 5205     		.2byte	0x552
 9135 1b8e C3000000 		.4byte	0xc3
 9136 1b92 A21C0000 		.4byte	.LLST143
 9137 1b96 27       		.uleb128 0x27
 9138 1b97 6D0F0000 		.4byte	.LASF349
 9139 1b9b 01       		.byte	0x1
 9140 1b9c 5305     		.2byte	0x553
 9141 1b9e D91B0000 		.4byte	0x1bd9
 9142 1ba2 02       		.uleb128 0x2
 9143 1ba3 91       		.byte	0x91
 9144 1ba4 60       		.sleb128 -32
 9145 1ba5 26       		.uleb128 0x26
 9146 1ba6 AE160000 		.4byte	.LASF350
 9147 1baa 01       		.byte	0x1
 9148 1bab 5405     		.2byte	0x554
 9149 1bad D9000000 		.4byte	0xd9
 9150 1bb1 B51C0000 		.4byte	.LLST144
 9151 1bb5 28       		.uleb128 0x28
 9152 1bb6 60000000 		.4byte	.LVL591
 9153 1bba 203F0000 		.4byte	0x3f20
 9154 1bbe CF1B0000 		.4byte	0x1bcf
 9155 1bc2 29       		.uleb128 0x29
 9156 1bc3 01       		.uleb128 0x1
 9157 1bc4 50       		.byte	0x50
 9158 1bc5 02       		.uleb128 0x2
 9159 1bc6 76       		.byte	0x76
 9160 1bc7 00       		.sleb128 0
 9161 1bc8 29       		.uleb128 0x29
 9162 1bc9 01       		.uleb128 0x1
 9163 1bca 52       		.byte	0x52
 9164 1bcb 02       		.uleb128 0x2
 9165 1bcc 7D       		.byte	0x7d
 9166 1bcd 00       		.sleb128 0
 9167 1bce 00       		.byte	0
 9168 1bcf 2A       		.uleb128 0x2a
 9169 1bd0 CA000000 		.4byte	.LVL607
 9170 1bd4 173F0000 		.4byte	0x3f17
 9171 1bd8 00       		.byte	0
 9172 1bd9 08       		.uleb128 0x8
 9173 1bda C3000000 		.4byte	0xc3
 9174 1bde E91B0000 		.4byte	0x1be9
 9175 1be2 09       		.uleb128 0x9
 9176 1be3 25000000 		.4byte	0x25
 9177 1be7 03       		.byte	0x3
ARM GAS  /var/folders/d2/nstgp4h54kz7g1l847x_b8wc0000gn/T//cc2apEbl.s 			page 162


 9178 1be8 00       		.byte	0
 9179 1be9 23       		.uleb128 0x23
 9180 1bea 3F100000 		.4byte	.LASF351
 9181 1bee 01       		.byte	0x1
 9182 1bef ED04     		.2byte	0x4ed
 9183 1bf1 AF010000 		.4byte	0x1af
 9184 1bf5 00000000 		.4byte	.LFB21
 9185 1bf9 E4000000 		.4byte	.LFE21-.LFB21
 9186 1bfd 01       		.uleb128 0x1
 9187 1bfe 9C       		.byte	0x9c
 9188 1bff 441D0000 		.4byte	0x1d44
 9189 1c03 24       		.uleb128 0x24
 9190 1c04 44657600 		.ascii	"Dev\000"
 9191 1c08 01       		.byte	0x1
 9192 1c09 ED04     		.2byte	0x4ed
 9193 1c0b 690F0000 		.4byte	0xf69
 9194 1c0f 2D1D0000 		.4byte	.LLST131
 9195 1c13 25       		.uleb128 0x25
 9196 1c14 F7140000 		.4byte	.LASF352
 9197 1c18 01       		.byte	0x1
 9198 1c19 EE04     		.2byte	0x4ee
 9199 1c1b DD170000 		.4byte	0x17dd
 9200 1c1f 4B1D0000 		.4byte	.LLST132
 9201 1c23 26       		.uleb128 0x26
 9202 1c24 C1020000 		.4byte	.LASF248
 9203 1c28 01       		.byte	0x1
 9204 1c29 F004     		.2byte	0x4f0
 9205 1c2b AF010000 		.4byte	0x1af
 9206 1c2f 691D0000 		.4byte	.LLST133
 9207 1c33 27       		.uleb128 0x27
 9208 1c34 EF0F0000 		.4byte	.LASF353
 9209 1c38 01       		.byte	0x1
 9210 1c39 F104     		.2byte	0x4f1
 9211 1c3b 00070000 		.4byte	0x700
 9212 1c3f 02       		.uleb128 0x2
 9213 1c40 91       		.byte	0x91
 9214 1c41 5C       		.sleb128 -36
 9215 1c42 27       		.uleb128 0x27
 9216 1c43 71030000 		.4byte	.LASF354
 9217 1c47 01       		.byte	0x1
 9218 1c48 F204     		.2byte	0x4f2
 9219 1c4a EF000000 		.4byte	0xef
 9220 1c4e 02       		.uleb128 0x2
 9221 1c4f 91       		.byte	0x91
 9222 1c50 50       		.sleb128 -48
 9223 1c51 27       		.uleb128 0x27
 9224 1c52 2D0C0000 		.4byte	.LASF355
 9225 1c56 01       		.byte	0x1
 9226 1c57 F304     		.2byte	0x4f3
 9227 1c59 EF000000 		.4byte	0xef
 9228 1c5d 02       		.uleb128 0x2
 9229 1c5e 91       		.byte	0x91
 9230 1c5f 54       		.sleb128 -44
 9231 1c60 2D       		.uleb128 0x2d
 9232 1c61 77160000 		.4byte	.LASF356
 9233 1c65 01       		.byte	0x1
 9234 1c66 F404     		.2byte	0x4f4
ARM GAS  /var/folders/d2/nstgp4h54kz7g1l847x_b8wc0000gn/T//cc2apEbl.s 			page 163


 9235 1c68 EF000000 		.4byte	0xef
 9236 1c6c 2D       		.uleb128 0x2d
 9237 1c6d 3A020000 		.4byte	.LASF357
 9238 1c71 01       		.byte	0x1
 9239 1c72 F504     		.2byte	0x4f5
 9240 1c74 EF000000 		.4byte	0xef
 9241 1c78 2D       		.uleb128 0x2d
 9242 1c79 2D130000 		.4byte	.LASF358
 9243 1c7d 01       		.byte	0x1
 9244 1c7e F604     		.2byte	0x4f6
 9245 1c80 EF000000 		.4byte	0xef
 9246 1c84 2D       		.uleb128 0x2d
 9247 1c85 85080000 		.4byte	.LASF359
 9248 1c89 01       		.byte	0x1
 9249 1c8a F704     		.2byte	0x4f7
 9250 1c8c EF000000 		.4byte	0xef
 9251 1c90 2D       		.uleb128 0x2d
 9252 1c91 9B060000 		.4byte	.LASF360
 9253 1c95 01       		.byte	0x1
 9254 1c96 F804     		.2byte	0x4f8
 9255 1c98 EF000000 		.4byte	0xef
 9256 1c9c 2D       		.uleb128 0x2d
 9257 1c9d DD100000 		.4byte	.LASF361
 9258 1ca1 01       		.byte	0x1
 9259 1ca2 F904     		.2byte	0x4f9
 9260 1ca4 EF000000 		.4byte	0xef
 9261 1ca8 2D       		.uleb128 0x2d
 9262 1ca9 620C0000 		.4byte	.LASF362
 9263 1cad 01       		.byte	0x1
 9264 1cae FA04     		.2byte	0x4fa
 9265 1cb0 EF000000 		.4byte	0xef
 9266 1cb4 27       		.uleb128 0x27
 9267 1cb5 C1150000 		.4byte	.LASF363
 9268 1cb9 01       		.byte	0x1
 9269 1cba FB04     		.2byte	0x4fb
 9270 1cbc EF000000 		.4byte	0xef
 9271 1cc0 02       		.uleb128 0x2
 9272 1cc1 91       		.byte	0x91
 9273 1cc2 58       		.sleb128 -40
 9274 1cc3 28       		.uleb128 0x28
 9275 1cc4 24000000 		.4byte	.LVL566
 9276 1cc8 2B3F0000 		.4byte	0x3f2b
 9277 1ccc DD1C0000 		.4byte	0x1cdd
 9278 1cd0 29       		.uleb128 0x29
 9279 1cd1 01       		.uleb128 0x1
 9280 1cd2 50       		.byte	0x50
 9281 1cd3 02       		.uleb128 0x2
 9282 1cd4 77       		.byte	0x77
 9283 1cd5 00       		.sleb128 0
 9284 1cd6 29       		.uleb128 0x29
 9285 1cd7 01       		.uleb128 0x1
 9286 1cd8 51       		.byte	0x51
 9287 1cd9 02       		.uleb128 0x2
 9288 1cda 91       		.byte	0x91
 9289 1cdb 5C       		.sleb128 -36
 9290 1cdc 00       		.byte	0
 9291 1cdd 28       		.uleb128 0x28
ARM GAS  /var/folders/d2/nstgp4h54kz7g1l847x_b8wc0000gn/T//cc2apEbl.s 			page 164


 9292 1cde 4A000000 		.4byte	.LVL568
 9293 1ce2 D4250000 		.4byte	0x25d4
 9294 1ce6 FC1C0000 		.4byte	0x1cfc
 9295 1cea 29       		.uleb128 0x29
 9296 1ceb 01       		.uleb128 0x1
 9297 1cec 50       		.byte	0x50
 9298 1ced 02       		.uleb128 0x2
 9299 1cee 77       		.byte	0x77
 9300 1cef 00       		.sleb128 0
 9301 1cf0 29       		.uleb128 0x29
 9302 1cf1 01       		.uleb128 0x1
 9303 1cf2 51       		.byte	0x51
 9304 1cf3 01       		.uleb128 0x1
 9305 1cf4 33       		.byte	0x33
 9306 1cf5 29       		.uleb128 0x29
 9307 1cf6 01       		.uleb128 0x1
 9308 1cf7 52       		.byte	0x52
 9309 1cf8 02       		.uleb128 0x2
 9310 1cf9 91       		.byte	0x91
 9311 1cfa 58       		.sleb128 -40
 9312 1cfb 00       		.byte	0
 9313 1cfc 28       		.uleb128 0x28
 9314 1cfd 7C000000 		.4byte	.LVL572
 9315 1d01 D4250000 		.4byte	0x25d4
 9316 1d05 1B1D0000 		.4byte	0x1d1b
 9317 1d09 29       		.uleb128 0x29
 9318 1d0a 01       		.uleb128 0x1
 9319 1d0b 50       		.byte	0x50
 9320 1d0c 02       		.uleb128 0x2
 9321 1d0d 77       		.byte	0x77
 9322 1d0e 00       		.sleb128 0
 9323 1d0f 29       		.uleb128 0x29
 9324 1d10 01       		.uleb128 0x1
 9325 1d11 51       		.byte	0x51
 9326 1d12 01       		.uleb128 0x1
 9327 1d13 32       		.byte	0x32
 9328 1d14 29       		.uleb128 0x29
 9329 1d15 01       		.uleb128 0x1
 9330 1d16 52       		.byte	0x52
 9331 1d17 02       		.uleb128 0x2
 9332 1d18 91       		.byte	0x91
 9333 1d19 54       		.sleb128 -44
 9334 1d1a 00       		.byte	0
 9335 1d1b 28       		.uleb128 0x28
 9336 1d1c B6000000 		.4byte	.LVL575
 9337 1d20 D4250000 		.4byte	0x25d4
 9338 1d24 3A1D0000 		.4byte	0x1d3a
 9339 1d28 29       		.uleb128 0x29
 9340 1d29 01       		.uleb128 0x1
 9341 1d2a 50       		.byte	0x50
 9342 1d2b 02       		.uleb128 0x2
 9343 1d2c 77       		.byte	0x77
 9344 1d2d 00       		.sleb128 0
 9345 1d2e 29       		.uleb128 0x29
 9346 1d2f 01       		.uleb128 0x1
 9347 1d30 51       		.byte	0x51
 9348 1d31 01       		.uleb128 0x1
ARM GAS  /var/folders/d2/nstgp4h54kz7g1l847x_b8wc0000gn/T//cc2apEbl.s 			page 165


 9349 1d32 34       		.byte	0x34
 9350 1d33 29       		.uleb128 0x29
 9351 1d34 01       		.uleb128 0x1
 9352 1d35 52       		.byte	0x52
 9353 1d36 02       		.uleb128 0x2
 9354 1d37 7D       		.byte	0x7d
 9355 1d38 00       		.sleb128 0
 9356 1d39 00       		.byte	0
 9357 1d3a 2A       		.uleb128 0x2a
 9358 1d3b DE000000 		.4byte	.LVL578
 9359 1d3f 173F0000 		.4byte	0x3f17
 9360 1d43 00       		.byte	0
 9361 1d44 23       		.uleb128 0x23
 9362 1d45 D61A0000 		.4byte	.LASF364
 9363 1d49 01       		.byte	0x1
 9364 1d4a 5704     		.2byte	0x457
 9365 1d4c AF010000 		.4byte	0x1af
 9366 1d50 00000000 		.4byte	.LFB20
 9367 1d54 EC000000 		.4byte	.LFE20-.LFB20
 9368 1d58 01       		.uleb128 0x1
 9369 1d59 9C       		.byte	0x9c
 9370 1d5a 1E1F0000 		.4byte	0x1f1e
 9371 1d5e 24       		.uleb128 0x24
 9372 1d5f 44657600 		.ascii	"Dev\000"
 9373 1d63 01       		.byte	0x1
 9374 1d64 5704     		.2byte	0x457
 9375 1d66 690F0000 		.4byte	0xf69
 9376 1d6a CC1D0000 		.4byte	.LLST123
 9377 1d6e 25       		.uleb128 0x25
 9378 1d6f C40C0000 		.4byte	.LASF41
 9379 1d73 01       		.byte	0x1
 9380 1d74 5804     		.2byte	0x458
 9381 1d76 EF000000 		.4byte	0xef
 9382 1d7a 2A1E0000 		.4byte	.LLST124
 9383 1d7e 26       		.uleb128 0x26
 9384 1d7f C1020000 		.4byte	.LASF248
 9385 1d83 01       		.byte	0x1
 9386 1d84 5A04     		.2byte	0x45a
 9387 1d86 AF010000 		.4byte	0x1af
 9388 1d8a 481E0000 		.4byte	.LLST125
 9389 1d8e 26       		.uleb128 0x26
 9390 1d8f 400E0000 		.4byte	.LASF365
 9391 1d93 01       		.byte	0x1
 9392 1d94 5B04     		.2byte	0x45b
 9393 1d96 EF000000 		.4byte	0xef
 9394 1d9a AB1E0000 		.4byte	.LLST126
 9395 1d9e 27       		.uleb128 0x27
 9396 1d9f EF0F0000 		.4byte	.LASF353
 9397 1da3 01       		.byte	0x1
 9398 1da4 5C04     		.2byte	0x45c
 9399 1da6 00070000 		.4byte	0x700
 9400 1daa 02       		.uleb128 0x2
 9401 1dab 91       		.byte	0x91
 9402 1dac 5C       		.sleb128 -36
 9403 1dad 27       		.uleb128 0x27
 9404 1dae 2D0C0000 		.4byte	.LASF355
 9405 1db2 01       		.byte	0x1
ARM GAS  /var/folders/d2/nstgp4h54kz7g1l847x_b8wc0000gn/T//cc2apEbl.s 			page 166


 9406 1db3 5D04     		.2byte	0x45d
 9407 1db5 EF000000 		.4byte	0xef
 9408 1db9 02       		.uleb128 0x2
 9409 1dba 91       		.byte	0x91
 9410 1dbb 54       		.sleb128 -44
 9411 1dbc 2D       		.uleb128 0x2d
 9412 1dbd 77160000 		.4byte	.LASF356
 9413 1dc1 01       		.byte	0x1
 9414 1dc2 5E04     		.2byte	0x45e
 9415 1dc4 EF000000 		.4byte	0xef
 9416 1dc8 2D       		.uleb128 0x2d
 9417 1dc9 3A020000 		.4byte	.LASF357
 9418 1dcd 01       		.byte	0x1
 9419 1dce 5F04     		.2byte	0x45f
 9420 1dd0 EF000000 		.4byte	0xef
 9421 1dd4 2D       		.uleb128 0x2d
 9422 1dd5 2D130000 		.4byte	.LASF358
 9423 1dd9 01       		.byte	0x1
 9424 1dda 6004     		.2byte	0x460
 9425 1ddc EF000000 		.4byte	0xef
 9426 1de0 2D       		.uleb128 0x2d
 9427 1de1 85080000 		.4byte	.LASF359
 9428 1de5 01       		.byte	0x1
 9429 1de6 6104     		.2byte	0x461
 9430 1de8 EF000000 		.4byte	0xef
 9431 1dec 2D       		.uleb128 0x2d
 9432 1ded 9B060000 		.4byte	.LASF360
 9433 1df1 01       		.byte	0x1
 9434 1df2 6204     		.2byte	0x462
 9435 1df4 EF000000 		.4byte	0xef
 9436 1df8 2D       		.uleb128 0x2d
 9437 1df9 DD100000 		.4byte	.LASF361
 9438 1dfd 01       		.byte	0x1
 9439 1dfe 6304     		.2byte	0x463
 9440 1e00 EF000000 		.4byte	0xef
 9441 1e04 2D       		.uleb128 0x2d
 9442 1e05 620C0000 		.4byte	.LASF362
 9443 1e09 01       		.byte	0x1
 9444 1e0a 6404     		.2byte	0x464
 9445 1e0c EF000000 		.4byte	0xef
 9446 1e10 27       		.uleb128 0x27
 9447 1e11 C1150000 		.4byte	.LASF363
 9448 1e15 01       		.byte	0x1
 9449 1e16 6504     		.2byte	0x465
 9450 1e18 EF000000 		.4byte	0xef
 9451 1e1c 02       		.uleb128 0x2
 9452 1e1d 91       		.byte	0x91
 9453 1e1e 58       		.sleb128 -40
 9454 1e1f 2B       		.uleb128 0x2b
 9455 1e20 8B150000 		.4byte	.LASF366
 9456 1e24 01       		.byte	0x1
 9457 1e25 6604     		.2byte	0x466
 9458 1e27 EF000000 		.4byte	0xef
 9459 1e2b 204E     		.2byte	0x4e20
 9460 1e2d 26       		.uleb128 0x26
 9461 1e2e 59110000 		.4byte	.LASF367
 9462 1e32 01       		.byte	0x1
ARM GAS  /var/folders/d2/nstgp4h54kz7g1l847x_b8wc0000gn/T//cc2apEbl.s 			page 167


 9463 1e33 6704     		.2byte	0x467
 9464 1e35 EF000000 		.4byte	0xef
 9465 1e39 291F0000 		.4byte	.LLST127
 9466 1e3d 2E       		.uleb128 0x2e
 9467 1e3e 32250000 		.4byte	0x2532
 9468 1e42 4E000000 		.4byte	.LBB202
 9469 1e46 A8010000 		.4byte	.Ldebug_ranges0+0x1a8
 9470 1e4a 01       		.byte	0x1
 9471 1e4b DF04     		.2byte	0x4df
 9472 1e4d BC1E0000 		.4byte	0x1ebc
 9473 1e51 2F       		.uleb128 0x2f
 9474 1e52 5B250000 		.4byte	0x255b
 9475 1e56 801F0000 		.4byte	.LLST128
 9476 1e5a 2F       		.uleb128 0x2f
 9477 1e5b 4F250000 		.4byte	0x254f
 9478 1e5f AF1F0000 		.4byte	.LLST129
 9479 1e63 2F       		.uleb128 0x2f
 9480 1e64 43250000 		.4byte	0x2543
 9481 1e68 C31F0000 		.4byte	.LLST130
 9482 1e6c 30       		.uleb128 0x30
 9483 1e6d A8010000 		.4byte	.Ldebug_ranges0+0x1a8
 9484 1e71 31       		.uleb128 0x31
 9485 1e72 AA3C0000 		.4byte	0x3caa
 9486 1e76 31       		.uleb128 0x31
 9487 1e77 B33C0000 		.4byte	0x3cb3
 9488 1e7b 31       		.uleb128 0x31
 9489 1e7c BB3C0000 		.4byte	0x3cbb
 9490 1e80 31       		.uleb128 0x31
 9491 1e81 C43C0000 		.4byte	0x3cc4
 9492 1e85 31       		.uleb128 0x31
 9493 1e86 C93C0000 		.4byte	0x3cc9
 9494 1e8a 31       		.uleb128 0x31
 9495 1e8b CE3C0000 		.4byte	0x3cce
 9496 1e8f 31       		.uleb128 0x31
 9497 1e90 D73C0000 		.4byte	0x3cd7
 9498 1e94 31       		.uleb128 0x31
 9499 1e95 DC3C0000 		.4byte	0x3cdc
 9500 1e99 31       		.uleb128 0x31
 9501 1e9a E13C0000 		.4byte	0x3ce1
 9502 1e9e 32       		.uleb128 0x32
 9503 1e9f 5A000000 		.4byte	.LVL541
 9504 1ea3 06370000 		.4byte	0x3706
 9505 1ea7 29       		.uleb128 0x29
 9506 1ea8 01       		.uleb128 0x1
 9507 1ea9 50       		.byte	0x50
 9508 1eaa 02       		.uleb128 0x2
 9509 1eab 77       		.byte	0x77
 9510 1eac 00       		.sleb128 0
 9511 1ead 29       		.uleb128 0x29
 9512 1eae 01       		.uleb128 0x1
 9513 1eaf 51       		.byte	0x51
 9514 1eb0 01       		.uleb128 0x1
 9515 1eb1 34       		.byte	0x34
 9516 1eb2 29       		.uleb128 0x29
 9517 1eb3 01       		.uleb128 0x1
 9518 1eb4 52       		.byte	0x52
 9519 1eb5 03       		.uleb128 0x3
ARM GAS  /var/folders/d2/nstgp4h54kz7g1l847x_b8wc0000gn/T//cc2apEbl.s 			page 168


 9520 1eb6 78       		.byte	0x78
 9521 1eb7 DA7B     		.sleb128 -550
 9522 1eb9 00       		.byte	0
 9523 1eba 00       		.byte	0
 9524 1ebb 00       		.byte	0
 9525 1ebc 28       		.uleb128 0x28
 9526 1ebd 28000000 		.4byte	.LVL535
 9527 1ec1 2B3F0000 		.4byte	0x3f2b
 9528 1ec5 D61E0000 		.4byte	0x1ed6
 9529 1ec9 29       		.uleb128 0x29
 9530 1eca 01       		.uleb128 0x1
 9531 1ecb 50       		.byte	0x50
 9532 1ecc 02       		.uleb128 0x2
 9533 1ecd 77       		.byte	0x77
 9534 1ece 00       		.sleb128 0
 9535 1ecf 29       		.uleb128 0x29
 9536 1ed0 01       		.uleb128 0x1
 9537 1ed1 51       		.byte	0x51
 9538 1ed2 02       		.uleb128 0x2
 9539 1ed3 91       		.byte	0x91
 9540 1ed4 5C       		.sleb128 -36
 9541 1ed5 00       		.byte	0
 9542 1ed6 28       		.uleb128 0x28
 9543 1ed7 78000000 		.4byte	.LVL545
 9544 1edb D4250000 		.4byte	0x25d4
 9545 1edf F51E0000 		.4byte	0x1ef5
 9546 1ee3 29       		.uleb128 0x29
 9547 1ee4 01       		.uleb128 0x1
 9548 1ee5 50       		.byte	0x50
 9549 1ee6 02       		.uleb128 0x2
 9550 1ee7 77       		.byte	0x77
 9551 1ee8 00       		.sleb128 0
 9552 1ee9 29       		.uleb128 0x29
 9553 1eea 01       		.uleb128 0x1
 9554 1eeb 51       		.byte	0x51
 9555 1eec 01       		.uleb128 0x1
 9556 1eed 32       		.byte	0x32
 9557 1eee 29       		.uleb128 0x29
 9558 1eef 01       		.uleb128 0x1
 9559 1ef0 52       		.byte	0x52
 9560 1ef1 02       		.uleb128 0x2
 9561 1ef2 91       		.byte	0x91
 9562 1ef3 54       		.sleb128 -44
 9563 1ef4 00       		.byte	0
 9564 1ef5 28       		.uleb128 0x28
 9565 1ef6 BC000000 		.4byte	.LVL552
 9566 1efa D4250000 		.4byte	0x25d4
 9567 1efe 141F0000 		.4byte	0x1f14
 9568 1f02 29       		.uleb128 0x29
 9569 1f03 01       		.uleb128 0x1
 9570 1f04 50       		.byte	0x50
 9571 1f05 02       		.uleb128 0x2
 9572 1f06 77       		.byte	0x77
 9573 1f07 00       		.sleb128 0
 9574 1f08 29       		.uleb128 0x29
 9575 1f09 01       		.uleb128 0x1
 9576 1f0a 51       		.byte	0x51
ARM GAS  /var/folders/d2/nstgp4h54kz7g1l847x_b8wc0000gn/T//cc2apEbl.s 			page 169


 9577 1f0b 01       		.uleb128 0x1
 9578 1f0c 33       		.byte	0x33
 9579 1f0d 29       		.uleb128 0x29
 9580 1f0e 01       		.uleb128 0x1
 9581 1f0f 52       		.byte	0x52
 9582 1f10 02       		.uleb128 0x2
 9583 1f11 91       		.byte	0x91
 9584 1f12 58       		.sleb128 -40
 9585 1f13 00       		.byte	0
 9586 1f14 2A       		.uleb128 0x2a
 9587 1f15 E8000000 		.4byte	.LVL562
 9588 1f19 173F0000 		.4byte	0x3f17
 9589 1f1d 00       		.byte	0
 9590 1f1e 23       		.uleb128 0x23
 9591 1f1f 6E1D0000 		.4byte	.LASF368
 9592 1f23 01       		.byte	0x1
 9593 1f24 3904     		.2byte	0x439
 9594 1f26 AF010000 		.4byte	0x1af
 9595 1f2a 00000000 		.4byte	.LFB19
 9596 1f2e 50000000 		.4byte	.LFE19-.LFB19
 9597 1f32 01       		.uleb128 0x1
 9598 1f33 9C       		.byte	0x9c
 9599 1f34 EE1F0000 		.4byte	0x1fee
 9600 1f38 24       		.uleb128 0x24
 9601 1f39 44657600 		.ascii	"Dev\000"
 9602 1f3d 01       		.byte	0x1
 9603 1f3e 3904     		.2byte	0x439
 9604 1f40 690F0000 		.4byte	0xf69
 9605 1f44 D61F0000 		.4byte	.LLST119
 9606 1f48 25       		.uleb128 0x25
 9607 1f49 38160000 		.4byte	.LASF369
 9608 1f4d 01       		.byte	0x1
 9609 1f4e 3A04     		.2byte	0x43a
 9610 1f50 A9060000 		.4byte	0x6a9
 9611 1f54 29200000 		.4byte	.LLST120
 9612 1f58 25       		.uleb128 0x25
 9613 1f59 1F140000 		.4byte	.LASF370
 9614 1f5d 01       		.byte	0x1
 9615 1f5e 3A04     		.2byte	0x43a
 9616 1f60 97060000 		.4byte	0x697
 9617 1f64 7C200000 		.4byte	.LLST121
 9618 1f68 26       		.uleb128 0x26
 9619 1f69 C1020000 		.4byte	.LASF248
 9620 1f6d 01       		.byte	0x1
 9621 1f6e 3C04     		.2byte	0x43c
 9622 1f70 AF010000 		.4byte	0x1af
 9623 1f74 C6200000 		.4byte	.LLST122
 9624 1f78 27       		.uleb128 0x27
 9625 1f79 BE070000 		.4byte	.LASF371
 9626 1f7d 01       		.byte	0x1
 9627 1f7e 3D04     		.2byte	0x43d
 9628 1f80 C3000000 		.4byte	0xc3
 9629 1f84 02       		.uleb128 0x2
 9630 1f85 91       		.byte	0x91
 9631 1f86 6B       		.sleb128 -21
 9632 1f87 35       		.uleb128 0x35
 9633 1f88 89350000 		.4byte	0x3589
ARM GAS  /var/folders/d2/nstgp4h54kz7g1l847x_b8wc0000gn/T//cc2apEbl.s 			page 170


 9634 1f8c 30000000 		.4byte	.LBB200
 9635 1f90 08000000 		.4byte	.LBE200-.LBB200
 9636 1f94 01       		.byte	0x1
 9637 1f95 5004     		.2byte	0x450
 9638 1f97 B01F0000 		.4byte	0x1fb0
 9639 1f9b 33       		.uleb128 0x33
 9640 1f9c 99350000 		.4byte	0x3599
 9641 1fa0 36       		.uleb128 0x36
 9642 1fa1 30000000 		.4byte	.LBB201
 9643 1fa5 08000000 		.4byte	.LBE201-.LBB201
 9644 1fa9 31       		.uleb128 0x31
 9645 1faa 203A0000 		.4byte	0x3a20
 9646 1fae 00       		.byte	0
 9647 1faf 00       		.byte	0
 9648 1fb0 28       		.uleb128 0x28
 9649 1fb1 2C000000 		.4byte	.LVL523
 9650 1fb5 373F0000 		.4byte	0x3f37
 9651 1fb9 CA1F0000 		.4byte	0x1fca
 9652 1fbd 29       		.uleb128 0x29
 9653 1fbe 01       		.uleb128 0x1
 9654 1fbf 51       		.byte	0x51
 9655 1fc0 02       		.uleb128 0x2
 9656 1fc1 08       		.byte	0x8
 9657 1fc2 70       		.byte	0x70
 9658 1fc3 29       		.uleb128 0x29
 9659 1fc4 01       		.uleb128 0x1
 9660 1fc5 52       		.byte	0x52
 9661 1fc6 02       		.uleb128 0x2
 9662 1fc7 91       		.byte	0x91
 9663 1fc8 6B       		.sleb128 -21
 9664 1fc9 00       		.byte	0
 9665 1fca 28       		.uleb128 0x28
 9666 1fcb 46000000 		.4byte	.LVL527
 9667 1fcf 373F0000 		.4byte	0x3f37
 9668 1fd3 E41F0000 		.4byte	0x1fe4
 9669 1fd7 29       		.uleb128 0x29
 9670 1fd8 01       		.uleb128 0x1
 9671 1fd9 51       		.byte	0x51
 9672 1fda 02       		.uleb128 0x2
 9673 1fdb 08       		.byte	0x8
 9674 1fdc 50       		.byte	0x50
 9675 1fdd 29       		.uleb128 0x29
 9676 1fde 01       		.uleb128 0x1
 9677 1fdf 52       		.byte	0x52
 9678 1fe0 02       		.uleb128 0x2
 9679 1fe1 91       		.byte	0x91
 9680 1fe2 6B       		.sleb128 -21
 9681 1fe3 00       		.byte	0
 9682 1fe4 2A       		.uleb128 0x2a
 9683 1fe5 4C000000 		.4byte	.LVL529
 9684 1fe9 173F0000 		.4byte	0x3f17
 9685 1fed 00       		.byte	0
 9686 1fee 23       		.uleb128 0x23
 9687 1fef 4F010000 		.4byte	.LASF372
 9688 1ff3 01       		.byte	0x1
 9689 1ff4 4003     		.2byte	0x340
 9690 1ff6 AF010000 		.4byte	0x1af
ARM GAS  /var/folders/d2/nstgp4h54kz7g1l847x_b8wc0000gn/T//cc2apEbl.s 			page 171


 9691 1ffa 00000000 		.4byte	.LFB18
 9692 1ffe 24020000 		.4byte	.LFE18-.LFB18
 9693 2002 01       		.uleb128 0x1
 9694 2003 9C       		.byte	0x9c
 9695 2004 32250000 		.4byte	0x2532
 9696 2008 24       		.uleb128 0x24
 9697 2009 44657600 		.ascii	"Dev\000"
 9698 200d 01       		.byte	0x1
 9699 200e 4003     		.2byte	0x340
 9700 2010 690F0000 		.4byte	0xf69
 9701 2014 08210000 		.4byte	.LLST107
 9702 2018 25       		.uleb128 0x25
 9703 2019 38160000 		.4byte	.LASF369
 9704 201d 01       		.byte	0x1
 9705 201e 4103     		.2byte	0x341
 9706 2020 A9060000 		.4byte	0x6a9
 9707 2024 F5210000 		.4byte	.LLST108
 9708 2028 25       		.uleb128 0x25
 9709 2029 24110000 		.4byte	.LASF373
 9710 202d 01       		.byte	0x1
 9711 202e 4103     		.2byte	0x341
 9712 2030 C3000000 		.4byte	0xc3
 9713 2034 C5220000 		.4byte	.LLST109
 9714 2038 26       		.uleb128 0x26
 9715 2039 C1020000 		.4byte	.LASF248
 9716 203d 01       		.byte	0x1
 9717 203e 4303     		.2byte	0x343
 9718 2040 AF010000 		.4byte	0x1af
 9719 2044 E6220000 		.4byte	.LLST110
 9720 2048 2D       		.uleb128 0x2d
 9721 2049 BE070000 		.4byte	.LASF371
 9722 204d 01       		.byte	0x1
 9723 204e 4403     		.2byte	0x344
 9724 2050 C3000000 		.4byte	0xc3
 9725 2054 37       		.uleb128 0x37
 9726 2055 D9160000 		.4byte	.LASF374
 9727 2059 01       		.byte	0x1
 9728 205a 4503     		.2byte	0x345
 9729 205c C3000000 		.4byte	0xc3
 9730 2060 0C       		.byte	0xc
 9731 2061 37       		.uleb128 0x37
 9732 2062 EC0E0000 		.4byte	.LASF375
 9733 2066 01       		.byte	0x1
 9734 2067 4603     		.2byte	0x346
 9735 2069 C3000000 		.4byte	0xc3
 9736 206d 12       		.byte	0x12
 9737 206e 37       		.uleb128 0x37
 9738 206f 28070000 		.4byte	.LASF376
 9739 2073 01       		.byte	0x1
 9740 2074 4703     		.2byte	0x347
 9741 2076 C3000000 		.4byte	0xc3
 9742 207a 08       		.byte	0x8
 9743 207b 37       		.uleb128 0x37
 9744 207c B5160000 		.4byte	.LASF377
 9745 2080 01       		.byte	0x1
 9746 2081 4803     		.2byte	0x348
 9747 2083 C3000000 		.4byte	0xc3
ARM GAS  /var/folders/d2/nstgp4h54kz7g1l847x_b8wc0000gn/T//cc2apEbl.s 			page 172


 9748 2087 0E       		.byte	0xe
 9749 2088 26       		.uleb128 0x26
 9750 2089 C40C0000 		.4byte	.LASF41
 9751 208d 01       		.byte	0x1
 9752 208e 4903     		.2byte	0x349
 9753 2090 EF000000 		.4byte	0xef
 9754 2094 35240000 		.4byte	.LLST111
 9755 2098 27       		.uleb128 0x27
 9756 2099 71030000 		.4byte	.LASF354
 9757 209d 01       		.byte	0x1
 9758 209e 4A03     		.2byte	0x34a
 9759 20a0 EF000000 		.4byte	0xef
 9760 20a4 02       		.uleb128 0x2
 9761 20a5 91       		.byte	0x91
 9762 20a6 58       		.sleb128 -40
 9763 20a7 27       		.uleb128 0x27
 9764 20a8 C1150000 		.4byte	.LASF363
 9765 20ac 01       		.byte	0x1
 9766 20ad 4B03     		.2byte	0x34b
 9767 20af EF000000 		.4byte	0xef
 9768 20b3 02       		.uleb128 0x2
 9769 20b4 91       		.byte	0x91
 9770 20b5 5C       		.sleb128 -36
 9771 20b6 27       		.uleb128 0x27
 9772 20b7 F8120000 		.4byte	.LASF378
 9773 20bb 01       		.byte	0x1
 9774 20bc 4C03     		.2byte	0x34c
 9775 20be EF000000 		.4byte	0xef
 9776 20c2 02       		.uleb128 0x2
 9777 20c3 91       		.byte	0x91
 9778 20c4 60       		.sleb128 -32
 9779 20c5 27       		.uleb128 0x27
 9780 20c6 BA1B0000 		.4byte	.LASF379
 9781 20ca 01       		.byte	0x1
 9782 20cb 4D03     		.2byte	0x34d
 9783 20cd C3000000 		.4byte	0xc3
 9784 20d1 02       		.uleb128 0x2
 9785 20d2 91       		.byte	0x91
 9786 20d3 57       		.sleb128 -41
 9787 20d4 2E       		.uleb128 0x2e
 9788 20d5 62350000 		.4byte	0x3562
 9789 20d9 36000000 		.4byte	.LBB188
 9790 20dd 80010000 		.4byte	.Ldebug_ranges0+0x180
 9791 20e1 01       		.byte	0x1
 9792 20e2 DE03     		.2byte	0x3de
 9793 20e4 FD200000 		.4byte	0x20fd
 9794 20e8 2F       		.uleb128 0x2f
 9795 20e9 72350000 		.4byte	0x3572
 9796 20ed 49240000 		.4byte	.LLST112
 9797 20f1 30       		.uleb128 0x30
 9798 20f2 80010000 		.4byte	.Ldebug_ranges0+0x180
 9799 20f6 31       		.uleb128 0x31
 9800 20f7 4F3A0000 		.4byte	0x3a4f
 9801 20fb 00       		.byte	0
 9802 20fc 00       		.byte	0
 9803 20fd 35       		.uleb128 0x35
 9804 20fe 32250000 		.4byte	0x2532
ARM GAS  /var/folders/d2/nstgp4h54kz7g1l847x_b8wc0000gn/T//cc2apEbl.s 			page 173


 9805 2102 F4000000 		.4byte	.LBB196
 9806 2106 0A000000 		.4byte	.LBE196-.LBB196
 9807 210a 01       		.byte	0x1
 9808 210b FC03     		.2byte	0x3fc
 9809 210d 79210000 		.4byte	0x2179
 9810 2111 2F       		.uleb128 0x2f
 9811 2112 5B250000 		.4byte	0x255b
 9812 2116 67240000 		.4byte	.LLST113
 9813 211a 2F       		.uleb128 0x2f
 9814 211b 4F250000 		.4byte	0x254f
 9815 211f 7B240000 		.4byte	.LLST114
 9816 2123 2F       		.uleb128 0x2f
 9817 2124 43250000 		.4byte	0x2543
 9818 2128 8F240000 		.4byte	.LLST115
 9819 212c 36       		.uleb128 0x36
 9820 212d F4000000 		.4byte	.LBB197
 9821 2131 0A000000 		.4byte	.LBE197-.LBB197
 9822 2135 31       		.uleb128 0x31
 9823 2136 AA3C0000 		.4byte	0x3caa
 9824 213a 31       		.uleb128 0x31
 9825 213b B33C0000 		.4byte	0x3cb3
 9826 213f 31       		.uleb128 0x31
 9827 2140 BB3C0000 		.4byte	0x3cbb
 9828 2144 31       		.uleb128 0x31
 9829 2145 C43C0000 		.4byte	0x3cc4
 9830 2149 31       		.uleb128 0x31
 9831 214a C93C0000 		.4byte	0x3cc9
 9832 214e 31       		.uleb128 0x31
 9833 214f CE3C0000 		.4byte	0x3cce
 9834 2153 31       		.uleb128 0x31
 9835 2154 D73C0000 		.4byte	0x3cd7
 9836 2158 31       		.uleb128 0x31
 9837 2159 DC3C0000 		.4byte	0x3cdc
 9838 215d 31       		.uleb128 0x31
 9839 215e E13C0000 		.4byte	0x3ce1
 9840 2162 32       		.uleb128 0x32
 9841 2163 FE000000 		.4byte	.LVL464
 9842 2167 06370000 		.4byte	0x3706
 9843 216b 29       		.uleb128 0x29
 9844 216c 01       		.uleb128 0x1
 9845 216d 50       		.byte	0x50
 9846 216e 02       		.uleb128 0x2
 9847 216f 75       		.byte	0x75
 9848 2170 00       		.sleb128 0
 9849 2171 29       		.uleb128 0x29
 9850 2172 01       		.uleb128 0x1
 9851 2173 51       		.byte	0x51
 9852 2174 01       		.uleb128 0x1
 9853 2175 33       		.byte	0x33
 9854 2176 00       		.byte	0
 9855 2177 00       		.byte	0
 9856 2178 00       		.byte	0
 9857 2179 35       		.uleb128 0x35
 9858 217a 32250000 		.4byte	0x2532
 9859 217e 1C010000 		.4byte	.LBB198
 9860 2182 0C000000 		.4byte	.LBE198-.LBB198
 9861 2186 01       		.byte	0x1
ARM GAS  /var/folders/d2/nstgp4h54kz7g1l847x_b8wc0000gn/T//cc2apEbl.s 			page 174


 9862 2187 1704     		.2byte	0x417
 9863 2189 F5210000 		.4byte	0x21f5
 9864 218d 2F       		.uleb128 0x2f
 9865 218e 5B250000 		.4byte	0x255b
 9866 2192 A2240000 		.4byte	.LLST116
 9867 2196 2F       		.uleb128 0x2f
 9868 2197 4F250000 		.4byte	0x254f
 9869 219b B6240000 		.4byte	.LLST117
 9870 219f 2F       		.uleb128 0x2f
 9871 21a0 43250000 		.4byte	0x2543
 9872 21a4 CA240000 		.4byte	.LLST118
 9873 21a8 36       		.uleb128 0x36
 9874 21a9 1C010000 		.4byte	.LBB199
 9875 21ad 0C000000 		.4byte	.LBE199-.LBB199
 9876 21b1 31       		.uleb128 0x31
 9877 21b2 AA3C0000 		.4byte	0x3caa
 9878 21b6 31       		.uleb128 0x31
 9879 21b7 B33C0000 		.4byte	0x3cb3
 9880 21bb 31       		.uleb128 0x31
 9881 21bc BB3C0000 		.4byte	0x3cbb
 9882 21c0 31       		.uleb128 0x31
 9883 21c1 C43C0000 		.4byte	0x3cc4
 9884 21c5 31       		.uleb128 0x31
 9885 21c6 C93C0000 		.4byte	0x3cc9
 9886 21ca 31       		.uleb128 0x31
 9887 21cb CE3C0000 		.4byte	0x3cce
 9888 21cf 31       		.uleb128 0x31
 9889 21d0 D73C0000 		.4byte	0x3cd7
 9890 21d4 31       		.uleb128 0x31
 9891 21d5 DC3C0000 		.4byte	0x3cdc
 9892 21d9 31       		.uleb128 0x31
 9893 21da E13C0000 		.4byte	0x3ce1
 9894 21de 32       		.uleb128 0x32
 9895 21df 26010000 		.4byte	.LVL471
 9896 21e3 06370000 		.4byte	0x3706
 9897 21e7 29       		.uleb128 0x29
 9898 21e8 01       		.uleb128 0x1
 9899 21e9 50       		.byte	0x50
 9900 21ea 02       		.uleb128 0x2
 9901 21eb 75       		.byte	0x75
 9902 21ec 00       		.sleb128 0
 9903 21ed 29       		.uleb128 0x29
 9904 21ee 01       		.uleb128 0x1
 9905 21ef 51       		.byte	0x51
 9906 21f0 01       		.uleb128 0x1
 9907 21f1 34       		.byte	0x34
 9908 21f2 00       		.byte	0
 9909 21f3 00       		.byte	0
 9910 21f4 00       		.byte	0
 9911 21f5 28       		.uleb128 0x28
 9912 21f6 46000000 		.4byte	.LVL439
 9913 21fa D4250000 		.4byte	0x25d4
 9914 21fe 14220000 		.4byte	0x2214
 9915 2202 29       		.uleb128 0x29
 9916 2203 01       		.uleb128 0x1
 9917 2204 50       		.byte	0x50
 9918 2205 02       		.uleb128 0x2
ARM GAS  /var/folders/d2/nstgp4h54kz7g1l847x_b8wc0000gn/T//cc2apEbl.s 			page 175


 9919 2206 75       		.byte	0x75
 9920 2207 00       		.sleb128 0
 9921 2208 29       		.uleb128 0x29
 9922 2209 01       		.uleb128 0x1
 9923 220a 51       		.byte	0x51
 9924 220b 01       		.uleb128 0x1
 9925 220c 33       		.byte	0x33
 9926 220d 29       		.uleb128 0x29
 9927 220e 01       		.uleb128 0x1
 9928 220f 52       		.byte	0x52
 9929 2210 02       		.uleb128 0x2
 9930 2211 91       		.byte	0x91
 9931 2212 5C       		.sleb128 -36
 9932 2213 00       		.byte	0
 9933 2214 28       		.uleb128 0x28
 9934 2215 58000000 		.4byte	.LVL442
 9935 2219 423F0000 		.4byte	0x3f42
 9936 221d 28220000 		.4byte	0x2228
 9937 2221 29       		.uleb128 0x29
 9938 2222 01       		.uleb128 0x1
 9939 2223 50       		.byte	0x50
 9940 2224 02       		.uleb128 0x2
 9941 2225 75       		.byte	0x75
 9942 2226 00       		.sleb128 0
 9943 2227 00       		.byte	0
 9944 2228 28       		.uleb128 0x28
 9945 2229 68000000 		.4byte	.LVL444
 9946 222d 4E3F0000 		.4byte	0x3f4e
 9947 2231 47220000 		.4byte	0x2247
 9948 2235 29       		.uleb128 0x29
 9949 2236 01       		.uleb128 0x1
 9950 2237 50       		.byte	0x50
 9951 2238 02       		.uleb128 0x2
 9952 2239 75       		.byte	0x75
 9953 223a 00       		.sleb128 0
 9954 223b 29       		.uleb128 0x29
 9955 223c 01       		.uleb128 0x1
 9956 223d 51       		.byte	0x51
 9957 223e 02       		.uleb128 0x2
 9958 223f 91       		.byte	0x91
 9959 2240 57       		.sleb128 -41
 9960 2241 29       		.uleb128 0x29
 9961 2242 01       		.uleb128 0x1
 9962 2243 53       		.byte	0x53
 9963 2244 01       		.uleb128 0x1
 9964 2245 31       		.byte	0x31
 9965 2246 00       		.byte	0
 9966 2247 28       		.uleb128 0x28
 9967 2248 AA000000 		.4byte	.LVL448
 9968 224c D4250000 		.4byte	0x25d4
 9969 2250 66220000 		.4byte	0x2266
 9970 2254 29       		.uleb128 0x29
 9971 2255 01       		.uleb128 0x1
 9972 2256 50       		.byte	0x50
 9973 2257 02       		.uleb128 0x2
 9974 2258 75       		.byte	0x75
 9975 2259 00       		.sleb128 0
ARM GAS  /var/folders/d2/nstgp4h54kz7g1l847x_b8wc0000gn/T//cc2apEbl.s 			page 176


 9976 225a 29       		.uleb128 0x29
 9977 225b 01       		.uleb128 0x1
 9978 225c 51       		.byte	0x51
 9979 225d 01       		.uleb128 0x1
 9980 225e 34       		.byte	0x34
 9981 225f 29       		.uleb128 0x29
 9982 2260 01       		.uleb128 0x1
 9983 2261 52       		.byte	0x52
 9984 2262 02       		.uleb128 0x2
 9985 2263 91       		.byte	0x91
 9986 2264 58       		.sleb128 -40
 9987 2265 00       		.byte	0
 9988 2266 28       		.uleb128 0x28
 9989 2267 C0000000 		.4byte	.LVL454
 9990 226b 013F0000 		.4byte	0x3f01
 9991 226f 7A220000 		.4byte	0x227a
 9992 2273 29       		.uleb128 0x29
 9993 2274 01       		.uleb128 0x1
 9994 2275 51       		.byte	0x51
 9995 2276 02       		.uleb128 0x2
 9996 2277 08       		.byte	0x8
 9997 2278 57       		.byte	0x57
 9998 2279 00       		.byte	0
 9999 227a 28       		.uleb128 0x28
 10000 227b CA000000 		.4byte	.LVL455
 10001 227f 013F0000 		.4byte	0x3f01
 10002 2283 99220000 		.4byte	0x2299
 10003 2287 29       		.uleb128 0x29
 10004 2288 01       		.uleb128 0x1
 10005 2289 50       		.byte	0x50
 10006 228a 02       		.uleb128 0x2
 10007 228b 75       		.byte	0x75
 10008 228c 00       		.sleb128 0
 10009 228d 29       		.uleb128 0x29
 10010 228e 01       		.uleb128 0x1
 10011 228f 51       		.byte	0x51
 10012 2290 02       		.uleb128 0x2
 10013 2291 08       		.byte	0x8
 10014 2292 56       		.byte	0x56
 10015 2293 29       		.uleb128 0x29
 10016 2294 01       		.uleb128 0x1
 10017 2295 52       		.byte	0x52
 10018 2296 01       		.uleb128 0x1
 10019 2297 38       		.byte	0x38
 10020 2298 00       		.byte	0
 10021 2299 28       		.uleb128 0x28
 10022 229a E2000000 		.4byte	.LVL459
 10023 229e D4250000 		.4byte	0x25d4
 10024 22a2 B8220000 		.4byte	0x22b8
 10025 22a6 29       		.uleb128 0x29
 10026 22a7 01       		.uleb128 0x1
 10027 22a8 50       		.byte	0x50
 10028 22a9 02       		.uleb128 0x2
 10029 22aa 75       		.byte	0x75
 10030 22ab 00       		.sleb128 0
 10031 22ac 29       		.uleb128 0x29
 10032 22ad 01       		.uleb128 0x1
ARM GAS  /var/folders/d2/nstgp4h54kz7g1l847x_b8wc0000gn/T//cc2apEbl.s 			page 177


 10033 22ae 51       		.byte	0x51
 10034 22af 01       		.uleb128 0x1
 10035 22b0 32       		.byte	0x32
 10036 22b1 29       		.uleb128 0x29
 10037 22b2 01       		.uleb128 0x1
 10038 22b3 52       		.byte	0x52
 10039 22b4 02       		.uleb128 0x2
 10040 22b5 91       		.byte	0x91
 10041 22b6 60       		.sleb128 -32
 10042 22b7 00       		.byte	0
 10043 22b8 28       		.uleb128 0x28
 10044 22b9 F0000000 		.4byte	.LVL461
 10045 22bd 013F0000 		.4byte	0x3f01
 10046 22c1 D8220000 		.4byte	0x22d8
 10047 22c5 29       		.uleb128 0x29
 10048 22c6 01       		.uleb128 0x1
 10049 22c7 50       		.byte	0x50
 10050 22c8 02       		.uleb128 0x2
 10051 22c9 75       		.byte	0x75
 10052 22ca 00       		.sleb128 0
 10053 22cb 29       		.uleb128 0x29
 10054 22cc 01       		.uleb128 0x1
 10055 22cd 51       		.byte	0x51
 10056 22ce 02       		.uleb128 0x2
 10057 22cf 08       		.byte	0x8
 10058 22d0 50       		.byte	0x50
 10059 22d1 29       		.uleb128 0x29
 10060 22d2 01       		.uleb128 0x1
 10061 22d3 52       		.byte	0x52
 10062 22d4 02       		.uleb128 0x2
 10063 22d5 74       		.byte	0x74
 10064 22d6 00       		.sleb128 0
 10065 22d7 00       		.byte	0
 10066 22d8 28       		.uleb128 0x28
 10067 22d9 0C010000 		.4byte	.LVL466
 10068 22dd 32250000 		.4byte	0x2532
 10069 22e1 F1220000 		.4byte	0x22f1
 10070 22e5 29       		.uleb128 0x29
 10071 22e6 01       		.uleb128 0x1
 10072 22e7 50       		.byte	0x50
 10073 22e8 02       		.uleb128 0x2
 10074 22e9 75       		.byte	0x75
 10075 22ea 00       		.sleb128 0
 10076 22eb 29       		.uleb128 0x29
 10077 22ec 01       		.uleb128 0x1
 10078 22ed 51       		.byte	0x51
 10079 22ee 01       		.uleb128 0x1
 10080 22ef 32       		.byte	0x32
 10081 22f0 00       		.byte	0
 10082 22f1 28       		.uleb128 0x28
 10083 22f2 18010000 		.4byte	.LVL468
 10084 22f6 013F0000 		.4byte	0x3f01
 10085 22fa 11230000 		.4byte	0x2311
 10086 22fe 29       		.uleb128 0x29
 10087 22ff 01       		.uleb128 0x1
 10088 2300 50       		.byte	0x50
 10089 2301 02       		.uleb128 0x2
ARM GAS  /var/folders/d2/nstgp4h54kz7g1l847x_b8wc0000gn/T//cc2apEbl.s 			page 178


 10090 2302 75       		.byte	0x75
 10091 2303 00       		.sleb128 0
 10092 2304 29       		.uleb128 0x29
 10093 2305 01       		.uleb128 0x1
 10094 2306 51       		.byte	0x51
 10095 2307 02       		.uleb128 0x2
 10096 2308 08       		.byte	0x8
 10097 2309 70       		.byte	0x70
 10098 230a 29       		.uleb128 0x29
 10099 230b 01       		.uleb128 0x1
 10100 230c 52       		.byte	0x52
 10101 230d 02       		.uleb128 0x2
 10102 230e 74       		.byte	0x74
 10103 230f 00       		.sleb128 0
 10104 2310 00       		.byte	0
 10105 2311 28       		.uleb128 0x28
 10106 2312 36010000 		.4byte	.LVL474
 10107 2316 013F0000 		.4byte	0x3f01
 10108 231a 2A230000 		.4byte	0x232a
 10109 231e 29       		.uleb128 0x29
 10110 231f 01       		.uleb128 0x1
 10111 2320 51       		.byte	0x51
 10112 2321 02       		.uleb128 0x2
 10113 2322 08       		.byte	0x8
 10114 2323 48       		.byte	0x48
 10115 2324 29       		.uleb128 0x29
 10116 2325 01       		.uleb128 0x1
 10117 2326 52       		.byte	0x52
 10118 2327 01       		.uleb128 0x1
 10119 2328 40       		.byte	0x40
 10120 2329 00       		.byte	0
 10121 232a 28       		.uleb128 0x28
 10122 232b 40010000 		.4byte	.LVL475
 10123 232f 013F0000 		.4byte	0x3f01
 10124 2333 4A230000 		.4byte	0x234a
 10125 2337 29       		.uleb128 0x29
 10126 2338 01       		.uleb128 0x1
 10127 2339 50       		.byte	0x50
 10128 233a 02       		.uleb128 0x2
 10129 233b 75       		.byte	0x75
 10130 233c 00       		.sleb128 0
 10131 233d 29       		.uleb128 0x29
 10132 233e 01       		.uleb128 0x1
 10133 233f 51       		.byte	0x51
 10134 2340 02       		.uleb128 0x2
 10135 2341 08       		.byte	0x8
 10136 2342 47       		.byte	0x47
 10137 2343 29       		.uleb128 0x29
 10138 2344 01       		.uleb128 0x1
 10139 2345 52       		.byte	0x52
 10140 2346 02       		.uleb128 0x2
 10141 2347 77       		.byte	0x77
 10142 2348 00       		.sleb128 0
 10143 2349 00       		.byte	0
 10144 234a 28       		.uleb128 0x28
 10145 234b 4C010000 		.4byte	.LVL477
 10146 234f 013F0000 		.4byte	0x3f01
ARM GAS  /var/folders/d2/nstgp4h54kz7g1l847x_b8wc0000gn/T//cc2apEbl.s 			page 179


 10147 2353 69230000 		.4byte	0x2369
 10148 2357 29       		.uleb128 0x29
 10149 2358 01       		.uleb128 0x1
 10150 2359 50       		.byte	0x50
 10151 235a 02       		.uleb128 0x2
 10152 235b 75       		.byte	0x75
 10153 235c 00       		.sleb128 0
 10154 235d 29       		.uleb128 0x29
 10155 235e 01       		.uleb128 0x1
 10156 235f 51       		.byte	0x51
 10157 2360 02       		.uleb128 0x2
 10158 2361 08       		.byte	0x8
 10159 2362 32       		.byte	0x32
 10160 2363 29       		.uleb128 0x29
 10161 2364 01       		.uleb128 0x1
 10162 2365 52       		.byte	0x52
 10163 2366 01       		.uleb128 0x1
 10164 2367 32       		.byte	0x32
 10165 2368 00       		.byte	0
 10166 2369 28       		.uleb128 0x28
 10167 236a 58010000 		.4byte	.LVL479
 10168 236e 013F0000 		.4byte	0x3f01
 10169 2372 88230000 		.4byte	0x2388
 10170 2376 29       		.uleb128 0x29
 10171 2377 01       		.uleb128 0x1
 10172 2378 50       		.byte	0x50
 10173 2379 02       		.uleb128 0x2
 10174 237a 75       		.byte	0x75
 10175 237b 00       		.sleb128 0
 10176 237c 29       		.uleb128 0x29
 10177 237d 01       		.uleb128 0x1
 10178 237e 51       		.byte	0x51
 10179 237f 02       		.uleb128 0x2
 10180 2380 08       		.byte	0x8
 10181 2381 30       		.byte	0x30
 10182 2382 29       		.uleb128 0x29
 10183 2383 01       		.uleb128 0x1
 10184 2384 52       		.byte	0x52
 10185 2385 01       		.uleb128 0x1
 10186 2386 3C       		.byte	0x3c
 10187 2387 00       		.byte	0
 10188 2388 28       		.uleb128 0x28
 10189 2389 68010000 		.4byte	.LVL482
 10190 238d 013F0000 		.4byte	0x3f01
 10191 2391 AA230000 		.4byte	0x23aa
 10192 2395 29       		.uleb128 0x29
 10193 2396 01       		.uleb128 0x1
 10194 2397 50       		.byte	0x50
 10195 2398 02       		.uleb128 0x2
 10196 2399 75       		.byte	0x75
 10197 239a 00       		.sleb128 0
 10198 239b 29       		.uleb128 0x29
 10199 239c 01       		.uleb128 0x1
 10200 239d 51       		.byte	0x51
 10201 239e 02       		.uleb128 0x2
 10202 239f 09       		.byte	0x9
 10203 23a0 FF       		.byte	0xff
ARM GAS  /var/folders/d2/nstgp4h54kz7g1l847x_b8wc0000gn/T//cc2apEbl.s 			page 180


 10204 23a1 29       		.uleb128 0x29
 10205 23a2 01       		.uleb128 0x1
 10206 23a3 52       		.byte	0x52
 10207 23a4 04       		.uleb128 0x4
 10208 23a5 91       		.byte	0x91
 10209 23a6 4C       		.sleb128 -52
 10210 23a7 94       		.byte	0x94
 10211 23a8 01       		.byte	0x1
 10212 23a9 00       		.byte	0
 10213 23aa 28       		.uleb128 0x28
 10214 23ab 76010000 		.4byte	.LVL485
 10215 23af 013F0000 		.4byte	0x3f01
 10216 23b3 C4230000 		.4byte	0x23c4
 10217 23b7 29       		.uleb128 0x29
 10218 23b8 01       		.uleb128 0x1
 10219 23b9 50       		.byte	0x50
 10220 23ba 02       		.uleb128 0x2
 10221 23bb 75       		.byte	0x75
 10222 23bc 00       		.sleb128 0
 10223 23bd 29       		.uleb128 0x29
 10224 23be 01       		.uleb128 0x1
 10225 23bf 51       		.byte	0x51
 10226 23c0 02       		.uleb128 0x2
 10227 23c1 08       		.byte	0x8
 10228 23c2 30       		.byte	0x30
 10229 23c3 00       		.byte	0
 10230 23c4 28       		.uleb128 0x28
 10231 23c5 84010000 		.4byte	.LVL488
 10232 23c9 013F0000 		.4byte	0x3f01
 10233 23cd E4230000 		.4byte	0x23e4
 10234 23d1 29       		.uleb128 0x29
 10235 23d2 01       		.uleb128 0x1
 10236 23d3 50       		.byte	0x50
 10237 23d4 02       		.uleb128 0x2
 10238 23d5 75       		.byte	0x75
 10239 23d6 00       		.sleb128 0
 10240 23d7 29       		.uleb128 0x29
 10241 23d8 01       		.uleb128 0x1
 10242 23d9 51       		.byte	0x51
 10243 23da 02       		.uleb128 0x2
 10244 23db 09       		.byte	0x9
 10245 23dc FF       		.byte	0xff
 10246 23dd 29       		.uleb128 0x29
 10247 23de 01       		.uleb128 0x1
 10248 23df 52       		.byte	0x52
 10249 23e0 02       		.uleb128 0x2
 10250 23e1 78       		.byte	0x78
 10251 23e2 00       		.sleb128 0
 10252 23e3 00       		.byte	0
 10253 23e4 28       		.uleb128 0x28
 10254 23e5 9C010000 		.4byte	.LVL493
 10255 23e9 013F0000 		.4byte	0x3f01
 10256 23ed FE230000 		.4byte	0x23fe
 10257 23f1 29       		.uleb128 0x29
 10258 23f2 01       		.uleb128 0x1
 10259 23f3 51       		.byte	0x51
 10260 23f4 02       		.uleb128 0x2
ARM GAS  /var/folders/d2/nstgp4h54kz7g1l847x_b8wc0000gn/T//cc2apEbl.s 			page 181


 10261 23f5 08       		.byte	0x8
 10262 23f6 48       		.byte	0x48
 10263 23f7 29       		.uleb128 0x29
 10264 23f8 01       		.uleb128 0x1
 10265 23f9 52       		.byte	0x52
 10266 23fa 02       		.uleb128 0x2
 10267 23fb 08       		.byte	0x8
 10268 23fc 28       		.byte	0x28
 10269 23fd 00       		.byte	0
 10270 23fe 28       		.uleb128 0x28
 10271 23ff A6010000 		.4byte	.LVL494
 10272 2403 013F0000 		.4byte	0x3f01
 10273 2407 1D240000 		.4byte	0x241d
 10274 240b 29       		.uleb128 0x29
 10275 240c 01       		.uleb128 0x1
 10276 240d 50       		.byte	0x50
 10277 240e 02       		.uleb128 0x2
 10278 240f 75       		.byte	0x75
 10279 2410 00       		.sleb128 0
 10280 2411 29       		.uleb128 0x29
 10281 2412 01       		.uleb128 0x1
 10282 2413 51       		.byte	0x51
 10283 2414 02       		.uleb128 0x2
 10284 2415 08       		.byte	0x8
 10285 2416 47       		.byte	0x47
 10286 2417 29       		.uleb128 0x29
 10287 2418 01       		.uleb128 0x1
 10288 2419 52       		.byte	0x52
 10289 241a 01       		.uleb128 0x1
 10290 241b 38       		.byte	0x38
 10291 241c 00       		.byte	0
 10292 241d 28       		.uleb128 0x28
 10293 241e B2010000 		.4byte	.LVL496
 10294 2422 013F0000 		.4byte	0x3f01
 10295 2426 3C240000 		.4byte	0x243c
 10296 242a 29       		.uleb128 0x29
 10297 242b 01       		.uleb128 0x1
 10298 242c 50       		.byte	0x50
 10299 242d 02       		.uleb128 0x2
 10300 242e 75       		.byte	0x75
 10301 242f 00       		.sleb128 0
 10302 2430 29       		.uleb128 0x29
 10303 2431 01       		.uleb128 0x1
 10304 2432 51       		.byte	0x51
 10305 2433 02       		.uleb128 0x2
 10306 2434 08       		.byte	0x8
 10307 2435 32       		.byte	0x32
 10308 2436 29       		.uleb128 0x29
 10309 2437 01       		.uleb128 0x1
 10310 2438 52       		.byte	0x52
 10311 2439 01       		.uleb128 0x1
 10312 243a 33       		.byte	0x33
 10313 243b 00       		.byte	0
 10314 243c 28       		.uleb128 0x28
 10315 243d BE010000 		.4byte	.LVL498
 10316 2441 013F0000 		.4byte	0x3f01
 10317 2445 56240000 		.4byte	0x2456
ARM GAS  /var/folders/d2/nstgp4h54kz7g1l847x_b8wc0000gn/T//cc2apEbl.s 			page 182


 10318 2449 29       		.uleb128 0x29
 10319 244a 01       		.uleb128 0x1
 10320 244b 50       		.byte	0x50
 10321 244c 02       		.uleb128 0x2
 10322 244d 75       		.byte	0x75
 10323 244e 00       		.sleb128 0
 10324 244f 29       		.uleb128 0x29
 10325 2450 01       		.uleb128 0x1
 10326 2451 51       		.byte	0x51
 10327 2452 02       		.uleb128 0x2
 10328 2453 08       		.byte	0x8
 10329 2454 30       		.byte	0x30
 10330 2455 00       		.byte	0
 10331 2456 28       		.uleb128 0x28
 10332 2457 CE010000 		.4byte	.LVL501
 10333 245b 013F0000 		.4byte	0x3f01
 10334 245f 78240000 		.4byte	0x2478
 10335 2463 29       		.uleb128 0x29
 10336 2464 01       		.uleb128 0x1
 10337 2465 50       		.byte	0x50
 10338 2466 02       		.uleb128 0x2
 10339 2467 75       		.byte	0x75
 10340 2468 00       		.sleb128 0
 10341 2469 29       		.uleb128 0x29
 10342 246a 01       		.uleb128 0x1
 10343 246b 51       		.byte	0x51
 10344 246c 02       		.uleb128 0x2
 10345 246d 09       		.byte	0x9
 10346 246e FF       		.byte	0xff
 10347 246f 29       		.uleb128 0x29
 10348 2470 01       		.uleb128 0x1
 10349 2471 52       		.byte	0x52
 10350 2472 04       		.uleb128 0x4
 10351 2473 91       		.byte	0x91
 10352 2474 4C       		.sleb128 -52
 10353 2475 94       		.byte	0x94
 10354 2476 01       		.byte	0x1
 10355 2477 00       		.byte	0
 10356 2478 28       		.uleb128 0x28
 10357 2479 DE010000 		.4byte	.LVL505
 10358 247d 013F0000 		.4byte	0x3f01
 10359 2481 92240000 		.4byte	0x2492
 10360 2485 29       		.uleb128 0x29
 10361 2486 01       		.uleb128 0x1
 10362 2487 51       		.byte	0x51
 10363 2488 02       		.uleb128 0x2
 10364 2489 08       		.byte	0x8
 10365 248a 48       		.byte	0x48
 10366 248b 29       		.uleb128 0x29
 10367 248c 01       		.uleb128 0x1
 10368 248d 52       		.byte	0x52
 10369 248e 02       		.uleb128 0x2
 10370 248f 08       		.byte	0x8
 10371 2490 38       		.byte	0x38
 10372 2491 00       		.byte	0
 10373 2492 28       		.uleb128 0x28
 10374 2493 E8010000 		.4byte	.LVL506
ARM GAS  /var/folders/d2/nstgp4h54kz7g1l847x_b8wc0000gn/T//cc2apEbl.s 			page 183


 10375 2497 013F0000 		.4byte	0x3f01
 10376 249b B1240000 		.4byte	0x24b1
 10377 249f 29       		.uleb128 0x29
 10378 24a0 01       		.uleb128 0x1
 10379 24a1 50       		.byte	0x50
 10380 24a2 02       		.uleb128 0x2
 10381 24a3 75       		.byte	0x75
 10382 24a4 00       		.sleb128 0
 10383 24a5 29       		.uleb128 0x29
 10384 24a6 01       		.uleb128 0x1
 10385 24a7 51       		.byte	0x51
 10386 24a8 02       		.uleb128 0x2
 10387 24a9 08       		.byte	0x8
 10388 24aa 47       		.byte	0x47
 10389 24ab 29       		.uleb128 0x29
 10390 24ac 01       		.uleb128 0x1
 10391 24ad 52       		.byte	0x52
 10392 24ae 01       		.uleb128 0x1
 10393 24af 38       		.byte	0x38
 10394 24b0 00       		.byte	0
 10395 24b1 28       		.uleb128 0x28
 10396 24b2 F4010000 		.4byte	.LVL508
 10397 24b6 013F0000 		.4byte	0x3f01
 10398 24ba D0240000 		.4byte	0x24d0
 10399 24be 29       		.uleb128 0x29
 10400 24bf 01       		.uleb128 0x1
 10401 24c0 50       		.byte	0x50
 10402 24c1 02       		.uleb128 0x2
 10403 24c2 75       		.byte	0x75
 10404 24c3 00       		.sleb128 0
 10405 24c4 29       		.uleb128 0x29
 10406 24c5 01       		.uleb128 0x1
 10407 24c6 51       		.byte	0x51
 10408 24c7 02       		.uleb128 0x2
 10409 24c8 08       		.byte	0x8
 10410 24c9 32       		.byte	0x32
 10411 24ca 29       		.uleb128 0x29
 10412 24cb 01       		.uleb128 0x1
 10413 24cc 52       		.byte	0x52
 10414 24cd 01       		.uleb128 0x1
 10415 24ce 33       		.byte	0x33
 10416 24cf 00       		.byte	0
 10417 24d0 28       		.uleb128 0x28
 10418 24d1 02020000 		.4byte	.LVL511
 10419 24d5 013F0000 		.4byte	0x3f01
 10420 24d9 EA240000 		.4byte	0x24ea
 10421 24dd 29       		.uleb128 0x29
 10422 24de 01       		.uleb128 0x1
 10423 24df 51       		.byte	0x51
 10424 24e0 02       		.uleb128 0x2
 10425 24e1 08       		.byte	0x8
 10426 24e2 48       		.byte	0x48
 10427 24e3 29       		.uleb128 0x29
 10428 24e4 01       		.uleb128 0x1
 10429 24e5 52       		.byte	0x52
 10430 24e6 02       		.uleb128 0x2
 10431 24e7 08       		.byte	0x8
ARM GAS  /var/folders/d2/nstgp4h54kz7g1l847x_b8wc0000gn/T//cc2apEbl.s 			page 184


 10432 24e8 48       		.byte	0x48
 10433 24e9 00       		.byte	0
 10434 24ea 28       		.uleb128 0x28
 10435 24eb 0C020000 		.4byte	.LVL512
 10436 24ef 013F0000 		.4byte	0x3f01
 10437 24f3 09250000 		.4byte	0x2509
 10438 24f7 29       		.uleb128 0x29
 10439 24f8 01       		.uleb128 0x1
 10440 24f9 50       		.byte	0x50
 10441 24fa 02       		.uleb128 0x2
 10442 24fb 75       		.byte	0x75
 10443 24fc 00       		.sleb128 0
 10444 24fd 29       		.uleb128 0x29
 10445 24fe 01       		.uleb128 0x1
 10446 24ff 51       		.byte	0x51
 10447 2500 02       		.uleb128 0x2
 10448 2501 08       		.byte	0x8
 10449 2502 47       		.byte	0x47
 10450 2503 29       		.uleb128 0x29
 10451 2504 01       		.uleb128 0x1
 10452 2505 52       		.byte	0x52
 10453 2506 01       		.uleb128 0x1
 10454 2507 38       		.byte	0x38
 10455 2508 00       		.byte	0
 10456 2509 28       		.uleb128 0x28
 10457 250a 18020000 		.4byte	.LVL514
 10458 250e 013F0000 		.4byte	0x3f01
 10459 2512 28250000 		.4byte	0x2528
 10460 2516 29       		.uleb128 0x29
 10461 2517 01       		.uleb128 0x1
 10462 2518 50       		.byte	0x50
 10463 2519 02       		.uleb128 0x2
 10464 251a 75       		.byte	0x75
 10465 251b 00       		.sleb128 0
 10466 251c 29       		.uleb128 0x29
 10467 251d 01       		.uleb128 0x1
 10468 251e 51       		.byte	0x51
 10469 251f 02       		.uleb128 0x2
 10470 2520 08       		.byte	0x8
 10471 2521 32       		.byte	0x32
 10472 2522 29       		.uleb128 0x29
 10473 2523 01       		.uleb128 0x1
 10474 2524 52       		.byte	0x52
 10475 2525 01       		.uleb128 0x1
 10476 2526 33       		.byte	0x33
 10477 2527 00       		.byte	0
 10478 2528 2A       		.uleb128 0x2a
 10479 2529 20020000 		.4byte	.LVL516
 10480 252d 173F0000 		.4byte	0x3f17
 10481 2531 00       		.byte	0
 10482 2532 38       		.uleb128 0x38
 10483 2533 35010000 		.4byte	.LASF380
 10484 2537 01       		.byte	0x1
 10485 2538 B002     		.2byte	0x2b0
 10486 253a AF010000 		.4byte	0x1af
 10487 253e 01       		.byte	0x1
 10488 253f D4250000 		.4byte	0x25d4
ARM GAS  /var/folders/d2/nstgp4h54kz7g1l847x_b8wc0000gn/T//cc2apEbl.s 			page 185


 10489 2543 39       		.uleb128 0x39
 10490 2544 44657600 		.ascii	"Dev\000"
 10491 2548 01       		.byte	0x1
 10492 2549 B002     		.2byte	0x2b0
 10493 254b 690F0000 		.4byte	0xf69
 10494 254f 3A       		.uleb128 0x3a
 10495 2550 C1080000 		.4byte	.LASF381
 10496 2554 01       		.byte	0x1
 10497 2555 B102     		.2byte	0x2b1
 10498 2557 0C070000 		.4byte	0x70c
 10499 255b 3A       		.uleb128 0x3a
 10500 255c BB1E0000 		.4byte	.LASF382
 10501 2560 01       		.byte	0x1
 10502 2561 B202     		.2byte	0x2b2
 10503 2563 EF000000 		.4byte	0xef
 10504 2567 2D       		.uleb128 0x2d
 10505 2568 C1020000 		.4byte	.LASF248
 10506 256c 01       		.byte	0x1
 10507 256d B402     		.2byte	0x2b4
 10508 256f AF010000 		.4byte	0x1af
 10509 2573 2D       		.uleb128 0x2d
 10510 2574 960B0000 		.4byte	.LASF383
 10511 2578 01       		.byte	0x1
 10512 2579 B502     		.2byte	0x2b5
 10513 257b C3000000 		.4byte	0xc3
 10514 257f 2D       		.uleb128 0x2d
 10515 2580 A8090000 		.4byte	.LASF384
 10516 2584 01       		.byte	0x1
 10517 2585 B602     		.2byte	0x2b6
 10518 2587 C3000000 		.4byte	0xc3
 10519 258b 2D       		.uleb128 0x2d
 10520 258c 08000000 		.4byte	.LASF385
 10521 2590 01       		.byte	0x1
 10522 2591 B702     		.2byte	0x2b7
 10523 2593 D9000000 		.4byte	0xd9
 10524 2597 2D       		.uleb128 0x2d
 10525 2598 93140000 		.4byte	.LASF386
 10526 259c 01       		.byte	0x1
 10527 259d B802     		.2byte	0x2b8
 10528 259f D9000000 		.4byte	0xd9
 10529 25a3 2D       		.uleb128 0x2d
 10530 25a4 501D0000 		.4byte	.LASF387
 10531 25a8 01       		.byte	0x1
 10532 25a9 B902     		.2byte	0x2b9
 10533 25ab D9000000 		.4byte	0xd9
 10534 25af 2D       		.uleb128 0x2d
 10535 25b0 701E0000 		.4byte	.LASF388
 10536 25b4 01       		.byte	0x1
 10537 25b5 BA02     		.2byte	0x2ba
 10538 25b7 EF000000 		.4byte	0xef
 10539 25bb 2D       		.uleb128 0x2d
 10540 25bc 0E010000 		.4byte	.LASF389
 10541 25c0 01       		.byte	0x1
 10542 25c1 BB02     		.2byte	0x2bb
 10543 25c3 D9000000 		.4byte	0xd9
 10544 25c7 2D       		.uleb128 0x2d
 10545 25c8 EF0F0000 		.4byte	.LASF353
ARM GAS  /var/folders/d2/nstgp4h54kz7g1l847x_b8wc0000gn/T//cc2apEbl.s 			page 186


 10546 25cc 01       		.byte	0x1
 10547 25cd BC02     		.2byte	0x2bc
 10548 25cf 00070000 		.4byte	0x700
 10549 25d3 00       		.byte	0
 10550 25d4 23       		.uleb128 0x23
 10551 25d5 6B000000 		.4byte	.LASF390
 10552 25d9 01       		.byte	0x1
 10553 25da 4302     		.2byte	0x243
 10554 25dc AF010000 		.4byte	0x1af
 10555 25e0 00000000 		.4byte	.LFB16
 10556 25e4 88010000 		.4byte	.LFE16-.LFB16
 10557 25e8 01       		.uleb128 0x1
 10558 25e9 9C       		.byte	0x9c
 10559 25ea E3290000 		.4byte	0x29e3
 10560 25ee 24       		.uleb128 0x24
 10561 25ef 44657600 		.ascii	"Dev\000"
 10562 25f3 01       		.byte	0x1
 10563 25f4 4302     		.2byte	0x243
 10564 25f6 690F0000 		.4byte	0xf69
 10565 25fa DD240000 		.4byte	.LLST82
 10566 25fe 25       		.uleb128 0x25
 10567 25ff C1080000 		.4byte	.LASF381
 10568 2603 01       		.byte	0x1
 10569 2604 4402     		.2byte	0x244
 10570 2606 0C070000 		.4byte	0x70c
 10571 260a 67250000 		.4byte	.LLST83
 10572 260e 25       		.uleb128 0x25
 10573 260f FD160000 		.4byte	.LASF391
 10574 2613 01       		.byte	0x1
 10575 2614 4502     		.2byte	0x245
 10576 2616 DD170000 		.4byte	0x17dd
 10577 261a D3250000 		.4byte	.LLST84
 10578 261e 26       		.uleb128 0x26
 10579 261f C1020000 		.4byte	.LASF248
 10580 2623 01       		.byte	0x1
 10581 2624 4702     		.2byte	0x247
 10582 2626 AF010000 		.4byte	0x1af
 10583 262a 33260000 		.4byte	.LLST85
 10584 262e 27       		.uleb128 0x27
 10585 262f 960B0000 		.4byte	.LASF383
 10586 2633 01       		.byte	0x1
 10587 2634 4802     		.2byte	0x248
 10588 2636 C3000000 		.4byte	0xc3
 10589 263a 02       		.uleb128 0x2
 10590 263b 91       		.byte	0x91
 10591 263c 4E       		.sleb128 -50
 10592 263d 27       		.uleb128 0x27
 10593 263e 80140000 		.4byte	.LASF392
 10594 2642 01       		.byte	0x1
 10595 2643 4902     		.2byte	0x249
 10596 2645 C3000000 		.4byte	0xc3
 10597 2649 02       		.uleb128 0x2
 10598 264a 91       		.byte	0x91
 10599 264b 4F       		.sleb128 -49
 10600 264c 26       		.uleb128 0x26
 10601 264d 64040000 		.4byte	.LASF393
 10602 2651 01       		.byte	0x1
ARM GAS  /var/folders/d2/nstgp4h54kz7g1l847x_b8wc0000gn/T//cc2apEbl.s 			page 187


 10603 2652 4A02     		.2byte	0x24a
 10604 2654 EF000000 		.4byte	0xef
 10605 2658 E5260000 		.4byte	.LLST86
 10606 265c 27       		.uleb128 0x27
 10607 265d 08000000 		.4byte	.LASF385
 10608 2661 01       		.byte	0x1
 10609 2662 4B02     		.2byte	0x24b
 10610 2664 D9000000 		.4byte	0xd9
 10611 2668 02       		.uleb128 0x2
 10612 2669 91       		.byte	0x91
 10613 266a 50       		.sleb128 -48
 10614 266b 26       		.uleb128 0x26
 10615 266c 94100000 		.4byte	.LASF394
 10616 2670 01       		.byte	0x1
 10617 2671 4C02     		.2byte	0x24c
 10618 2673 D9000000 		.4byte	0xd9
 10619 2677 3F270000 		.4byte	.LLST87
 10620 267b 26       		.uleb128 0x26
 10621 267c 93140000 		.4byte	.LASF386
 10622 2680 01       		.byte	0x1
 10623 2681 4D02     		.2byte	0x24d
 10624 2683 D9000000 		.4byte	0xd9
 10625 2687 5B270000 		.4byte	.LLST88
 10626 268b 26       		.uleb128 0x26
 10627 268c 701E0000 		.4byte	.LASF388
 10628 2690 01       		.byte	0x1
 10629 2691 4E02     		.2byte	0x24e
 10630 2693 D9000000 		.4byte	0xd9
 10631 2697 D4270000 		.4byte	.LLST89
 10632 269b 27       		.uleb128 0x27
 10633 269c 0E010000 		.4byte	.LASF389
 10634 26a0 01       		.byte	0x1
 10635 26a1 4F02     		.2byte	0x24f
 10636 26a3 D9000000 		.4byte	0xd9
 10637 26a7 02       		.uleb128 0x2
 10638 26a8 91       		.byte	0x91
 10639 26a9 52       		.sleb128 -46
 10640 26aa 27       		.uleb128 0x27
 10641 26ab EF0F0000 		.4byte	.LASF353
 10642 26af 01       		.byte	0x1
 10643 26b0 5002     		.2byte	0x250
 10644 26b2 00070000 		.4byte	0x700
 10645 26b6 02       		.uleb128 0x2
 10646 26b7 91       		.byte	0x91
 10647 26b8 54       		.sleb128 -44
 10648 26b9 2E       		.uleb128 0x2e
 10649 26ba E3290000 		.4byte	0x29e3
 10650 26be 52000000 		.4byte	.LBB144
 10651 26c2 C0000000 		.4byte	.Ldebug_ranges0+0xc0
 10652 26c6 01       		.byte	0x1
 10653 26c7 6002     		.2byte	0x260
 10654 26c9 2E270000 		.4byte	0x272e
 10655 26cd 2F       		.uleb128 0x2f
 10656 26ce 0C2A0000 		.4byte	0x2a0c
 10657 26d2 42280000 		.4byte	.LLST90
 10658 26d6 2F       		.uleb128 0x2f
 10659 26d7 002A0000 		.4byte	0x2a00
ARM GAS  /var/folders/d2/nstgp4h54kz7g1l847x_b8wc0000gn/T//cc2apEbl.s 			page 188


 10660 26db 56280000 		.4byte	.LLST91
 10661 26df 2F       		.uleb128 0x2f
 10662 26e0 F4290000 		.4byte	0x29f4
 10663 26e4 72280000 		.4byte	.LLST92
 10664 26e8 30       		.uleb128 0x30
 10665 26e9 C0000000 		.4byte	.Ldebug_ranges0+0xc0
 10666 26ed 31       		.uleb128 0x31
 10667 26ee 103C0000 		.4byte	0x3c10
 10668 26f2 31       		.uleb128 0x31
 10669 26f3 153C0000 		.4byte	0x3c15
 10670 26f7 31       		.uleb128 0x31
 10671 26f8 353C0000 		.4byte	0x3c35
 10672 26fc 34       		.uleb128 0x34
 10673 26fd 032B0000 		.4byte	0x2b03
 10674 2701 52000000 		.4byte	.LBB146
 10675 2705 D8000000 		.4byte	.Ldebug_ranges0+0xd8
 10676 2709 01       		.byte	0x1
 10677 270a 3902     		.2byte	0x239
 10678 270c 33       		.uleb128 0x33
 10679 270d 202B0000 		.4byte	0x2b20
 10680 2711 33       		.uleb128 0x33
 10681 2712 142B0000 		.4byte	0x2b14
 10682 2716 30       		.uleb128 0x30
 10683 2717 D8000000 		.4byte	.Ldebug_ranges0+0xd8
 10684 271b 31       		.uleb128 0x31
 10685 271c BF3A0000 		.4byte	0x3abf
 10686 2720 31       		.uleb128 0x31
 10687 2721 C63A0000 		.4byte	0x3ac6
 10688 2725 31       		.uleb128 0x31
 10689 2726 CD3A0000 		.4byte	0x3acd
 10690 272a 00       		.byte	0
 10691 272b 00       		.byte	0
 10692 272c 00       		.byte	0
 10693 272d 00       		.byte	0
 10694 272e 35       		.uleb128 0x35
 10695 272f 972A0000 		.4byte	0x2a97
 10696 2733 5A000000 		.4byte	.LBB151
 10697 2737 04000000 		.4byte	.LBE151-.LBB151
 10698 273b 01       		.byte	0x1
 10699 273c 5E02     		.2byte	0x25e
 10700 273e 57270000 		.4byte	0x2757
 10701 2742 33       		.uleb128 0x33
 10702 2743 A82A0000 		.4byte	0x2aa8
 10703 2747 36       		.uleb128 0x36
 10704 2748 5A000000 		.4byte	.LBB152
 10705 274c 04000000 		.4byte	.LBE152-.LBB152
 10706 2750 31       		.uleb128 0x31
 10707 2751 4C3B0000 		.4byte	0x3b4c
 10708 2755 00       		.byte	0
 10709 2756 00       		.byte	0
 10710 2757 35       		.uleb128 0x35
 10711 2758 E3290000 		.4byte	0x29e3
 10712 275c 9C000000 		.4byte	.LBB154
 10713 2760 26000000 		.4byte	.LBE154-.LBB154
 10714 2764 01       		.byte	0x1
 10715 2765 A502     		.2byte	0x2a5
 10716 2767 CC270000 		.4byte	0x27cc
ARM GAS  /var/folders/d2/nstgp4h54kz7g1l847x_b8wc0000gn/T//cc2apEbl.s 			page 189


 10717 276b 2F       		.uleb128 0x2f
 10718 276c 0C2A0000 		.4byte	0x2a0c
 10719 2770 85280000 		.4byte	.LLST93
 10720 2774 33       		.uleb128 0x33
 10721 2775 002A0000 		.4byte	0x2a00
 10722 2779 2F       		.uleb128 0x2f
 10723 277a F4290000 		.4byte	0x29f4
 10724 277e 99280000 		.4byte	.LLST94
 10725 2782 36       		.uleb128 0x36
 10726 2783 9C000000 		.4byte	.LBB155
 10727 2787 26000000 		.4byte	.LBE155-.LBB155
 10728 278b 31       		.uleb128 0x31
 10729 278c 103C0000 		.4byte	0x3c10
 10730 2790 31       		.uleb128 0x31
 10731 2791 153C0000 		.4byte	0x3c15
 10732 2795 31       		.uleb128 0x31
 10733 2796 353C0000 		.4byte	0x3c35
 10734 279a 34       		.uleb128 0x34
 10735 279b 032B0000 		.4byte	0x2b03
 10736 279f 9C000000 		.4byte	.LBB156
 10737 27a3 F0000000 		.4byte	.Ldebug_ranges0+0xf0
 10738 27a7 01       		.byte	0x1
 10739 27a8 3902     		.2byte	0x239
 10740 27aa 33       		.uleb128 0x33
 10741 27ab 202B0000 		.4byte	0x2b20
 10742 27af 33       		.uleb128 0x33
 10743 27b0 142B0000 		.4byte	0x2b14
 10744 27b4 30       		.uleb128 0x30
 10745 27b5 F0000000 		.4byte	.Ldebug_ranges0+0xf0
 10746 27b9 31       		.uleb128 0x31
 10747 27ba BF3A0000 		.4byte	0x3abf
 10748 27be 31       		.uleb128 0x31
 10749 27bf C63A0000 		.4byte	0x3ac6
 10750 27c3 31       		.uleb128 0x31
 10751 27c4 CD3A0000 		.4byte	0x3acd
 10752 27c8 00       		.byte	0
 10753 27c9 00       		.byte	0
 10754 27ca 00       		.byte	0
 10755 27cb 00       		.byte	0
 10756 27cc 2E       		.uleb128 0x2e
 10757 27cd E3290000 		.4byte	0x29e3
 10758 27d1 EC000000 		.4byte	.LBB160
 10759 27d5 08010000 		.4byte	.Ldebug_ranges0+0x108
 10760 27d9 01       		.byte	0x1
 10761 27da 7A02     		.2byte	0x27a
 10762 27dc 41280000 		.4byte	0x2841
 10763 27e0 2F       		.uleb128 0x2f
 10764 27e1 0C2A0000 		.4byte	0x2a0c
 10765 27e5 AC280000 		.4byte	.LLST95
 10766 27e9 2F       		.uleb128 0x2f
 10767 27ea 002A0000 		.4byte	0x2a00
 10768 27ee C0280000 		.4byte	.LLST96
 10769 27f2 2F       		.uleb128 0x2f
 10770 27f3 F4290000 		.4byte	0x29f4
 10771 27f7 0A290000 		.4byte	.LLST97
 10772 27fb 30       		.uleb128 0x30
 10773 27fc 08010000 		.4byte	.Ldebug_ranges0+0x108
ARM GAS  /var/folders/d2/nstgp4h54kz7g1l847x_b8wc0000gn/T//cc2apEbl.s 			page 190


 10774 2800 31       		.uleb128 0x31
 10775 2801 103C0000 		.4byte	0x3c10
 10776 2805 31       		.uleb128 0x31
 10777 2806 153C0000 		.4byte	0x3c15
 10778 280a 31       		.uleb128 0x31
 10779 280b 353C0000 		.4byte	0x3c35
 10780 280f 34       		.uleb128 0x34
 10781 2810 032B0000 		.4byte	0x2b03
 10782 2814 EC000000 		.4byte	.LBB162
 10783 2818 30010000 		.4byte	.Ldebug_ranges0+0x130
 10784 281c 01       		.byte	0x1
 10785 281d 3902     		.2byte	0x239
 10786 281f 33       		.uleb128 0x33
 10787 2820 202B0000 		.4byte	0x2b20
 10788 2824 33       		.uleb128 0x33
 10789 2825 142B0000 		.4byte	0x2b14
 10790 2829 30       		.uleb128 0x30
 10791 282a 30010000 		.4byte	.Ldebug_ranges0+0x130
 10792 282e 31       		.uleb128 0x31
 10793 282f BF3A0000 		.4byte	0x3abf
 10794 2833 31       		.uleb128 0x31
 10795 2834 C63A0000 		.4byte	0x3ac6
 10796 2838 31       		.uleb128 0x31
 10797 2839 CD3A0000 		.4byte	0x3acd
 10798 283d 00       		.byte	0
 10799 283e 00       		.byte	0
 10800 283f 00       		.byte	0
 10801 2840 00       		.byte	0
 10802 2841 2E       		.uleb128 0x2e
 10803 2842 972A0000 		.4byte	0x2a97
 10804 2846 F4000000 		.4byte	.LBB169
 10805 284a 48010000 		.4byte	.Ldebug_ranges0+0x148
 10806 284e 01       		.byte	0x1
 10807 284f 7702     		.2byte	0x277
 10808 2851 66280000 		.4byte	0x2866
 10809 2855 33       		.uleb128 0x33
 10810 2856 A82A0000 		.4byte	0x2aa8
 10811 285a 30       		.uleb128 0x30
 10812 285b 48010000 		.4byte	.Ldebug_ranges0+0x148
 10813 285f 31       		.uleb128 0x31
 10814 2860 4C3B0000 		.4byte	0x3b4c
 10815 2864 00       		.byte	0
 10816 2865 00       		.byte	0
 10817 2866 35       		.uleb128 0x35
 10818 2867 972A0000 		.4byte	0x2a97
 10819 286b 44010000 		.4byte	.LBB178
 10820 286f 08000000 		.4byte	.LBE178-.LBB178
 10821 2873 01       		.byte	0x1
 10822 2874 8F02     		.2byte	0x28f
 10823 2876 8F280000 		.4byte	0x288f
 10824 287a 33       		.uleb128 0x33
 10825 287b A82A0000 		.4byte	0x2aa8
 10826 287f 36       		.uleb128 0x36
 10827 2880 44010000 		.4byte	.LBB179
 10828 2884 08000000 		.4byte	.LBE179-.LBB179
 10829 2888 31       		.uleb128 0x31
 10830 2889 4C3B0000 		.4byte	0x3b4c
ARM GAS  /var/folders/d2/nstgp4h54kz7g1l847x_b8wc0000gn/T//cc2apEbl.s 			page 191


 10831 288d 00       		.byte	0
 10832 288e 00       		.byte	0
 10833 288f 35       		.uleb128 0x35
 10834 2890 972A0000 		.4byte	0x2a97
 10835 2894 66010000 		.4byte	.LBB180
 10836 2898 10000000 		.4byte	.LBE180-.LBB180
 10837 289c 01       		.byte	0x1
 10838 289d A002     		.2byte	0x2a0
 10839 289f B8280000 		.4byte	0x28b8
 10840 28a3 33       		.uleb128 0x33
 10841 28a4 A82A0000 		.4byte	0x2aa8
 10842 28a8 36       		.uleb128 0x36
 10843 28a9 66010000 		.4byte	.LBB181
 10844 28ad 10000000 		.4byte	.LBE181-.LBB181
 10845 28b1 31       		.uleb128 0x31
 10846 28b2 4C3B0000 		.4byte	0x3b4c
 10847 28b6 00       		.byte	0
 10848 28b7 00       		.byte	0
 10849 28b8 28       		.uleb128 0x28
 10850 28b9 44000000 		.4byte	.LVL376
 10851 28bd 593F0000 		.4byte	0x3f59
 10852 28c1 D2280000 		.4byte	0x28d2
 10853 28c5 29       		.uleb128 0x29
 10854 28c6 01       		.uleb128 0x1
 10855 28c7 51       		.byte	0x51
 10856 28c8 02       		.uleb128 0x2
 10857 28c9 74       		.byte	0x74
 10858 28ca 00       		.sleb128 0
 10859 28cb 29       		.uleb128 0x29
 10860 28cc 01       		.uleb128 0x1
 10861 28cd 52       		.byte	0x52
 10862 28ce 02       		.uleb128 0x2
 10863 28cf 91       		.byte	0x91
 10864 28d0 4E       		.sleb128 -50
 10865 28d1 00       		.byte	0
 10866 28d2 28       		.uleb128 0x28
 10867 28d3 52000000 		.4byte	.LVL378
 10868 28d7 373F0000 		.4byte	0x3f37
 10869 28db F2280000 		.4byte	0x28f2
 10870 28df 29       		.uleb128 0x29
 10871 28e0 01       		.uleb128 0x1
 10872 28e1 50       		.byte	0x50
 10873 28e2 02       		.uleb128 0x2
 10874 28e3 77       		.byte	0x77
 10875 28e4 00       		.sleb128 0
 10876 28e5 29       		.uleb128 0x29
 10877 28e6 01       		.uleb128 0x1
 10878 28e7 51       		.byte	0x51
 10879 28e8 02       		.uleb128 0x2
 10880 28e9 08       		.byte	0x8
 10881 28ea 46       		.byte	0x46
 10882 28eb 29       		.uleb128 0x29
 10883 28ec 01       		.uleb128 0x1
 10884 28ed 52       		.byte	0x52
 10885 28ee 02       		.uleb128 0x2
 10886 28ef 91       		.byte	0x91
 10887 28f0 4F       		.sleb128 -49
ARM GAS  /var/folders/d2/nstgp4h54kz7g1l847x_b8wc0000gn/T//cc2apEbl.s 			page 192


 10888 28f1 00       		.byte	0
 10889 28f2 28       		.uleb128 0x28
 10890 28f3 82000000 		.4byte	.LVL382
 10891 28f7 2B3F0000 		.4byte	0x3f2b
 10892 28fb 06290000 		.4byte	0x2906
 10893 28ff 29       		.uleb128 0x29
 10894 2900 01       		.uleb128 0x1
 10895 2901 51       		.byte	0x51
 10896 2902 02       		.uleb128 0x2
 10897 2903 91       		.byte	0x91
 10898 2904 54       		.sleb128 -44
 10899 2905 00       		.byte	0
 10900 2906 28       		.uleb128 0x28
 10901 2907 98000000 		.4byte	.LVL383
 10902 290b 593F0000 		.4byte	0x3f59
 10903 290f 26290000 		.4byte	0x2926
 10904 2913 29       		.uleb128 0x29
 10905 2914 01       		.uleb128 0x1
 10906 2915 50       		.byte	0x50
 10907 2916 02       		.uleb128 0x2
 10908 2917 77       		.byte	0x77
 10909 2918 00       		.sleb128 0
 10910 2919 29       		.uleb128 0x29
 10911 291a 01       		.uleb128 0x1
 10912 291b 51       		.byte	0x51
 10913 291c 02       		.uleb128 0x2
 10914 291d 74       		.byte	0x74
 10915 291e 00       		.sleb128 0
 10916 291f 29       		.uleb128 0x29
 10917 2920 01       		.uleb128 0x1
 10918 2921 52       		.byte	0x52
 10919 2922 02       		.uleb128 0x2
 10920 2923 79       		.byte	0x79
 10921 2924 00       		.sleb128 0
 10922 2925 00       		.byte	0
 10923 2926 28       		.uleb128 0x28
 10924 2927 CC000000 		.4byte	.LVL389
 10925 292b 593F0000 		.4byte	0x3f59
 10926 292f 40290000 		.4byte	0x2940
 10927 2933 29       		.uleb128 0x29
 10928 2934 01       		.uleb128 0x1
 10929 2935 51       		.byte	0x51
 10930 2936 02       		.uleb128 0x2
 10931 2937 74       		.byte	0x74
 10932 2938 00       		.sleb128 0
 10933 2939 29       		.uleb128 0x29
 10934 293a 01       		.uleb128 0x1
 10935 293b 52       		.byte	0x52
 10936 293c 02       		.uleb128 0x2
 10937 293d 91       		.byte	0x91
 10938 293e 4E       		.sleb128 -50
 10939 293f 00       		.byte	0
 10940 2940 28       		.uleb128 0x28
 10941 2941 DC000000 		.4byte	.LVL391
 10942 2945 593F0000 		.4byte	0x3f59
 10943 2949 5A290000 		.4byte	0x295a
 10944 294d 29       		.uleb128 0x29
ARM GAS  /var/folders/d2/nstgp4h54kz7g1l847x_b8wc0000gn/T//cc2apEbl.s 			page 193


 10945 294e 01       		.uleb128 0x1
 10946 294f 50       		.byte	0x50
 10947 2950 02       		.uleb128 0x2
 10948 2951 77       		.byte	0x77
 10949 2952 00       		.sleb128 0
 10950 2953 29       		.uleb128 0x29
 10951 2954 01       		.uleb128 0x1
 10952 2955 52       		.byte	0x52
 10953 2956 02       		.uleb128 0x2
 10954 2957 91       		.byte	0x91
 10955 2958 4E       		.sleb128 -50
 10956 2959 00       		.byte	0
 10957 295a 28       		.uleb128 0x28
 10958 295b E8000000 		.4byte	.LVL393
 10959 295f 0C3F0000 		.4byte	0x3f0c
 10960 2963 7A290000 		.4byte	0x297a
 10961 2967 29       		.uleb128 0x29
 10962 2968 01       		.uleb128 0x1
 10963 2969 50       		.byte	0x50
 10964 296a 02       		.uleb128 0x2
 10965 296b 77       		.byte	0x77
 10966 296c 00       		.sleb128 0
 10967 296d 29       		.uleb128 0x29
 10968 296e 01       		.uleb128 0x1
 10969 296f 51       		.byte	0x51
 10970 2970 02       		.uleb128 0x2
 10971 2971 08       		.byte	0x8
 10972 2972 51       		.byte	0x51
 10973 2973 29       		.uleb128 0x29
 10974 2974 01       		.uleb128 0x1
 10975 2975 52       		.byte	0x52
 10976 2976 02       		.uleb128 0x2
 10977 2977 91       		.byte	0x91
 10978 2978 50       		.sleb128 -48
 10979 2979 00       		.byte	0
 10980 297a 28       		.uleb128 0x28
 10981 297b 2C010000 		.4byte	.LVL400
 10982 297f 593F0000 		.4byte	0x3f59
 10983 2983 99290000 		.4byte	0x2999
 10984 2987 29       		.uleb128 0x29
 10985 2988 01       		.uleb128 0x1
 10986 2989 50       		.byte	0x50
 10987 298a 02       		.uleb128 0x2
 10988 298b 77       		.byte	0x77
 10989 298c 00       		.sleb128 0
 10990 298d 29       		.uleb128 0x29
 10991 298e 01       		.uleb128 0x1
 10992 298f 51       		.byte	0x51
 10993 2990 01       		.uleb128 0x1
 10994 2991 31       		.byte	0x31
 10995 2992 29       		.uleb128 0x29
 10996 2993 01       		.uleb128 0x1
 10997 2994 52       		.byte	0x52
 10998 2995 02       		.uleb128 0x2
 10999 2996 79       		.byte	0x79
 11000 2997 00       		.sleb128 0
 11001 2998 00       		.byte	0
ARM GAS  /var/folders/d2/nstgp4h54kz7g1l847x_b8wc0000gn/T//cc2apEbl.s 			page 194


 11002 2999 28       		.uleb128 0x28
 11003 299a 40010000 		.4byte	.LVL403
 11004 299e 0C3F0000 		.4byte	0x3f0c
 11005 29a2 B9290000 		.4byte	0x29b9
 11006 29a6 29       		.uleb128 0x29
 11007 29a7 01       		.uleb128 0x1
 11008 29a8 50       		.byte	0x50
 11009 29a9 02       		.uleb128 0x2
 11010 29aa 77       		.byte	0x77
 11011 29ab 00       		.sleb128 0
 11012 29ac 29       		.uleb128 0x29
 11013 29ad 01       		.uleb128 0x1
 11014 29ae 51       		.byte	0x51
 11015 29af 02       		.uleb128 0x2
 11016 29b0 08       		.byte	0x8
 11017 29b1 51       		.byte	0x51
 11018 29b2 29       		.uleb128 0x29
 11019 29b3 01       		.uleb128 0x1
 11020 29b4 52       		.byte	0x52
 11021 29b5 02       		.uleb128 0x2
 11022 29b6 91       		.byte	0x91
 11023 29b7 50       		.sleb128 -48
 11024 29b8 00       		.byte	0
 11025 29b9 28       		.uleb128 0x28
 11026 29ba 62010000 		.4byte	.LVL407
 11027 29be 0C3F0000 		.4byte	0x3f0c
 11028 29c2 D9290000 		.4byte	0x29d9
 11029 29c6 29       		.uleb128 0x29
 11030 29c7 01       		.uleb128 0x1
 11031 29c8 50       		.byte	0x50
 11032 29c9 02       		.uleb128 0x2
 11033 29ca 77       		.byte	0x77
 11034 29cb 00       		.sleb128 0
 11035 29cc 29       		.uleb128 0x29
 11036 29cd 01       		.uleb128 0x1
 11037 29ce 51       		.byte	0x51
 11038 29cf 02       		.uleb128 0x2
 11039 29d0 08       		.byte	0x8
 11040 29d1 71       		.byte	0x71
 11041 29d2 29       		.uleb128 0x29
 11042 29d3 01       		.uleb128 0x1
 11043 29d4 52       		.byte	0x52
 11044 29d5 02       		.uleb128 0x2
 11045 29d6 91       		.byte	0x91
 11046 29d7 52       		.sleb128 -46
 11047 29d8 00       		.byte	0
 11048 29d9 2A       		.uleb128 0x2a
 11049 29da 7A010000 		.4byte	.LVL411
 11050 29de 173F0000 		.4byte	0x3f17
 11051 29e2 00       		.byte	0
 11052 29e3 38       		.uleb128 0x38
 11053 29e4 A21B0000 		.4byte	.LASF395
 11054 29e8 01       		.byte	0x1
 11055 29e9 3102     		.2byte	0x231
 11056 29eb EF000000 		.4byte	0xef
 11057 29ef 01       		.byte	0x1
 11058 29f0 3D2A0000 		.4byte	0x2a3d
ARM GAS  /var/folders/d2/nstgp4h54kz7g1l847x_b8wc0000gn/T//cc2apEbl.s 			page 195


 11059 29f4 39       		.uleb128 0x39
 11060 29f5 44657600 		.ascii	"Dev\000"
 11061 29f9 01       		.byte	0x1
 11062 29fa 3102     		.2byte	0x231
 11063 29fc 690F0000 		.4byte	0xf69
 11064 2a00 3A       		.uleb128 0x3a
 11065 2a01 86040000 		.4byte	.LASF396
 11066 2a05 01       		.byte	0x1
 11067 2a06 3202     		.2byte	0x232
 11068 2a08 D9000000 		.4byte	0xd9
 11069 2a0c 3A       		.uleb128 0x3a
 11070 2a0d B8110000 		.4byte	.LASF397
 11071 2a11 01       		.byte	0x1
 11072 2a12 3302     		.2byte	0x233
 11073 2a14 C3000000 		.4byte	0xc3
 11074 2a18 2D       		.uleb128 0x2d
 11075 2a19 ED040000 		.4byte	.LASF398
 11076 2a1d 01       		.byte	0x1
 11077 2a1e 3502     		.2byte	0x235
 11078 2a20 EF000000 		.4byte	0xef
 11079 2a24 2D       		.uleb128 0x2d
 11080 2a25 85000000 		.4byte	.LASF399
 11081 2a29 01       		.byte	0x1
 11082 2a2a 3602     		.2byte	0x236
 11083 2a2c EF000000 		.4byte	0xef
 11084 2a30 2D       		.uleb128 0x2d
 11085 2a31 D1090000 		.4byte	.LASF400
 11086 2a35 01       		.byte	0x1
 11087 2a36 3702     		.2byte	0x237
 11088 2a38 EF000000 		.4byte	0xef
 11089 2a3c 00       		.byte	0
 11090 2a3d 38       		.uleb128 0x38
 11091 2a3e 2E0A0000 		.4byte	.LASF401
 11092 2a42 01       		.byte	0x1
 11093 2a43 1E02     		.2byte	0x21e
 11094 2a45 EF000000 		.4byte	0xef
 11095 2a49 01       		.byte	0x1
 11096 2a4a 972A0000 		.4byte	0x2a97
 11097 2a4e 39       		.uleb128 0x39
 11098 2a4f 44657600 		.ascii	"Dev\000"
 11099 2a53 01       		.byte	0x1
 11100 2a54 1E02     		.2byte	0x21e
 11101 2a56 690F0000 		.4byte	0xf69
 11102 2a5a 3A       		.uleb128 0x3a
 11103 2a5b 91160000 		.4byte	.LASF402
 11104 2a5f 01       		.byte	0x1
 11105 2a60 1F02     		.2byte	0x21f
 11106 2a62 EF000000 		.4byte	0xef
 11107 2a66 3A       		.uleb128 0x3a
 11108 2a67 B8110000 		.4byte	.LASF397
 11109 2a6b 01       		.byte	0x1
 11110 2a6c 2002     		.2byte	0x220
 11111 2a6e C3000000 		.4byte	0xc3
 11112 2a72 2D       		.uleb128 0x2d
 11113 2a73 ED040000 		.4byte	.LASF398
 11114 2a77 01       		.byte	0x1
 11115 2a78 2202     		.2byte	0x222
ARM GAS  /var/folders/d2/nstgp4h54kz7g1l847x_b8wc0000gn/T//cc2apEbl.s 			page 196


 11116 2a7a EF000000 		.4byte	0xef
 11117 2a7e 2D       		.uleb128 0x2d
 11118 2a7f 85000000 		.4byte	.LASF399
 11119 2a83 01       		.byte	0x1
 11120 2a84 2302     		.2byte	0x223
 11121 2a86 EF000000 		.4byte	0xef
 11122 2a8a 2D       		.uleb128 0x2d
 11123 2a8b 86040000 		.4byte	.LASF396
 11124 2a8f 01       		.byte	0x1
 11125 2a90 2402     		.2byte	0x224
 11126 2a92 EF000000 		.4byte	0xef
 11127 2a96 00       		.byte	0
 11128 2a97 38       		.uleb128 0x38
 11129 2a98 391D0000 		.4byte	.LASF403
 11130 2a9c 01       		.byte	0x1
 11131 2a9d 0E02     		.2byte	0x20e
 11132 2a9f EF000000 		.4byte	0xef
 11133 2aa3 01       		.byte	0x1
 11134 2aa4 C12A0000 		.4byte	0x2ac1
 11135 2aa8 3A       		.uleb128 0x3a
 11136 2aa9 4C040000 		.4byte	.LASF404
 11137 2aad 01       		.byte	0x1
 11138 2aae 0E02     		.2byte	0x20e
 11139 2ab0 D9000000 		.4byte	0xd9
 11140 2ab4 2D       		.uleb128 0x2d
 11141 2ab5 F61B0000 		.4byte	.LASF405
 11142 2ab9 01       		.byte	0x1
 11143 2aba 1402     		.2byte	0x214
 11144 2abc EF000000 		.4byte	0xef
 11145 2ac0 00       		.byte	0
 11146 2ac1 38       		.uleb128 0x38
 11147 2ac2 1F0B0000 		.4byte	.LASF406
 11148 2ac6 01       		.byte	0x1
 11149 2ac7 F401     		.2byte	0x1f4
 11150 2ac9 D9000000 		.4byte	0xd9
 11151 2acd 01       		.byte	0x1
 11152 2ace 032B0000 		.4byte	0x2b03
 11153 2ad2 3A       		.uleb128 0x3a
 11154 2ad3 F61B0000 		.4byte	.LASF405
 11155 2ad7 01       		.byte	0x1
 11156 2ad8 F401     		.2byte	0x1f4
 11157 2ada EF000000 		.4byte	0xef
 11158 2ade 2D       		.uleb128 0x2d
 11159 2adf 4C040000 		.4byte	.LASF404
 11160 2ae3 01       		.byte	0x1
 11161 2ae4 FA01     		.2byte	0x1fa
 11162 2ae6 D9000000 		.4byte	0xd9
 11163 2aea 2D       		.uleb128 0x2d
 11164 2aeb 46130000 		.4byte	.LASF407
 11165 2aef 01       		.byte	0x1
 11166 2af0 FB01     		.2byte	0x1fb
 11167 2af2 EF000000 		.4byte	0xef
 11168 2af6 2D       		.uleb128 0x2d
 11169 2af7 00000000 		.4byte	.LASF408
 11170 2afb 01       		.byte	0x1
 11171 2afc FC01     		.2byte	0x1fc
 11172 2afe D9000000 		.4byte	0xd9
ARM GAS  /var/folders/d2/nstgp4h54kz7g1l847x_b8wc0000gn/T//cc2apEbl.s 			page 197


 11173 2b02 00       		.byte	0
 11174 2b03 38       		.uleb128 0x38
 11175 2b04 341B0000 		.4byte	.LASF409
 11176 2b08 01       		.byte	0x1
 11177 2b09 DE01     		.2byte	0x1de
 11178 2b0b EF000000 		.4byte	0xef
 11179 2b0f 01       		.byte	0x1
 11180 2b10 512B0000 		.4byte	0x2b51
 11181 2b14 39       		.uleb128 0x39
 11182 2b15 44657600 		.ascii	"Dev\000"
 11183 2b19 01       		.byte	0x1
 11184 2b1a DE01     		.2byte	0x1de
 11185 2b1c 690F0000 		.4byte	0xf69
 11186 2b20 3A       		.uleb128 0x3a
 11187 2b21 B8110000 		.4byte	.LASF397
 11188 2b25 01       		.byte	0x1
 11189 2b26 DE01     		.2byte	0x1de
 11190 2b28 C3000000 		.4byte	0xc3
 11191 2b2c 2D       		.uleb128 0x2d
 11192 2b2d 3E040000 		.4byte	.LASF410
 11193 2b31 01       		.byte	0x1
 11194 2b32 E101     		.2byte	0x1e1
 11195 2b34 FF000000 		.4byte	0xff
 11196 2b38 2D       		.uleb128 0x2d
 11197 2b39 3E140000 		.4byte	.LASF411
 11198 2b3d 01       		.byte	0x1
 11199 2b3e E201     		.2byte	0x1e2
 11200 2b40 EF000000 		.4byte	0xef
 11201 2b44 2D       		.uleb128 0x2d
 11202 2b45 ED040000 		.4byte	.LASF398
 11203 2b49 01       		.byte	0x1
 11204 2b4a E301     		.2byte	0x1e3
 11205 2b4c EF000000 		.4byte	0xef
 11206 2b50 00       		.byte	0
 11207 2b51 3C       		.uleb128 0x3c
 11208 2b52 10130000 		.4byte	.LASF412
 11209 2b56 01       		.byte	0x1
 11210 2b57 D3       		.byte	0xd3
 11211 2b58 AF010000 		.4byte	0x1af
 11212 2b5c 00000000 		.4byte	.LFB10
 11213 2b60 C0050000 		.4byte	.LFE10-.LFB10
 11214 2b64 01       		.uleb128 0x1
 11215 2b65 9C       		.byte	0x9c
 11216 2b66 EB330000 		.4byte	0x33eb
 11217 2b6a 3D       		.uleb128 0x3d
 11218 2b6b 44657600 		.ascii	"Dev\000"
 11219 2b6f 01       		.byte	0x1
 11220 2b70 D3       		.byte	0xd3
 11221 2b71 690F0000 		.4byte	0xf69
 11222 2b75 2B290000 		.4byte	.LLST53
 11223 2b79 3E       		.uleb128 0x3e
 11224 2b7a BB190000 		.4byte	.LASF413
 11225 2b7e 01       		.byte	0x1
 11226 2b7f D3       		.byte	0xd3
 11227 2b80 C3000000 		.4byte	0xc3
 11228 2b84 70290000 		.4byte	.LLST54
 11229 2b88 3F       		.uleb128 0x3f
ARM GAS  /var/folders/d2/nstgp4h54kz7g1l847x_b8wc0000gn/T//cc2apEbl.s 			page 198


 11230 2b89 C1020000 		.4byte	.LASF248
 11231 2b8d 01       		.byte	0x1
 11232 2b8e D6       		.byte	0xd6
 11233 2b8f AF010000 		.4byte	0x1af
 11234 2b93 AA290000 		.4byte	.LLST55
 11235 2b97 40       		.uleb128 0x40
 11236 2b98 F5170000 		.4byte	.LASF414
 11237 2b9c 01       		.byte	0x1
 11238 2b9d D7       		.byte	0xd7
 11239 2b9e C3000000 		.4byte	0xc3
 11240 2ba2 03       		.uleb128 0x3
 11241 2ba3 91       		.byte	0x91
 11242 2ba4 A97F     		.sleb128 -87
 11243 2ba6 40       		.uleb128 0x40
 11244 2ba7 DA140000 		.4byte	.LASF415
 11245 2bab 01       		.byte	0x1
 11246 2bac D8       		.byte	0xd8
 11247 2bad EF000000 		.4byte	0xef
 11248 2bb1 03       		.uleb128 0x3
 11249 2bb2 91       		.byte	0x91
 11250 2bb3 AC7F     		.sleb128 -84
 11251 2bb5 40       		.uleb128 0x40
 11252 2bb6 8D0A0000 		.4byte	.LASF88
 11253 2bba 01       		.byte	0x1
 11254 2bbb D9       		.byte	0xd9
 11255 2bbc C3000000 		.4byte	0xc3
 11256 2bc0 03       		.uleb128 0x3
 11257 2bc1 91       		.byte	0x91
 11258 2bc2 AA7F     		.sleb128 -86
 11259 2bc4 40       		.uleb128 0x40
 11260 2bc5 66050000 		.4byte	.LASF89
 11261 2bc9 01       		.byte	0x1
 11262 2bca DA       		.byte	0xda
 11263 2bcb C3000000 		.4byte	0xc3
 11264 2bcf 03       		.uleb128 0x3
 11265 2bd0 91       		.byte	0x91
 11266 2bd1 AB7F     		.sleb128 -85
 11267 2bd3 3F       		.uleb128 0x3f
 11268 2bd4 490A0000 		.4byte	.LASF90
 11269 2bd8 01       		.byte	0x1
 11270 2bd9 DB       		.byte	0xdb
 11271 2bda C3000000 		.4byte	0xc3
 11272 2bde 832C0000 		.4byte	.LLST56
 11273 2be2 3F       		.uleb128 0x3f
 11274 2be3 95000000 		.4byte	.LASF91
 11275 2be7 01       		.byte	0x1
 11276 2be8 DC       		.byte	0xdc
 11277 2be9 C3000000 		.4byte	0xc3
 11278 2bed E22C0000 		.4byte	.LLST57
 11279 2bf1 40       		.uleb128 0x40
 11280 2bf2 64140000 		.4byte	.LASF93
 11281 2bf6 01       		.byte	0x1
 11282 2bf7 DD       		.byte	0xdd
 11283 2bf8 EF000000 		.4byte	0xef
 11284 2bfc 03       		.uleb128 0x3
 11285 2bfd 91       		.byte	0x91
 11286 2bfe B07F     		.sleb128 -80
ARM GAS  /var/folders/d2/nstgp4h54kz7g1l847x_b8wc0000gn/T//cc2apEbl.s 			page 199


 11287 2c00 40       		.uleb128 0x40
 11288 2c01 C4000000 		.4byte	.LASF94
 11289 2c05 01       		.byte	0x1
 11290 2c06 DE       		.byte	0xde
 11291 2c07 EF000000 		.4byte	0xef
 11292 2c0b 03       		.uleb128 0x3
 11293 2c0c 91       		.byte	0x91
 11294 2c0d B47F     		.sleb128 -76
 11295 2c0f 3F       		.uleb128 0x3f
 11296 2c10 5C0A0000 		.4byte	.LASF416
 11297 2c14 01       		.byte	0x1
 11298 2c15 DF       		.byte	0xdf
 11299 2c16 EF000000 		.4byte	0xef
 11300 2c1a 412D0000 		.4byte	.LLST58
 11301 2c1e 3F       		.uleb128 0x3f
 11302 2c1f 39110000 		.4byte	.LASF417
 11303 2c23 01       		.byte	0x1
 11304 2c24 E0       		.byte	0xe0
 11305 2c25 CE000000 		.4byte	0xce
 11306 2c29 862D0000 		.4byte	.LLST59
 11307 2c2d 41       		.uleb128 0x41
 11308 2c2e EA090000 		.4byte	.LASF418
 11309 2c32 01       		.byte	0x1
 11310 2c33 E1       		.byte	0xe1
 11311 2c34 EF000000 		.4byte	0xef
 11312 2c38 0019     		.2byte	0x1900
 11313 2c3a 3F       		.uleb128 0x3f
 11314 2c3b A8150000 		.4byte	.LASF419
 11315 2c3f 01       		.byte	0x1
 11316 2c40 E2       		.byte	0xe2
 11317 2c41 EF000000 		.4byte	0xef
 11318 2c45 DB2D0000 		.4byte	.LLST60
 11319 2c49 3F       		.uleb128 0x3f
 11320 2c4a 77050000 		.4byte	.LASF420
 11321 2c4e 01       		.byte	0x1
 11322 2c4f E3       		.byte	0xe3
 11323 2c50 EF000000 		.4byte	0xef
 11324 2c54 422E0000 		.4byte	.LLST61
 11325 2c58 40       		.uleb128 0x40
 11326 2c59 07030000 		.4byte	.LASF29
 11327 2c5d 01       		.byte	0x1
 11328 2c5e E4       		.byte	0xe4
 11329 2c5f EB330000 		.4byte	0x33eb
 11330 2c63 02       		.uleb128 0x2
 11331 2c64 91       		.byte	0x91
 11332 2c65 40       		.sleb128 -64
 11333 2c66 3F       		.uleb128 0x3f
 11334 2c67 730D0000 		.4byte	.LASF421
 11335 2c6b 01       		.byte	0x1
 11336 2c6c E5       		.byte	0xe5
 11337 2c6d 000C0000 		.4byte	0xc00
 11338 2c71 9F2E0000 		.4byte	.LLST62
 11339 2c75 3F       		.uleb128 0x3f
 11340 2c76 AD0C0000 		.4byte	.LASF87
 11341 2c7a 01       		.byte	0x1
 11342 2c7b E6       		.byte	0xe6
 11343 2c7c C3000000 		.4byte	0xc3
ARM GAS  /var/folders/d2/nstgp4h54kz7g1l847x_b8wc0000gn/T//cc2apEbl.s 			page 200


 11344 2c80 CE2E0000 		.4byte	.LLST63
 11345 2c84 3F       		.uleb128 0x3f
 11346 2c85 EB080000 		.4byte	.LASF422
 11347 2c89 01       		.byte	0x1
 11348 2c8a E7       		.byte	0xe7
 11349 2c8b 11010000 		.4byte	0x111
 11350 2c8f F72E0000 		.4byte	.LLST64
 11351 2c93 40       		.uleb128 0x40
 11352 2c94 4B0C0000 		.4byte	.LASF423
 11353 2c98 01       		.byte	0x1
 11354 2c99 E8       		.byte	0xe8
 11355 2c9a 77020000 		.4byte	0x277
 11356 2c9e 03       		.uleb128 0x3
 11357 2c9f 91       		.byte	0x91
 11358 2ca0 B87F     		.sleb128 -72
 11359 2ca2 42       		.uleb128 0x42
 11360 2ca3 6900     		.ascii	"i\000"
 11361 2ca5 01       		.byte	0x1
 11362 2ca6 E9       		.byte	0xe9
 11363 2ca7 B1000000 		.4byte	0xb1
 11364 2cab 452F0000 		.4byte	.LLST65
 11365 2caf 28       		.uleb128 0x28
 11366 2cb0 42000000 		.4byte	.LVL134
 11367 2cb4 013F0000 		.4byte	0x3f01
 11368 2cb8 CE2C0000 		.4byte	0x2cce
 11369 2cbc 29       		.uleb128 0x29
 11370 2cbd 01       		.uleb128 0x1
 11371 2cbe 50       		.byte	0x50
 11372 2cbf 02       		.uleb128 0x2
 11373 2cc0 75       		.byte	0x75
 11374 2cc1 00       		.sleb128 0
 11375 2cc2 29       		.uleb128 0x29
 11376 2cc3 01       		.uleb128 0x1
 11377 2cc4 51       		.byte	0x51
 11378 2cc5 02       		.uleb128 0x2
 11379 2cc6 09       		.byte	0x9
 11380 2cc7 80       		.byte	0x80
 11381 2cc8 29       		.uleb128 0x29
 11382 2cc9 01       		.uleb128 0x1
 11383 2cca 52       		.byte	0x52
 11384 2ccb 01       		.uleb128 0x1
 11385 2ccc 31       		.byte	0x31
 11386 2ccd 00       		.byte	0
 11387 2cce 28       		.uleb128 0x28
 11388 2ccf 4E000000 		.4byte	.LVL136
 11389 2cd3 013F0000 		.4byte	0x3f01
 11390 2cd7 ED2C0000 		.4byte	0x2ced
 11391 2cdb 29       		.uleb128 0x29
 11392 2cdc 01       		.uleb128 0x1
 11393 2cdd 50       		.byte	0x50
 11394 2cde 02       		.uleb128 0x2
 11395 2cdf 75       		.byte	0x75
 11396 2ce0 00       		.sleb128 0
 11397 2ce1 29       		.uleb128 0x29
 11398 2ce2 01       		.uleb128 0x1
 11399 2ce3 51       		.byte	0x51
 11400 2ce4 02       		.uleb128 0x2
ARM GAS  /var/folders/d2/nstgp4h54kz7g1l847x_b8wc0000gn/T//cc2apEbl.s 			page 201


 11401 2ce5 09       		.byte	0x9
 11402 2ce6 FF       		.byte	0xff
 11403 2ce7 29       		.uleb128 0x29
 11404 2ce8 01       		.uleb128 0x1
 11405 2ce9 52       		.byte	0x52
 11406 2cea 01       		.uleb128 0x1
 11407 2ceb 31       		.byte	0x31
 11408 2cec 00       		.byte	0
 11409 2ced 28       		.uleb128 0x28
 11410 2cee 5C000000 		.4byte	.LVL138
 11411 2cf2 013F0000 		.4byte	0x3f01
 11412 2cf6 0D2D0000 		.4byte	0x2d0d
 11413 2cfa 29       		.uleb128 0x29
 11414 2cfb 01       		.uleb128 0x1
 11415 2cfc 50       		.byte	0x50
 11416 2cfd 02       		.uleb128 0x2
 11417 2cfe 75       		.byte	0x75
 11418 2cff 00       		.sleb128 0
 11419 2d00 29       		.uleb128 0x29
 11420 2d01 01       		.uleb128 0x1
 11421 2d02 51       		.byte	0x51
 11422 2d03 02       		.uleb128 0x2
 11423 2d04 7B       		.byte	0x7b
 11424 2d05 00       		.sleb128 0
 11425 2d06 29       		.uleb128 0x29
 11426 2d07 01       		.uleb128 0x1
 11427 2d08 52       		.byte	0x52
 11428 2d09 02       		.uleb128 0x2
 11429 2d0a 7B       		.byte	0x7b
 11430 2d0b 00       		.sleb128 0
 11431 2d0c 00       		.byte	0
 11432 2d0d 28       		.uleb128 0x28
 11433 2d0e 6E000000 		.4byte	.LVL141
 11434 2d12 013F0000 		.4byte	0x3f01
 11435 2d16 2C2D0000 		.4byte	0x2d2c
 11436 2d1a 29       		.uleb128 0x29
 11437 2d1b 01       		.uleb128 0x1
 11438 2d1c 50       		.byte	0x50
 11439 2d1d 02       		.uleb128 0x2
 11440 2d1e 75       		.byte	0x75
 11441 2d1f 00       		.sleb128 0
 11442 2d20 29       		.uleb128 0x29
 11443 2d21 01       		.uleb128 0x1
 11444 2d22 51       		.byte	0x51
 11445 2d23 02       		.uleb128 0x2
 11446 2d24 09       		.byte	0x9
 11447 2d25 FF       		.byte	0xff
 11448 2d26 29       		.uleb128 0x29
 11449 2d27 01       		.uleb128 0x1
 11450 2d28 52       		.byte	0x52
 11451 2d29 01       		.uleb128 0x1
 11452 2d2a 36       		.byte	0x36
 11453 2d2b 00       		.byte	0
 11454 2d2c 28       		.uleb128 0x28
 11455 2d2d 82000000 		.4byte	.LVL144
 11456 2d31 373F0000 		.4byte	0x3f37
 11457 2d35 4D2D0000 		.4byte	0x2d4d
ARM GAS  /var/folders/d2/nstgp4h54kz7g1l847x_b8wc0000gn/T//cc2apEbl.s 			page 202


 11458 2d39 29       		.uleb128 0x29
 11459 2d3a 01       		.uleb128 0x1
 11460 2d3b 50       		.byte	0x50
 11461 2d3c 02       		.uleb128 0x2
 11462 2d3d 75       		.byte	0x75
 11463 2d3e 00       		.sleb128 0
 11464 2d3f 29       		.uleb128 0x29
 11465 2d40 01       		.uleb128 0x1
 11466 2d41 51       		.byte	0x51
 11467 2d42 02       		.uleb128 0x2
 11468 2d43 09       		.byte	0x9
 11469 2d44 83       		.byte	0x83
 11470 2d45 29       		.uleb128 0x29
 11471 2d46 01       		.uleb128 0x1
 11472 2d47 52       		.byte	0x52
 11473 2d48 03       		.uleb128 0x3
 11474 2d49 91       		.byte	0x91
 11475 2d4a A97F     		.sleb128 -87
 11476 2d4c 00       		.byte	0
 11477 2d4d 28       		.uleb128 0x28
 11478 2d4e 9A000000 		.4byte	.LVL147
 11479 2d52 013F0000 		.4byte	0x3f01
 11480 2d56 672D0000 		.4byte	0x2d67
 11481 2d5a 29       		.uleb128 0x29
 11482 2d5b 01       		.uleb128 0x1
 11483 2d5c 50       		.byte	0x50
 11484 2d5d 02       		.uleb128 0x2
 11485 2d5e 75       		.byte	0x75
 11486 2d5f 00       		.sleb128 0
 11487 2d60 29       		.uleb128 0x29
 11488 2d61 01       		.uleb128 0x1
 11489 2d62 51       		.byte	0x51
 11490 2d63 02       		.uleb128 0x2
 11491 2d64 09       		.byte	0x9
 11492 2d65 83       		.byte	0x83
 11493 2d66 00       		.byte	0
 11494 2d67 28       		.uleb128 0x28
 11495 2d68 AC000000 		.4byte	.LVL150
 11496 2d6c 013F0000 		.4byte	0x3f01
 11497 2d70 862D0000 		.4byte	0x2d86
 11498 2d74 29       		.uleb128 0x29
 11499 2d75 01       		.uleb128 0x1
 11500 2d76 50       		.byte	0x50
 11501 2d77 02       		.uleb128 0x2
 11502 2d78 75       		.byte	0x75
 11503 2d79 00       		.sleb128 0
 11504 2d7a 29       		.uleb128 0x29
 11505 2d7b 01       		.uleb128 0x1
 11506 2d7c 51       		.byte	0x51
 11507 2d7d 02       		.uleb128 0x2
 11508 2d7e 09       		.byte	0x9
 11509 2d7f FF       		.byte	0xff
 11510 2d80 29       		.uleb128 0x29
 11511 2d81 01       		.uleb128 0x1
 11512 2d82 52       		.byte	0x52
 11513 2d83 01       		.uleb128 0x1
 11514 2d84 37       		.byte	0x37
ARM GAS  /var/folders/d2/nstgp4h54kz7g1l847x_b8wc0000gn/T//cc2apEbl.s 			page 203


 11515 2d85 00       		.byte	0
 11516 2d86 28       		.uleb128 0x28
 11517 2d87 BE000000 		.4byte	.LVL153
 11518 2d8b 013F0000 		.4byte	0x3f01
 11519 2d8f A52D0000 		.4byte	0x2da5
 11520 2d93 29       		.uleb128 0x29
 11521 2d94 01       		.uleb128 0x1
 11522 2d95 50       		.byte	0x50
 11523 2d96 02       		.uleb128 0x2
 11524 2d97 75       		.byte	0x75
 11525 2d98 00       		.sleb128 0
 11526 2d99 29       		.uleb128 0x29
 11527 2d9a 01       		.uleb128 0x1
 11528 2d9b 51       		.byte	0x51
 11529 2d9c 02       		.uleb128 0x2
 11530 2d9d 09       		.byte	0x9
 11531 2d9e 81       		.byte	0x81
 11532 2d9f 29       		.uleb128 0x29
 11533 2da0 01       		.uleb128 0x1
 11534 2da1 52       		.byte	0x52
 11535 2da2 01       		.uleb128 0x1
 11536 2da3 31       		.byte	0x31
 11537 2da4 00       		.byte	0
 11538 2da5 28       		.uleb128 0x28
 11539 2da6 CC000000 		.4byte	.LVL156
 11540 2daa 653F0000 		.4byte	0x3f65
 11541 2dae B92D0000 		.4byte	0x2db9
 11542 2db2 29       		.uleb128 0x29
 11543 2db3 01       		.uleb128 0x1
 11544 2db4 50       		.byte	0x50
 11545 2db5 02       		.uleb128 0x2
 11546 2db6 75       		.byte	0x75
 11547 2db7 00       		.sleb128 0
 11548 2db8 00       		.byte	0
 11549 2db9 28       		.uleb128 0x28
 11550 2dba DE000000 		.4byte	.LVL159
 11551 2dbe 013F0000 		.4byte	0x3f01
 11552 2dc2 D82D0000 		.4byte	0x2dd8
 11553 2dc6 29       		.uleb128 0x29
 11554 2dc7 01       		.uleb128 0x1
 11555 2dc8 50       		.byte	0x50
 11556 2dc9 02       		.uleb128 0x2
 11557 2dca 75       		.byte	0x75
 11558 2dcb 00       		.sleb128 0
 11559 2dcc 29       		.uleb128 0x29
 11560 2dcd 01       		.uleb128 0x1
 11561 2dce 51       		.byte	0x51
 11562 2dcf 02       		.uleb128 0x2
 11563 2dd0 09       		.byte	0x9
 11564 2dd1 80       		.byte	0x80
 11565 2dd2 29       		.uleb128 0x29
 11566 2dd3 01       		.uleb128 0x1
 11567 2dd4 52       		.byte	0x52
 11568 2dd5 01       		.uleb128 0x1
 11569 2dd6 31       		.byte	0x31
 11570 2dd7 00       		.byte	0
 11571 2dd8 28       		.uleb128 0x28
ARM GAS  /var/folders/d2/nstgp4h54kz7g1l847x_b8wc0000gn/T//cc2apEbl.s 			page 204


 11572 2dd9 32010000 		.4byte	.LVL165
 11573 2ddd 013F0000 		.4byte	0x3f01
 11574 2de1 F72D0000 		.4byte	0x2df7
 11575 2de5 29       		.uleb128 0x29
 11576 2de6 01       		.uleb128 0x1
 11577 2de7 50       		.byte	0x50
 11578 2de8 02       		.uleb128 0x2
 11579 2de9 75       		.byte	0x75
 11580 2dea 00       		.sleb128 0
 11581 2deb 29       		.uleb128 0x29
 11582 2dec 01       		.uleb128 0x1
 11583 2ded 51       		.byte	0x51
 11584 2dee 02       		.uleb128 0x2
 11585 2def 09       		.byte	0x9
 11586 2df0 94       		.byte	0x94
 11587 2df1 29       		.uleb128 0x29
 11588 2df2 01       		.uleb128 0x1
 11589 2df3 52       		.byte	0x52
 11590 2df4 01       		.uleb128 0x1
 11591 2df5 32       		.byte	0x32
 11592 2df6 00       		.byte	0
 11593 2df7 28       		.uleb128 0x28
 11594 2df8 3A010000 		.4byte	.LVL167
 11595 2dfc FB330000 		.4byte	0x33fb
 11596 2e00 0B2E0000 		.4byte	0x2e0b
 11597 2e04 29       		.uleb128 0x29
 11598 2e05 01       		.uleb128 0x1
 11599 2e06 50       		.byte	0x50
 11600 2e07 02       		.uleb128 0x2
 11601 2e08 75       		.byte	0x75
 11602 2e09 00       		.sleb128 0
 11603 2e0a 00       		.byte	0
 11604 2e0b 28       		.uleb128 0x28
 11605 2e0c 4C010000 		.4byte	.LVL169
 11606 2e10 373F0000 		.4byte	0x3f37
 11607 2e14 2C2E0000 		.4byte	0x2e2c
 11608 2e18 29       		.uleb128 0x29
 11609 2e19 01       		.uleb128 0x1
 11610 2e1a 50       		.byte	0x50
 11611 2e1b 02       		.uleb128 0x2
 11612 2e1c 75       		.byte	0x75
 11613 2e1d 00       		.sleb128 0
 11614 2e1e 29       		.uleb128 0x29
 11615 2e1f 01       		.uleb128 0x1
 11616 2e20 51       		.byte	0x51
 11617 2e21 02       		.uleb128 0x2
 11618 2e22 09       		.byte	0x9
 11619 2e23 90       		.byte	0x90
 11620 2e24 29       		.uleb128 0x29
 11621 2e25 01       		.uleb128 0x1
 11622 2e26 52       		.byte	0x52
 11623 2e27 03       		.uleb128 0x3
 11624 2e28 91       		.byte	0x91
 11625 2e29 AA7F     		.sleb128 -86
 11626 2e2b 00       		.byte	0
 11627 2e2c 28       		.uleb128 0x28
 11628 2e2d 5A010000 		.4byte	.LVL172
ARM GAS  /var/folders/d2/nstgp4h54kz7g1l847x_b8wc0000gn/T//cc2apEbl.s 			page 205


 11629 2e31 013F0000 		.4byte	0x3f01
 11630 2e35 4C2E0000 		.4byte	0x2e4c
 11631 2e39 29       		.uleb128 0x29
 11632 2e3a 01       		.uleb128 0x1
 11633 2e3b 50       		.byte	0x50
 11634 2e3c 02       		.uleb128 0x2
 11635 2e3d 75       		.byte	0x75
 11636 2e3e 00       		.sleb128 0
 11637 2e3f 29       		.uleb128 0x29
 11638 2e40 01       		.uleb128 0x1
 11639 2e41 51       		.byte	0x51
 11640 2e42 02       		.uleb128 0x2
 11641 2e43 09       		.byte	0x9
 11642 2e44 94       		.byte	0x94
 11643 2e45 29       		.uleb128 0x29
 11644 2e46 01       		.uleb128 0x1
 11645 2e47 52       		.byte	0x52
 11646 2e48 02       		.uleb128 0x2
 11647 2e49 08       		.byte	0x8
 11648 2e4a 7B       		.byte	0x7b
 11649 2e4b 00       		.byte	0
 11650 2e4c 28       		.uleb128 0x28
 11651 2e4d 64010000 		.4byte	.LVL175
 11652 2e51 FB330000 		.4byte	0x33fb
 11653 2e55 602E0000 		.4byte	0x2e60
 11654 2e59 29       		.uleb128 0x29
 11655 2e5a 01       		.uleb128 0x1
 11656 2e5b 50       		.byte	0x50
 11657 2e5c 02       		.uleb128 0x2
 11658 2e5d 75       		.byte	0x75
 11659 2e5e 00       		.sleb128 0
 11660 2e5f 00       		.byte	0
 11661 2e60 28       		.uleb128 0x28
 11662 2e61 74010000 		.4byte	.LVL178
 11663 2e65 373F0000 		.4byte	0x3f37
 11664 2e69 812E0000 		.4byte	0x2e81
 11665 2e6d 29       		.uleb128 0x29
 11666 2e6e 01       		.uleb128 0x1
 11667 2e6f 50       		.byte	0x50
 11668 2e70 02       		.uleb128 0x2
 11669 2e71 75       		.byte	0x75
 11670 2e72 00       		.sleb128 0
 11671 2e73 29       		.uleb128 0x29
 11672 2e74 01       		.uleb128 0x1
 11673 2e75 51       		.byte	0x51
 11674 2e76 02       		.uleb128 0x2
 11675 2e77 09       		.byte	0x9
 11676 2e78 90       		.byte	0x90
 11677 2e79 29       		.uleb128 0x29
 11678 2e7a 01       		.uleb128 0x1
 11679 2e7b 52       		.byte	0x52
 11680 2e7c 03       		.uleb128 0x3
 11681 2e7d 91       		.byte	0x91
 11682 2e7e AB7F     		.sleb128 -85
 11683 2e80 00       		.byte	0
 11684 2e81 28       		.uleb128 0x28
 11685 2e82 82010000 		.4byte	.LVL181
ARM GAS  /var/folders/d2/nstgp4h54kz7g1l847x_b8wc0000gn/T//cc2apEbl.s 			page 206


 11686 2e86 013F0000 		.4byte	0x3f01
 11687 2e8a A12E0000 		.4byte	0x2ea1
 11688 2e8e 29       		.uleb128 0x29
 11689 2e8f 01       		.uleb128 0x1
 11690 2e90 50       		.byte	0x50
 11691 2e91 02       		.uleb128 0x2
 11692 2e92 75       		.byte	0x75
 11693 2e93 00       		.sleb128 0
 11694 2e94 29       		.uleb128 0x29
 11695 2e95 01       		.uleb128 0x1
 11696 2e96 51       		.byte	0x51
 11697 2e97 02       		.uleb128 0x2
 11698 2e98 09       		.byte	0x9
 11699 2e99 94       		.byte	0x94
 11700 2e9a 29       		.uleb128 0x29
 11701 2e9b 01       		.uleb128 0x1
 11702 2e9c 52       		.byte	0x52
 11703 2e9d 02       		.uleb128 0x2
 11704 2e9e 08       		.byte	0x8
 11705 2e9f 77       		.byte	0x77
 11706 2ea0 00       		.byte	0
 11707 2ea1 28       		.uleb128 0x28
 11708 2ea2 8C010000 		.4byte	.LVL184
 11709 2ea6 FB330000 		.4byte	0x33fb
 11710 2eaa B52E0000 		.4byte	0x2eb5
 11711 2eae 29       		.uleb128 0x29
 11712 2eaf 01       		.uleb128 0x1
 11713 2eb0 50       		.byte	0x50
 11714 2eb1 02       		.uleb128 0x2
 11715 2eb2 75       		.byte	0x75
 11716 2eb3 00       		.sleb128 0
 11717 2eb4 00       		.byte	0
 11718 2eb5 28       		.uleb128 0x28
 11719 2eb6 9A010000 		.4byte	.LVL187
 11720 2eba 703F0000 		.4byte	0x3f70
 11721 2ebe D62E0000 		.4byte	0x2ed6
 11722 2ec2 29       		.uleb128 0x29
 11723 2ec3 01       		.uleb128 0x1
 11724 2ec4 50       		.byte	0x50
 11725 2ec5 02       		.uleb128 0x2
 11726 2ec6 75       		.byte	0x75
 11727 2ec7 00       		.sleb128 0
 11728 2ec8 29       		.uleb128 0x29
 11729 2ec9 01       		.uleb128 0x1
 11730 2eca 51       		.byte	0x51
 11731 2ecb 02       		.uleb128 0x2
 11732 2ecc 09       		.byte	0x9
 11733 2ecd 90       		.byte	0x90
 11734 2ece 29       		.uleb128 0x29
 11735 2ecf 01       		.uleb128 0x1
 11736 2ed0 52       		.byte	0x52
 11737 2ed1 03       		.uleb128 0x3
 11738 2ed2 91       		.byte	0x91
 11739 2ed3 AC7F     		.sleb128 -84
 11740 2ed5 00       		.byte	0
 11741 2ed6 28       		.uleb128 0x28
 11742 2ed7 D4010000 		.4byte	.LVL190
ARM GAS  /var/folders/d2/nstgp4h54kz7g1l847x_b8wc0000gn/T//cc2apEbl.s 			page 207


 11743 2edb 013F0000 		.4byte	0x3f01
 11744 2edf F62E0000 		.4byte	0x2ef6
 11745 2ee3 29       		.uleb128 0x29
 11746 2ee4 01       		.uleb128 0x1
 11747 2ee5 50       		.byte	0x50
 11748 2ee6 02       		.uleb128 0x2
 11749 2ee7 75       		.byte	0x75
 11750 2ee8 00       		.sleb128 0
 11751 2ee9 29       		.uleb128 0x29
 11752 2eea 01       		.uleb128 0x1
 11753 2eeb 51       		.byte	0x51
 11754 2eec 02       		.uleb128 0x2
 11755 2eed 09       		.byte	0x9
 11756 2eee 94       		.byte	0x94
 11757 2eef 29       		.uleb128 0x29
 11758 2ef0 01       		.uleb128 0x1
 11759 2ef1 52       		.byte	0x52
 11760 2ef2 02       		.uleb128 0x2
 11761 2ef3 08       		.byte	0x8
 11762 2ef4 78       		.byte	0x78
 11763 2ef5 00       		.byte	0
 11764 2ef6 28       		.uleb128 0x28
 11765 2ef7 DE010000 		.4byte	.LVL193
 11766 2efb FB330000 		.4byte	0x33fb
 11767 2eff 0A2F0000 		.4byte	0x2f0a
 11768 2f03 29       		.uleb128 0x29
 11769 2f04 01       		.uleb128 0x1
 11770 2f05 50       		.byte	0x50
 11771 2f06 02       		.uleb128 0x2
 11772 2f07 75       		.byte	0x75
 11773 2f08 00       		.sleb128 0
 11774 2f09 00       		.byte	0
 11775 2f0a 28       		.uleb128 0x28
 11776 2f0b EC010000 		.4byte	.LVL196
 11777 2f0f 703F0000 		.4byte	0x3f70
 11778 2f13 2B2F0000 		.4byte	0x2f2b
 11779 2f17 29       		.uleb128 0x29
 11780 2f18 01       		.uleb128 0x1
 11781 2f19 50       		.byte	0x50
 11782 2f1a 02       		.uleb128 0x2
 11783 2f1b 75       		.byte	0x75
 11784 2f1c 00       		.sleb128 0
 11785 2f1d 29       		.uleb128 0x29
 11786 2f1e 01       		.uleb128 0x1
 11787 2f1f 51       		.byte	0x51
 11788 2f20 02       		.uleb128 0x2
 11789 2f21 09       		.byte	0x9
 11790 2f22 90       		.byte	0x90
 11791 2f23 29       		.uleb128 0x29
 11792 2f24 01       		.uleb128 0x1
 11793 2f25 52       		.byte	0x52
 11794 2f26 03       		.uleb128 0x3
 11795 2f27 91       		.byte	0x91
 11796 2f28 AC7F     		.sleb128 -84
 11797 2f2a 00       		.byte	0
 11798 2f2b 28       		.uleb128 0x28
 11799 2f2c 32020000 		.4byte	.LVL199
ARM GAS  /var/folders/d2/nstgp4h54kz7g1l847x_b8wc0000gn/T//cc2apEbl.s 			page 208


 11800 2f30 013F0000 		.4byte	0x3f01
 11801 2f34 4B2F0000 		.4byte	0x2f4b
 11802 2f38 29       		.uleb128 0x29
 11803 2f39 01       		.uleb128 0x1
 11804 2f3a 50       		.byte	0x50
 11805 2f3b 02       		.uleb128 0x2
 11806 2f3c 75       		.byte	0x75
 11807 2f3d 00       		.sleb128 0
 11808 2f3e 29       		.uleb128 0x29
 11809 2f3f 01       		.uleb128 0x1
 11810 2f40 51       		.byte	0x51
 11811 2f41 02       		.uleb128 0x2
 11812 2f42 09       		.byte	0x9
 11813 2f43 94       		.byte	0x94
 11814 2f44 29       		.uleb128 0x29
 11815 2f45 01       		.uleb128 0x1
 11816 2f46 52       		.byte	0x52
 11817 2f47 02       		.uleb128 0x2
 11818 2f48 08       		.byte	0x8
 11819 2f49 79       		.byte	0x79
 11820 2f4a 00       		.byte	0
 11821 2f4b 28       		.uleb128 0x28
 11822 2f4c 3C020000 		.4byte	.LVL202
 11823 2f50 FB330000 		.4byte	0x33fb
 11824 2f54 5F2F0000 		.4byte	0x2f5f
 11825 2f58 29       		.uleb128 0x29
 11826 2f59 01       		.uleb128 0x1
 11827 2f5a 50       		.byte	0x50
 11828 2f5b 02       		.uleb128 0x2
 11829 2f5c 75       		.byte	0x75
 11830 2f5d 00       		.sleb128 0
 11831 2f5e 00       		.byte	0
 11832 2f5f 28       		.uleb128 0x28
 11833 2f60 4A020000 		.4byte	.LVL205
 11834 2f64 703F0000 		.4byte	0x3f70
 11835 2f68 802F0000 		.4byte	0x2f80
 11836 2f6c 29       		.uleb128 0x29
 11837 2f6d 01       		.uleb128 0x1
 11838 2f6e 50       		.byte	0x50
 11839 2f6f 02       		.uleb128 0x2
 11840 2f70 75       		.byte	0x75
 11841 2f71 00       		.sleb128 0
 11842 2f72 29       		.uleb128 0x29
 11843 2f73 01       		.uleb128 0x1
 11844 2f74 51       		.byte	0x51
 11845 2f75 02       		.uleb128 0x2
 11846 2f76 09       		.byte	0x9
 11847 2f77 90       		.byte	0x90
 11848 2f78 29       		.uleb128 0x29
 11849 2f79 01       		.uleb128 0x1
 11850 2f7a 52       		.byte	0x52
 11851 2f7b 03       		.uleb128 0x3
 11852 2f7c 91       		.byte	0x91
 11853 2f7d AC7F     		.sleb128 -84
 11854 2f7f 00       		.byte	0
 11855 2f80 28       		.uleb128 0x28
 11856 2f81 8A020000 		.4byte	.LVL208
ARM GAS  /var/folders/d2/nstgp4h54kz7g1l847x_b8wc0000gn/T//cc2apEbl.s 			page 209


 11857 2f85 013F0000 		.4byte	0x3f01
 11858 2f89 A02F0000 		.4byte	0x2fa0
 11859 2f8d 29       		.uleb128 0x29
 11860 2f8e 01       		.uleb128 0x1
 11861 2f8f 50       		.byte	0x50
 11862 2f90 02       		.uleb128 0x2
 11863 2f91 75       		.byte	0x75
 11864 2f92 00       		.sleb128 0
 11865 2f93 29       		.uleb128 0x29
 11866 2f94 01       		.uleb128 0x1
 11867 2f95 51       		.byte	0x51
 11868 2f96 02       		.uleb128 0x2
 11869 2f97 09       		.byte	0x9
 11870 2f98 94       		.byte	0x94
 11871 2f99 29       		.uleb128 0x29
 11872 2f9a 01       		.uleb128 0x1
 11873 2f9b 52       		.byte	0x52
 11874 2f9c 02       		.uleb128 0x2
 11875 2f9d 08       		.byte	0x8
 11876 2f9e 7A       		.byte	0x7a
 11877 2f9f 00       		.byte	0
 11878 2fa0 28       		.uleb128 0x28
 11879 2fa1 94020000 		.4byte	.LVL211
 11880 2fa5 FB330000 		.4byte	0x33fb
 11881 2fa9 B42F0000 		.4byte	0x2fb4
 11882 2fad 29       		.uleb128 0x29
 11883 2fae 01       		.uleb128 0x1
 11884 2faf 50       		.byte	0x50
 11885 2fb0 02       		.uleb128 0x2
 11886 2fb1 75       		.byte	0x75
 11887 2fb2 00       		.sleb128 0
 11888 2fb3 00       		.byte	0
 11889 2fb4 28       		.uleb128 0x28
 11890 2fb5 A2020000 		.4byte	.LVL214
 11891 2fb9 703F0000 		.4byte	0x3f70
 11892 2fbd D52F0000 		.4byte	0x2fd5
 11893 2fc1 29       		.uleb128 0x29
 11894 2fc2 01       		.uleb128 0x1
 11895 2fc3 50       		.byte	0x50
 11896 2fc4 02       		.uleb128 0x2
 11897 2fc5 75       		.byte	0x75
 11898 2fc6 00       		.sleb128 0
 11899 2fc7 29       		.uleb128 0x29
 11900 2fc8 01       		.uleb128 0x1
 11901 2fc9 51       		.byte	0x51
 11902 2fca 02       		.uleb128 0x2
 11903 2fcb 09       		.byte	0x9
 11904 2fcc 90       		.byte	0x90
 11905 2fcd 29       		.uleb128 0x29
 11906 2fce 01       		.uleb128 0x1
 11907 2fcf 52       		.byte	0x52
 11908 2fd0 03       		.uleb128 0x3
 11909 2fd1 91       		.byte	0x91
 11910 2fd2 AC7F     		.sleb128 -84
 11911 2fd4 00       		.byte	0
 11912 2fd5 28       		.uleb128 0x28
 11913 2fd6 EC020000 		.4byte	.LVL219
ARM GAS  /var/folders/d2/nstgp4h54kz7g1l847x_b8wc0000gn/T//cc2apEbl.s 			page 210


 11914 2fda 013F0000 		.4byte	0x3f01
 11915 2fde F42F0000 		.4byte	0x2ff4
 11916 2fe2 29       		.uleb128 0x29
 11917 2fe3 01       		.uleb128 0x1
 11918 2fe4 50       		.byte	0x50
 11919 2fe5 02       		.uleb128 0x2
 11920 2fe6 75       		.byte	0x75
 11921 2fe7 00       		.sleb128 0
 11922 2fe8 29       		.uleb128 0x29
 11923 2fe9 01       		.uleb128 0x1
 11924 2fea 51       		.byte	0x51
 11925 2feb 02       		.uleb128 0x2
 11926 2fec 09       		.byte	0x9
 11927 2fed 81       		.byte	0x81
 11928 2fee 29       		.uleb128 0x29
 11929 2fef 01       		.uleb128 0x1
 11930 2ff0 52       		.byte	0x52
 11931 2ff1 01       		.uleb128 0x1
 11932 2ff2 30       		.byte	0x30
 11933 2ff3 00       		.byte	0
 11934 2ff4 28       		.uleb128 0x28
 11935 2ff5 F8020000 		.4byte	.LVL221
 11936 2ff9 013F0000 		.4byte	0x3f01
 11937 2ffd 13300000 		.4byte	0x3013
 11938 3001 29       		.uleb128 0x29
 11939 3002 01       		.uleb128 0x1
 11940 3003 50       		.byte	0x50
 11941 3004 02       		.uleb128 0x2
 11942 3005 75       		.byte	0x75
 11943 3006 00       		.sleb128 0
 11944 3007 29       		.uleb128 0x29
 11945 3008 01       		.uleb128 0x1
 11946 3009 51       		.byte	0x51
 11947 300a 02       		.uleb128 0x2
 11948 300b 09       		.byte	0x9
 11949 300c FF       		.byte	0xff
 11950 300d 29       		.uleb128 0x29
 11951 300e 01       		.uleb128 0x1
 11952 300f 52       		.byte	0x52
 11953 3010 01       		.uleb128 0x1
 11954 3011 36       		.byte	0x36
 11955 3012 00       		.byte	0
 11956 3013 28       		.uleb128 0x28
 11957 3014 08030000 		.4byte	.LVL224
 11958 3018 373F0000 		.4byte	0x3f37
 11959 301c 34300000 		.4byte	0x3034
 11960 3020 29       		.uleb128 0x29
 11961 3021 01       		.uleb128 0x1
 11962 3022 50       		.byte	0x50
 11963 3023 02       		.uleb128 0x2
 11964 3024 75       		.byte	0x75
 11965 3025 00       		.sleb128 0
 11966 3026 29       		.uleb128 0x29
 11967 3027 01       		.uleb128 0x1
 11968 3028 51       		.byte	0x51
 11969 3029 02       		.uleb128 0x2
 11970 302a 09       		.byte	0x9
ARM GAS  /var/folders/d2/nstgp4h54kz7g1l847x_b8wc0000gn/T//cc2apEbl.s 			page 211


 11971 302b 83       		.byte	0x83
 11972 302c 29       		.uleb128 0x29
 11973 302d 01       		.uleb128 0x1
 11974 302e 52       		.byte	0x52
 11975 302f 03       		.uleb128 0x3
 11976 3030 91       		.byte	0x91
 11977 3031 A97F     		.sleb128 -87
 11978 3033 00       		.byte	0
 11979 3034 28       		.uleb128 0x28
 11980 3035 1C030000 		.4byte	.LVL227
 11981 3039 013F0000 		.4byte	0x3f01
 11982 303d 4E300000 		.4byte	0x304e
 11983 3041 29       		.uleb128 0x29
 11984 3042 01       		.uleb128 0x1
 11985 3043 50       		.byte	0x50
 11986 3044 02       		.uleb128 0x2
 11987 3045 75       		.byte	0x75
 11988 3046 00       		.sleb128 0
 11989 3047 29       		.uleb128 0x29
 11990 3048 01       		.uleb128 0x1
 11991 3049 51       		.byte	0x51
 11992 304a 02       		.uleb128 0x2
 11993 304b 09       		.byte	0x9
 11994 304c 83       		.byte	0x83
 11995 304d 00       		.byte	0
 11996 304e 28       		.uleb128 0x28
 11997 304f 2A030000 		.4byte	.LVL230
 11998 3053 013F0000 		.4byte	0x3f01
 11999 3057 6D300000 		.4byte	0x306d
 12000 305b 29       		.uleb128 0x29
 12001 305c 01       		.uleb128 0x1
 12002 305d 50       		.byte	0x50
 12003 305e 02       		.uleb128 0x2
 12004 305f 75       		.byte	0x75
 12005 3060 00       		.sleb128 0
 12006 3061 29       		.uleb128 0x29
 12007 3062 01       		.uleb128 0x1
 12008 3063 51       		.byte	0x51
 12009 3064 02       		.uleb128 0x2
 12010 3065 09       		.byte	0x9
 12011 3066 FF       		.byte	0xff
 12012 3067 29       		.uleb128 0x29
 12013 3068 01       		.uleb128 0x1
 12014 3069 52       		.byte	0x52
 12015 306a 01       		.uleb128 0x1
 12016 306b 31       		.byte	0x31
 12017 306c 00       		.byte	0
 12018 306d 28       		.uleb128 0x28
 12019 306e 38030000 		.4byte	.LVL233
 12020 3072 013F0000 		.4byte	0x3f01
 12021 3076 8B300000 		.4byte	0x308b
 12022 307a 29       		.uleb128 0x29
 12023 307b 01       		.uleb128 0x1
 12024 307c 50       		.byte	0x50
 12025 307d 02       		.uleb128 0x2
 12026 307e 75       		.byte	0x75
 12027 307f 00       		.sleb128 0
ARM GAS  /var/folders/d2/nstgp4h54kz7g1l847x_b8wc0000gn/T//cc2apEbl.s 			page 212


 12028 3080 29       		.uleb128 0x29
 12029 3081 01       		.uleb128 0x1
 12030 3082 51       		.byte	0x51
 12031 3083 01       		.uleb128 0x1
 12032 3084 30       		.byte	0x30
 12033 3085 29       		.uleb128 0x29
 12034 3086 01       		.uleb128 0x1
 12035 3087 52       		.byte	0x52
 12036 3088 01       		.uleb128 0x1
 12037 3089 31       		.byte	0x31
 12038 308a 00       		.byte	0
 12039 308b 28       		.uleb128 0x28
 12040 308c 46030000 		.4byte	.LVL236
 12041 3090 013F0000 		.4byte	0x3f01
 12042 3094 AA300000 		.4byte	0x30aa
 12043 3098 29       		.uleb128 0x29
 12044 3099 01       		.uleb128 0x1
 12045 309a 50       		.byte	0x50
 12046 309b 02       		.uleb128 0x2
 12047 309c 75       		.byte	0x75
 12048 309d 00       		.sleb128 0
 12049 309e 29       		.uleb128 0x29
 12050 309f 01       		.uleb128 0x1
 12051 30a0 51       		.byte	0x51
 12052 30a1 02       		.uleb128 0x2
 12053 30a2 09       		.byte	0x9
 12054 30a3 FF       		.byte	0xff
 12055 30a4 29       		.uleb128 0x29
 12056 30a5 01       		.uleb128 0x1
 12057 30a6 52       		.byte	0x52
 12058 30a7 01       		.uleb128 0x1
 12059 30a8 30       		.byte	0x30
 12060 30a9 00       		.byte	0
 12061 30aa 28       		.uleb128 0x28
 12062 30ab 54030000 		.4byte	.LVL239
 12063 30af 013F0000 		.4byte	0x3f01
 12064 30b3 C9300000 		.4byte	0x30c9
 12065 30b7 29       		.uleb128 0x29
 12066 30b8 01       		.uleb128 0x1
 12067 30b9 50       		.byte	0x50
 12068 30ba 02       		.uleb128 0x2
 12069 30bb 75       		.byte	0x75
 12070 30bc 00       		.sleb128 0
 12071 30bd 29       		.uleb128 0x29
 12072 30be 01       		.uleb128 0x1
 12073 30bf 51       		.byte	0x51
 12074 30c0 02       		.uleb128 0x2
 12075 30c1 09       		.byte	0x9
 12076 30c2 80       		.byte	0x80
 12077 30c3 29       		.uleb128 0x29
 12078 30c4 01       		.uleb128 0x1
 12079 30c5 52       		.byte	0x52
 12080 30c6 01       		.uleb128 0x1
 12081 30c7 30       		.byte	0x30
 12082 30c8 00       		.byte	0
 12083 30c9 28       		.uleb128 0x28
 12084 30ca B2030000 		.4byte	.LVL250
ARM GAS  /var/folders/d2/nstgp4h54kz7g1l847x_b8wc0000gn/T//cc2apEbl.s 			page 213


 12085 30ce 7B3F0000 		.4byte	0x3f7b
 12086 30d2 E4300000 		.4byte	0x30e4
 12087 30d6 29       		.uleb128 0x29
 12088 30d7 01       		.uleb128 0x1
 12089 30d8 50       		.byte	0x50
 12090 30d9 03       		.uleb128 0x3
 12091 30da 75       		.byte	0x75
 12092 30db F301     		.sleb128 243
 12093 30dd 29       		.uleb128 0x29
 12094 30de 01       		.uleb128 0x1
 12095 30df 51       		.byte	0x51
 12096 30e0 02       		.uleb128 0x2
 12097 30e1 91       		.byte	0x91
 12098 30e2 40       		.sleb128 -64
 12099 30e3 00       		.byte	0
 12100 30e4 28       		.uleb128 0x28
 12101 30e5 EE030000 		.4byte	.LVL256
 12102 30e9 013F0000 		.4byte	0x3f01
 12103 30ed 04310000 		.4byte	0x3104
 12104 30f1 29       		.uleb128 0x29
 12105 30f2 01       		.uleb128 0x1
 12106 30f3 50       		.byte	0x50
 12107 30f4 02       		.uleb128 0x2
 12108 30f5 75       		.byte	0x75
 12109 30f6 00       		.sleb128 0
 12110 30f7 29       		.uleb128 0x29
 12111 30f8 01       		.uleb128 0x1
 12112 30f9 51       		.byte	0x51
 12113 30fa 02       		.uleb128 0x2
 12114 30fb 09       		.byte	0x9
 12115 30fc 94       		.byte	0x94
 12116 30fd 29       		.uleb128 0x29
 12117 30fe 01       		.uleb128 0x1
 12118 30ff 52       		.byte	0x52
 12119 3100 02       		.uleb128 0x2
 12120 3101 08       		.byte	0x8
 12121 3102 7B       		.byte	0x7b
 12122 3103 00       		.byte	0
 12123 3104 28       		.uleb128 0x28
 12124 3105 F6030000 		.4byte	.LVL258
 12125 3109 FB330000 		.4byte	0x33fb
 12126 310d 18310000 		.4byte	0x3118
 12127 3111 29       		.uleb128 0x29
 12128 3112 01       		.uleb128 0x1
 12129 3113 50       		.byte	0x50
 12130 3114 02       		.uleb128 0x2
 12131 3115 75       		.byte	0x75
 12132 3116 00       		.sleb128 0
 12133 3117 00       		.byte	0
 12134 3118 28       		.uleb128 0x28
 12135 3119 06040000 		.4byte	.LVL260
 12136 311d 703F0000 		.4byte	0x3f70
 12137 3121 39310000 		.4byte	0x3139
 12138 3125 29       		.uleb128 0x29
 12139 3126 01       		.uleb128 0x1
 12140 3127 50       		.byte	0x50
 12141 3128 02       		.uleb128 0x2
ARM GAS  /var/folders/d2/nstgp4h54kz7g1l847x_b8wc0000gn/T//cc2apEbl.s 			page 214


 12142 3129 75       		.byte	0x75
 12143 312a 00       		.sleb128 0
 12144 312b 29       		.uleb128 0x29
 12145 312c 01       		.uleb128 0x1
 12146 312d 51       		.byte	0x51
 12147 312e 02       		.uleb128 0x2
 12148 312f 09       		.byte	0x9
 12149 3130 90       		.byte	0x90
 12150 3131 29       		.uleb128 0x29
 12151 3132 01       		.uleb128 0x1
 12152 3133 52       		.byte	0x52
 12153 3134 03       		.uleb128 0x3
 12154 3135 91       		.byte	0x91
 12155 3136 B07F     		.sleb128 -80
 12156 3138 00       		.byte	0
 12157 3139 28       		.uleb128 0x28
 12158 313a 14040000 		.4byte	.LVL263
 12159 313e 013F0000 		.4byte	0x3f01
 12160 3142 59310000 		.4byte	0x3159
 12161 3146 29       		.uleb128 0x29
 12162 3147 01       		.uleb128 0x1
 12163 3148 50       		.byte	0x50
 12164 3149 02       		.uleb128 0x2
 12165 314a 75       		.byte	0x75
 12166 314b 00       		.sleb128 0
 12167 314c 29       		.uleb128 0x29
 12168 314d 01       		.uleb128 0x1
 12169 314e 51       		.byte	0x51
 12170 314f 02       		.uleb128 0x2
 12171 3150 09       		.byte	0x9
 12172 3151 94       		.byte	0x94
 12173 3152 29       		.uleb128 0x29
 12174 3153 01       		.uleb128 0x1
 12175 3154 52       		.byte	0x52
 12176 3155 02       		.uleb128 0x2
 12177 3156 08       		.byte	0x8
 12178 3157 7C       		.byte	0x7c
 12179 3158 00       		.byte	0
 12180 3159 28       		.uleb128 0x28
 12181 315a 1E040000 		.4byte	.LVL266
 12182 315e FB330000 		.4byte	0x33fb
 12183 3162 6D310000 		.4byte	0x316d
 12184 3166 29       		.uleb128 0x29
 12185 3167 01       		.uleb128 0x1
 12186 3168 50       		.byte	0x50
 12187 3169 02       		.uleb128 0x2
 12188 316a 75       		.byte	0x75
 12189 316b 00       		.sleb128 0
 12190 316c 00       		.byte	0
 12191 316d 28       		.uleb128 0x28
 12192 316e 2C040000 		.4byte	.LVL269
 12193 3172 703F0000 		.4byte	0x3f70
 12194 3176 8E310000 		.4byte	0x318e
 12195 317a 29       		.uleb128 0x29
 12196 317b 01       		.uleb128 0x1
 12197 317c 50       		.byte	0x50
 12198 317d 02       		.uleb128 0x2
ARM GAS  /var/folders/d2/nstgp4h54kz7g1l847x_b8wc0000gn/T//cc2apEbl.s 			page 215


 12199 317e 75       		.byte	0x75
 12200 317f 00       		.sleb128 0
 12201 3180 29       		.uleb128 0x29
 12202 3181 01       		.uleb128 0x1
 12203 3182 51       		.byte	0x51
 12204 3183 02       		.uleb128 0x2
 12205 3184 09       		.byte	0x9
 12206 3185 90       		.byte	0x90
 12207 3186 29       		.uleb128 0x29
 12208 3187 01       		.uleb128 0x1
 12209 3188 52       		.byte	0x52
 12210 3189 03       		.uleb128 0x3
 12211 318a 91       		.byte	0x91
 12212 318b B47F     		.sleb128 -76
 12213 318d 00       		.byte	0
 12214 318e 28       		.uleb128 0x28
 12215 318f 3A040000 		.4byte	.LVL272
 12216 3193 013F0000 		.4byte	0x3f01
 12217 3197 AE310000 		.4byte	0x31ae
 12218 319b 29       		.uleb128 0x29
 12219 319c 01       		.uleb128 0x1
 12220 319d 50       		.byte	0x50
 12221 319e 02       		.uleb128 0x2
 12222 319f 75       		.byte	0x75
 12223 31a0 00       		.sleb128 0
 12224 31a1 29       		.uleb128 0x29
 12225 31a2 01       		.uleb128 0x1
 12226 31a3 51       		.byte	0x51
 12227 31a4 02       		.uleb128 0x2
 12228 31a5 09       		.byte	0x9
 12229 31a6 94       		.byte	0x94
 12230 31a7 29       		.uleb128 0x29
 12231 31a8 01       		.uleb128 0x1
 12232 31a9 52       		.byte	0x52
 12233 31aa 02       		.uleb128 0x2
 12234 31ab 08       		.byte	0x8
 12235 31ac 73       		.byte	0x73
 12236 31ad 00       		.byte	0
 12237 31ae 28       		.uleb128 0x28
 12238 31af 44040000 		.4byte	.LVL275
 12239 31b3 FB330000 		.4byte	0x33fb
 12240 31b7 C2310000 		.4byte	0x31c2
 12241 31bb 29       		.uleb128 0x29
 12242 31bc 01       		.uleb128 0x1
 12243 31bd 50       		.byte	0x50
 12244 31be 02       		.uleb128 0x2
 12245 31bf 75       		.byte	0x75
 12246 31c0 00       		.sleb128 0
 12247 31c1 00       		.byte	0
 12248 31c2 28       		.uleb128 0x28
 12249 31c3 52040000 		.4byte	.LVL278
 12250 31c7 703F0000 		.4byte	0x3f70
 12251 31cb E3310000 		.4byte	0x31e3
 12252 31cf 29       		.uleb128 0x29
 12253 31d0 01       		.uleb128 0x1
 12254 31d1 50       		.byte	0x50
 12255 31d2 02       		.uleb128 0x2
ARM GAS  /var/folders/d2/nstgp4h54kz7g1l847x_b8wc0000gn/T//cc2apEbl.s 			page 216


 12256 31d3 75       		.byte	0x75
 12257 31d4 00       		.sleb128 0
 12258 31d5 29       		.uleb128 0x29
 12259 31d6 01       		.uleb128 0x1
 12260 31d7 51       		.byte	0x51
 12261 31d8 02       		.uleb128 0x2
 12262 31d9 09       		.byte	0x9
 12263 31da 90       		.byte	0x90
 12264 31db 29       		.uleb128 0x29
 12265 31dc 01       		.uleb128 0x1
 12266 31dd 52       		.byte	0x52
 12267 31de 03       		.uleb128 0x3
 12268 31df 91       		.byte	0x91
 12269 31e0 AC7F     		.sleb128 -84
 12270 31e2 00       		.byte	0
 12271 31e3 28       		.uleb128 0x28
 12272 31e4 68040000 		.4byte	.LVL281
 12273 31e8 013F0000 		.4byte	0x3f01
 12274 31ec 03320000 		.4byte	0x3203
 12275 31f0 29       		.uleb128 0x29
 12276 31f1 01       		.uleb128 0x1
 12277 31f2 50       		.byte	0x50
 12278 31f3 02       		.uleb128 0x2
 12279 31f4 75       		.byte	0x75
 12280 31f5 00       		.sleb128 0
 12281 31f6 29       		.uleb128 0x29
 12282 31f7 01       		.uleb128 0x1
 12283 31f8 51       		.byte	0x51
 12284 31f9 02       		.uleb128 0x2
 12285 31fa 09       		.byte	0x9
 12286 31fb 94       		.byte	0x94
 12287 31fc 29       		.uleb128 0x29
 12288 31fd 01       		.uleb128 0x1
 12289 31fe 52       		.byte	0x52
 12290 31ff 02       		.uleb128 0x2
 12291 3200 08       		.byte	0x8
 12292 3201 74       		.byte	0x74
 12293 3202 00       		.byte	0
 12294 3203 28       		.uleb128 0x28
 12295 3204 72040000 		.4byte	.LVL284
 12296 3208 FB330000 		.4byte	0x33fb
 12297 320c 17320000 		.4byte	0x3217
 12298 3210 29       		.uleb128 0x29
 12299 3211 01       		.uleb128 0x1
 12300 3212 50       		.byte	0x50
 12301 3213 02       		.uleb128 0x2
 12302 3214 75       		.byte	0x75
 12303 3215 00       		.sleb128 0
 12304 3216 00       		.byte	0
 12305 3217 28       		.uleb128 0x28
 12306 3218 80040000 		.4byte	.LVL287
 12307 321c 703F0000 		.4byte	0x3f70
 12308 3220 38320000 		.4byte	0x3238
 12309 3224 29       		.uleb128 0x29
 12310 3225 01       		.uleb128 0x1
 12311 3226 50       		.byte	0x50
 12312 3227 02       		.uleb128 0x2
ARM GAS  /var/folders/d2/nstgp4h54kz7g1l847x_b8wc0000gn/T//cc2apEbl.s 			page 217


 12313 3228 75       		.byte	0x75
 12314 3229 00       		.sleb128 0
 12315 322a 29       		.uleb128 0x29
 12316 322b 01       		.uleb128 0x1
 12317 322c 51       		.byte	0x51
 12318 322d 02       		.uleb128 0x2
 12319 322e 09       		.byte	0x9
 12320 322f 90       		.byte	0x90
 12321 3230 29       		.uleb128 0x29
 12322 3231 01       		.uleb128 0x1
 12323 3232 52       		.byte	0x52
 12324 3233 03       		.uleb128 0x3
 12325 3234 91       		.byte	0x91
 12326 3235 AC7F     		.sleb128 -84
 12327 3237 00       		.byte	0
 12328 3238 28       		.uleb128 0x28
 12329 3239 98040000 		.4byte	.LVL290
 12330 323d 013F0000 		.4byte	0x3f01
 12331 3241 58320000 		.4byte	0x3258
 12332 3245 29       		.uleb128 0x29
 12333 3246 01       		.uleb128 0x1
 12334 3247 50       		.byte	0x50
 12335 3248 02       		.uleb128 0x2
 12336 3249 75       		.byte	0x75
 12337 324a 00       		.sleb128 0
 12338 324b 29       		.uleb128 0x29
 12339 324c 01       		.uleb128 0x1
 12340 324d 51       		.byte	0x51
 12341 324e 02       		.uleb128 0x2
 12342 324f 09       		.byte	0x9
 12343 3250 94       		.byte	0x94
 12344 3251 29       		.uleb128 0x29
 12345 3252 01       		.uleb128 0x1
 12346 3253 52       		.byte	0x52
 12347 3254 02       		.uleb128 0x2
 12348 3255 08       		.byte	0x8
 12349 3256 75       		.byte	0x75
 12350 3257 00       		.byte	0
 12351 3258 28       		.uleb128 0x28
 12352 3259 A2040000 		.4byte	.LVL293
 12353 325d FB330000 		.4byte	0x33fb
 12354 3261 6C320000 		.4byte	0x326c
 12355 3265 29       		.uleb128 0x29
 12356 3266 01       		.uleb128 0x1
 12357 3267 50       		.byte	0x50
 12358 3268 02       		.uleb128 0x2
 12359 3269 75       		.byte	0x75
 12360 326a 00       		.sleb128 0
 12361 326b 00       		.byte	0
 12362 326c 28       		.uleb128 0x28
 12363 326d B0040000 		.4byte	.LVL296
 12364 3271 703F0000 		.4byte	0x3f70
 12365 3275 8D320000 		.4byte	0x328d
 12366 3279 29       		.uleb128 0x29
 12367 327a 01       		.uleb128 0x1
 12368 327b 50       		.byte	0x50
 12369 327c 02       		.uleb128 0x2
ARM GAS  /var/folders/d2/nstgp4h54kz7g1l847x_b8wc0000gn/T//cc2apEbl.s 			page 218


 12370 327d 75       		.byte	0x75
 12371 327e 00       		.sleb128 0
 12372 327f 29       		.uleb128 0x29
 12373 3280 01       		.uleb128 0x1
 12374 3281 51       		.byte	0x51
 12375 3282 02       		.uleb128 0x2
 12376 3283 09       		.byte	0x9
 12377 3284 90       		.byte	0x90
 12378 3285 29       		.uleb128 0x29
 12379 3286 01       		.uleb128 0x1
 12380 3287 52       		.byte	0x52
 12381 3288 03       		.uleb128 0x3
 12382 3289 91       		.byte	0x91
 12383 328a AC7F     		.sleb128 -84
 12384 328c 00       		.byte	0
 12385 328d 28       		.uleb128 0x28
 12386 328e C4040000 		.4byte	.LVL299
 12387 3292 013F0000 		.4byte	0x3f01
 12388 3296 AD320000 		.4byte	0x32ad
 12389 329a 29       		.uleb128 0x29
 12390 329b 01       		.uleb128 0x1
 12391 329c 50       		.byte	0x50
 12392 329d 02       		.uleb128 0x2
 12393 329e 75       		.byte	0x75
 12394 329f 00       		.sleb128 0
 12395 32a0 29       		.uleb128 0x29
 12396 32a1 01       		.uleb128 0x1
 12397 32a2 51       		.byte	0x51
 12398 32a3 02       		.uleb128 0x2
 12399 32a4 09       		.byte	0x9
 12400 32a5 94       		.byte	0x94
 12401 32a6 29       		.uleb128 0x29
 12402 32a7 01       		.uleb128 0x1
 12403 32a8 52       		.byte	0x52
 12404 32a9 02       		.uleb128 0x2
 12405 32aa 08       		.byte	0x8
 12406 32ab 76       		.byte	0x76
 12407 32ac 00       		.byte	0
 12408 32ad 28       		.uleb128 0x28
 12409 32ae CE040000 		.4byte	.LVL302
 12410 32b2 FB330000 		.4byte	0x33fb
 12411 32b6 C1320000 		.4byte	0x32c1
 12412 32ba 29       		.uleb128 0x29
 12413 32bb 01       		.uleb128 0x1
 12414 32bc 50       		.byte	0x50
 12415 32bd 02       		.uleb128 0x2
 12416 32be 75       		.byte	0x75
 12417 32bf 00       		.sleb128 0
 12418 32c0 00       		.byte	0
 12419 32c1 28       		.uleb128 0x28
 12420 32c2 DC040000 		.4byte	.LVL303
 12421 32c6 703F0000 		.4byte	0x3f70
 12422 32ca E2320000 		.4byte	0x32e2
 12423 32ce 29       		.uleb128 0x29
 12424 32cf 01       		.uleb128 0x1
 12425 32d0 50       		.byte	0x50
 12426 32d1 02       		.uleb128 0x2
ARM GAS  /var/folders/d2/nstgp4h54kz7g1l847x_b8wc0000gn/T//cc2apEbl.s 			page 219


 12427 32d2 75       		.byte	0x75
 12428 32d3 00       		.sleb128 0
 12429 32d4 29       		.uleb128 0x29
 12430 32d5 01       		.uleb128 0x1
 12431 32d6 51       		.byte	0x51
 12432 32d7 02       		.uleb128 0x2
 12433 32d8 09       		.byte	0x9
 12434 32d9 90       		.byte	0x90
 12435 32da 29       		.uleb128 0x29
 12436 32db 01       		.uleb128 0x1
 12437 32dc 52       		.byte	0x52
 12438 32dd 03       		.uleb128 0x3
 12439 32de 91       		.byte	0x91
 12440 32df AC7F     		.sleb128 -84
 12441 32e1 00       		.byte	0
 12442 32e2 28       		.uleb128 0x28
 12443 32e3 FA040000 		.4byte	.LVL309
 12444 32e7 013F0000 		.4byte	0x3f01
 12445 32eb 02330000 		.4byte	0x3302
 12446 32ef 29       		.uleb128 0x29
 12447 32f0 01       		.uleb128 0x1
 12448 32f1 50       		.byte	0x50
 12449 32f2 02       		.uleb128 0x2
 12450 32f3 75       		.byte	0x75
 12451 32f4 00       		.sleb128 0
 12452 32f5 29       		.uleb128 0x29
 12453 32f6 01       		.uleb128 0x1
 12454 32f7 51       		.byte	0x51
 12455 32f8 02       		.uleb128 0x2
 12456 32f9 09       		.byte	0x9
 12457 32fa 94       		.byte	0x94
 12458 32fb 29       		.uleb128 0x29
 12459 32fc 01       		.uleb128 0x1
 12460 32fd 52       		.byte	0x52
 12461 32fe 02       		.uleb128 0x2
 12462 32ff 08       		.byte	0x8
 12463 3300 6B       		.byte	0x6b
 12464 3301 00       		.byte	0
 12465 3302 28       		.uleb128 0x28
 12466 3303 02050000 		.4byte	.LVL311
 12467 3307 FB330000 		.4byte	0x33fb
 12468 330b 16330000 		.4byte	0x3316
 12469 330f 29       		.uleb128 0x29
 12470 3310 01       		.uleb128 0x1
 12471 3311 50       		.byte	0x50
 12472 3312 02       		.uleb128 0x2
 12473 3313 75       		.byte	0x75
 12474 3314 00       		.sleb128 0
 12475 3315 00       		.byte	0
 12476 3316 28       		.uleb128 0x28
 12477 3317 12050000 		.4byte	.LVL313
 12478 331b 703F0000 		.4byte	0x3f70
 12479 331f 37330000 		.4byte	0x3337
 12480 3323 29       		.uleb128 0x29
 12481 3324 01       		.uleb128 0x1
 12482 3325 50       		.byte	0x50
 12483 3326 02       		.uleb128 0x2
ARM GAS  /var/folders/d2/nstgp4h54kz7g1l847x_b8wc0000gn/T//cc2apEbl.s 			page 220


 12484 3327 75       		.byte	0x75
 12485 3328 00       		.sleb128 0
 12486 3329 29       		.uleb128 0x29
 12487 332a 01       		.uleb128 0x1
 12488 332b 51       		.byte	0x51
 12489 332c 02       		.uleb128 0x2
 12490 332d 09       		.byte	0x9
 12491 332e 90       		.byte	0x90
 12492 332f 29       		.uleb128 0x29
 12493 3330 01       		.uleb128 0x1
 12494 3331 52       		.byte	0x52
 12495 3332 03       		.uleb128 0x3
 12496 3333 91       		.byte	0x91
 12497 3334 AC7F     		.sleb128 -84
 12498 3336 00       		.byte	0
 12499 3337 28       		.uleb128 0x28
 12500 3338 30050000 		.4byte	.LVL316
 12501 333c 013F0000 		.4byte	0x3f01
 12502 3340 57330000 		.4byte	0x3357
 12503 3344 29       		.uleb128 0x29
 12504 3345 01       		.uleb128 0x1
 12505 3346 50       		.byte	0x50
 12506 3347 02       		.uleb128 0x2
 12507 3348 75       		.byte	0x75
 12508 3349 00       		.sleb128 0
 12509 334a 29       		.uleb128 0x29
 12510 334b 01       		.uleb128 0x1
 12511 334c 51       		.byte	0x51
 12512 334d 02       		.uleb128 0x2
 12513 334e 09       		.byte	0x9
 12514 334f 94       		.byte	0x94
 12515 3350 29       		.uleb128 0x29
 12516 3351 01       		.uleb128 0x1
 12517 3352 52       		.byte	0x52
 12518 3353 02       		.uleb128 0x2
 12519 3354 08       		.byte	0x8
 12520 3355 24       		.byte	0x24
 12521 3356 00       		.byte	0
 12522 3357 28       		.uleb128 0x28
 12523 3358 3A050000 		.4byte	.LVL319
 12524 335c FB330000 		.4byte	0x33fb
 12525 3360 6B330000 		.4byte	0x336b
 12526 3364 29       		.uleb128 0x29
 12527 3365 01       		.uleb128 0x1
 12528 3366 50       		.byte	0x50
 12529 3367 02       		.uleb128 0x2
 12530 3368 75       		.byte	0x75
 12531 3369 00       		.sleb128 0
 12532 336a 00       		.byte	0
 12533 336b 28       		.uleb128 0x28
 12534 336c 48050000 		.4byte	.LVL322
 12535 3370 703F0000 		.4byte	0x3f70
 12536 3374 8C330000 		.4byte	0x338c
 12537 3378 29       		.uleb128 0x29
 12538 3379 01       		.uleb128 0x1
 12539 337a 50       		.byte	0x50
 12540 337b 02       		.uleb128 0x2
ARM GAS  /var/folders/d2/nstgp4h54kz7g1l847x_b8wc0000gn/T//cc2apEbl.s 			page 221


 12541 337c 75       		.byte	0x75
 12542 337d 00       		.sleb128 0
 12543 337e 29       		.uleb128 0x29
 12544 337f 01       		.uleb128 0x1
 12545 3380 51       		.byte	0x51
 12546 3381 02       		.uleb128 0x2
 12547 3382 09       		.byte	0x9
 12548 3383 90       		.byte	0x90
 12549 3384 29       		.uleb128 0x29
 12550 3385 01       		.uleb128 0x1
 12551 3386 52       		.byte	0x52
 12552 3387 03       		.uleb128 0x3
 12553 3388 91       		.byte	0x91
 12554 3389 AC7F     		.sleb128 -84
 12555 338b 00       		.byte	0
 12556 338c 28       		.uleb128 0x28
 12557 338d 70050000 		.4byte	.LVL325
 12558 3391 013F0000 		.4byte	0x3f01
 12559 3395 AC330000 		.4byte	0x33ac
 12560 3399 29       		.uleb128 0x29
 12561 339a 01       		.uleb128 0x1
 12562 339b 50       		.byte	0x50
 12563 339c 02       		.uleb128 0x2
 12564 339d 75       		.byte	0x75
 12565 339e 00       		.sleb128 0
 12566 339f 29       		.uleb128 0x29
 12567 33a0 01       		.uleb128 0x1
 12568 33a1 51       		.byte	0x51
 12569 33a2 02       		.uleb128 0x2
 12570 33a3 09       		.byte	0x9
 12571 33a4 94       		.byte	0x94
 12572 33a5 29       		.uleb128 0x29
 12573 33a6 01       		.uleb128 0x1
 12574 33a7 52       		.byte	0x52
 12575 33a8 02       		.uleb128 0x2
 12576 33a9 08       		.byte	0x8
 12577 33aa 25       		.byte	0x25
 12578 33ab 00       		.byte	0
 12579 33ac 28       		.uleb128 0x28
 12580 33ad 7A050000 		.4byte	.LVL328
 12581 33b1 FB330000 		.4byte	0x33fb
 12582 33b5 C0330000 		.4byte	0x33c0
 12583 33b9 29       		.uleb128 0x29
 12584 33ba 01       		.uleb128 0x1
 12585 33bb 50       		.byte	0x50
 12586 33bc 02       		.uleb128 0x2
 12587 33bd 75       		.byte	0x75
 12588 33be 00       		.sleb128 0
 12589 33bf 00       		.byte	0
 12590 33c0 28       		.uleb128 0x28
 12591 33c1 88050000 		.4byte	.LVL331
 12592 33c5 703F0000 		.4byte	0x3f70
 12593 33c9 E1330000 		.4byte	0x33e1
 12594 33cd 29       		.uleb128 0x29
 12595 33ce 01       		.uleb128 0x1
 12596 33cf 50       		.byte	0x50
 12597 33d0 02       		.uleb128 0x2
ARM GAS  /var/folders/d2/nstgp4h54kz7g1l847x_b8wc0000gn/T//cc2apEbl.s 			page 222


 12598 33d1 75       		.byte	0x75
 12599 33d2 00       		.sleb128 0
 12600 33d3 29       		.uleb128 0x29
 12601 33d4 01       		.uleb128 0x1
 12602 33d5 51       		.byte	0x51
 12603 33d6 02       		.uleb128 0x2
 12604 33d7 09       		.byte	0x9
 12605 33d8 90       		.byte	0x90
 12606 33d9 29       		.uleb128 0x29
 12607 33da 01       		.uleb128 0x1
 12608 33db 52       		.byte	0x52
 12609 33dc 03       		.uleb128 0x3
 12610 33dd 91       		.byte	0x91
 12611 33de AC7F     		.sleb128 -84
 12612 33e0 00       		.byte	0
 12613 33e1 2A       		.uleb128 0x2a
 12614 33e2 BC050000 		.4byte	.LVL340
 12615 33e6 173F0000 		.4byte	0x3f17
 12616 33ea 00       		.byte	0
 12617 33eb 08       		.uleb128 0x8
 12618 33ec 98010000 		.4byte	0x198
 12619 33f0 FB330000 		.4byte	0x33fb
 12620 33f4 09       		.uleb128 0x9
 12621 33f5 25000000 		.4byte	0x25
 12622 33f9 12       		.byte	0x12
 12623 33fa 00       		.byte	0
 12624 33fb 3C       		.uleb128 0x3c
 12625 33fc D30A0000 		.4byte	.LASF424
 12626 3400 01       		.byte	0x1
 12627 3401 B2       		.byte	0xb2
 12628 3402 AF010000 		.4byte	0x1af
 12629 3406 00000000 		.4byte	.LFB9
 12630 340a 64000000 		.4byte	.LFE9-.LFB9
 12631 340e 01       		.uleb128 0x1
 12632 340f 9C       		.byte	0x9c
 12633 3410 B7340000 		.4byte	0x34b7
 12634 3414 3D       		.uleb128 0x3d
 12635 3415 44657600 		.ascii	"Dev\000"
 12636 3419 01       		.byte	0x1
 12637 341a B2       		.byte	0xb2
 12638 341b 690F0000 		.4byte	0xf69
 12639 341f 8F2F0000 		.4byte	.LLST50
 12640 3423 3F       		.uleb128 0x3f
 12641 3424 C1020000 		.4byte	.LASF248
 12642 3428 01       		.byte	0x1
 12643 3429 B4       		.byte	0xb4
 12644 342a AF010000 		.4byte	0x1af
 12645 342e AD2F0000 		.4byte	.LLST51
 12646 3432 40       		.uleb128 0x40
 12647 3433 74110000 		.4byte	.LASF425
 12648 3437 01       		.byte	0x1
 12649 3438 B5       		.byte	0xb5
 12650 3439 C3000000 		.4byte	0xc3
 12651 343d 02       		.uleb128 0x2
 12652 343e 91       		.byte	0x91
 12653 343f 63       		.sleb128 -29
 12654 3440 3F       		.uleb128 0x3f
ARM GAS  /var/folders/d2/nstgp4h54kz7g1l847x_b8wc0000gn/T//cc2apEbl.s 			page 223


 12655 3441 DB050000 		.4byte	.LASF426
 12656 3445 01       		.byte	0x1
 12657 3446 B6       		.byte	0xb6
 12658 3447 EF000000 		.4byte	0xef
 12659 344b FD2F0000 		.4byte	.LLST52
 12660 344f 28       		.uleb128 0x28
 12661 3450 14000000 		.4byte	.LVL114
 12662 3454 013F0000 		.4byte	0x3f01
 12663 3458 6E340000 		.4byte	0x346e
 12664 345c 29       		.uleb128 0x29
 12665 345d 01       		.uleb128 0x1
 12666 345e 50       		.byte	0x50
 12667 345f 02       		.uleb128 0x2
 12668 3460 76       		.byte	0x76
 12669 3461 00       		.sleb128 0
 12670 3462 29       		.uleb128 0x29
 12671 3463 01       		.uleb128 0x1
 12672 3464 51       		.byte	0x51
 12673 3465 02       		.uleb128 0x2
 12674 3466 09       		.byte	0x9
 12675 3467 83       		.byte	0x83
 12676 3468 29       		.uleb128 0x29
 12677 3469 01       		.uleb128 0x1
 12678 346a 52       		.byte	0x52
 12679 346b 01       		.uleb128 0x1
 12680 346c 30       		.byte	0x30
 12681 346d 00       		.byte	0
 12682 346e 28       		.uleb128 0x28
 12683 346f 30000000 		.4byte	.LVL120
 12684 3473 373F0000 		.4byte	0x3f37
 12685 3477 8E340000 		.4byte	0x348e
 12686 347b 29       		.uleb128 0x29
 12687 347c 01       		.uleb128 0x1
 12688 347d 50       		.byte	0x50
 12689 347e 02       		.uleb128 0x2
 12690 347f 76       		.byte	0x76
 12691 3480 00       		.sleb128 0
 12692 3481 29       		.uleb128 0x29
 12693 3482 01       		.uleb128 0x1
 12694 3483 51       		.byte	0x51
 12695 3484 02       		.uleb128 0x2
 12696 3485 09       		.byte	0x9
 12697 3486 83       		.byte	0x83
 12698 3487 29       		.uleb128 0x29
 12699 3488 01       		.uleb128 0x1
 12700 3489 52       		.byte	0x52
 12701 348a 02       		.uleb128 0x2
 12702 348b 91       		.byte	0x91
 12703 348c 63       		.sleb128 -29
 12704 348d 00       		.byte	0
 12705 348e 28       		.uleb128 0x28
 12706 348f 44000000 		.4byte	.LVL123
 12707 3493 013F0000 		.4byte	0x3f01
 12708 3497 AD340000 		.4byte	0x34ad
 12709 349b 29       		.uleb128 0x29
 12710 349c 01       		.uleb128 0x1
 12711 349d 50       		.byte	0x50
ARM GAS  /var/folders/d2/nstgp4h54kz7g1l847x_b8wc0000gn/T//cc2apEbl.s 			page 224


 12712 349e 02       		.uleb128 0x2
 12713 349f 76       		.byte	0x76
 12714 34a0 00       		.sleb128 0
 12715 34a1 29       		.uleb128 0x29
 12716 34a2 01       		.uleb128 0x1
 12717 34a3 51       		.byte	0x51
 12718 34a4 02       		.uleb128 0x2
 12719 34a5 09       		.byte	0x9
 12720 34a6 83       		.byte	0x83
 12721 34a7 29       		.uleb128 0x29
 12722 34a8 01       		.uleb128 0x1
 12723 34a9 52       		.byte	0x52
 12724 34aa 01       		.uleb128 0x1
 12725 34ab 31       		.byte	0x31
 12726 34ac 00       		.byte	0
 12727 34ad 2A       		.uleb128 0x2a
 12728 34ae 5E000000 		.4byte	.LVL127
 12729 34b2 173F0000 		.4byte	0x3f17
 12730 34b6 00       		.byte	0
 12731 34b7 3C       		.uleb128 0x3c
 12732 34b8 A40F0000 		.4byte	.LASF427
 12733 34bc 01       		.byte	0x1
 12734 34bd 9B       		.byte	0x9b
 12735 34be EF000000 		.4byte	0xef
 12736 34c2 00000000 		.4byte	.LFB8
 12737 34c6 64000000 		.4byte	.LFE8-.LFB8
 12738 34ca 01       		.uleb128 0x1
 12739 34cb 9C       		.byte	0x9c
 12740 34cc 30350000 		.4byte	0x3530
 12741 34d0 3D       		.uleb128 0x3d
 12742 34d1 6100     		.ascii	"a\000"
 12743 34d3 01       		.byte	0x1
 12744 34d4 9B       		.byte	0x9b
 12745 34d5 EF000000 		.4byte	0xef
 12746 34d9 49300000 		.4byte	.LLST46
 12747 34dd 3D       		.uleb128 0x3d
 12748 34de 6200     		.ascii	"b\000"
 12749 34e0 01       		.byte	0x1
 12750 34e1 9B       		.byte	0x9b
 12751 34e2 EF000000 		.4byte	0xef
 12752 34e6 9C300000 		.4byte	.LLST47
 12753 34ea 42       		.uleb128 0x42
 12754 34eb 72657300 		.ascii	"res\000"
 12755 34ef 01       		.byte	0x1
 12756 34f0 A7       		.byte	0xa7
 12757 34f1 EF000000 		.4byte	0xef
 12758 34f5 D6300000 		.4byte	.LLST48
 12759 34f9 43       		.uleb128 0x43
 12760 34fa 30350000 		.4byte	0x3530
 12761 34fe 1E000000 		.4byte	.LBB132
 12762 3502 78000000 		.4byte	.Ldebug_ranges0+0x78
 12763 3506 01       		.byte	0x1
 12764 3507 AC       		.byte	0xac
 12765 3508 26350000 		.4byte	0x3526
 12766 350c 2F       		.uleb128 0x2f
 12767 350d 40350000 		.4byte	0x3540
 12768 3511 01310000 		.4byte	.LLST49
ARM GAS  /var/folders/d2/nstgp4h54kz7g1l847x_b8wc0000gn/T//cc2apEbl.s 			page 225


 12769 3515 30       		.uleb128 0x30
 12770 3516 78000000 		.4byte	.Ldebug_ranges0+0x78
 12771 351a 31       		.uleb128 0x31
 12772 351b 7E3A0000 		.4byte	0x3a7e
 12773 351f 31       		.uleb128 0x31
 12774 3520 873A0000 		.4byte	0x3a87
 12775 3524 00       		.byte	0
 12776 3525 00       		.byte	0
 12777 3526 2A       		.uleb128 0x2a
 12778 3527 5E000000 		.4byte	.LVL111
 12779 352b 173F0000 		.4byte	0x3f17
 12780 352f 00       		.byte	0
 12781 3530 44       		.uleb128 0x44
 12782 3531 FA100000 		.4byte	.LASF428
 12783 3535 01       		.byte	0x1
 12784 3536 7B       		.byte	0x7b
 12785 3537 EF000000 		.4byte	0xef
 12786 353b 01       		.byte	0x1
 12787 353c 62350000 		.4byte	0x3562
 12788 3540 45       		.uleb128 0x45
 12789 3541 6E756D00 		.ascii	"num\000"
 12790 3545 01       		.byte	0x1
 12791 3546 7B       		.byte	0x7b
 12792 3547 EF000000 		.4byte	0xef
 12793 354b 46       		.uleb128 0x46
 12794 354c 72657300 		.ascii	"res\000"
 12795 3550 01       		.byte	0x1
 12796 3551 83       		.byte	0x83
 12797 3552 EF000000 		.4byte	0xef
 12798 3556 46       		.uleb128 0x46
 12799 3557 62697400 		.ascii	"bit\000"
 12800 355b 01       		.byte	0x1
 12801 355c 84       		.byte	0x84
 12802 355d EF000000 		.4byte	0xef
 12803 3561 00       		.byte	0
 12804 3562 44       		.uleb128 0x44
 12805 3563 DC120000 		.4byte	.LASF429
 12806 3567 01       		.byte	0x1
 12807 3568 6C       		.byte	0x6c
 12808 3569 C3000000 		.4byte	0xc3
 12809 356d 01       		.byte	0x1
 12810 356e 89350000 		.4byte	0x3589
 12811 3572 47       		.uleb128 0x47
 12812 3573 B8110000 		.4byte	.LASF397
 12813 3577 01       		.byte	0x1
 12814 3578 6C       		.byte	0x6c
 12815 3579 C3000000 		.4byte	0xc3
 12816 357d 48       		.uleb128 0x48
 12817 357e BE070000 		.4byte	.LASF371
 12818 3582 01       		.byte	0x1
 12819 3583 73       		.byte	0x73
 12820 3584 C3000000 		.4byte	0xc3
 12821 3588 00       		.byte	0
 12822 3589 44       		.uleb128 0x44
 12823 358a 8F030000 		.4byte	.LASF430
 12824 358e 01       		.byte	0x1
 12825 358f 5E       		.byte	0x5e
ARM GAS  /var/folders/d2/nstgp4h54kz7g1l847x_b8wc0000gn/T//cc2apEbl.s 			page 226


 12826 3590 C3000000 		.4byte	0xc3
 12827 3594 01       		.byte	0x1
 12828 3595 B0350000 		.4byte	0x35b0
 12829 3599 47       		.uleb128 0x47
 12830 359a BE070000 		.4byte	.LASF371
 12831 359e 01       		.byte	0x1
 12832 359f 5E       		.byte	0x5e
 12833 35a0 C3000000 		.4byte	0xc3
 12834 35a4 48       		.uleb128 0x48
 12835 35a5 B8110000 		.4byte	.LASF397
 12836 35a9 01       		.byte	0x1
 12837 35aa 65       		.byte	0x65
 12838 35ab C3000000 		.4byte	0xc3
 12839 35af 00       		.byte	0
 12840 35b0 3C       		.uleb128 0x3c
 12841 35b1 B0130000 		.4byte	.LASF431
 12842 35b5 01       		.byte	0x1
 12843 35b6 3D       		.byte	0x3d
 12844 35b7 AF010000 		.4byte	0x1af
 12845 35bb 00000000 		.4byte	.LFB4
 12846 35bf 54000000 		.4byte	.LFE4-.LFB4
 12847 35c3 01       		.uleb128 0x1
 12848 35c4 9C       		.byte	0x9c
 12849 35c5 3C360000 		.4byte	0x363c
 12850 35c9 3D       		.uleb128 0x3d
 12851 35ca 44657600 		.ascii	"Dev\000"
 12852 35ce 01       		.byte	0x1
 12853 35cf 3D       		.byte	0x3d
 12854 35d0 690F0000 		.4byte	0xf69
 12855 35d4 1F310000 		.4byte	.LLST36
 12856 35d8 3F       		.uleb128 0x3f
 12857 35d9 C1020000 		.4byte	.LASF248
 12858 35dd 01       		.byte	0x1
 12859 35de 3F       		.byte	0x3f
 12860 35df AF010000 		.4byte	0x1af
 12861 35e3 3D310000 		.4byte	.LLST37
 12862 35e7 40       		.uleb128 0x40
 12863 35e8 0D070000 		.4byte	.LASF432
 12864 35ec 01       		.byte	0x1
 12865 35ed 40       		.byte	0x40
 12866 35ee C3000000 		.4byte	0xc3
 12867 35f2 02       		.uleb128 0x2
 12868 35f3 91       		.byte	0x91
 12869 35f4 63       		.sleb128 -29
 12870 35f5 3F       		.uleb128 0x3f
 12871 35f6 DB050000 		.4byte	.LASF426
 12872 35fa 01       		.byte	0x1
 12873 35fb 41       		.byte	0x41
 12874 35fc EF000000 		.4byte	0xef
 12875 3600 72310000 		.4byte	.LLST38
 12876 3604 28       		.uleb128 0x28
 12877 3605 2C000000 		.4byte	.LVL61
 12878 3609 653F0000 		.4byte	0x3f65
 12879 360d 18360000 		.4byte	0x3618
 12880 3611 29       		.uleb128 0x29
 12881 3612 01       		.uleb128 0x1
 12882 3613 50       		.byte	0x50
ARM GAS  /var/folders/d2/nstgp4h54kz7g1l847x_b8wc0000gn/T//cc2apEbl.s 			page 227


 12883 3614 02       		.uleb128 0x2
 12884 3615 75       		.byte	0x75
 12885 3616 00       		.sleb128 0
 12886 3617 00       		.byte	0
 12887 3618 28       		.uleb128 0x28
 12888 3619 34000000 		.4byte	.LVL62
 12889 361d 863F0000 		.4byte	0x3f86
 12890 3621 32360000 		.4byte	0x3632
 12891 3625 29       		.uleb128 0x29
 12892 3626 01       		.uleb128 0x1
 12893 3627 50       		.byte	0x50
 12894 3628 02       		.uleb128 0x2
 12895 3629 75       		.byte	0x75
 12896 362a 00       		.sleb128 0
 12897 362b 29       		.uleb128 0x29
 12898 362c 01       		.uleb128 0x1
 12899 362d 51       		.byte	0x51
 12900 362e 02       		.uleb128 0x2
 12901 362f 76       		.byte	0x76
 12902 3630 00       		.sleb128 0
 12903 3631 00       		.byte	0
 12904 3632 2A       		.uleb128 0x2a
 12905 3633 4E000000 		.4byte	.LVL67
 12906 3637 173F0000 		.4byte	0x3f17
 12907 363b 00       		.byte	0
 12908 363c 3C       		.uleb128 0x3c
 12909 363d 04040000 		.4byte	.LASF433
 12910 3641 01       		.byte	0x1
 12911 3642 2C       		.byte	0x2c
 12912 3643 AF010000 		.4byte	0x1af
 12913 3647 00000000 		.4byte	.LFB3
 12914 364b 3C000000 		.4byte	.LFE3-.LFB3
 12915 364f 01       		.uleb128 0x1
 12916 3650 9C       		.byte	0x9c
 12917 3651 C5360000 		.4byte	0x36c5
 12918 3655 3E       		.uleb128 0x3e
 12919 3656 CB110000 		.4byte	.LASF434
 12920 365a 01       		.byte	0x1
 12921 365b 2C       		.byte	0x2c
 12922 365c 97060000 		.4byte	0x697
 12923 3660 CA310000 		.4byte	.LLST30
 12924 3664 3E       		.uleb128 0x3e
 12925 3665 B9060000 		.4byte	.LASF435
 12926 3669 01       		.byte	0x1
 12927 366a 2C       		.byte	0x2c
 12928 366b EF000000 		.4byte	0xef
 12929 366f EB310000 		.4byte	.LLST31
 12930 3673 49       		.uleb128 0x49
 12931 3674 C1020000 		.4byte	.LASF248
 12932 3678 01       		.byte	0x1
 12933 3679 2E       		.byte	0x2e
 12934 367a AF010000 		.4byte	0x1af
 12935 367e 00       		.byte	0
 12936 367f 3F       		.uleb128 0x3f
 12937 3680 8E070000 		.4byte	.LASF436
 12938 3684 01       		.byte	0x1
 12939 3685 2F       		.byte	0x2f
ARM GAS  /var/folders/d2/nstgp4h54kz7g1l847x_b8wc0000gn/T//cc2apEbl.s 			page 228


 12940 3686 C3000000 		.4byte	0xc3
 12941 368a 0C320000 		.4byte	.LLST32
 12942 368e 3F       		.uleb128 0x3f
 12943 368f 68090000 		.4byte	.LASF437
 12944 3693 01       		.byte	0x1
 12945 3694 30       		.byte	0x30
 12946 3695 EF000000 		.4byte	0xef
 12947 3699 1F320000 		.4byte	.LLST33
 12948 369d 3F       		.uleb128 0x3f
 12949 369e 73100000 		.4byte	.LASF438
 12950 36a2 01       		.byte	0x1
 12951 36a3 31       		.byte	0x31
 12952 36a4 EF000000 		.4byte	0xef
 12953 36a8 4A320000 		.4byte	.LLST34
 12954 36ac 3F       		.uleb128 0x3f
 12955 36ad 2A030000 		.4byte	.LASF439
 12956 36b1 01       		.byte	0x1
 12957 36b2 32       		.byte	0x32
 12958 36b3 EF000000 		.4byte	0xef
 12959 36b7 8B320000 		.4byte	.LLST35
 12960 36bb 2A       		.uleb128 0x2a
 12961 36bc 38000000 		.4byte	.LVL54
 12962 36c0 173F0000 		.4byte	0x3f17
 12963 36c4 00       		.byte	0
 12964 36c5 4A       		.uleb128 0x4a
 12965 36c6 C12A0000 		.4byte	0x2ac1
 12966 36ca 00000000 		.4byte	.LFB28
 12967 36ce 40000000 		.4byte	.LFE28-.LFB28
 12968 36d2 01       		.uleb128 0x1
 12969 36d3 9C       		.byte	0x9c
 12970 36d4 06370000 		.4byte	0x3706
 12971 36d8 2F       		.uleb128 0x2f
 12972 36d9 D22A0000 		.4byte	0x2ad2
 12973 36dd D6320000 		.4byte	.LLST0
 12974 36e1 4B       		.uleb128 0x4b
 12975 36e2 DE2A0000 		.4byte	0x2ade
 12976 36e6 04330000 		.4byte	.LLST1
 12977 36ea 4B       		.uleb128 0x4b
 12978 36eb EA2A0000 		.4byte	0x2aea
 12979 36ef 1C330000 		.4byte	.LLST2
 12980 36f3 4B       		.uleb128 0x4b
 12981 36f4 F62A0000 		.4byte	0x2af6
 12982 36f8 2F330000 		.4byte	.LLST3
 12983 36fc 2A       		.uleb128 0x2a
 12984 36fd 3A000000 		.4byte	.LVL9
 12985 3701 173F0000 		.4byte	0x3f17
 12986 3705 00       		.byte	0
 12987 3706 4A       		.uleb128 0x4a
 12988 3707 32250000 		.4byte	0x2532
 12989 370b 00000000 		.4byte	.LFB29
 12990 370f 40010000 		.4byte	.LFE29-.LFB29
 12991 3713 01       		.uleb128 0x1
 12992 3714 9C       		.byte	0x9c
 12993 3715 043A0000 		.4byte	0x3a04
 12994 3719 2F       		.uleb128 0x2f
 12995 371a 43250000 		.4byte	0x2543
 12996 371e 59330000 		.4byte	.LLST4
ARM GAS  /var/folders/d2/nstgp4h54kz7g1l847x_b8wc0000gn/T//cc2apEbl.s 			page 229


 12997 3722 2F       		.uleb128 0x2f
 12998 3723 4F250000 		.4byte	0x254f
 12999 3727 A3330000 		.4byte	.LLST5
 13000 372b 2F       		.uleb128 0x2f
 13001 372c 5B250000 		.4byte	0x255b
 13002 3730 F6330000 		.4byte	.LLST6
 13003 3734 4B       		.uleb128 0x4b
 13004 3735 67250000 		.4byte	0x2567
 13005 3739 40340000 		.4byte	.LLST7
 13006 373d 4C       		.uleb128 0x4c
 13007 373e 73250000 		.4byte	0x2573
 13008 3742 02       		.uleb128 0x2
 13009 3743 91       		.byte	0x91
 13010 3744 51       		.sleb128 -47
 13011 3745 31       		.uleb128 0x31
 13012 3746 7F250000 		.4byte	0x257f
 13013 374a 4C       		.uleb128 0x4c
 13014 374b 8B250000 		.4byte	0x258b
 13015 374f 02       		.uleb128 0x2
 13016 3750 91       		.byte	0x91
 13017 3751 52       		.sleb128 -46
 13018 3752 4B       		.uleb128 0x4b
 13019 3753 97250000 		.4byte	0x2597
 13020 3757 AB340000 		.4byte	.LLST8
 13021 375b 31       		.uleb128 0x31
 13022 375c A3250000 		.4byte	0x25a3
 13023 3760 4B       		.uleb128 0x4b
 13024 3761 AF250000 		.4byte	0x25af
 13025 3765 A1350000 		.4byte	.LLST9
 13026 3769 31       		.uleb128 0x31
 13027 376a BB250000 		.4byte	0x25bb
 13028 376e 4C       		.uleb128 0x4c
 13029 376f C7250000 		.4byte	0x25c7
 13030 3773 02       		.uleb128 0x2
 13031 3774 91       		.byte	0x91
 13032 3775 54       		.sleb128 -44
 13033 3776 35       		.uleb128 0x35
 13034 3777 3D2A0000 		.4byte	0x2a3d
 13035 377b 3A000000 		.4byte	.LBB108
 13036 377f 24000000 		.4byte	.LBE108-.LBB108
 13037 3783 01       		.byte	0x1
 13038 3784 2303     		.2byte	0x323
 13039 3786 FB370000 		.4byte	0x37fb
 13040 378a 2F       		.uleb128 0x2f
 13041 378b 662A0000 		.4byte	0x2a66
 13042 378f CF350000 		.4byte	.LLST10
 13043 3793 2F       		.uleb128 0x2f
 13044 3794 5A2A0000 		.4byte	0x2a5a
 13045 3798 E3350000 		.4byte	.LLST11
 13046 379c 2F       		.uleb128 0x2f
 13047 379d 4E2A0000 		.4byte	0x2a4e
 13048 37a1 F6350000 		.4byte	.LLST12
 13049 37a5 36       		.uleb128 0x36
 13050 37a6 3A000000 		.4byte	.LBB109
 13051 37aa 24000000 		.4byte	.LBE109-.LBB109
 13052 37ae 31       		.uleb128 0x31
 13053 37af 722A0000 		.4byte	0x2a72
ARM GAS  /var/folders/d2/nstgp4h54kz7g1l847x_b8wc0000gn/T//cc2apEbl.s 			page 230


 13054 37b3 31       		.uleb128 0x31
 13055 37b4 7E2A0000 		.4byte	0x2a7e
 13056 37b8 4B       		.uleb128 0x4b
 13057 37b9 8A2A0000 		.4byte	0x2a8a
 13058 37bd 09360000 		.4byte	.LLST13
 13059 37c1 34       		.uleb128 0x34
 13060 37c2 032B0000 		.4byte	0x2b03
 13061 37c6 3A000000 		.4byte	.LBB110
 13062 37ca 00000000 		.4byte	.Ldebug_ranges0+0
 13063 37ce 01       		.byte	0x1
 13064 37cf 2602     		.2byte	0x226
 13065 37d1 33       		.uleb128 0x33
 13066 37d2 202B0000 		.4byte	0x2b20
 13067 37d6 33       		.uleb128 0x33
 13068 37d7 142B0000 		.4byte	0x2b14
 13069 37db 30       		.uleb128 0x30
 13070 37dc 00000000 		.4byte	.Ldebug_ranges0+0
 13071 37e0 4B       		.uleb128 0x4b
 13072 37e1 2C2B0000 		.4byte	0x2b2c
 13073 37e5 1D360000 		.4byte	.LLST14
 13074 37e9 4B       		.uleb128 0x4b
 13075 37ea 382B0000 		.4byte	0x2b38
 13076 37ee 4D360000 		.4byte	.LLST15
 13077 37f2 31       		.uleb128 0x31
 13078 37f3 442B0000 		.4byte	0x2b44
 13079 37f7 00       		.byte	0
 13080 37f8 00       		.byte	0
 13081 37f9 00       		.byte	0
 13082 37fa 00       		.byte	0
 13083 37fb 2E       		.uleb128 0x2e
 13084 37fc C12A0000 		.4byte	0x2ac1
 13085 3800 5E000000 		.4byte	.LBB114
 13086 3804 18000000 		.4byte	.Ldebug_ranges0+0x18
 13087 3808 01       		.byte	0x1
 13088 3809 2A03     		.2byte	0x32a
 13089 380b 43380000 		.4byte	0x3843
 13090 380f 2F       		.uleb128 0x2f
 13091 3810 D22A0000 		.4byte	0x2ad2
 13092 3814 A1350000 		.4byte	.LLST9
 13093 3818 30       		.uleb128 0x30
 13094 3819 18000000 		.4byte	.Ldebug_ranges0+0x18
 13095 381d 4B       		.uleb128 0x4b
 13096 381e DE2A0000 		.4byte	0x2ade
 13097 3822 71360000 		.4byte	.LLST17
 13098 3826 4B       		.uleb128 0x4b
 13099 3827 EA2A0000 		.4byte	0x2aea
 13100 382b 91360000 		.4byte	.LLST18
 13101 382f 4B       		.uleb128 0x4b
 13102 3830 F62A0000 		.4byte	0x2af6
 13103 3834 91360000 		.4byte	.LLST18
 13104 3838 2A       		.uleb128 0x2a
 13105 3839 24010000 		.4byte	.LVL41
 13106 383d C5360000 		.4byte	0x36c5
 13107 3841 00       		.byte	0
 13108 3842 00       		.byte	0
 13109 3843 35       		.uleb128 0x35
 13110 3844 972A0000 		.4byte	0x2a97
ARM GAS  /var/folders/d2/nstgp4h54kz7g1l847x_b8wc0000gn/T//cc2apEbl.s 			page 231


 13111 3848 AA000000 		.4byte	.LBB117
 13112 384c 0E000000 		.4byte	.LBE117-.LBB117
 13113 3850 01       		.byte	0x1
 13114 3851 1303     		.2byte	0x313
 13115 3853 6C380000 		.4byte	0x386c
 13116 3857 33       		.uleb128 0x33
 13117 3858 A82A0000 		.4byte	0x2aa8
 13118 385c 36       		.uleb128 0x36
 13119 385d AA000000 		.4byte	.LBB118
 13120 3861 0E000000 		.4byte	.LBE118-.LBB118
 13121 3865 31       		.uleb128 0x31
 13122 3866 B42A0000 		.4byte	0x2ab4
 13123 386a 00       		.byte	0
 13124 386b 00       		.byte	0
 13125 386c 2E       		.uleb128 0x2e
 13126 386d 3D2A0000 		.4byte	0x2a3d
 13127 3871 CE000000 		.4byte	.LBB119
 13128 3875 30000000 		.4byte	.Ldebug_ranges0+0x30
 13129 3879 01       		.byte	0x1
 13130 387a E402     		.2byte	0x2e4
 13131 387c ED380000 		.4byte	0x38ed
 13132 3880 2F       		.uleb128 0x2f
 13133 3881 662A0000 		.4byte	0x2a66
 13134 3885 B1360000 		.4byte	.LLST20
 13135 3889 2F       		.uleb128 0x2f
 13136 388a 5A2A0000 		.4byte	0x2a5a
 13137 388e C5360000 		.4byte	.LLST21
 13138 3892 2F       		.uleb128 0x2f
 13139 3893 4E2A0000 		.4byte	0x2a4e
 13140 3897 D8360000 		.4byte	.LLST22
 13141 389b 30       		.uleb128 0x30
 13142 389c 30000000 		.4byte	.Ldebug_ranges0+0x30
 13143 38a0 31       		.uleb128 0x31
 13144 38a1 722A0000 		.4byte	0x2a72
 13145 38a5 31       		.uleb128 0x31
 13146 38a6 7E2A0000 		.4byte	0x2a7e
 13147 38aa 4B       		.uleb128 0x4b
 13148 38ab 8A2A0000 		.4byte	0x2a8a
 13149 38af EB360000 		.4byte	.LLST23
 13150 38b3 34       		.uleb128 0x34
 13151 38b4 032B0000 		.4byte	0x2b03
 13152 38b8 CE000000 		.4byte	.LBB121
 13153 38bc 48000000 		.4byte	.Ldebug_ranges0+0x48
 13154 38c0 01       		.byte	0x1
 13155 38c1 2602     		.2byte	0x226
 13156 38c3 33       		.uleb128 0x33
 13157 38c4 202B0000 		.4byte	0x2b20
 13158 38c8 33       		.uleb128 0x33
 13159 38c9 142B0000 		.4byte	0x2b14
 13160 38cd 30       		.uleb128 0x30
 13161 38ce 48000000 		.4byte	.Ldebug_ranges0+0x48
 13162 38d2 4B       		.uleb128 0x4b
 13163 38d3 2C2B0000 		.4byte	0x2b2c
 13164 38d7 FF360000 		.4byte	.LLST24
 13165 38db 4B       		.uleb128 0x4b
 13166 38dc 382B0000 		.4byte	0x2b38
 13167 38e0 1B370000 		.4byte	.LLST25
ARM GAS  /var/folders/d2/nstgp4h54kz7g1l847x_b8wc0000gn/T//cc2apEbl.s 			page 232


 13168 38e4 31       		.uleb128 0x31
 13169 38e5 442B0000 		.4byte	0x2b44
 13170 38e9 00       		.byte	0
 13171 38ea 00       		.byte	0
 13172 38eb 00       		.byte	0
 13173 38ec 00       		.byte	0
 13174 38ed 2E       		.uleb128 0x2e
 13175 38ee C12A0000 		.4byte	0x2ac1
 13176 38f2 F6000000 		.4byte	.LBB127
 13177 38f6 60000000 		.4byte	.Ldebug_ranges0+0x60
 13178 38fa 01       		.byte	0x1
 13179 38fb E702     		.2byte	0x2e7
 13180 38fd 35390000 		.4byte	0x3935
 13181 3901 2F       		.uleb128 0x2f
 13182 3902 D22A0000 		.4byte	0x2ad2
 13183 3906 31370000 		.4byte	.LLST26
 13184 390a 30       		.uleb128 0x30
 13185 390b 60000000 		.4byte	.Ldebug_ranges0+0x60
 13186 390f 4B       		.uleb128 0x4b
 13187 3910 DE2A0000 		.4byte	0x2ade
 13188 3914 4F370000 		.4byte	.LLST27
 13189 3918 4B       		.uleb128 0x4b
 13190 3919 EA2A0000 		.4byte	0x2aea
 13191 391d 6F370000 		.4byte	.LLST28
 13192 3921 4B       		.uleb128 0x4b
 13193 3922 F62A0000 		.4byte	0x2af6
 13194 3926 6F370000 		.4byte	.LLST28
 13195 392a 2A       		.uleb128 0x2a
 13196 392b 1E010000 		.4byte	.LVL39
 13197 392f C5360000 		.4byte	0x36c5
 13198 3933 00       		.byte	0
 13199 3934 00       		.byte	0
 13200 3935 28       		.uleb128 0x28
 13201 3936 20000000 		.4byte	.LVL12
 13202 393a 2B3F0000 		.4byte	0x3f2b
 13203 393e 4F390000 		.4byte	0x394f
 13204 3942 29       		.uleb128 0x29
 13205 3943 01       		.uleb128 0x1
 13206 3944 50       		.byte	0x50
 13207 3945 02       		.uleb128 0x2
 13208 3946 75       		.byte	0x75
 13209 3947 00       		.sleb128 0
 13210 3948 29       		.uleb128 0x29
 13211 3949 01       		.uleb128 0x1
 13212 394a 51       		.byte	0x51
 13213 394b 02       		.uleb128 0x2
 13214 394c 91       		.byte	0x91
 13215 394d 54       		.sleb128 -44
 13216 394e 00       		.byte	0
 13217 394f 28       		.uleb128 0x28
 13218 3950 36000000 		.4byte	.LVL14
 13219 3954 593F0000 		.4byte	0x3f59
 13220 3958 6E390000 		.4byte	0x396e
 13221 395c 29       		.uleb128 0x29
 13222 395d 01       		.uleb128 0x1
 13223 395e 50       		.byte	0x50
 13224 395f 02       		.uleb128 0x2
ARM GAS  /var/folders/d2/nstgp4h54kz7g1l847x_b8wc0000gn/T//cc2apEbl.s 			page 233


 13225 3960 75       		.byte	0x75
 13226 3961 00       		.sleb128 0
 13227 3962 29       		.uleb128 0x29
 13228 3963 01       		.uleb128 0x1
 13229 3964 51       		.byte	0x51
 13230 3965 01       		.uleb128 0x1
 13231 3966 31       		.byte	0x31
 13232 3967 29       		.uleb128 0x29
 13233 3968 01       		.uleb128 0x1
 13234 3969 52       		.byte	0x52
 13235 396a 02       		.uleb128 0x2
 13236 396b 79       		.byte	0x79
 13237 396c 00       		.sleb128 0
 13238 396d 00       		.byte	0
 13239 396e 28       		.uleb128 0x28
 13240 396f 6E000000 		.4byte	.LVL21
 13241 3973 923F0000 		.4byte	0x3f92
 13242 3977 88390000 		.4byte	0x3988
 13243 397b 29       		.uleb128 0x29
 13244 397c 01       		.uleb128 0x1
 13245 397d 50       		.byte	0x50
 13246 397e 02       		.uleb128 0x2
 13247 397f 75       		.byte	0x75
 13248 3980 00       		.sleb128 0
 13249 3981 29       		.uleb128 0x29
 13250 3982 01       		.uleb128 0x1
 13251 3983 51       		.byte	0x51
 13252 3984 02       		.uleb128 0x2
 13253 3985 08       		.byte	0x8
 13254 3986 71       		.byte	0x71
 13255 3987 00       		.byte	0
 13256 3988 28       		.uleb128 0x28
 13257 3989 94000000 		.4byte	.LVL24
 13258 398d 593F0000 		.4byte	0x3f59
 13259 3991 A7390000 		.4byte	0x39a7
 13260 3995 29       		.uleb128 0x29
 13261 3996 01       		.uleb128 0x1
 13262 3997 50       		.byte	0x50
 13263 3998 02       		.uleb128 0x2
 13264 3999 75       		.byte	0x75
 13265 399a 00       		.sleb128 0
 13266 399b 29       		.uleb128 0x29
 13267 399c 01       		.uleb128 0x1
 13268 399d 51       		.byte	0x51
 13269 399e 01       		.uleb128 0x1
 13270 399f 30       		.byte	0x30
 13271 39a0 29       		.uleb128 0x29
 13272 39a1 01       		.uleb128 0x1
 13273 39a2 52       		.byte	0x52
 13274 39a3 02       		.uleb128 0x2
 13275 39a4 79       		.byte	0x79
 13276 39a5 00       		.sleb128 0
 13277 39a6 00       		.byte	0
 13278 39a7 28       		.uleb128 0x28
 13279 39a8 A6000000 		.4byte	.LVL26
 13280 39ac 0C3F0000 		.4byte	0x3f0c
 13281 39b0 C7390000 		.4byte	0x39c7
ARM GAS  /var/folders/d2/nstgp4h54kz7g1l847x_b8wc0000gn/T//cc2apEbl.s 			page 234


 13282 39b4 29       		.uleb128 0x29
 13283 39b5 01       		.uleb128 0x1
 13284 39b6 50       		.byte	0x50
 13285 39b7 02       		.uleb128 0x2
 13286 39b8 75       		.byte	0x75
 13287 39b9 00       		.sleb128 0
 13288 39ba 29       		.uleb128 0x29
 13289 39bb 01       		.uleb128 0x1
 13290 39bc 51       		.byte	0x51
 13291 39bd 02       		.uleb128 0x2
 13292 39be 08       		.byte	0x8
 13293 39bf 51       		.byte	0x51
 13294 39c0 29       		.uleb128 0x29
 13295 39c1 01       		.uleb128 0x1
 13296 39c2 52       		.byte	0x52
 13297 39c3 02       		.uleb128 0x2
 13298 39c4 91       		.byte	0x91
 13299 39c5 52       		.sleb128 -46
 13300 39c6 00       		.byte	0
 13301 39c7 28       		.uleb128 0x28
 13302 39c8 CE000000 		.4byte	.LVL31
 13303 39cc 593F0000 		.4byte	0x3f59
 13304 39d0 E0390000 		.4byte	0x39e0
 13305 39d4 29       		.uleb128 0x29
 13306 39d5 01       		.uleb128 0x1
 13307 39d6 51       		.byte	0x51
 13308 39d7 01       		.uleb128 0x1
 13309 39d8 30       		.byte	0x30
 13310 39d9 29       		.uleb128 0x29
 13311 39da 01       		.uleb128 0x1
 13312 39db 52       		.byte	0x52
 13313 39dc 02       		.uleb128 0x2
 13314 39dd 91       		.byte	0x91
 13315 39de 51       		.sleb128 -47
 13316 39df 00       		.byte	0
 13317 39e0 28       		.uleb128 0x28
 13318 39e1 0E010000 		.4byte	.LVL37
 13319 39e5 923F0000 		.4byte	0x3f92
 13320 39e9 FA390000 		.4byte	0x39fa
 13321 39ed 29       		.uleb128 0x29
 13322 39ee 01       		.uleb128 0x1
 13323 39ef 50       		.byte	0x50
 13324 39f0 02       		.uleb128 0x2
 13325 39f1 75       		.byte	0x75
 13326 39f2 00       		.sleb128 0
 13327 39f3 29       		.uleb128 0x29
 13328 39f4 01       		.uleb128 0x1
 13329 39f5 51       		.byte	0x51
 13330 39f6 02       		.uleb128 0x2
 13331 39f7 08       		.byte	0x8
 13332 39f8 51       		.byte	0x51
 13333 39f9 00       		.byte	0
 13334 39fa 2A       		.uleb128 0x2a
 13335 39fb 32010000 		.4byte	.LVL44
 13336 39ff 173F0000 		.4byte	0x3f17
 13337 3a03 00       		.byte	0
 13338 3a04 4A       		.uleb128 0x4a
ARM GAS  /var/folders/d2/nstgp4h54kz7g1l847x_b8wc0000gn/T//cc2apEbl.s 			page 235


 13339 3a05 89350000 		.4byte	0x3589
 13340 3a09 00000000 		.4byte	.LFB5
 13341 3a0d 28000000 		.4byte	.LFE5-.LFB5
 13342 3a11 01       		.uleb128 0x1
 13343 3a12 9C       		.byte	0x9c
 13344 3a13 333A0000 		.4byte	0x3a33
 13345 3a17 2F       		.uleb128 0x2f
 13346 3a18 99350000 		.4byte	0x3599
 13347 3a1c 83370000 		.4byte	.LLST39
 13348 3a20 4B       		.uleb128 0x4b
 13349 3a21 A4350000 		.4byte	0x35a4
 13350 3a25 BD370000 		.4byte	.LLST40
 13351 3a29 2A       		.uleb128 0x2a
 13352 3a2a 24000000 		.4byte	.LVL72
 13353 3a2e 173F0000 		.4byte	0x3f17
 13354 3a32 00       		.byte	0
 13355 3a33 4A       		.uleb128 0x4a
 13356 3a34 62350000 		.4byte	0x3562
 13357 3a38 00000000 		.4byte	.LFB6
 13358 3a3c 28000000 		.4byte	.LFE6-.LFB6
 13359 3a40 01       		.uleb128 0x1
 13360 3a41 9C       		.byte	0x9c
 13361 3a42 623A0000 		.4byte	0x3a62
 13362 3a46 2F       		.uleb128 0x2f
 13363 3a47 72350000 		.4byte	0x3572
 13364 3a4b 07380000 		.4byte	.LLST41
 13365 3a4f 4B       		.uleb128 0x4b
 13366 3a50 7D350000 		.4byte	0x357d
 13367 3a54 41380000 		.4byte	.LLST42
 13368 3a58 2A       		.uleb128 0x2a
 13369 3a59 22000000 		.4byte	.LVL77
 13370 3a5d 173F0000 		.4byte	0x3f17
 13371 3a61 00       		.byte	0
 13372 3a62 4A       		.uleb128 0x4a
 13373 3a63 30350000 		.4byte	0x3530
 13374 3a67 00000000 		.4byte	.LFB7
 13375 3a6b 4C000000 		.4byte	.LFE7-.LFB7
 13376 3a6f 01       		.uleb128 0x1
 13377 3a70 9C       		.byte	0x9c
 13378 3a71 9A3A0000 		.4byte	0x3a9a
 13379 3a75 2F       		.uleb128 0x2f
 13380 3a76 40350000 		.4byte	0x3540
 13381 3a7a 8F380000 		.4byte	.LLST43
 13382 3a7e 4B       		.uleb128 0x4b
 13383 3a7f 4B350000 		.4byte	0x354b
 13384 3a83 B8380000 		.4byte	.LLST44
 13385 3a87 4B       		.uleb128 0x4b
 13386 3a88 56350000 		.4byte	0x3556
 13387 3a8c E3380000 		.4byte	.LLST45
 13388 3a90 2A       		.uleb128 0x2a
 13389 3a91 46000000 		.4byte	.LVL93
 13390 3a95 173F0000 		.4byte	0x3f17
 13391 3a99 00       		.byte	0
 13392 3a9a 4A       		.uleb128 0x4a
 13393 3a9b 032B0000 		.4byte	0x2b03
 13394 3a9f 00000000 		.4byte	.LFB11
 13395 3aa3 2C000000 		.4byte	.LFE11-.LFB11
ARM GAS  /var/folders/d2/nstgp4h54kz7g1l847x_b8wc0000gn/T//cc2apEbl.s 			page 236


 13396 3aa7 01       		.uleb128 0x1
 13397 3aa8 9C       		.byte	0x9c
 13398 3aa9 E03A0000 		.4byte	0x3ae0
 13399 3aad 2F       		.uleb128 0x2f
 13400 3aae 142B0000 		.4byte	0x2b14
 13401 3ab2 34390000 		.4byte	.LLST66
 13402 3ab6 2F       		.uleb128 0x2f
 13403 3ab7 202B0000 		.4byte	0x2b20
 13404 3abb 55390000 		.4byte	.LLST67
 13405 3abf 4D       		.uleb128 0x4d
 13406 3ac0 2C2B0000 		.4byte	0x2b2c
 13407 3ac4 7706     		.2byte	0x677
 13408 3ac6 4D       		.uleb128 0x4d
 13409 3ac7 382B0000 		.4byte	0x2b38
 13410 3acb 0009     		.2byte	0x900
 13411 3acd 4B       		.uleb128 0x4b
 13412 3ace 442B0000 		.4byte	0x2b44
 13413 3ad2 76390000 		.4byte	.LLST68
 13414 3ad6 2A       		.uleb128 0x2a
 13415 3ad7 22000000 		.4byte	.LVL344
 13416 3adb 173F0000 		.4byte	0x3f17
 13417 3adf 00       		.byte	0
 13418 3ae0 4A       		.uleb128 0x4a
 13419 3ae1 C12A0000 		.4byte	0x2ac1
 13420 3ae5 00000000 		.4byte	.LFB12
 13421 3ae9 30000000 		.4byte	.LFE12-.LFB12
 13422 3aed 01       		.uleb128 0x1
 13423 3aee 9C       		.byte	0x9c
 13424 3aef 303B0000 		.4byte	0x3b30
 13425 3af3 2F       		.uleb128 0x2f
 13426 3af4 D22A0000 		.4byte	0x2ad2
 13427 3af8 AB390000 		.4byte	.LLST69
 13428 3afc 4B       		.uleb128 0x4b
 13429 3afd DE2A0000 		.4byte	0x2ade
 13430 3b01 E5390000 		.4byte	.LLST70
 13431 3b05 4E       		.uleb128 0x4e
 13432 3b06 EA2A0000 		.4byte	0x2aea
 13433 3b0a 00       		.byte	0
 13434 3b0b 4E       		.uleb128 0x4e
 13435 3b0c F62A0000 		.4byte	0x2af6
 13436 3b10 00       		.byte	0
 13437 3b11 4F       		.uleb128 0x4f
 13438 3b12 1E000000 		.4byte	.LVL347
 13439 3b16 C5360000 		.4byte	0x36c5
 13440 3b1a 263B0000 		.4byte	0x3b26
 13441 3b1e 29       		.uleb128 0x29
 13442 3b1f 01       		.uleb128 0x1
 13443 3b20 50       		.byte	0x50
 13444 3b21 03       		.uleb128 0x3
 13445 3b22 F3       		.byte	0xf3
 13446 3b23 01       		.uleb128 0x1
 13447 3b24 50       		.byte	0x50
 13448 3b25 00       		.byte	0
 13449 3b26 2A       		.uleb128 0x2a
 13450 3b27 2C000000 		.4byte	.LVL349
 13451 3b2b 173F0000 		.4byte	0x3f17
 13452 3b2f 00       		.byte	0
ARM GAS  /var/folders/d2/nstgp4h54kz7g1l847x_b8wc0000gn/T//cc2apEbl.s 			page 237


 13453 3b30 4A       		.uleb128 0x4a
 13454 3b31 972A0000 		.4byte	0x2a97
 13455 3b35 00000000 		.4byte	.LFB13
 13456 3b39 2C000000 		.4byte	.LFE13-.LFB13
 13457 3b3d 01       		.uleb128 0x1
 13458 3b3e 9C       		.byte	0x9c
 13459 3b3f 5F3B0000 		.4byte	0x3b5f
 13460 3b43 2F       		.uleb128 0x2f
 13461 3b44 A82A0000 		.4byte	0x2aa8
 13462 3b48 043A0000 		.4byte	.LLST71
 13463 3b4c 4B       		.uleb128 0x4b
 13464 3b4d B42A0000 		.4byte	0x2ab4
 13465 3b51 253A0000 		.4byte	.LLST72
 13466 3b55 2A       		.uleb128 0x2a
 13467 3b56 28000000 		.4byte	.LVL353
 13468 3b5a 173F0000 		.4byte	0x3f17
 13469 3b5e 00       		.byte	0
 13470 3b5f 4A       		.uleb128 0x4a
 13471 3b60 3D2A0000 		.4byte	0x2a3d
 13472 3b64 00000000 		.4byte	.LFB14
 13473 3b68 48000000 		.4byte	.LFE14-.LFB14
 13474 3b6c 01       		.uleb128 0x1
 13475 3b6d 9C       		.byte	0x9c
 13476 3b6e E23B0000 		.4byte	0x3be2
 13477 3b72 2F       		.uleb128 0x2f
 13478 3b73 4E2A0000 		.4byte	0x2a4e
 13479 3b77 6D3A0000 		.4byte	.LLST73
 13480 3b7b 2F       		.uleb128 0x2f
 13481 3b7c 5A2A0000 		.4byte	0x2a5a
 13482 3b80 8E3A0000 		.4byte	.LLST74
 13483 3b84 2F       		.uleb128 0x2f
 13484 3b85 662A0000 		.4byte	0x2a66
 13485 3b89 AF3A0000 		.4byte	.LLST75
 13486 3b8d 31       		.uleb128 0x31
 13487 3b8e 722A0000 		.4byte	0x2a72
 13488 3b92 4B       		.uleb128 0x4b
 13489 3b93 7E2A0000 		.4byte	0x2a7e
 13490 3b97 D03A0000 		.4byte	.LLST76
 13491 3b9b 4B       		.uleb128 0x4b
 13492 3b9c 8A2A0000 		.4byte	0x2a8a
 13493 3ba0 0F3B0000 		.4byte	.LLST77
 13494 3ba4 2E       		.uleb128 0x2e
 13495 3ba5 032B0000 		.4byte	0x2b03
 13496 3ba9 04000000 		.4byte	.LBB136
 13497 3bad 90000000 		.4byte	.Ldebug_ranges0+0x90
 13498 3bb1 01       		.byte	0x1
 13499 3bb2 2602     		.2byte	0x226
 13500 3bb4 D83B0000 		.4byte	0x3bd8
 13501 3bb8 33       		.uleb128 0x33
 13502 3bb9 202B0000 		.4byte	0x2b20
 13503 3bbd 33       		.uleb128 0x33
 13504 3bbe 142B0000 		.4byte	0x2b14
 13505 3bc2 30       		.uleb128 0x30
 13506 3bc3 90000000 		.4byte	.Ldebug_ranges0+0x90
 13507 3bc7 31       		.uleb128 0x31
 13508 3bc8 BF3A0000 		.4byte	0x3abf
 13509 3bcc 31       		.uleb128 0x31
ARM GAS  /var/folders/d2/nstgp4h54kz7g1l847x_b8wc0000gn/T//cc2apEbl.s 			page 238


 13510 3bcd C63A0000 		.4byte	0x3ac6
 13511 3bd1 31       		.uleb128 0x31
 13512 3bd2 CD3A0000 		.4byte	0x3acd
 13513 3bd6 00       		.byte	0
 13514 3bd7 00       		.byte	0
 13515 3bd8 2A       		.uleb128 0x2a
 13516 3bd9 3C000000 		.4byte	.LVL361
 13517 3bdd 173F0000 		.4byte	0x3f17
 13518 3be1 00       		.byte	0
 13519 3be2 4A       		.uleb128 0x4a
 13520 3be3 E3290000 		.4byte	0x29e3
 13521 3be7 00000000 		.4byte	.LFB15
 13522 3beb 48000000 		.4byte	.LFE15-.LFB15
 13523 3bef 01       		.uleb128 0x1
 13524 3bf0 9C       		.byte	0x9c
 13525 3bf1 7C3C0000 		.4byte	0x3c7c
 13526 3bf5 2F       		.uleb128 0x2f
 13527 3bf6 F4290000 		.4byte	0x29f4
 13528 3bfa 973B0000 		.4byte	.LLST78
 13529 3bfe 2F       		.uleb128 0x2f
 13530 3bff 002A0000 		.4byte	0x2a00
 13531 3c03 B83B0000 		.4byte	.LLST79
 13532 3c07 2F       		.uleb128 0x2f
 13533 3c08 0C2A0000 		.4byte	0x2a0c
 13534 3c0c D93B0000 		.4byte	.LLST80
 13535 3c10 31       		.uleb128 0x31
 13536 3c11 182A0000 		.4byte	0x2a18
 13537 3c15 4C       		.uleb128 0x4c
 13538 3c16 242A0000 		.4byte	0x2a24
 13539 3c1a 1A       		.uleb128 0x1a
 13540 3c1b F3       		.byte	0xf3
 13541 3c1c 01       		.uleb128 0x1
 13542 3c1d 52       		.byte	0x52
 13543 3c1e 08       		.byte	0x8
 13544 3c1f FF       		.byte	0xff
 13545 3c20 1A       		.byte	0x1a
 13546 3c21 0C       		.byte	0xc
 13547 3c22 002F3A00 		.4byte	0x3a2f00
 13548 3c26 1E       		.byte	0x1e
 13549 3c27 23       		.byte	0x23
 13550 3c28 F403     		.uleb128 0x1f4
 13551 3c2a F7       		.byte	0xf7
 13552 3c2b 25       		.uleb128 0x25
 13553 3c2c 0A       		.byte	0xa
 13554 3c2d E803     		.2byte	0x3e8
 13555 3c2f F7       		.byte	0xf7
 13556 3c30 25       		.uleb128 0x25
 13557 3c31 1B       		.byte	0x1b
 13558 3c32 F7       		.byte	0xf7
 13559 3c33 00       		.uleb128 0
 13560 3c34 9F       		.byte	0x9f
 13561 3c35 4B       		.uleb128 0x4b
 13562 3c36 302A0000 		.4byte	0x2a30
 13563 3c3a FA3B0000 		.4byte	.LLST81
 13564 3c3e 2E       		.uleb128 0x2e
 13565 3c3f 032B0000 		.4byte	0x2b03
 13566 3c43 02000000 		.4byte	.LBB140
ARM GAS  /var/folders/d2/nstgp4h54kz7g1l847x_b8wc0000gn/T//cc2apEbl.s 			page 239


 13567 3c47 A8000000 		.4byte	.Ldebug_ranges0+0xa8
 13568 3c4b 01       		.byte	0x1
 13569 3c4c 3902     		.2byte	0x239
 13570 3c4e 723C0000 		.4byte	0x3c72
 13571 3c52 33       		.uleb128 0x33
 13572 3c53 202B0000 		.4byte	0x2b20
 13573 3c57 33       		.uleb128 0x33
 13574 3c58 142B0000 		.4byte	0x2b14
 13575 3c5c 30       		.uleb128 0x30
 13576 3c5d A8000000 		.4byte	.Ldebug_ranges0+0xa8
 13577 3c61 31       		.uleb128 0x31
 13578 3c62 BF3A0000 		.4byte	0x3abf
 13579 3c66 31       		.uleb128 0x31
 13580 3c67 C63A0000 		.4byte	0x3ac6
 13581 3c6b 31       		.uleb128 0x31
 13582 3c6c CD3A0000 		.4byte	0x3acd
 13583 3c70 00       		.byte	0
 13584 3c71 00       		.byte	0
 13585 3c72 2A       		.uleb128 0x2a
 13586 3c73 3A000000 		.4byte	.LVL367
 13587 3c77 173F0000 		.4byte	0x3f17
 13588 3c7b 00       		.byte	0
 13589 3c7c 4A       		.uleb128 0x4a
 13590 3c7d 32250000 		.4byte	0x2532
 13591 3c81 00000000 		.4byte	.LFB17
 13592 3c85 88000000 		.4byte	.LFE17-.LFB17
 13593 3c89 01       		.uleb128 0x1
 13594 3c8a 9C       		.byte	0x9c
 13595 3c8b BE3D0000 		.4byte	0x3dbe
 13596 3c8f 2F       		.uleb128 0x2f
 13597 3c90 43250000 		.4byte	0x2543
 13598 3c94 733C0000 		.4byte	.LLST98
 13599 3c98 2F       		.uleb128 0x2f
 13600 3c99 4F250000 		.4byte	0x254f
 13601 3c9d B83C0000 		.4byte	.LLST99
 13602 3ca1 2F       		.uleb128 0x2f
 13603 3ca2 5B250000 		.4byte	0x255b
 13604 3ca6 F23C0000 		.4byte	.LLST100
 13605 3caa 4B       		.uleb128 0x4b
 13606 3cab 67250000 		.4byte	0x2567
 13607 3caf 373D0000 		.4byte	.LLST101
 13608 3cb3 4C       		.uleb128 0x4c
 13609 3cb4 73250000 		.4byte	0x2573
 13610 3cb8 02       		.uleb128 0x2
 13611 3cb9 91       		.byte	0x91
 13612 3cba 6B       		.sleb128 -21
 13613 3cbb 4B       		.uleb128 0x4b
 13614 3cbc 7F250000 		.4byte	0x257f
 13615 3cc0 783D0000 		.4byte	.LLST102
 13616 3cc4 31       		.uleb128 0x31
 13617 3cc5 8B250000 		.4byte	0x258b
 13618 3cc9 31       		.uleb128 0x31
 13619 3cca 97250000 		.4byte	0x2597
 13620 3cce 4B       		.uleb128 0x4b
 13621 3ccf A3250000 		.4byte	0x25a3
 13622 3cd3 8B3D0000 		.4byte	.LLST103
 13623 3cd7 31       		.uleb128 0x31
ARM GAS  /var/folders/d2/nstgp4h54kz7g1l847x_b8wc0000gn/T//cc2apEbl.s 			page 240


 13624 3cd8 AF250000 		.4byte	0x25af
 13625 3cdc 31       		.uleb128 0x31
 13626 3cdd BB250000 		.4byte	0x25bb
 13627 3ce1 31       		.uleb128 0x31
 13628 3ce2 C7250000 		.4byte	0x25c7
 13629 3ce6 35       		.uleb128 0x35
 13630 3ce7 3D2A0000 		.4byte	0x2a3d
 13631 3ceb 30000000 		.4byte	.LBB182
 13632 3cef 24000000 		.4byte	.LBE182-.LBB182
 13633 3cf3 01       		.byte	0x1
 13634 3cf4 C702     		.2byte	0x2c7
 13635 3cf6 5F3D0000 		.4byte	0x3d5f
 13636 3cfa 2F       		.uleb128 0x2f
 13637 3cfb 662A0000 		.4byte	0x2a66
 13638 3cff 833E0000 		.4byte	.LLST104
 13639 3d03 2F       		.uleb128 0x2f
 13640 3d04 5A2A0000 		.4byte	0x2a5a
 13641 3d08 973E0000 		.4byte	.LLST105
 13642 3d0c 2F       		.uleb128 0x2f
 13643 3d0d 4E2A0000 		.4byte	0x2a4e
 13644 3d11 B83E0000 		.4byte	.LLST106
 13645 3d15 36       		.uleb128 0x36
 13646 3d16 30000000 		.4byte	.LBB183
 13647 3d1a 24000000 		.4byte	.LBE183-.LBB183
 13648 3d1e 31       		.uleb128 0x31
 13649 3d1f 8D3B0000 		.4byte	0x3b8d
 13650 3d23 31       		.uleb128 0x31
 13651 3d24 923B0000 		.4byte	0x3b92
 13652 3d28 31       		.uleb128 0x31
 13653 3d29 9B3B0000 		.4byte	0x3b9b
 13654 3d2d 34       		.uleb128 0x34
 13655 3d2e 032B0000 		.4byte	0x2b03
 13656 3d32 30000000 		.4byte	.LBB184
 13657 3d36 68010000 		.4byte	.Ldebug_ranges0+0x168
 13658 3d3a 01       		.byte	0x1
 13659 3d3b 2602     		.2byte	0x226
 13660 3d3d 33       		.uleb128 0x33
 13661 3d3e 202B0000 		.4byte	0x2b20
 13662 3d42 33       		.uleb128 0x33
 13663 3d43 142B0000 		.4byte	0x2b14
 13664 3d47 30       		.uleb128 0x30
 13665 3d48 68010000 		.4byte	.Ldebug_ranges0+0x168
 13666 3d4c 31       		.uleb128 0x31
 13667 3d4d BF3A0000 		.4byte	0x3abf
 13668 3d51 31       		.uleb128 0x31
 13669 3d52 C63A0000 		.4byte	0x3ac6
 13670 3d56 31       		.uleb128 0x31
 13671 3d57 CD3A0000 		.4byte	0x3acd
 13672 3d5b 00       		.byte	0
 13673 3d5c 00       		.byte	0
 13674 3d5d 00       		.byte	0
 13675 3d5e 00       		.byte	0
 13676 3d5f 28       		.uleb128 0x28
 13677 3d60 12000000 		.4byte	.LVL414
 13678 3d64 06370000 		.4byte	0x3706
 13679 3d68 7B3D0000 		.4byte	0x3d7b
 13680 3d6c 29       		.uleb128 0x29
ARM GAS  /var/folders/d2/nstgp4h54kz7g1l847x_b8wc0000gn/T//cc2apEbl.s 			page 241


 13681 3d6d 01       		.uleb128 0x1
 13682 3d6e 50       		.byte	0x50
 13683 3d6f 03       		.uleb128 0x3
 13684 3d70 F3       		.byte	0xf3
 13685 3d71 01       		.uleb128 0x1
 13686 3d72 50       		.byte	0x50
 13687 3d73 29       		.uleb128 0x29
 13688 3d74 01       		.uleb128 0x1
 13689 3d75 52       		.byte	0x52
 13690 3d76 03       		.uleb128 0x3
 13691 3d77 F3       		.byte	0xf3
 13692 3d78 01       		.uleb128 0x1
 13693 3d79 52       		.byte	0x52
 13694 3d7a 00       		.byte	0
 13695 3d7b 28       		.uleb128 0x28
 13696 3d7c 2C000000 		.4byte	.LVL418
 13697 3d80 593F0000 		.4byte	0x3f59
 13698 3d84 9A3D0000 		.4byte	0x3d9a
 13699 3d88 29       		.uleb128 0x29
 13700 3d89 01       		.uleb128 0x1
 13701 3d8a 50       		.byte	0x50
 13702 3d8b 02       		.uleb128 0x2
 13703 3d8c 76       		.byte	0x76
 13704 3d8d 00       		.sleb128 0
 13705 3d8e 29       		.uleb128 0x29
 13706 3d8f 01       		.uleb128 0x1
 13707 3d90 51       		.byte	0x51
 13708 3d91 01       		.uleb128 0x1
 13709 3d92 30       		.byte	0x30
 13710 3d93 29       		.uleb128 0x29
 13711 3d94 01       		.uleb128 0x1
 13712 3d95 52       		.byte	0x52
 13713 3d96 02       		.uleb128 0x2
 13714 3d97 91       		.byte	0x91
 13715 3d98 6B       		.sleb128 -21
 13716 3d99 00       		.byte	0
 13717 3d9a 28       		.uleb128 0x28
 13718 3d9b 6E000000 		.4byte	.LVL430
 13719 3d9f 013F0000 		.4byte	0x3f01
 13720 3da3 B43D0000 		.4byte	0x3db4
 13721 3da7 29       		.uleb128 0x29
 13722 3da8 01       		.uleb128 0x1
 13723 3da9 50       		.byte	0x50
 13724 3daa 02       		.uleb128 0x2
 13725 3dab 76       		.byte	0x76
 13726 3dac 00       		.sleb128 0
 13727 3dad 29       		.uleb128 0x29
 13728 3dae 01       		.uleb128 0x1
 13729 3daf 51       		.byte	0x51
 13730 3db0 02       		.uleb128 0x2
 13731 3db1 08       		.byte	0x8
 13732 3db2 46       		.byte	0x46
 13733 3db3 00       		.byte	0
 13734 3db4 2A       		.uleb128 0x2a
 13735 3db5 7A000000 		.4byte	.LVL433
 13736 3db9 173F0000 		.4byte	0x3f17
 13737 3dbd 00       		.byte	0
ARM GAS  /var/folders/d2/nstgp4h54kz7g1l847x_b8wc0000gn/T//cc2apEbl.s 			page 242


 13738 3dbe 4A       		.uleb128 0x4a
 13739 3dbf 781A0000 		.4byte	0x1a78
 13740 3dc3 00000000 		.4byte	.LFB23
 13741 3dc7 48000000 		.4byte	.LFE23-.LFB23
 13742 3dcb 01       		.uleb128 0x1
 13743 3dcc 9C       		.byte	0x9c
 13744 3dcd 7E3E0000 		.4byte	0x3e7e
 13745 3dd1 2F       		.uleb128 0x2f
 13746 3dd2 891A0000 		.4byte	0x1a89
 13747 3dd6 CB3E0000 		.4byte	.LLST145
 13748 3dda 2F       		.uleb128 0x2f
 13749 3ddb 951A0000 		.4byte	0x1a95
 13750 3ddf E93E0000 		.4byte	.LLST146
 13751 3de3 2F       		.uleb128 0x2f
 13752 3de4 A11A0000 		.4byte	0x1aa1
 13753 3de8 073F0000 		.4byte	.LLST147
 13754 3dec 4B       		.uleb128 0x4b
 13755 3ded AD1A0000 		.4byte	0x1aad
 13756 3df1 253F0000 		.4byte	.LLST148
 13757 3df5 4C       		.uleb128 0x4c
 13758 3df6 B91A0000 		.4byte	0x1ab9
 13759 3dfa 02       		.uleb128 0x2
 13760 3dfb 91       		.byte	0x91
 13761 3dfc 63       		.sleb128 -29
 13762 3dfd 31       		.uleb128 0x31
 13763 3dfe C51A0000 		.4byte	0x1ac5
 13764 3e02 31       		.uleb128 0x31
 13765 3e03 D11A0000 		.4byte	0x1ad1
 13766 3e07 50       		.uleb128 0x50
 13767 3e08 781A0000 		.4byte	0x1a78
 13768 3e0c 24000000 		.4byte	.LBB208
 13769 3e10 0E000000 		.4byte	.LBE208-.LBB208
 13770 3e14 5A3E0000 		.4byte	0x3e5a
 13771 3e18 2F       		.uleb128 0x2f
 13772 3e19 A11A0000 		.4byte	0x1aa1
 13773 3e1d 443F0000 		.4byte	.LLST149
 13774 3e21 2F       		.uleb128 0x2f
 13775 3e22 951A0000 		.4byte	0x1a95
 13776 3e26 573F0000 		.4byte	.LLST150
 13777 3e2a 2F       		.uleb128 0x2f
 13778 3e2b 891A0000 		.4byte	0x1a89
 13779 3e2f 6A3F0000 		.4byte	.LLST151
 13780 3e33 36       		.uleb128 0x36
 13781 3e34 24000000 		.4byte	.LBB209
 13782 3e38 0E000000 		.4byte	.LBE209-.LBB209
 13783 3e3c 31       		.uleb128 0x31
 13784 3e3d EC3D0000 		.4byte	0x3dec
 13785 3e41 31       		.uleb128 0x31
 13786 3e42 F53D0000 		.4byte	0x3df5
 13787 3e46 4B       		.uleb128 0x4b
 13788 3e47 FD3D0000 		.4byte	0x3dfd
 13789 3e4b 7D3F0000 		.4byte	.LLST152
 13790 3e4f 4B       		.uleb128 0x4b
 13791 3e50 023E0000 		.4byte	0x3e02
 13792 3e54 CC3F0000 		.4byte	.LLST153
 13793 3e58 00       		.byte	0
 13794 3e59 00       		.byte	0
ARM GAS  /var/folders/d2/nstgp4h54kz7g1l847x_b8wc0000gn/T//cc2apEbl.s 			page 243


 13795 3e5a 28       		.uleb128 0x28
 13796 3e5b 1C000000 		.4byte	.LVL612
 13797 3e5f 9D3F0000 		.4byte	0x3f9d
 13798 3e63 743E0000 		.4byte	0x3e74
 13799 3e67 29       		.uleb128 0x29
 13800 3e68 01       		.uleb128 0x1
 13801 3e69 50       		.byte	0x50
 13802 3e6a 02       		.uleb128 0x2
 13803 3e6b 76       		.byte	0x76
 13804 3e6c 00       		.sleb128 0
 13805 3e6d 29       		.uleb128 0x29
 13806 3e6e 01       		.uleb128 0x1
 13807 3e6f 51       		.byte	0x51
 13808 3e70 02       		.uleb128 0x2
 13809 3e71 91       		.byte	0x91
 13810 3e72 63       		.sleb128 -29
 13811 3e73 00       		.byte	0
 13812 3e74 2A       		.uleb128 0x2a
 13813 3e75 42000000 		.4byte	.LVL619
 13814 3e79 173F0000 		.4byte	0x3f17
 13815 3e7d 00       		.byte	0
 13816 3e7e 4A       		.uleb128 0x4a
 13817 3e7f 2A1A0000 		.4byte	0x1a2a
 13818 3e83 00000000 		.4byte	.LFB24
 13819 3e87 34000000 		.4byte	.LFE24-.LFB24
 13820 3e8b 01       		.uleb128 0x1
 13821 3e8c 9C       		.byte	0x9c
 13822 3e8d E93E0000 		.4byte	0x3ee9
 13823 3e91 2F       		.uleb128 0x2f
 13824 3e92 3B1A0000 		.4byte	0x1a3b
 13825 3e96 E03F0000 		.4byte	.LLST154
 13826 3e9a 2F       		.uleb128 0x2f
 13827 3e9b 471A0000 		.4byte	0x1a47
 13828 3e9f 01400000 		.4byte	.LLST155
 13829 3ea3 2F       		.uleb128 0x2f
 13830 3ea4 531A0000 		.4byte	0x1a53
 13831 3ea8 22400000 		.4byte	.LLST156
 13832 3eac 4B       		.uleb128 0x4b
 13833 3ead 5F1A0000 		.4byte	0x1a5f
 13834 3eb1 40400000 		.4byte	.LLST157
 13835 3eb5 4C       		.uleb128 0x4c
 13836 3eb6 6B1A0000 		.4byte	0x1a6b
 13837 3eba 02       		.uleb128 0x2
 13838 3ebb 91       		.byte	0x91
 13839 3ebc 68       		.sleb128 -24
 13840 3ebd 28       		.uleb128 0x28
 13841 3ebe 16000000 		.4byte	.LVL623
 13842 3ec2 781A0000 		.4byte	0x1a78
 13843 3ec6 DF3E0000 		.4byte	0x3edf
 13844 3eca 29       		.uleb128 0x29
 13845 3ecb 01       		.uleb128 0x1
 13846 3ecc 50       		.byte	0x50
 13847 3ecd 03       		.uleb128 0x3
 13848 3ece F3       		.byte	0xf3
 13849 3ecf 01       		.uleb128 0x1
 13850 3ed0 50       		.byte	0x50
 13851 3ed1 29       		.uleb128 0x29
ARM GAS  /var/folders/d2/nstgp4h54kz7g1l847x_b8wc0000gn/T//cc2apEbl.s 			page 244


 13852 3ed2 01       		.uleb128 0x1
 13853 3ed3 51       		.byte	0x51
 13854 3ed4 03       		.uleb128 0x3
 13855 3ed5 F3       		.byte	0xf3
 13856 3ed6 01       		.uleb128 0x1
 13857 3ed7 51       		.byte	0x51
 13858 3ed8 29       		.uleb128 0x29
 13859 3ed9 01       		.uleb128 0x1
 13860 3eda 52       		.byte	0x52
 13861 3edb 02       		.uleb128 0x2
 13862 3edc 7D       		.byte	0x7d
 13863 3edd 00       		.sleb128 0
 13864 3ede 00       		.byte	0
 13865 3edf 2A       		.uleb128 0x2a
 13866 3ee0 30000000 		.4byte	.LVL625
 13867 3ee4 173F0000 		.4byte	0x3f17
 13868 3ee8 00       		.byte	0
 13869 3ee9 51       		.uleb128 0x51
 13870 3eea E81C0000 		.4byte	.LASF440
 13871 3eee E81C0000 		.4byte	.LASF440
 13872 3ef2 0D       		.byte	0xd
 13873 3ef3 5A04     		.2byte	0x45a
 13874 3ef5 51       		.uleb128 0x51
 13875 3ef6 6E120000 		.4byte	.LASF441
 13876 3efa 6E120000 		.4byte	.LASF441
 13877 3efe 0D       		.byte	0xd
 13878 3eff 8704     		.2byte	0x487
 13879 3f01 52       		.uleb128 0x52
 13880 3f02 28000000 		.4byte	.LASF442
 13881 3f06 28000000 		.4byte	.LASF442
 13882 3f0a 0B       		.byte	0xb
 13883 3f0b 8E       		.byte	0x8e
 13884 3f0c 52       		.uleb128 0x52
 13885 3f0d 85100000 		.4byte	.LASF443
 13886 3f11 85100000 		.4byte	.LASF443
 13887 3f15 0B       		.byte	0xb
 13888 3f16 B6       		.byte	0xb6
 13889 3f17 53       		.uleb128 0x53
 13890 3f18 A8140000 		.4byte	.LASF459
 13891 3f1c A8140000 		.4byte	.LASF459
 13892 3f20 52       		.uleb128 0x52
 13893 3f21 51140000 		.4byte	.LASF444
 13894 3f25 51140000 		.4byte	.LASF444
 13895 3f29 0B       		.byte	0xb
 13896 3f2a 79       		.byte	0x79
 13897 3f2b 51       		.uleb128 0x51
 13898 3f2c 4D0B0000 		.4byte	.LASF445
 13899 3f30 4D0B0000 		.4byte	.LASF445
 13900 3f34 0D       		.byte	0xd
 13901 3f35 1A03     		.2byte	0x31a
 13902 3f37 52       		.uleb128 0x52
 13903 3f38 E00F0000 		.4byte	.LASF446
 13904 3f3c E00F0000 		.4byte	.LASF446
 13905 3f40 0B       		.byte	0xb
 13906 3f41 AC       		.byte	0xac
 13907 3f42 51       		.uleb128 0x51
 13908 3f43 FF0D0000 		.4byte	.LASF447
ARM GAS  /var/folders/d2/nstgp4h54kz7g1l847x_b8wc0000gn/T//cc2apEbl.s 			page 245


 13909 3f47 FF0D0000 		.4byte	.LASF447
 13910 3f4b 0D       		.byte	0xd
 13911 3f4c A602     		.2byte	0x2a6
 13912 3f4e 52       		.uleb128 0x52
 13913 3f4f 37000000 		.4byte	.LASF448
 13914 3f53 37000000 		.4byte	.LASF448
 13915 3f57 0E       		.byte	0xe
 13916 3f58 41       		.byte	0x41
 13917 3f59 51       		.uleb128 0x51
 13918 3f5a 8C090000 		.4byte	.LASF449
 13919 3f5e 8C090000 		.4byte	.LASF449
 13920 3f62 0D       		.byte	0xd
 13921 3f63 CF02     		.2byte	0x2cf
 13922 3f65 52       		.uleb128 0x52
 13923 3f66 C10F0000 		.4byte	.LASF450
 13924 3f6a C10F0000 		.4byte	.LASF450
 13925 3f6e 0B       		.byte	0xb
 13926 3f6f DF       		.byte	0xdf
 13927 3f70 52       		.uleb128 0x52
 13928 3f71 64110000 		.4byte	.LASF451
 13929 3f75 64110000 		.4byte	.LASF451
 13930 3f79 0B       		.byte	0xb
 13931 3f7a C0       		.byte	0xc0
 13932 3f7b 52       		.uleb128 0x52
 13933 3f7c 601A0000 		.4byte	.LASF452
 13934 3f80 601A0000 		.4byte	.LASF452
 13935 3f84 0F       		.byte	0xf
 13936 3f85 26       		.byte	0x26
 13937 3f86 51       		.uleb128 0x51
 13938 3f87 471C0000 		.4byte	.LASF453
 13939 3f8b 471C0000 		.4byte	.LASF453
 13940 3f8f 0D       		.byte	0xd
 13941 3f90 AA05     		.2byte	0x5aa
 13942 3f92 52       		.uleb128 0x52
 13943 3f93 4E130000 		.4byte	.LASF454
 13944 3f97 4E130000 		.4byte	.LASF454
 13945 3f9b 0B       		.byte	0xb
 13946 3f9c 98       		.byte	0x98
 13947 3f9d 51       		.uleb128 0x51
 13948 3f9e 671A0000 		.4byte	.LASF455
 13949 3fa2 671A0000 		.4byte	.LASF455
 13950 3fa6 0D       		.byte	0xd
 13951 3fa7 A403     		.2byte	0x3a4
 13952 3fa9 00       		.byte	0
 13953              		.section	.debug_abbrev,"",%progbits
 13954              	.Ldebug_abbrev0:
 13955 0000 01       		.uleb128 0x1
 13956 0001 11       		.uleb128 0x11
 13957 0002 01       		.byte	0x1
 13958 0003 25       		.uleb128 0x25
 13959 0004 0E       		.uleb128 0xe
 13960 0005 13       		.uleb128 0x13
 13961 0006 0B       		.uleb128 0xb
 13962 0007 03       		.uleb128 0x3
 13963 0008 0E       		.uleb128 0xe
 13964 0009 1B       		.uleb128 0x1b
 13965 000a 0E       		.uleb128 0xe
ARM GAS  /var/folders/d2/nstgp4h54kz7g1l847x_b8wc0000gn/T//cc2apEbl.s 			page 246


 13966 000b 55       		.uleb128 0x55
 13967 000c 17       		.uleb128 0x17
 13968 000d 11       		.uleb128 0x11
 13969 000e 01       		.uleb128 0x1
 13970 000f 10       		.uleb128 0x10
 13971 0010 17       		.uleb128 0x17
 13972 0011 00       		.byte	0
 13973 0012 00       		.byte	0
 13974 0013 02       		.uleb128 0x2
 13975 0014 24       		.uleb128 0x24
 13976 0015 00       		.byte	0
 13977 0016 0B       		.uleb128 0xb
 13978 0017 0B       		.uleb128 0xb
 13979 0018 3E       		.uleb128 0x3e
 13980 0019 0B       		.uleb128 0xb
 13981 001a 03       		.uleb128 0x3
 13982 001b 0E       		.uleb128 0xe
 13983 001c 00       		.byte	0
 13984 001d 00       		.byte	0
 13985 001e 03       		.uleb128 0x3
 13986 001f 16       		.uleb128 0x16
 13987 0020 00       		.byte	0
 13988 0021 03       		.uleb128 0x3
 13989 0022 0E       		.uleb128 0xe
 13990 0023 3A       		.uleb128 0x3a
 13991 0024 0B       		.uleb128 0xb
 13992 0025 3B       		.uleb128 0x3b
 13993 0026 0B       		.uleb128 0xb
 13994 0027 49       		.uleb128 0x49
 13995 0028 13       		.uleb128 0x13
 13996 0029 00       		.byte	0
 13997 002a 00       		.byte	0
 13998 002b 04       		.uleb128 0x4
 13999 002c 24       		.uleb128 0x24
 14000 002d 00       		.byte	0
 14001 002e 0B       		.uleb128 0xb
 14002 002f 0B       		.uleb128 0xb
 14003 0030 3E       		.uleb128 0x3e
 14004 0031 0B       		.uleb128 0xb
 14005 0032 03       		.uleb128 0x3
 14006 0033 08       		.uleb128 0x8
 14007 0034 00       		.byte	0
 14008 0035 00       		.byte	0
 14009 0036 05       		.uleb128 0x5
 14010 0037 26       		.uleb128 0x26
 14011 0038 00       		.byte	0
 14012 0039 49       		.uleb128 0x49
 14013 003a 13       		.uleb128 0x13
 14014 003b 00       		.byte	0
 14015 003c 00       		.byte	0
 14016 003d 06       		.uleb128 0x6
 14017 003e 13       		.uleb128 0x13
 14018 003f 01       		.byte	0x1
 14019 0040 0B       		.uleb128 0xb
 14020 0041 0B       		.uleb128 0xb
 14021 0042 3A       		.uleb128 0x3a
 14022 0043 0B       		.uleb128 0xb
ARM GAS  /var/folders/d2/nstgp4h54kz7g1l847x_b8wc0000gn/T//cc2apEbl.s 			page 247


 14023 0044 3B       		.uleb128 0x3b
 14024 0045 0B       		.uleb128 0xb
 14025 0046 01       		.uleb128 0x1
 14026 0047 13       		.uleb128 0x13
 14027 0048 00       		.byte	0
 14028 0049 00       		.byte	0
 14029 004a 07       		.uleb128 0x7
 14030 004b 0D       		.uleb128 0xd
 14031 004c 00       		.byte	0
 14032 004d 03       		.uleb128 0x3
 14033 004e 0E       		.uleb128 0xe
 14034 004f 3A       		.uleb128 0x3a
 14035 0050 0B       		.uleb128 0xb
 14036 0051 3B       		.uleb128 0x3b
 14037 0052 0B       		.uleb128 0xb
 14038 0053 49       		.uleb128 0x49
 14039 0054 13       		.uleb128 0x13
 14040 0055 38       		.uleb128 0x38
 14041 0056 0B       		.uleb128 0xb
 14042 0057 00       		.byte	0
 14043 0058 00       		.byte	0
 14044 0059 08       		.uleb128 0x8
 14045 005a 01       		.uleb128 0x1
 14046 005b 01       		.byte	0x1
 14047 005c 49       		.uleb128 0x49
 14048 005d 13       		.uleb128 0x13
 14049 005e 01       		.uleb128 0x1
 14050 005f 13       		.uleb128 0x13
 14051 0060 00       		.byte	0
 14052 0061 00       		.byte	0
 14053 0062 09       		.uleb128 0x9
 14054 0063 21       		.uleb128 0x21
 14055 0064 00       		.byte	0
 14056 0065 49       		.uleb128 0x49
 14057 0066 13       		.uleb128 0x13
 14058 0067 2F       		.uleb128 0x2f
 14059 0068 0B       		.uleb128 0xb
 14060 0069 00       		.byte	0
 14061 006a 00       		.byte	0
 14062 006b 0A       		.uleb128 0xa
 14063 006c 0D       		.uleb128 0xd
 14064 006d 00       		.byte	0
 14065 006e 03       		.uleb128 0x3
 14066 006f 0E       		.uleb128 0xe
 14067 0070 3A       		.uleb128 0x3a
 14068 0071 0B       		.uleb128 0xb
 14069 0072 3B       		.uleb128 0x3b
 14070 0073 05       		.uleb128 0x5
 14071 0074 49       		.uleb128 0x49
 14072 0075 13       		.uleb128 0x13
 14073 0076 38       		.uleb128 0x38
 14074 0077 0B       		.uleb128 0xb
 14075 0078 00       		.byte	0
 14076 0079 00       		.byte	0
 14077 007a 0B       		.uleb128 0xb
 14078 007b 16       		.uleb128 0x16
 14079 007c 00       		.byte	0
ARM GAS  /var/folders/d2/nstgp4h54kz7g1l847x_b8wc0000gn/T//cc2apEbl.s 			page 248


 14080 007d 03       		.uleb128 0x3
 14081 007e 0E       		.uleb128 0xe
 14082 007f 3A       		.uleb128 0x3a
 14083 0080 0B       		.uleb128 0xb
 14084 0081 3B       		.uleb128 0x3b
 14085 0082 05       		.uleb128 0x5
 14086 0083 49       		.uleb128 0x49
 14087 0084 13       		.uleb128 0x13
 14088 0085 00       		.byte	0
 14089 0086 00       		.byte	0
 14090 0087 0C       		.uleb128 0xc
 14091 0088 13       		.uleb128 0x13
 14092 0089 01       		.byte	0x1
 14093 008a 0B       		.uleb128 0xb
 14094 008b 0B       		.uleb128 0xb
 14095 008c 3A       		.uleb128 0x3a
 14096 008d 0B       		.uleb128 0xb
 14097 008e 3B       		.uleb128 0x3b
 14098 008f 05       		.uleb128 0x5
 14099 0090 01       		.uleb128 0x1
 14100 0091 13       		.uleb128 0x13
 14101 0092 00       		.byte	0
 14102 0093 00       		.byte	0
 14103 0094 0D       		.uleb128 0xd
 14104 0095 13       		.uleb128 0x13
 14105 0096 01       		.byte	0x1
 14106 0097 0B       		.uleb128 0xb
 14107 0098 05       		.uleb128 0x5
 14108 0099 3A       		.uleb128 0x3a
 14109 009a 0B       		.uleb128 0xb
 14110 009b 3B       		.uleb128 0x3b
 14111 009c 05       		.uleb128 0x5
 14112 009d 01       		.uleb128 0x1
 14113 009e 13       		.uleb128 0x13
 14114 009f 00       		.byte	0
 14115 00a0 00       		.byte	0
 14116 00a1 0E       		.uleb128 0xe
 14117 00a2 0D       		.uleb128 0xd
 14118 00a3 00       		.byte	0
 14119 00a4 03       		.uleb128 0x3
 14120 00a5 0E       		.uleb128 0xe
 14121 00a6 3A       		.uleb128 0x3a
 14122 00a7 0B       		.uleb128 0xb
 14123 00a8 3B       		.uleb128 0x3b
 14124 00a9 05       		.uleb128 0x5
 14125 00aa 49       		.uleb128 0x49
 14126 00ab 13       		.uleb128 0x13
 14127 00ac 38       		.uleb128 0x38
 14128 00ad 05       		.uleb128 0x5
 14129 00ae 00       		.byte	0
 14130 00af 00       		.byte	0
 14131 00b0 0F       		.uleb128 0xf
 14132 00b1 0F       		.uleb128 0xf
 14133 00b2 00       		.byte	0
 14134 00b3 0B       		.uleb128 0xb
 14135 00b4 0B       		.uleb128 0xb
 14136 00b5 49       		.uleb128 0x49
ARM GAS  /var/folders/d2/nstgp4h54kz7g1l847x_b8wc0000gn/T//cc2apEbl.s 			page 249


 14137 00b6 13       		.uleb128 0x13
 14138 00b7 00       		.byte	0
 14139 00b8 00       		.byte	0
 14140 00b9 10       		.uleb128 0x10
 14141 00ba 0F       		.uleb128 0xf
 14142 00bb 00       		.byte	0
 14143 00bc 0B       		.uleb128 0xb
 14144 00bd 0B       		.uleb128 0xb
 14145 00be 00       		.byte	0
 14146 00bf 00       		.byte	0
 14147 00c0 11       		.uleb128 0x11
 14148 00c1 13       		.uleb128 0x13
 14149 00c2 00       		.byte	0
 14150 00c3 03       		.uleb128 0x3
 14151 00c4 0E       		.uleb128 0xe
 14152 00c5 3C       		.uleb128 0x3c
 14153 00c6 19       		.uleb128 0x19
 14154 00c7 00       		.byte	0
 14155 00c8 00       		.byte	0
 14156 00c9 12       		.uleb128 0x12
 14157 00ca 17       		.uleb128 0x17
 14158 00cb 01       		.byte	0x1
 14159 00cc 0B       		.uleb128 0xb
 14160 00cd 0B       		.uleb128 0xb
 14161 00ce 3A       		.uleb128 0x3a
 14162 00cf 0B       		.uleb128 0xb
 14163 00d0 3B       		.uleb128 0x3b
 14164 00d1 0B       		.uleb128 0xb
 14165 00d2 01       		.uleb128 0x1
 14166 00d3 13       		.uleb128 0x13
 14167 00d4 00       		.byte	0
 14168 00d5 00       		.byte	0
 14169 00d6 13       		.uleb128 0x13
 14170 00d7 0D       		.uleb128 0xd
 14171 00d8 00       		.byte	0
 14172 00d9 03       		.uleb128 0x3
 14173 00da 0E       		.uleb128 0xe
 14174 00db 3A       		.uleb128 0x3a
 14175 00dc 0B       		.uleb128 0xb
 14176 00dd 3B       		.uleb128 0x3b
 14177 00de 0B       		.uleb128 0xb
 14178 00df 49       		.uleb128 0x49
 14179 00e0 13       		.uleb128 0x13
 14180 00e1 00       		.byte	0
 14181 00e2 00       		.byte	0
 14182 00e3 14       		.uleb128 0x14
 14183 00e4 13       		.uleb128 0x13
 14184 00e5 01       		.byte	0x1
 14185 00e6 03       		.uleb128 0x3
 14186 00e7 0E       		.uleb128 0xe
 14187 00e8 0B       		.uleb128 0xb
 14188 00e9 0B       		.uleb128 0xb
 14189 00ea 3A       		.uleb128 0x3a
 14190 00eb 0B       		.uleb128 0xb
 14191 00ec 3B       		.uleb128 0x3b
 14192 00ed 0B       		.uleb128 0xb
 14193 00ee 01       		.uleb128 0x1
ARM GAS  /var/folders/d2/nstgp4h54kz7g1l847x_b8wc0000gn/T//cc2apEbl.s 			page 250


 14194 00ef 13       		.uleb128 0x13
 14195 00f0 00       		.byte	0
 14196 00f1 00       		.byte	0
 14197 00f2 15       		.uleb128 0x15
 14198 00f3 0D       		.uleb128 0xd
 14199 00f4 00       		.byte	0
 14200 00f5 03       		.uleb128 0x3
 14201 00f6 08       		.uleb128 0x8
 14202 00f7 3A       		.uleb128 0x3a
 14203 00f8 0B       		.uleb128 0xb
 14204 00f9 3B       		.uleb128 0x3b
 14205 00fa 0B       		.uleb128 0xb
 14206 00fb 49       		.uleb128 0x49
 14207 00fc 13       		.uleb128 0x13
 14208 00fd 38       		.uleb128 0x38
 14209 00fe 0B       		.uleb128 0xb
 14210 00ff 00       		.byte	0
 14211 0100 00       		.byte	0
 14212 0101 16       		.uleb128 0x16
 14213 0102 13       		.uleb128 0x13
 14214 0103 01       		.byte	0x1
 14215 0104 03       		.uleb128 0x3
 14216 0105 0E       		.uleb128 0xe
 14217 0106 0B       		.uleb128 0xb
 14218 0107 05       		.uleb128 0x5
 14219 0108 3A       		.uleb128 0x3a
 14220 0109 0B       		.uleb128 0xb
 14221 010a 3B       		.uleb128 0x3b
 14222 010b 0B       		.uleb128 0xb
 14223 010c 01       		.uleb128 0x1
 14224 010d 13       		.uleb128 0x13
 14225 010e 00       		.byte	0
 14226 010f 00       		.byte	0
 14227 0110 17       		.uleb128 0x17
 14228 0111 0D       		.uleb128 0xd
 14229 0112 00       		.byte	0
 14230 0113 03       		.uleb128 0x3
 14231 0114 0E       		.uleb128 0xe
 14232 0115 3A       		.uleb128 0x3a
 14233 0116 0B       		.uleb128 0xb
 14234 0117 3B       		.uleb128 0x3b
 14235 0118 0B       		.uleb128 0xb
 14236 0119 49       		.uleb128 0x49
 14237 011a 13       		.uleb128 0x13
 14238 011b 38       		.uleb128 0x38
 14239 011c 05       		.uleb128 0x5
 14240 011d 00       		.byte	0
 14241 011e 00       		.byte	0
 14242 011f 18       		.uleb128 0x18
 14243 0120 15       		.uleb128 0x15
 14244 0121 00       		.byte	0
 14245 0122 27       		.uleb128 0x27
 14246 0123 19       		.uleb128 0x19
 14247 0124 00       		.byte	0
 14248 0125 00       		.byte	0
 14249 0126 19       		.uleb128 0x19
 14250 0127 15       		.uleb128 0x15
ARM GAS  /var/folders/d2/nstgp4h54kz7g1l847x_b8wc0000gn/T//cc2apEbl.s 			page 251


 14251 0128 01       		.byte	0x1
 14252 0129 27       		.uleb128 0x27
 14253 012a 19       		.uleb128 0x19
 14254 012b 49       		.uleb128 0x49
 14255 012c 13       		.uleb128 0x13
 14256 012d 01       		.uleb128 0x1
 14257 012e 13       		.uleb128 0x13
 14258 012f 00       		.byte	0
 14259 0130 00       		.byte	0
 14260 0131 1A       		.uleb128 0x1a
 14261 0132 05       		.uleb128 0x5
 14262 0133 00       		.byte	0
 14263 0134 49       		.uleb128 0x49
 14264 0135 13       		.uleb128 0x13
 14265 0136 00       		.byte	0
 14266 0137 00       		.byte	0
 14267 0138 1B       		.uleb128 0x1b
 14268 0139 13       		.uleb128 0x13
 14269 013a 01       		.byte	0x1
 14270 013b 03       		.uleb128 0x3
 14271 013c 0E       		.uleb128 0xe
 14272 013d 0B       		.uleb128 0xb
 14273 013e 05       		.uleb128 0x5
 14274 013f 3A       		.uleb128 0x3a
 14275 0140 0B       		.uleb128 0xb
 14276 0141 3B       		.uleb128 0x3b
 14277 0142 05       		.uleb128 0x5
 14278 0143 01       		.uleb128 0x1
 14279 0144 13       		.uleb128 0x13
 14280 0145 00       		.byte	0
 14281 0146 00       		.byte	0
 14282 0147 1C       		.uleb128 0x1c
 14283 0148 13       		.uleb128 0x13
 14284 0149 01       		.byte	0x1
 14285 014a 03       		.uleb128 0x3
 14286 014b 0E       		.uleb128 0xe
 14287 014c 0B       		.uleb128 0xb
 14288 014d 0B       		.uleb128 0xb
 14289 014e 3A       		.uleb128 0x3a
 14290 014f 0B       		.uleb128 0xb
 14291 0150 3B       		.uleb128 0x3b
 14292 0151 05       		.uleb128 0x5
 14293 0152 01       		.uleb128 0x1
 14294 0153 13       		.uleb128 0x13
 14295 0154 00       		.byte	0
 14296 0155 00       		.byte	0
 14297 0156 1D       		.uleb128 0x1d
 14298 0157 17       		.uleb128 0x17
 14299 0158 01       		.byte	0x1
 14300 0159 0B       		.uleb128 0xb
 14301 015a 0B       		.uleb128 0xb
 14302 015b 3A       		.uleb128 0x3a
 14303 015c 0B       		.uleb128 0xb
 14304 015d 3B       		.uleb128 0x3b
 14305 015e 05       		.uleb128 0x5
 14306 015f 01       		.uleb128 0x1
 14307 0160 13       		.uleb128 0x13
ARM GAS  /var/folders/d2/nstgp4h54kz7g1l847x_b8wc0000gn/T//cc2apEbl.s 			page 252


 14308 0161 00       		.byte	0
 14309 0162 00       		.byte	0
 14310 0163 1E       		.uleb128 0x1e
 14311 0164 0D       		.uleb128 0xd
 14312 0165 00       		.byte	0
 14313 0166 03       		.uleb128 0x3
 14314 0167 0E       		.uleb128 0xe
 14315 0168 3A       		.uleb128 0x3a
 14316 0169 0B       		.uleb128 0xb
 14317 016a 3B       		.uleb128 0x3b
 14318 016b 05       		.uleb128 0x5
 14319 016c 49       		.uleb128 0x49
 14320 016d 13       		.uleb128 0x13
 14321 016e 00       		.byte	0
 14322 016f 00       		.byte	0
 14323 0170 1F       		.uleb128 0x1f
 14324 0171 15       		.uleb128 0x15
 14325 0172 01       		.byte	0x1
 14326 0173 27       		.uleb128 0x27
 14327 0174 19       		.uleb128 0x19
 14328 0175 01       		.uleb128 0x1
 14329 0176 13       		.uleb128 0x13
 14330 0177 00       		.byte	0
 14331 0178 00       		.byte	0
 14332 0179 20       		.uleb128 0x20
 14333 017a 34       		.uleb128 0x34
 14334 017b 00       		.byte	0
 14335 017c 03       		.uleb128 0x3
 14336 017d 0E       		.uleb128 0xe
 14337 017e 3A       		.uleb128 0x3a
 14338 017f 0B       		.uleb128 0xb
 14339 0180 3B       		.uleb128 0x3b
 14340 0181 05       		.uleb128 0x5
 14341 0182 49       		.uleb128 0x49
 14342 0183 13       		.uleb128 0x13
 14343 0184 3F       		.uleb128 0x3f
 14344 0185 19       		.uleb128 0x19
 14345 0186 3C       		.uleb128 0x3c
 14346 0187 19       		.uleb128 0x19
 14347 0188 00       		.byte	0
 14348 0189 00       		.byte	0
 14349 018a 21       		.uleb128 0x21
 14350 018b 13       		.uleb128 0x13
 14351 018c 01       		.byte	0x1
 14352 018d 0B       		.uleb128 0xb
 14353 018e 05       		.uleb128 0x5
 14354 018f 3A       		.uleb128 0x3a
 14355 0190 0B       		.uleb128 0xb
 14356 0191 3B       		.uleb128 0x3b
 14357 0192 0B       		.uleb128 0xb
 14358 0193 01       		.uleb128 0x1
 14359 0194 13       		.uleb128 0x13
 14360 0195 00       		.byte	0
 14361 0196 00       		.byte	0
 14362 0197 22       		.uleb128 0x22
 14363 0198 34       		.uleb128 0x34
 14364 0199 00       		.byte	0
ARM GAS  /var/folders/d2/nstgp4h54kz7g1l847x_b8wc0000gn/T//cc2apEbl.s 			page 253


 14365 019a 03       		.uleb128 0x3
 14366 019b 0E       		.uleb128 0xe
 14367 019c 3A       		.uleb128 0x3a
 14368 019d 0B       		.uleb128 0xb
 14369 019e 3B       		.uleb128 0x3b
 14370 019f 0B       		.uleb128 0xb
 14371 01a0 49       		.uleb128 0x49
 14372 01a1 13       		.uleb128 0x13
 14373 01a2 3F       		.uleb128 0x3f
 14374 01a3 19       		.uleb128 0x19
 14375 01a4 3C       		.uleb128 0x3c
 14376 01a5 19       		.uleb128 0x19
 14377 01a6 00       		.byte	0
 14378 01a7 00       		.byte	0
 14379 01a8 23       		.uleb128 0x23
 14380 01a9 2E       		.uleb128 0x2e
 14381 01aa 01       		.byte	0x1
 14382 01ab 3F       		.uleb128 0x3f
 14383 01ac 19       		.uleb128 0x19
 14384 01ad 03       		.uleb128 0x3
 14385 01ae 0E       		.uleb128 0xe
 14386 01af 3A       		.uleb128 0x3a
 14387 01b0 0B       		.uleb128 0xb
 14388 01b1 3B       		.uleb128 0x3b
 14389 01b2 05       		.uleb128 0x5
 14390 01b3 27       		.uleb128 0x27
 14391 01b4 19       		.uleb128 0x19
 14392 01b5 49       		.uleb128 0x49
 14393 01b6 13       		.uleb128 0x13
 14394 01b7 11       		.uleb128 0x11
 14395 01b8 01       		.uleb128 0x1
 14396 01b9 12       		.uleb128 0x12
 14397 01ba 06       		.uleb128 0x6
 14398 01bb 40       		.uleb128 0x40
 14399 01bc 18       		.uleb128 0x18
 14400 01bd 9742     		.uleb128 0x2117
 14401 01bf 19       		.uleb128 0x19
 14402 01c0 01       		.uleb128 0x1
 14403 01c1 13       		.uleb128 0x13
 14404 01c2 00       		.byte	0
 14405 01c3 00       		.byte	0
 14406 01c4 24       		.uleb128 0x24
 14407 01c5 05       		.uleb128 0x5
 14408 01c6 00       		.byte	0
 14409 01c7 03       		.uleb128 0x3
 14410 01c8 08       		.uleb128 0x8
 14411 01c9 3A       		.uleb128 0x3a
 14412 01ca 0B       		.uleb128 0xb
 14413 01cb 3B       		.uleb128 0x3b
 14414 01cc 05       		.uleb128 0x5
 14415 01cd 49       		.uleb128 0x49
 14416 01ce 13       		.uleb128 0x13
 14417 01cf 02       		.uleb128 0x2
 14418 01d0 17       		.uleb128 0x17
 14419 01d1 00       		.byte	0
 14420 01d2 00       		.byte	0
 14421 01d3 25       		.uleb128 0x25
ARM GAS  /var/folders/d2/nstgp4h54kz7g1l847x_b8wc0000gn/T//cc2apEbl.s 			page 254


 14422 01d4 05       		.uleb128 0x5
 14423 01d5 00       		.byte	0
 14424 01d6 03       		.uleb128 0x3
 14425 01d7 0E       		.uleb128 0xe
 14426 01d8 3A       		.uleb128 0x3a
 14427 01d9 0B       		.uleb128 0xb
 14428 01da 3B       		.uleb128 0x3b
 14429 01db 05       		.uleb128 0x5
 14430 01dc 49       		.uleb128 0x49
 14431 01dd 13       		.uleb128 0x13
 14432 01de 02       		.uleb128 0x2
 14433 01df 17       		.uleb128 0x17
 14434 01e0 00       		.byte	0
 14435 01e1 00       		.byte	0
 14436 01e2 26       		.uleb128 0x26
 14437 01e3 34       		.uleb128 0x34
 14438 01e4 00       		.byte	0
 14439 01e5 03       		.uleb128 0x3
 14440 01e6 0E       		.uleb128 0xe
 14441 01e7 3A       		.uleb128 0x3a
 14442 01e8 0B       		.uleb128 0xb
 14443 01e9 3B       		.uleb128 0x3b
 14444 01ea 05       		.uleb128 0x5
 14445 01eb 49       		.uleb128 0x49
 14446 01ec 13       		.uleb128 0x13
 14447 01ed 02       		.uleb128 0x2
 14448 01ee 17       		.uleb128 0x17
 14449 01ef 00       		.byte	0
 14450 01f0 00       		.byte	0
 14451 01f1 27       		.uleb128 0x27
 14452 01f2 34       		.uleb128 0x34
 14453 01f3 00       		.byte	0
 14454 01f4 03       		.uleb128 0x3
 14455 01f5 0E       		.uleb128 0xe
 14456 01f6 3A       		.uleb128 0x3a
 14457 01f7 0B       		.uleb128 0xb
 14458 01f8 3B       		.uleb128 0x3b
 14459 01f9 05       		.uleb128 0x5
 14460 01fa 49       		.uleb128 0x49
 14461 01fb 13       		.uleb128 0x13
 14462 01fc 02       		.uleb128 0x2
 14463 01fd 18       		.uleb128 0x18
 14464 01fe 00       		.byte	0
 14465 01ff 00       		.byte	0
 14466 0200 28       		.uleb128 0x28
 14467 0201 898201   		.uleb128 0x4109
 14468 0204 01       		.byte	0x1
 14469 0205 11       		.uleb128 0x11
 14470 0206 01       		.uleb128 0x1
 14471 0207 31       		.uleb128 0x31
 14472 0208 13       		.uleb128 0x13
 14473 0209 01       		.uleb128 0x1
 14474 020a 13       		.uleb128 0x13
 14475 020b 00       		.byte	0
 14476 020c 00       		.byte	0
 14477 020d 29       		.uleb128 0x29
 14478 020e 8A8201   		.uleb128 0x410a
ARM GAS  /var/folders/d2/nstgp4h54kz7g1l847x_b8wc0000gn/T//cc2apEbl.s 			page 255


 14479 0211 00       		.byte	0
 14480 0212 02       		.uleb128 0x2
 14481 0213 18       		.uleb128 0x18
 14482 0214 9142     		.uleb128 0x2111
 14483 0216 18       		.uleb128 0x18
 14484 0217 00       		.byte	0
 14485 0218 00       		.byte	0
 14486 0219 2A       		.uleb128 0x2a
 14487 021a 898201   		.uleb128 0x4109
 14488 021d 00       		.byte	0
 14489 021e 11       		.uleb128 0x11
 14490 021f 01       		.uleb128 0x1
 14491 0220 31       		.uleb128 0x31
 14492 0221 13       		.uleb128 0x13
 14493 0222 00       		.byte	0
 14494 0223 00       		.byte	0
 14495 0224 2B       		.uleb128 0x2b
 14496 0225 34       		.uleb128 0x34
 14497 0226 00       		.byte	0
 14498 0227 03       		.uleb128 0x3
 14499 0228 0E       		.uleb128 0xe
 14500 0229 3A       		.uleb128 0x3a
 14501 022a 0B       		.uleb128 0xb
 14502 022b 3B       		.uleb128 0x3b
 14503 022c 05       		.uleb128 0x5
 14504 022d 49       		.uleb128 0x49
 14505 022e 13       		.uleb128 0x13
 14506 022f 1C       		.uleb128 0x1c
 14507 0230 05       		.uleb128 0x5
 14508 0231 00       		.byte	0
 14509 0232 00       		.byte	0
 14510 0233 2C       		.uleb128 0x2c
 14511 0234 34       		.uleb128 0x34
 14512 0235 00       		.byte	0
 14513 0236 03       		.uleb128 0x3
 14514 0237 0E       		.uleb128 0xe
 14515 0238 3A       		.uleb128 0x3a
 14516 0239 0B       		.uleb128 0xb
 14517 023a 3B       		.uleb128 0x3b
 14518 023b 05       		.uleb128 0x5
 14519 023c 49       		.uleb128 0x49
 14520 023d 13       		.uleb128 0x13
 14521 023e 1C       		.uleb128 0x1c
 14522 023f 06       		.uleb128 0x6
 14523 0240 00       		.byte	0
 14524 0241 00       		.byte	0
 14525 0242 2D       		.uleb128 0x2d
 14526 0243 34       		.uleb128 0x34
 14527 0244 00       		.byte	0
 14528 0245 03       		.uleb128 0x3
 14529 0246 0E       		.uleb128 0xe
 14530 0247 3A       		.uleb128 0x3a
 14531 0248 0B       		.uleb128 0xb
 14532 0249 3B       		.uleb128 0x3b
 14533 024a 05       		.uleb128 0x5
 14534 024b 49       		.uleb128 0x49
 14535 024c 13       		.uleb128 0x13
ARM GAS  /var/folders/d2/nstgp4h54kz7g1l847x_b8wc0000gn/T//cc2apEbl.s 			page 256


 14536 024d 00       		.byte	0
 14537 024e 00       		.byte	0
 14538 024f 2E       		.uleb128 0x2e
 14539 0250 1D       		.uleb128 0x1d
 14540 0251 01       		.byte	0x1
 14541 0252 31       		.uleb128 0x31
 14542 0253 13       		.uleb128 0x13
 14543 0254 52       		.uleb128 0x52
 14544 0255 01       		.uleb128 0x1
 14545 0256 55       		.uleb128 0x55
 14546 0257 17       		.uleb128 0x17
 14547 0258 58       		.uleb128 0x58
 14548 0259 0B       		.uleb128 0xb
 14549 025a 59       		.uleb128 0x59
 14550 025b 05       		.uleb128 0x5
 14551 025c 01       		.uleb128 0x1
 14552 025d 13       		.uleb128 0x13
 14553 025e 00       		.byte	0
 14554 025f 00       		.byte	0
 14555 0260 2F       		.uleb128 0x2f
 14556 0261 05       		.uleb128 0x5
 14557 0262 00       		.byte	0
 14558 0263 31       		.uleb128 0x31
 14559 0264 13       		.uleb128 0x13
 14560 0265 02       		.uleb128 0x2
 14561 0266 17       		.uleb128 0x17
 14562 0267 00       		.byte	0
 14563 0268 00       		.byte	0
 14564 0269 30       		.uleb128 0x30
 14565 026a 0B       		.uleb128 0xb
 14566 026b 01       		.byte	0x1
 14567 026c 55       		.uleb128 0x55
 14568 026d 17       		.uleb128 0x17
 14569 026e 00       		.byte	0
 14570 026f 00       		.byte	0
 14571 0270 31       		.uleb128 0x31
 14572 0271 34       		.uleb128 0x34
 14573 0272 00       		.byte	0
 14574 0273 31       		.uleb128 0x31
 14575 0274 13       		.uleb128 0x13
 14576 0275 00       		.byte	0
 14577 0276 00       		.byte	0
 14578 0277 32       		.uleb128 0x32
 14579 0278 898201   		.uleb128 0x4109
 14580 027b 01       		.byte	0x1
 14581 027c 11       		.uleb128 0x11
 14582 027d 01       		.uleb128 0x1
 14583 027e 31       		.uleb128 0x31
 14584 027f 13       		.uleb128 0x13
 14585 0280 00       		.byte	0
 14586 0281 00       		.byte	0
 14587 0282 33       		.uleb128 0x33
 14588 0283 05       		.uleb128 0x5
 14589 0284 00       		.byte	0
 14590 0285 31       		.uleb128 0x31
 14591 0286 13       		.uleb128 0x13
 14592 0287 00       		.byte	0
ARM GAS  /var/folders/d2/nstgp4h54kz7g1l847x_b8wc0000gn/T//cc2apEbl.s 			page 257


 14593 0288 00       		.byte	0
 14594 0289 34       		.uleb128 0x34
 14595 028a 1D       		.uleb128 0x1d
 14596 028b 01       		.byte	0x1
 14597 028c 31       		.uleb128 0x31
 14598 028d 13       		.uleb128 0x13
 14599 028e 52       		.uleb128 0x52
 14600 028f 01       		.uleb128 0x1
 14601 0290 55       		.uleb128 0x55
 14602 0291 17       		.uleb128 0x17
 14603 0292 58       		.uleb128 0x58
 14604 0293 0B       		.uleb128 0xb
 14605 0294 59       		.uleb128 0x59
 14606 0295 05       		.uleb128 0x5
 14607 0296 00       		.byte	0
 14608 0297 00       		.byte	0
 14609 0298 35       		.uleb128 0x35
 14610 0299 1D       		.uleb128 0x1d
 14611 029a 01       		.byte	0x1
 14612 029b 31       		.uleb128 0x31
 14613 029c 13       		.uleb128 0x13
 14614 029d 11       		.uleb128 0x11
 14615 029e 01       		.uleb128 0x1
 14616 029f 12       		.uleb128 0x12
 14617 02a0 06       		.uleb128 0x6
 14618 02a1 58       		.uleb128 0x58
 14619 02a2 0B       		.uleb128 0xb
 14620 02a3 59       		.uleb128 0x59
 14621 02a4 05       		.uleb128 0x5
 14622 02a5 01       		.uleb128 0x1
 14623 02a6 13       		.uleb128 0x13
 14624 02a7 00       		.byte	0
 14625 02a8 00       		.byte	0
 14626 02a9 36       		.uleb128 0x36
 14627 02aa 0B       		.uleb128 0xb
 14628 02ab 01       		.byte	0x1
 14629 02ac 11       		.uleb128 0x11
 14630 02ad 01       		.uleb128 0x1
 14631 02ae 12       		.uleb128 0x12
 14632 02af 06       		.uleb128 0x6
 14633 02b0 00       		.byte	0
 14634 02b1 00       		.byte	0
 14635 02b2 37       		.uleb128 0x37
 14636 02b3 34       		.uleb128 0x34
 14637 02b4 00       		.byte	0
 14638 02b5 03       		.uleb128 0x3
 14639 02b6 0E       		.uleb128 0xe
 14640 02b7 3A       		.uleb128 0x3a
 14641 02b8 0B       		.uleb128 0xb
 14642 02b9 3B       		.uleb128 0x3b
 14643 02ba 05       		.uleb128 0x5
 14644 02bb 49       		.uleb128 0x49
 14645 02bc 13       		.uleb128 0x13
 14646 02bd 1C       		.uleb128 0x1c
 14647 02be 0B       		.uleb128 0xb
 14648 02bf 00       		.byte	0
 14649 02c0 00       		.byte	0
ARM GAS  /var/folders/d2/nstgp4h54kz7g1l847x_b8wc0000gn/T//cc2apEbl.s 			page 258


 14650 02c1 38       		.uleb128 0x38
 14651 02c2 2E       		.uleb128 0x2e
 14652 02c3 01       		.byte	0x1
 14653 02c4 3F       		.uleb128 0x3f
 14654 02c5 19       		.uleb128 0x19
 14655 02c6 03       		.uleb128 0x3
 14656 02c7 0E       		.uleb128 0xe
 14657 02c8 3A       		.uleb128 0x3a
 14658 02c9 0B       		.uleb128 0xb
 14659 02ca 3B       		.uleb128 0x3b
 14660 02cb 05       		.uleb128 0x5
 14661 02cc 27       		.uleb128 0x27
 14662 02cd 19       		.uleb128 0x19
 14663 02ce 49       		.uleb128 0x49
 14664 02cf 13       		.uleb128 0x13
 14665 02d0 20       		.uleb128 0x20
 14666 02d1 0B       		.uleb128 0xb
 14667 02d2 01       		.uleb128 0x1
 14668 02d3 13       		.uleb128 0x13
 14669 02d4 00       		.byte	0
 14670 02d5 00       		.byte	0
 14671 02d6 39       		.uleb128 0x39
 14672 02d7 05       		.uleb128 0x5
 14673 02d8 00       		.byte	0
 14674 02d9 03       		.uleb128 0x3
 14675 02da 08       		.uleb128 0x8
 14676 02db 3A       		.uleb128 0x3a
 14677 02dc 0B       		.uleb128 0xb
 14678 02dd 3B       		.uleb128 0x3b
 14679 02de 05       		.uleb128 0x5
 14680 02df 49       		.uleb128 0x49
 14681 02e0 13       		.uleb128 0x13
 14682 02e1 00       		.byte	0
 14683 02e2 00       		.byte	0
 14684 02e3 3A       		.uleb128 0x3a
 14685 02e4 05       		.uleb128 0x5
 14686 02e5 00       		.byte	0
 14687 02e6 03       		.uleb128 0x3
 14688 02e7 0E       		.uleb128 0xe
 14689 02e8 3A       		.uleb128 0x3a
 14690 02e9 0B       		.uleb128 0xb
 14691 02ea 3B       		.uleb128 0x3b
 14692 02eb 05       		.uleb128 0x5
 14693 02ec 49       		.uleb128 0x49
 14694 02ed 13       		.uleb128 0x13
 14695 02ee 00       		.byte	0
 14696 02ef 00       		.byte	0
 14697 02f0 3B       		.uleb128 0x3b
 14698 02f1 34       		.uleb128 0x34
 14699 02f2 00       		.byte	0
 14700 02f3 03       		.uleb128 0x3
 14701 02f4 08       		.uleb128 0x8
 14702 02f5 3A       		.uleb128 0x3a
 14703 02f6 0B       		.uleb128 0xb
 14704 02f7 3B       		.uleb128 0x3b
 14705 02f8 05       		.uleb128 0x5
 14706 02f9 49       		.uleb128 0x49
ARM GAS  /var/folders/d2/nstgp4h54kz7g1l847x_b8wc0000gn/T//cc2apEbl.s 			page 259


 14707 02fa 13       		.uleb128 0x13
 14708 02fb 02       		.uleb128 0x2
 14709 02fc 17       		.uleb128 0x17
 14710 02fd 00       		.byte	0
 14711 02fe 00       		.byte	0
 14712 02ff 3C       		.uleb128 0x3c
 14713 0300 2E       		.uleb128 0x2e
 14714 0301 01       		.byte	0x1
 14715 0302 3F       		.uleb128 0x3f
 14716 0303 19       		.uleb128 0x19
 14717 0304 03       		.uleb128 0x3
 14718 0305 0E       		.uleb128 0xe
 14719 0306 3A       		.uleb128 0x3a
 14720 0307 0B       		.uleb128 0xb
 14721 0308 3B       		.uleb128 0x3b
 14722 0309 0B       		.uleb128 0xb
 14723 030a 27       		.uleb128 0x27
 14724 030b 19       		.uleb128 0x19
 14725 030c 49       		.uleb128 0x49
 14726 030d 13       		.uleb128 0x13
 14727 030e 11       		.uleb128 0x11
 14728 030f 01       		.uleb128 0x1
 14729 0310 12       		.uleb128 0x12
 14730 0311 06       		.uleb128 0x6
 14731 0312 40       		.uleb128 0x40
 14732 0313 18       		.uleb128 0x18
 14733 0314 9742     		.uleb128 0x2117
 14734 0316 19       		.uleb128 0x19
 14735 0317 01       		.uleb128 0x1
 14736 0318 13       		.uleb128 0x13
 14737 0319 00       		.byte	0
 14738 031a 00       		.byte	0
 14739 031b 3D       		.uleb128 0x3d
 14740 031c 05       		.uleb128 0x5
 14741 031d 00       		.byte	0
 14742 031e 03       		.uleb128 0x3
 14743 031f 08       		.uleb128 0x8
 14744 0320 3A       		.uleb128 0x3a
 14745 0321 0B       		.uleb128 0xb
 14746 0322 3B       		.uleb128 0x3b
 14747 0323 0B       		.uleb128 0xb
 14748 0324 49       		.uleb128 0x49
 14749 0325 13       		.uleb128 0x13
 14750 0326 02       		.uleb128 0x2
 14751 0327 17       		.uleb128 0x17
 14752 0328 00       		.byte	0
 14753 0329 00       		.byte	0
 14754 032a 3E       		.uleb128 0x3e
 14755 032b 05       		.uleb128 0x5
 14756 032c 00       		.byte	0
 14757 032d 03       		.uleb128 0x3
 14758 032e 0E       		.uleb128 0xe
 14759 032f 3A       		.uleb128 0x3a
 14760 0330 0B       		.uleb128 0xb
 14761 0331 3B       		.uleb128 0x3b
 14762 0332 0B       		.uleb128 0xb
 14763 0333 49       		.uleb128 0x49
ARM GAS  /var/folders/d2/nstgp4h54kz7g1l847x_b8wc0000gn/T//cc2apEbl.s 			page 260


 14764 0334 13       		.uleb128 0x13
 14765 0335 02       		.uleb128 0x2
 14766 0336 17       		.uleb128 0x17
 14767 0337 00       		.byte	0
 14768 0338 00       		.byte	0
 14769 0339 3F       		.uleb128 0x3f
 14770 033a 34       		.uleb128 0x34
 14771 033b 00       		.byte	0
 14772 033c 03       		.uleb128 0x3
 14773 033d 0E       		.uleb128 0xe
 14774 033e 3A       		.uleb128 0x3a
 14775 033f 0B       		.uleb128 0xb
 14776 0340 3B       		.uleb128 0x3b
 14777 0341 0B       		.uleb128 0xb
 14778 0342 49       		.uleb128 0x49
 14779 0343 13       		.uleb128 0x13
 14780 0344 02       		.uleb128 0x2
 14781 0345 17       		.uleb128 0x17
 14782 0346 00       		.byte	0
 14783 0347 00       		.byte	0
 14784 0348 40       		.uleb128 0x40
 14785 0349 34       		.uleb128 0x34
 14786 034a 00       		.byte	0
 14787 034b 03       		.uleb128 0x3
 14788 034c 0E       		.uleb128 0xe
 14789 034d 3A       		.uleb128 0x3a
 14790 034e 0B       		.uleb128 0xb
 14791 034f 3B       		.uleb128 0x3b
 14792 0350 0B       		.uleb128 0xb
 14793 0351 49       		.uleb128 0x49
 14794 0352 13       		.uleb128 0x13
 14795 0353 02       		.uleb128 0x2
 14796 0354 18       		.uleb128 0x18
 14797 0355 00       		.byte	0
 14798 0356 00       		.byte	0
 14799 0357 41       		.uleb128 0x41
 14800 0358 34       		.uleb128 0x34
 14801 0359 00       		.byte	0
 14802 035a 03       		.uleb128 0x3
 14803 035b 0E       		.uleb128 0xe
 14804 035c 3A       		.uleb128 0x3a
 14805 035d 0B       		.uleb128 0xb
 14806 035e 3B       		.uleb128 0x3b
 14807 035f 0B       		.uleb128 0xb
 14808 0360 49       		.uleb128 0x49
 14809 0361 13       		.uleb128 0x13
 14810 0362 1C       		.uleb128 0x1c
 14811 0363 05       		.uleb128 0x5
 14812 0364 00       		.byte	0
 14813 0365 00       		.byte	0
 14814 0366 42       		.uleb128 0x42
 14815 0367 34       		.uleb128 0x34
 14816 0368 00       		.byte	0
 14817 0369 03       		.uleb128 0x3
 14818 036a 08       		.uleb128 0x8
 14819 036b 3A       		.uleb128 0x3a
 14820 036c 0B       		.uleb128 0xb
ARM GAS  /var/folders/d2/nstgp4h54kz7g1l847x_b8wc0000gn/T//cc2apEbl.s 			page 261


 14821 036d 3B       		.uleb128 0x3b
 14822 036e 0B       		.uleb128 0xb
 14823 036f 49       		.uleb128 0x49
 14824 0370 13       		.uleb128 0x13
 14825 0371 02       		.uleb128 0x2
 14826 0372 17       		.uleb128 0x17
 14827 0373 00       		.byte	0
 14828 0374 00       		.byte	0
 14829 0375 43       		.uleb128 0x43
 14830 0376 1D       		.uleb128 0x1d
 14831 0377 01       		.byte	0x1
 14832 0378 31       		.uleb128 0x31
 14833 0379 13       		.uleb128 0x13
 14834 037a 52       		.uleb128 0x52
 14835 037b 01       		.uleb128 0x1
 14836 037c 55       		.uleb128 0x55
 14837 037d 17       		.uleb128 0x17
 14838 037e 58       		.uleb128 0x58
 14839 037f 0B       		.uleb128 0xb
 14840 0380 59       		.uleb128 0x59
 14841 0381 0B       		.uleb128 0xb
 14842 0382 01       		.uleb128 0x1
 14843 0383 13       		.uleb128 0x13
 14844 0384 00       		.byte	0
 14845 0385 00       		.byte	0
 14846 0386 44       		.uleb128 0x44
 14847 0387 2E       		.uleb128 0x2e
 14848 0388 01       		.byte	0x1
 14849 0389 3F       		.uleb128 0x3f
 14850 038a 19       		.uleb128 0x19
 14851 038b 03       		.uleb128 0x3
 14852 038c 0E       		.uleb128 0xe
 14853 038d 3A       		.uleb128 0x3a
 14854 038e 0B       		.uleb128 0xb
 14855 038f 3B       		.uleb128 0x3b
 14856 0390 0B       		.uleb128 0xb
 14857 0391 27       		.uleb128 0x27
 14858 0392 19       		.uleb128 0x19
 14859 0393 49       		.uleb128 0x49
 14860 0394 13       		.uleb128 0x13
 14861 0395 20       		.uleb128 0x20
 14862 0396 0B       		.uleb128 0xb
 14863 0397 01       		.uleb128 0x1
 14864 0398 13       		.uleb128 0x13
 14865 0399 00       		.byte	0
 14866 039a 00       		.byte	0
 14867 039b 45       		.uleb128 0x45
 14868 039c 05       		.uleb128 0x5
 14869 039d 00       		.byte	0
 14870 039e 03       		.uleb128 0x3
 14871 039f 08       		.uleb128 0x8
 14872 03a0 3A       		.uleb128 0x3a
 14873 03a1 0B       		.uleb128 0xb
 14874 03a2 3B       		.uleb128 0x3b
 14875 03a3 0B       		.uleb128 0xb
 14876 03a4 49       		.uleb128 0x49
 14877 03a5 13       		.uleb128 0x13
ARM GAS  /var/folders/d2/nstgp4h54kz7g1l847x_b8wc0000gn/T//cc2apEbl.s 			page 262


 14878 03a6 00       		.byte	0
 14879 03a7 00       		.byte	0
 14880 03a8 46       		.uleb128 0x46
 14881 03a9 34       		.uleb128 0x34
 14882 03aa 00       		.byte	0
 14883 03ab 03       		.uleb128 0x3
 14884 03ac 08       		.uleb128 0x8
 14885 03ad 3A       		.uleb128 0x3a
 14886 03ae 0B       		.uleb128 0xb
 14887 03af 3B       		.uleb128 0x3b
 14888 03b0 0B       		.uleb128 0xb
 14889 03b1 49       		.uleb128 0x49
 14890 03b2 13       		.uleb128 0x13
 14891 03b3 00       		.byte	0
 14892 03b4 00       		.byte	0
 14893 03b5 47       		.uleb128 0x47
 14894 03b6 05       		.uleb128 0x5
 14895 03b7 00       		.byte	0
 14896 03b8 03       		.uleb128 0x3
 14897 03b9 0E       		.uleb128 0xe
 14898 03ba 3A       		.uleb128 0x3a
 14899 03bb 0B       		.uleb128 0xb
 14900 03bc 3B       		.uleb128 0x3b
 14901 03bd 0B       		.uleb128 0xb
 14902 03be 49       		.uleb128 0x49
 14903 03bf 13       		.uleb128 0x13
 14904 03c0 00       		.byte	0
 14905 03c1 00       		.byte	0
 14906 03c2 48       		.uleb128 0x48
 14907 03c3 34       		.uleb128 0x34
 14908 03c4 00       		.byte	0
 14909 03c5 03       		.uleb128 0x3
 14910 03c6 0E       		.uleb128 0xe
 14911 03c7 3A       		.uleb128 0x3a
 14912 03c8 0B       		.uleb128 0xb
 14913 03c9 3B       		.uleb128 0x3b
 14914 03ca 0B       		.uleb128 0xb
 14915 03cb 49       		.uleb128 0x49
 14916 03cc 13       		.uleb128 0x13
 14917 03cd 00       		.byte	0
 14918 03ce 00       		.byte	0
 14919 03cf 49       		.uleb128 0x49
 14920 03d0 34       		.uleb128 0x34
 14921 03d1 00       		.byte	0
 14922 03d2 03       		.uleb128 0x3
 14923 03d3 0E       		.uleb128 0xe
 14924 03d4 3A       		.uleb128 0x3a
 14925 03d5 0B       		.uleb128 0xb
 14926 03d6 3B       		.uleb128 0x3b
 14927 03d7 0B       		.uleb128 0xb
 14928 03d8 49       		.uleb128 0x49
 14929 03d9 13       		.uleb128 0x13
 14930 03da 1C       		.uleb128 0x1c
 14931 03db 0B       		.uleb128 0xb
 14932 03dc 00       		.byte	0
 14933 03dd 00       		.byte	0
 14934 03de 4A       		.uleb128 0x4a
ARM GAS  /var/folders/d2/nstgp4h54kz7g1l847x_b8wc0000gn/T//cc2apEbl.s 			page 263


 14935 03df 2E       		.uleb128 0x2e
 14936 03e0 01       		.byte	0x1
 14937 03e1 31       		.uleb128 0x31
 14938 03e2 13       		.uleb128 0x13
 14939 03e3 11       		.uleb128 0x11
 14940 03e4 01       		.uleb128 0x1
 14941 03e5 12       		.uleb128 0x12
 14942 03e6 06       		.uleb128 0x6
 14943 03e7 40       		.uleb128 0x40
 14944 03e8 18       		.uleb128 0x18
 14945 03e9 9742     		.uleb128 0x2117
 14946 03eb 19       		.uleb128 0x19
 14947 03ec 01       		.uleb128 0x1
 14948 03ed 13       		.uleb128 0x13
 14949 03ee 00       		.byte	0
 14950 03ef 00       		.byte	0
 14951 03f0 4B       		.uleb128 0x4b
 14952 03f1 34       		.uleb128 0x34
 14953 03f2 00       		.byte	0
 14954 03f3 31       		.uleb128 0x31
 14955 03f4 13       		.uleb128 0x13
 14956 03f5 02       		.uleb128 0x2
 14957 03f6 17       		.uleb128 0x17
 14958 03f7 00       		.byte	0
 14959 03f8 00       		.byte	0
 14960 03f9 4C       		.uleb128 0x4c
 14961 03fa 34       		.uleb128 0x34
 14962 03fb 00       		.byte	0
 14963 03fc 31       		.uleb128 0x31
 14964 03fd 13       		.uleb128 0x13
 14965 03fe 02       		.uleb128 0x2
 14966 03ff 18       		.uleb128 0x18
 14967 0400 00       		.byte	0
 14968 0401 00       		.byte	0
 14969 0402 4D       		.uleb128 0x4d
 14970 0403 34       		.uleb128 0x34
 14971 0404 00       		.byte	0
 14972 0405 31       		.uleb128 0x31
 14973 0406 13       		.uleb128 0x13
 14974 0407 1C       		.uleb128 0x1c
 14975 0408 05       		.uleb128 0x5
 14976 0409 00       		.byte	0
 14977 040a 00       		.byte	0
 14978 040b 4E       		.uleb128 0x4e
 14979 040c 34       		.uleb128 0x34
 14980 040d 00       		.byte	0
 14981 040e 31       		.uleb128 0x31
 14982 040f 13       		.uleb128 0x13
 14983 0410 1C       		.uleb128 0x1c
 14984 0411 0B       		.uleb128 0xb
 14985 0412 00       		.byte	0
 14986 0413 00       		.byte	0
 14987 0414 4F       		.uleb128 0x4f
 14988 0415 898201   		.uleb128 0x4109
 14989 0418 01       		.byte	0x1
 14990 0419 11       		.uleb128 0x11
 14991 041a 01       		.uleb128 0x1
ARM GAS  /var/folders/d2/nstgp4h54kz7g1l847x_b8wc0000gn/T//cc2apEbl.s 			page 264


 14992 041b 9542     		.uleb128 0x2115
 14993 041d 19       		.uleb128 0x19
 14994 041e 31       		.uleb128 0x31
 14995 041f 13       		.uleb128 0x13
 14996 0420 01       		.uleb128 0x1
 14997 0421 13       		.uleb128 0x13
 14998 0422 00       		.byte	0
 14999 0423 00       		.byte	0
 15000 0424 50       		.uleb128 0x50
 15001 0425 0B       		.uleb128 0xb
 15002 0426 01       		.byte	0x1
 15003 0427 31       		.uleb128 0x31
 15004 0428 13       		.uleb128 0x13
 15005 0429 11       		.uleb128 0x11
 15006 042a 01       		.uleb128 0x1
 15007 042b 12       		.uleb128 0x12
 15008 042c 06       		.uleb128 0x6
 15009 042d 01       		.uleb128 0x1
 15010 042e 13       		.uleb128 0x13
 15011 042f 00       		.byte	0
 15012 0430 00       		.byte	0
 15013 0431 51       		.uleb128 0x51
 15014 0432 2E       		.uleb128 0x2e
 15015 0433 00       		.byte	0
 15016 0434 3F       		.uleb128 0x3f
 15017 0435 19       		.uleb128 0x19
 15018 0436 3C       		.uleb128 0x3c
 15019 0437 19       		.uleb128 0x19
 15020 0438 6E       		.uleb128 0x6e
 15021 0439 0E       		.uleb128 0xe
 15022 043a 03       		.uleb128 0x3
 15023 043b 0E       		.uleb128 0xe
 15024 043c 3A       		.uleb128 0x3a
 15025 043d 0B       		.uleb128 0xb
 15026 043e 3B       		.uleb128 0x3b
 15027 043f 05       		.uleb128 0x5
 15028 0440 00       		.byte	0
 15029 0441 00       		.byte	0
 15030 0442 52       		.uleb128 0x52
 15031 0443 2E       		.uleb128 0x2e
 15032 0444 00       		.byte	0
 15033 0445 3F       		.uleb128 0x3f
 15034 0446 19       		.uleb128 0x19
 15035 0447 3C       		.uleb128 0x3c
 15036 0448 19       		.uleb128 0x19
 15037 0449 6E       		.uleb128 0x6e
 15038 044a 0E       		.uleb128 0xe
 15039 044b 03       		.uleb128 0x3
 15040 044c 0E       		.uleb128 0xe
 15041 044d 3A       		.uleb128 0x3a
 15042 044e 0B       		.uleb128 0xb
 15043 044f 3B       		.uleb128 0x3b
 15044 0450 0B       		.uleb128 0xb
 15045 0451 00       		.byte	0
 15046 0452 00       		.byte	0
 15047 0453 53       		.uleb128 0x53
 15048 0454 2E       		.uleb128 0x2e
ARM GAS  /var/folders/d2/nstgp4h54kz7g1l847x_b8wc0000gn/T//cc2apEbl.s 			page 265


 15049 0455 00       		.byte	0
 15050 0456 3F       		.uleb128 0x3f
 15051 0457 19       		.uleb128 0x19
 15052 0458 3C       		.uleb128 0x3c
 15053 0459 19       		.uleb128 0x19
 15054 045a 6E       		.uleb128 0x6e
 15055 045b 0E       		.uleb128 0xe
 15056 045c 03       		.uleb128 0x3
 15057 045d 0E       		.uleb128 0xe
 15058 045e 00       		.byte	0
 15059 045f 00       		.byte	0
 15060 0460 00       		.byte	0
 15061              		.section	.debug_loc,"",%progbits
 15062              	.Ldebug_loc0:
 15063              	.LLST217:
 15064 0000 00000000 		.4byte	.LVL791
 15065 0004 53000000 		.4byte	.LVL797-1
 15066 0008 0100     		.2byte	0x1
 15067 000a 50       		.byte	0x50
 15068 000b 53000000 		.4byte	.LVL797-1
 15069 000f 70020000 		.4byte	.LFE27
 15070 0013 0100     		.2byte	0x1
 15071 0015 55       		.byte	0x55
 15072 0016 00000000 		.4byte	0
 15073 001a 00000000 		.4byte	0
 15074              	.LLST218:
 15075 001e 00000000 		.4byte	.LVL791
 15076 0022 10000000 		.4byte	.LVL792
 15077 0026 0100     		.2byte	0x1
 15078 0028 51       		.byte	0x51
 15079 0029 10000000 		.4byte	.LVL792
 15080 002d 70020000 		.4byte	.LFE27
 15081 0031 0400     		.2byte	0x4
 15082 0033 F3       		.byte	0xf3
 15083 0034 01       		.uleb128 0x1
 15084 0035 51       		.byte	0x51
 15085 0036 9F       		.byte	0x9f
 15086 0037 00000000 		.4byte	0
 15087 003b 00000000 		.4byte	0
 15088              	.LLST219:
 15089 003f 00000000 		.4byte	.LVL791
 15090 0043 3A000000 		.4byte	.LVL795
 15091 0047 0100     		.2byte	0x1
 15092 0049 52       		.byte	0x52
 15093 004a 3A000000 		.4byte	.LVL795
 15094 004e 70020000 		.4byte	.LFE27
 15095 0052 0300     		.2byte	0x3
 15096 0054 91       		.byte	0x91
 15097 0055 B07F     		.sleb128 -80
 15098 0057 00000000 		.4byte	0
 15099 005b 00000000 		.4byte	0
 15100              	.LLST220:
 15101 005f 00000000 		.4byte	.LVL791
 15102 0063 2A000000 		.4byte	.LVL794
 15103 0067 0100     		.2byte	0x1
 15104 0069 53       		.byte	0x53
 15105 006a 2A000000 		.4byte	.LVL794
ARM GAS  /var/folders/d2/nstgp4h54kz7g1l847x_b8wc0000gn/T//cc2apEbl.s 			page 266


 15106 006e 70020000 		.4byte	.LFE27
 15107 0072 0400     		.2byte	0x4
 15108 0074 F3       		.byte	0xf3
 15109 0075 01       		.uleb128 0x1
 15110 0076 53       		.byte	0x53
 15111 0077 9F       		.byte	0x9f
 15112 0078 00000000 		.4byte	0
 15113 007c 00000000 		.4byte	0
 15114              	.LLST221:
 15115 0080 00000000 		.4byte	.LVL791
 15116 0084 D8000000 		.4byte	.LVL810
 15117 0088 0200     		.2byte	0x2
 15118 008a 91       		.byte	0x91
 15119 008b 00       		.sleb128 0
 15120 008c D8000000 		.4byte	.LVL810
 15121 0090 70020000 		.4byte	.LFE27
 15122 0094 0200     		.2byte	0x2
 15123 0096 91       		.byte	0x91
 15124 0097 00       		.sleb128 0
 15125 0098 00000000 		.4byte	0
 15126 009c 00000000 		.4byte	0
 15127              	.LLST222:
 15128 00a0 00000000 		.4byte	.LVL791
 15129 00a4 D8000000 		.4byte	.LVL810
 15130 00a8 0200     		.2byte	0x2
 15131 00aa 91       		.byte	0x91
 15132 00ab 04       		.sleb128 4
 15133 00ac D8000000 		.4byte	.LVL810
 15134 00b0 70020000 		.4byte	.LFE27
 15135 00b4 0200     		.2byte	0x2
 15136 00b6 91       		.byte	0x91
 15137 00b7 04       		.sleb128 4
 15138 00b8 00000000 		.4byte	0
 15139 00bc 00000000 		.4byte	0
 15140              	.LLST223:
 15141 00c0 24000000 		.4byte	.LVL793
 15142 00c4 5A000000 		.4byte	.LVL798
 15143 00c8 0200     		.2byte	0x2
 15144 00ca 30       		.byte	0x30
 15145 00cb 9F       		.byte	0x9f
 15146 00cc 5A000000 		.4byte	.LVL798
 15147 00d0 64000000 		.4byte	.LVL799
 15148 00d4 0100     		.2byte	0x1
 15149 00d6 50       		.byte	0x50
 15150 00d7 82000000 		.4byte	.LVL803
 15151 00db E2000000 		.4byte	.LVL811
 15152 00df 0100     		.2byte	0x1
 15153 00e1 50       		.byte	0x50
 15154 00e2 E6000000 		.4byte	.LVL812
 15155 00e6 F6000000 		.4byte	.LVL813
 15156 00ea 0100     		.2byte	0x1
 15157 00ec 50       		.byte	0x50
 15158 00ed FE000000 		.4byte	.LVL815
 15159 00f1 20010000 		.4byte	.LVL818
 15160 00f5 0100     		.2byte	0x1
 15161 00f7 59       		.byte	0x59
 15162 00f8 20010000 		.4byte	.LVL818
ARM GAS  /var/folders/d2/nstgp4h54kz7g1l847x_b8wc0000gn/T//cc2apEbl.s 			page 267


 15163 00fc 2E010000 		.4byte	.LVL819
 15164 0100 0100     		.2byte	0x1
 15165 0102 50       		.byte	0x50
 15166 0103 32010000 		.4byte	.LVL820
 15167 0107 38010000 		.4byte	.LVL821
 15168 010b 0100     		.2byte	0x1
 15169 010d 50       		.byte	0x50
 15170 010e 38010000 		.4byte	.LVL821
 15171 0112 61010000 		.4byte	.LVL824-1
 15172 0116 0100     		.2byte	0x1
 15173 0118 53       		.byte	0x53
 15174 0119 68010000 		.4byte	.LVL825
 15175 011d 80010000 		.4byte	.LVL827
 15176 0121 0100     		.2byte	0x1
 15177 0123 50       		.byte	0x50
 15178 0124 88010000 		.4byte	.LVL829
 15179 0128 CC010000 		.4byte	.LVL831
 15180 012c 0100     		.2byte	0x1
 15181 012e 52       		.byte	0x52
 15182 012f D6010000 		.4byte	.LVL834
 15183 0133 D8010000 		.4byte	.LVL835
 15184 0137 0100     		.2byte	0x1
 15185 0139 52       		.byte	0x52
 15186 013a DE010000 		.4byte	.LVL836
 15187 013e E2010000 		.4byte	.LVL837
 15188 0142 0100     		.2byte	0x1
 15189 0144 52       		.byte	0x52
 15190 0145 E2010000 		.4byte	.LVL837
 15191 0149 EE010000 		.4byte	.LVL839
 15192 014d 0100     		.2byte	0x1
 15193 014f 50       		.byte	0x50
 15194 0150 EE010000 		.4byte	.LVL839
 15195 0154 F0010000 		.4byte	.LVL840
 15196 0158 0100     		.2byte	0x1
 15197 015a 52       		.byte	0x52
 15198 015b F6010000 		.4byte	.LVL841
 15199 015f F8010000 		.4byte	.LVL842
 15200 0163 0100     		.2byte	0x1
 15201 0165 52       		.byte	0x52
 15202 0166 FE010000 		.4byte	.LVL843
 15203 016a 00020000 		.4byte	.LVL844
 15204 016e 0100     		.2byte	0x1
 15205 0170 52       		.byte	0x52
 15206 0171 06020000 		.4byte	.LVL845
 15207 0175 10020000 		.4byte	.LVL847
 15208 0179 0100     		.2byte	0x1
 15209 017b 50       		.byte	0x50
 15210 017c 14020000 		.4byte	.LVL848
 15211 0180 22020000 		.4byte	.LVL849
 15212 0184 0100     		.2byte	0x1
 15213 0186 50       		.byte	0x50
 15214 0187 26020000 		.4byte	.LVL850
 15215 018b 32020000 		.4byte	.LVL851
 15216 018f 0100     		.2byte	0x1
 15217 0191 50       		.byte	0x50
 15218 0192 40020000 		.4byte	.LVL853
 15219 0196 4E020000 		.4byte	.LVL854
ARM GAS  /var/folders/d2/nstgp4h54kz7g1l847x_b8wc0000gn/T//cc2apEbl.s 			page 268


 15220 019a 0100     		.2byte	0x1
 15221 019c 53       		.byte	0x53
 15222 019d 4E020000 		.4byte	.LVL854
 15223 01a1 50020000 		.4byte	.LVL855
 15224 01a5 0100     		.2byte	0x1
 15225 01a7 52       		.byte	0x52
 15226 01a8 56020000 		.4byte	.LVL856
 15227 01ac 58020000 		.4byte	.LVL857
 15228 01b0 0100     		.2byte	0x1
 15229 01b2 52       		.byte	0x52
 15230 01b3 60020000 		.4byte	.LVL859
 15231 01b7 63020000 		.4byte	.LVL860-1
 15232 01bb 0100     		.2byte	0x1
 15233 01bd 50       		.byte	0x50
 15234 01be 64020000 		.4byte	.LVL860
 15235 01c2 70020000 		.4byte	.LFE27
 15236 01c6 0100     		.2byte	0x1
 15237 01c8 50       		.byte	0x50
 15238 01c9 00000000 		.4byte	0
 15239 01cd 00000000 		.4byte	0
 15240              	.LLST224:
 15241 01d1 24000000 		.4byte	.LVL793
 15242 01d5 64000000 		.4byte	.LVL799
 15243 01d9 0200     		.2byte	0x2
 15244 01db 30       		.byte	0x30
 15245 01dc 9F       		.byte	0x9f
 15246 01dd 64000000 		.4byte	.LVL799
 15247 01e1 92000000 		.4byte	.LVL804
 15248 01e5 0100     		.2byte	0x1
 15249 01e7 56       		.byte	0x56
 15250 01e8 D8000000 		.4byte	.LVL810
 15251 01ec 0A010000 		.4byte	.LVL816
 15252 01f0 0200     		.2byte	0x2
 15253 01f2 30       		.byte	0x30
 15254 01f3 9F       		.byte	0x9f
 15255 01f4 0A010000 		.4byte	.LVL816
 15256 01f8 06020000 		.4byte	.LVL845
 15257 01fc 0100     		.2byte	0x1
 15258 01fe 56       		.byte	0x56
 15259 01ff 06020000 		.4byte	.LVL845
 15260 0203 0A020000 		.4byte	.LVL846
 15261 0207 0200     		.2byte	0x2
 15262 0209 30       		.byte	0x30
 15263 020a 9F       		.byte	0x9f
 15264 020b 0A020000 		.4byte	.LVL846
 15265 020f 60020000 		.4byte	.LVL859
 15266 0213 0100     		.2byte	0x1
 15267 0215 56       		.byte	0x56
 15268 0216 64020000 		.4byte	.LVL860
 15269 021a 70020000 		.4byte	.LFE27
 15270 021e 0100     		.2byte	0x1
 15271 0220 56       		.byte	0x56
 15272 0221 00000000 		.4byte	0
 15273 0225 00000000 		.4byte	0
 15274              	.LLST225:
 15275 0229 24000000 		.4byte	.LVL793
 15276 022d 66000000 		.4byte	.LVL800
ARM GAS  /var/folders/d2/nstgp4h54kz7g1l847x_b8wc0000gn/T//cc2apEbl.s 			page 269


 15277 0231 0200     		.2byte	0x2
 15278 0233 30       		.byte	0x30
 15279 0234 9F       		.byte	0x9f
 15280 0235 66000000 		.4byte	.LVL800
 15281 0239 70000000 		.4byte	.LVL802
 15282 023d 0100     		.2byte	0x1
 15283 023f 54       		.byte	0x54
 15284 0240 D8000000 		.4byte	.LVL810
 15285 0244 50010000 		.4byte	.LVL823
 15286 0248 0200     		.2byte	0x2
 15287 024a 30       		.byte	0x30
 15288 024b 9F       		.byte	0x9f
 15289 024c 50010000 		.4byte	.LVL823
 15290 0250 D4010000 		.4byte	.LVL833
 15291 0254 0100     		.2byte	0x1
 15292 0256 54       		.byte	0x54
 15293 0257 D6010000 		.4byte	.LVL834
 15294 025b 06020000 		.4byte	.LVL845
 15295 025f 0100     		.2byte	0x1
 15296 0261 54       		.byte	0x54
 15297 0262 06020000 		.4byte	.LVL845
 15298 0266 4E020000 		.4byte	.LVL854
 15299 026a 0200     		.2byte	0x2
 15300 026c 30       		.byte	0x30
 15301 026d 9F       		.byte	0x9f
 15302 026e 4E020000 		.4byte	.LVL854
 15303 0272 5E020000 		.4byte	.LVL858
 15304 0276 0100     		.2byte	0x1
 15305 0278 54       		.byte	0x54
 15306 0279 64020000 		.4byte	.LVL860
 15307 027d 68020000 		.4byte	.LVL861
 15308 0281 0100     		.2byte	0x1
 15309 0283 54       		.byte	0x54
 15310 0284 68020000 		.4byte	.LVL861
 15311 0288 70020000 		.4byte	.LFE27
 15312 028c 0200     		.2byte	0x2
 15313 028e 30       		.byte	0x30
 15314 028f 9F       		.byte	0x9f
 15315 0290 00000000 		.4byte	0
 15316 0294 00000000 		.4byte	0
 15317              	.LLST226:
 15318 0298 24000000 		.4byte	.LVL793
 15319 029c 6A000000 		.4byte	.LVL801
 15320 02a0 0200     		.2byte	0x2
 15321 02a2 30       		.byte	0x30
 15322 02a3 9F       		.byte	0x9f
 15323 02a4 D8000000 		.4byte	.LVL810
 15324 02a8 96010000 		.4byte	.LVL830
 15325 02ac 0200     		.2byte	0x2
 15326 02ae 30       		.byte	0x30
 15327 02af 9F       		.byte	0x9f
 15328 02b0 96010000 		.4byte	.LVL830
 15329 02b4 D2010000 		.4byte	.LVL832
 15330 02b8 0100     		.2byte	0x1
 15331 02ba 59       		.byte	0x59
 15332 02bb D6010000 		.4byte	.LVL834
 15333 02bf DE010000 		.4byte	.LVL836
ARM GAS  /var/folders/d2/nstgp4h54kz7g1l847x_b8wc0000gn/T//cc2apEbl.s 			page 270


 15334 02c3 0100     		.2byte	0x1
 15335 02c5 59       		.byte	0x59
 15336 02c6 DE010000 		.4byte	.LVL836
 15337 02ca EE010000 		.4byte	.LVL839
 15338 02ce 0200     		.2byte	0x2
 15339 02d0 30       		.byte	0x30
 15340 02d1 9F       		.byte	0x9f
 15341 02d2 EE010000 		.4byte	.LVL839
 15342 02d6 06020000 		.4byte	.LVL845
 15343 02da 0100     		.2byte	0x1
 15344 02dc 59       		.byte	0x59
 15345 02dd 06020000 		.4byte	.LVL845
 15346 02e1 4E020000 		.4byte	.LVL854
 15347 02e5 0200     		.2byte	0x2
 15348 02e7 30       		.byte	0x30
 15349 02e8 9F       		.byte	0x9f
 15350 02e9 4E020000 		.4byte	.LVL854
 15351 02ed 60020000 		.4byte	.LVL859
 15352 02f1 0100     		.2byte	0x1
 15353 02f3 59       		.byte	0x59
 15354 02f4 64020000 		.4byte	.LVL860
 15355 02f8 70020000 		.4byte	.LFE27
 15356 02fc 0200     		.2byte	0x2
 15357 02fe 30       		.byte	0x30
 15358 02ff 9F       		.byte	0x9f
 15359 0300 00000000 		.4byte	0
 15360 0304 00000000 		.4byte	0
 15361              	.LLST227:
 15362 0308 7A010000 		.4byte	.LVL826
 15363 030c 96010000 		.4byte	.LVL830
 15364 0310 0100     		.2byte	0x1
 15365 0312 5B       		.byte	0x5b
 15366 0313 DE010000 		.4byte	.LVL836
 15367 0317 E2010000 		.4byte	.LVL837
 15368 031b 0100     		.2byte	0x1
 15369 031d 5B       		.byte	0x5b
 15370 031e EC010000 		.4byte	.LVL838
 15371 0322 EE010000 		.4byte	.LVL839
 15372 0326 0100     		.2byte	0x1
 15373 0328 5B       		.byte	0x5b
 15374 0329 00000000 		.4byte	0
 15375 032d 00000000 		.4byte	0
 15376              	.LLST228:
 15377 0331 92000000 		.4byte	.LVL804
 15378 0335 A8000000 		.4byte	.LVL805
 15379 0339 0100     		.2byte	0x1
 15380 033b 56       		.byte	0x56
 15381 033c A8000000 		.4byte	.LVL805
 15382 0340 B0000000 		.4byte	.LVL806
 15383 0344 0100     		.2byte	0x1
 15384 0346 53       		.byte	0x53
 15385 0347 B0000000 		.4byte	.LVL806
 15386 034b B6000000 		.4byte	.LVL807
 15387 034f 0200     		.2byte	0x2
 15388 0351 75       		.byte	0x75
 15389 0352 2F       		.sleb128 47
 15390 0353 B6000000 		.4byte	.LVL807
ARM GAS  /var/folders/d2/nstgp4h54kz7g1l847x_b8wc0000gn/T//cc2apEbl.s 			page 271


 15391 0357 BE000000 		.4byte	.LVL808
 15392 035b 0100     		.2byte	0x1
 15393 035d 54       		.byte	0x54
 15394 035e BE000000 		.4byte	.LVL808
 15395 0362 C6000000 		.4byte	.LVL809
 15396 0366 0100     		.2byte	0x1
 15397 0368 59       		.byte	0x59
 15398 0369 00000000 		.4byte	0
 15399 036d 00000000 		.4byte	0
 15400              	.LLST229:
 15401 0371 40010000 		.4byte	.LVL822
 15402 0375 50010000 		.4byte	.LVL823
 15403 0379 0100     		.2byte	0x1
 15404 037b 52       		.byte	0x52
 15405 037c 40020000 		.4byte	.LVL853
 15406 0380 4E020000 		.4byte	.LVL854
 15407 0384 0100     		.2byte	0x1
 15408 0386 52       		.byte	0x52
 15409 0387 00000000 		.4byte	0
 15410 038b 00000000 		.4byte	0
 15411              	.LLST182:
 15412 038f 00000000 		.4byte	.LVL691
 15413 0393 21000000 		.4byte	.LVL695-1
 15414 0397 0100     		.2byte	0x1
 15415 0399 50       		.byte	0x50
 15416 039a 21000000 		.4byte	.LVL695-1
 15417 039e 38030000 		.4byte	.LFE26
 15418 03a2 0100     		.2byte	0x1
 15419 03a4 54       		.byte	0x54
 15420 03a5 00000000 		.4byte	0
 15421 03a9 00000000 		.4byte	0
 15422              	.LLST183:
 15423 03ad 00000000 		.4byte	.LVL691
 15424 03b1 21000000 		.4byte	.LVL695-1
 15425 03b5 0100     		.2byte	0x1
 15426 03b7 51       		.byte	0x51
 15427 03b8 21000000 		.4byte	.LVL695-1
 15428 03bc 70010000 		.4byte	.LVL720
 15429 03c0 0100     		.2byte	0x1
 15430 03c2 55       		.byte	0x55
 15431 03c3 70010000 		.4byte	.LVL720
 15432 03c7 F0020000 		.4byte	.LVL782
 15433 03cb 0400     		.2byte	0x4
 15434 03cd F3       		.byte	0xf3
 15435 03ce 01       		.uleb128 0x1
 15436 03cf 51       		.byte	0x51
 15437 03d0 9F       		.byte	0x9f
 15438 03d1 F0020000 		.4byte	.LVL782
 15439 03d5 04030000 		.4byte	.LVL787
 15440 03d9 0100     		.2byte	0x1
 15441 03db 55       		.byte	0x55
 15442 03dc 04030000 		.4byte	.LVL787
 15443 03e0 38030000 		.4byte	.LFE26
 15444 03e4 0400     		.2byte	0x4
 15445 03e6 F3       		.byte	0xf3
 15446 03e7 01       		.uleb128 0x1
 15447 03e8 51       		.byte	0x51
ARM GAS  /var/folders/d2/nstgp4h54kz7g1l847x_b8wc0000gn/T//cc2apEbl.s 			page 272


 15448 03e9 9F       		.byte	0x9f
 15449 03ea 00000000 		.4byte	0
 15450 03ee 00000000 		.4byte	0
 15451              	.LLST184:
 15452 03f2 00000000 		.4byte	.LVL691
 15453 03f6 12000000 		.4byte	.LVL692
 15454 03fa 0100     		.2byte	0x1
 15455 03fc 52       		.byte	0x52
 15456 03fd 12000000 		.4byte	.LVL692
 15457 0401 38030000 		.4byte	.LFE26
 15458 0405 0300     		.2byte	0x3
 15459 0407 91       		.byte	0x91
 15460 0408 B07F     		.sleb128 -80
 15461 040a 00000000 		.4byte	0
 15462 040e 00000000 		.4byte	0
 15463              	.LLST185:
 15464 0412 00000000 		.4byte	.LVL691
 15465 0416 21000000 		.4byte	.LVL695-1
 15466 041a 0100     		.2byte	0x1
 15467 041c 53       		.byte	0x53
 15468 041d 21000000 		.4byte	.LVL695-1
 15469 0421 38030000 		.4byte	.LFE26
 15470 0425 0300     		.2byte	0x3
 15471 0427 91       		.byte	0x91
 15472 0428 B47F     		.sleb128 -76
 15473 042a 00000000 		.4byte	0
 15474 042e 00000000 		.4byte	0
 15475              	.LLST186:
 15476 0432 58000000 		.4byte	.LVL702
 15477 0436 60000000 		.4byte	.LVL703
 15478 043a B600     		.2byte	0xb6
 15479 043c 76       		.byte	0x76
 15480 043d 8001     		.sleb128 128
 15481 043f 38       		.byte	0x38
 15482 0440 25       		.byte	0x25
 15483 0441 74       		.byte	0x74
 15484 0442 E401     		.sleb128 228
 15485 0444 06       		.byte	0x6
 15486 0445 0A       		.byte	0xa
 15487 0446 E803     		.2byte	0x3e8
 15488 0448 1E       		.byte	0x1e
 15489 0449 74       		.byte	0x74
 15490 044a E801     		.sleb128 232
 15491 044c 94       		.byte	0x94
 15492 044d 01       		.byte	0x1
 15493 044e 08       		.byte	0x8
 15494 044f FF       		.byte	0xff
 15495 0450 1A       		.byte	0x1a
 15496 0451 0C       		.byte	0xc
 15497 0452 002F3A00 		.4byte	0x3a2f00
 15498 0456 1E       		.byte	0x1e
 15499 0457 23       		.byte	0x23
 15500 0458 F403     		.uleb128 0x1f4
 15501 045a F7       		.byte	0xf7
 15502 045b 25       		.uleb128 0x25
 15503 045c 0A       		.byte	0xa
 15504 045d D007     		.2byte	0x7d0
ARM GAS  /var/folders/d2/nstgp4h54kz7g1l847x_b8wc0000gn/T//cc2apEbl.s 			page 273


 15505 045f F7       		.byte	0xf7
 15506 0460 25       		.uleb128 0x25
 15507 0461 1B       		.byte	0x1b
 15508 0462 F7       		.byte	0xf7
 15509 0463 00       		.uleb128 0
 15510 0464 22       		.byte	0x22
 15511 0465 F7       		.byte	0xf7
 15512 0466 25       		.uleb128 0x25
 15513 0467 74       		.byte	0x74
 15514 0468 E801     		.sleb128 232
 15515 046a 94       		.byte	0x94
 15516 046b 01       		.byte	0x1
 15517 046c 08       		.byte	0x8
 15518 046d FF       		.byte	0xff
 15519 046e 1A       		.byte	0x1a
 15520 046f 0C       		.byte	0xc
 15521 0470 002F3A00 		.4byte	0x3a2f00
 15522 0474 1E       		.byte	0x1e
 15523 0475 23       		.byte	0x23
 15524 0476 F403     		.uleb128 0x1f4
 15525 0478 F7       		.byte	0xf7
 15526 0479 25       		.uleb128 0x25
 15527 047a 0A       		.byte	0xa
 15528 047b E803     		.2byte	0x3e8
 15529 047d F7       		.byte	0xf7
 15530 047e 25       		.uleb128 0x25
 15531 047f 1B       		.byte	0x1b
 15532 0480 F7       		.byte	0xf7
 15533 0481 00       		.uleb128 0
 15534 0482 F7       		.byte	0xf7
 15535 0483 25       		.uleb128 0x25
 15536 0484 1B       		.byte	0x1b
 15537 0485 F7       		.byte	0xf7
 15538 0486 00       		.uleb128 0
 15539 0487 74       		.byte	0x74
 15540 0488 DC01     		.sleb128 220
 15541 048a 06       		.byte	0x6
 15542 048b 0A       		.byte	0xa
 15543 048c E803     		.2byte	0x3e8
 15544 048e 1E       		.byte	0x1e
 15545 048f 72       		.byte	0x72
 15546 0490 00       		.sleb128 0
 15547 0491 08       		.byte	0x8
 15548 0492 FF       		.byte	0xff
 15549 0493 1A       		.byte	0x1a
 15550 0494 0C       		.byte	0xc
 15551 0495 002F3A00 		.4byte	0x3a2f00
 15552 0499 1E       		.byte	0x1e
 15553 049a 23       		.byte	0x23
 15554 049b F403     		.uleb128 0x1f4
 15555 049d F7       		.byte	0xf7
 15556 049e 25       		.uleb128 0x25
 15557 049f 0A       		.byte	0xa
 15558 04a0 D007     		.2byte	0x7d0
 15559 04a2 F7       		.byte	0xf7
 15560 04a3 25       		.uleb128 0x25
 15561 04a4 1B       		.byte	0x1b
ARM GAS  /var/folders/d2/nstgp4h54kz7g1l847x_b8wc0000gn/T//cc2apEbl.s 			page 274


 15562 04a5 F7       		.byte	0xf7
 15563 04a6 00       		.uleb128 0
 15564 04a7 22       		.byte	0x22
 15565 04a8 F7       		.byte	0xf7
 15566 04a9 25       		.uleb128 0x25
 15567 04aa 72       		.byte	0x72
 15568 04ab 00       		.sleb128 0
 15569 04ac 08       		.byte	0x8
 15570 04ad FF       		.byte	0xff
 15571 04ae 1A       		.byte	0x1a
 15572 04af 0C       		.byte	0xc
 15573 04b0 002F3A00 		.4byte	0x3a2f00
 15574 04b4 1E       		.byte	0x1e
 15575 04b5 23       		.byte	0x23
 15576 04b6 F403     		.uleb128 0x1f4
 15577 04b8 F7       		.byte	0xf7
 15578 04b9 25       		.uleb128 0x25
 15579 04ba 0A       		.byte	0xa
 15580 04bb E803     		.2byte	0x3e8
 15581 04bd F7       		.byte	0xf7
 15582 04be 25       		.uleb128 0x25
 15583 04bf 1B       		.byte	0x1b
 15584 04c0 F7       		.byte	0xf7
 15585 04c1 00       		.uleb128 0
 15586 04c2 F7       		.byte	0xf7
 15587 04c3 25       		.uleb128 0x25
 15588 04c4 1B       		.byte	0x1b
 15589 04c5 F7       		.byte	0xf7
 15590 04c6 00       		.uleb128 0
 15591 04c7 22       		.byte	0x22
 15592 04c8 3B       		.byte	0x3b
 15593 04c9 24       		.byte	0x24
 15594 04ca 7C       		.byte	0x7c
 15595 04cb 00       		.sleb128 0
 15596 04cc 1E       		.byte	0x1e
 15597 04cd 23       		.byte	0x23
 15598 04ce F403     		.uleb128 0x1f4
 15599 04d0 F7       		.byte	0xf7
 15600 04d1 25       		.uleb128 0x25
 15601 04d2 0A       		.byte	0xa
 15602 04d3 E803     		.2byte	0x3e8
 15603 04d5 F7       		.byte	0xf7
 15604 04d6 25       		.uleb128 0x25
 15605 04d7 1B       		.byte	0x1b
 15606 04d8 F7       		.byte	0xf7
 15607 04d9 00       		.uleb128 0
 15608 04da 0A       		.byte	0xa
 15609 04db 7706     		.2byte	0x677
 15610 04dd 1E       		.byte	0x1e
 15611 04de 23       		.byte	0x23
 15612 04df F403     		.uleb128 0x1f4
 15613 04e1 F7       		.byte	0xf7
 15614 04e2 25       		.uleb128 0x25
 15615 04e3 0A       		.byte	0xa
 15616 04e4 E803     		.2byte	0x3e8
 15617 04e6 F7       		.byte	0xf7
 15618 04e7 25       		.uleb128 0x25
ARM GAS  /var/folders/d2/nstgp4h54kz7g1l847x_b8wc0000gn/T//cc2apEbl.s 			page 275


 15619 04e8 1B       		.byte	0x1b
 15620 04e9 F7       		.byte	0xf7
 15621 04ea 00       		.uleb128 0
 15622 04eb 1E       		.byte	0x1e
 15623 04ec 23       		.byte	0x23
 15624 04ed 8001     		.uleb128 0x80
 15625 04ef 38       		.byte	0x38
 15626 04f0 25       		.byte	0x25
 15627 04f1 9F       		.byte	0x9f
 15628 04f2 F4020000 		.4byte	.LVL783
 15629 04f6 F6020000 		.4byte	.LVL784
 15630 04fa B600     		.2byte	0xb6
 15631 04fc 76       		.byte	0x76
 15632 04fd 8001     		.sleb128 128
 15633 04ff 38       		.byte	0x38
 15634 0500 25       		.byte	0x25
 15635 0501 74       		.byte	0x74
 15636 0502 E401     		.sleb128 228
 15637 0504 06       		.byte	0x6
 15638 0505 0A       		.byte	0xa
 15639 0506 E803     		.2byte	0x3e8
 15640 0508 1E       		.byte	0x1e
 15641 0509 74       		.byte	0x74
 15642 050a E801     		.sleb128 232
 15643 050c 94       		.byte	0x94
 15644 050d 01       		.byte	0x1
 15645 050e 08       		.byte	0x8
 15646 050f FF       		.byte	0xff
 15647 0510 1A       		.byte	0x1a
 15648 0511 0C       		.byte	0xc
 15649 0512 002F3A00 		.4byte	0x3a2f00
 15650 0516 1E       		.byte	0x1e
 15651 0517 23       		.byte	0x23
 15652 0518 F403     		.uleb128 0x1f4
 15653 051a F7       		.byte	0xf7
 15654 051b 25       		.uleb128 0x25
 15655 051c 0A       		.byte	0xa
 15656 051d D007     		.2byte	0x7d0
 15657 051f F7       		.byte	0xf7
 15658 0520 25       		.uleb128 0x25
 15659 0521 1B       		.byte	0x1b
 15660 0522 F7       		.byte	0xf7
 15661 0523 00       		.uleb128 0
 15662 0524 22       		.byte	0x22
 15663 0525 F7       		.byte	0xf7
 15664 0526 25       		.uleb128 0x25
 15665 0527 74       		.byte	0x74
 15666 0528 E801     		.sleb128 232
 15667 052a 94       		.byte	0x94
 15668 052b 01       		.byte	0x1
 15669 052c 08       		.byte	0x8
 15670 052d FF       		.byte	0xff
 15671 052e 1A       		.byte	0x1a
 15672 052f 0C       		.byte	0xc
 15673 0530 002F3A00 		.4byte	0x3a2f00
 15674 0534 1E       		.byte	0x1e
 15675 0535 23       		.byte	0x23
ARM GAS  /var/folders/d2/nstgp4h54kz7g1l847x_b8wc0000gn/T//cc2apEbl.s 			page 276


 15676 0536 F403     		.uleb128 0x1f4
 15677 0538 F7       		.byte	0xf7
 15678 0539 25       		.uleb128 0x25
 15679 053a 0A       		.byte	0xa
 15680 053b E803     		.2byte	0x3e8
 15681 053d F7       		.byte	0xf7
 15682 053e 25       		.uleb128 0x25
 15683 053f 1B       		.byte	0x1b
 15684 0540 F7       		.byte	0xf7
 15685 0541 00       		.uleb128 0
 15686 0542 F7       		.byte	0xf7
 15687 0543 25       		.uleb128 0x25
 15688 0544 1B       		.byte	0x1b
 15689 0545 F7       		.byte	0xf7
 15690 0546 00       		.uleb128 0
 15691 0547 74       		.byte	0x74
 15692 0548 DC01     		.sleb128 220
 15693 054a 06       		.byte	0x6
 15694 054b 0A       		.byte	0xa
 15695 054c E803     		.2byte	0x3e8
 15696 054e 1E       		.byte	0x1e
 15697 054f 72       		.byte	0x72
 15698 0550 00       		.sleb128 0
 15699 0551 08       		.byte	0x8
 15700 0552 FF       		.byte	0xff
 15701 0553 1A       		.byte	0x1a
 15702 0554 0C       		.byte	0xc
 15703 0555 002F3A00 		.4byte	0x3a2f00
 15704 0559 1E       		.byte	0x1e
 15705 055a 23       		.byte	0x23
 15706 055b F403     		.uleb128 0x1f4
 15707 055d F7       		.byte	0xf7
 15708 055e 25       		.uleb128 0x25
 15709 055f 0A       		.byte	0xa
 15710 0560 D007     		.2byte	0x7d0
 15711 0562 F7       		.byte	0xf7
 15712 0563 25       		.uleb128 0x25
 15713 0564 1B       		.byte	0x1b
 15714 0565 F7       		.byte	0xf7
 15715 0566 00       		.uleb128 0
 15716 0567 22       		.byte	0x22
 15717 0568 F7       		.byte	0xf7
 15718 0569 25       		.uleb128 0x25
 15719 056a 72       		.byte	0x72
 15720 056b 00       		.sleb128 0
 15721 056c 08       		.byte	0x8
 15722 056d FF       		.byte	0xff
 15723 056e 1A       		.byte	0x1a
 15724 056f 0C       		.byte	0xc
 15725 0570 002F3A00 		.4byte	0x3a2f00
 15726 0574 1E       		.byte	0x1e
 15727 0575 23       		.byte	0x23
 15728 0576 F403     		.uleb128 0x1f4
 15729 0578 F7       		.byte	0xf7
 15730 0579 25       		.uleb128 0x25
 15731 057a 0A       		.byte	0xa
 15732 057b E803     		.2byte	0x3e8
ARM GAS  /var/folders/d2/nstgp4h54kz7g1l847x_b8wc0000gn/T//cc2apEbl.s 			page 277


 15733 057d F7       		.byte	0xf7
 15734 057e 25       		.uleb128 0x25
 15735 057f 1B       		.byte	0x1b
 15736 0580 F7       		.byte	0xf7
 15737 0581 00       		.uleb128 0
 15738 0582 F7       		.byte	0xf7
 15739 0583 25       		.uleb128 0x25
 15740 0584 1B       		.byte	0x1b
 15741 0585 F7       		.byte	0xf7
 15742 0586 00       		.uleb128 0
 15743 0587 22       		.byte	0x22
 15744 0588 3B       		.byte	0x3b
 15745 0589 24       		.byte	0x24
 15746 058a 7C       		.byte	0x7c
 15747 058b 00       		.sleb128 0
 15748 058c 1E       		.byte	0x1e
 15749 058d 23       		.byte	0x23
 15750 058e F403     		.uleb128 0x1f4
 15751 0590 F7       		.byte	0xf7
 15752 0591 25       		.uleb128 0x25
 15753 0592 0A       		.byte	0xa
 15754 0593 E803     		.2byte	0x3e8
 15755 0595 F7       		.byte	0xf7
 15756 0596 25       		.uleb128 0x25
 15757 0597 1B       		.byte	0x1b
 15758 0598 F7       		.byte	0xf7
 15759 0599 00       		.uleb128 0
 15760 059a 0A       		.byte	0xa
 15761 059b 7706     		.2byte	0x677
 15762 059d 1E       		.byte	0x1e
 15763 059e 23       		.byte	0x23
 15764 059f F403     		.uleb128 0x1f4
 15765 05a1 F7       		.byte	0xf7
 15766 05a2 25       		.uleb128 0x25
 15767 05a3 0A       		.byte	0xa
 15768 05a4 E803     		.2byte	0x3e8
 15769 05a6 F7       		.byte	0xf7
 15770 05a7 25       		.uleb128 0x25
 15771 05a8 1B       		.byte	0x1b
 15772 05a9 F7       		.byte	0xf7
 15773 05aa 00       		.uleb128 0
 15774 05ab 1E       		.byte	0x1e
 15775 05ac 23       		.byte	0x23
 15776 05ad 8001     		.uleb128 0x80
 15777 05af 38       		.byte	0x38
 15778 05b0 25       		.byte	0x25
 15779 05b1 9F       		.byte	0x9f
 15780 05b2 F6020000 		.4byte	.LVL784
 15781 05b6 FA020000 		.4byte	.LVL786
 15782 05ba BC00     		.2byte	0xbc
 15783 05bc 76       		.byte	0x76
 15784 05bd 8001     		.sleb128 128
 15785 05bf 38       		.byte	0x38
 15786 05c0 25       		.byte	0x25
 15787 05c1 74       		.byte	0x74
 15788 05c2 E401     		.sleb128 228
 15789 05c4 06       		.byte	0x6
ARM GAS  /var/folders/d2/nstgp4h54kz7g1l847x_b8wc0000gn/T//cc2apEbl.s 			page 278


 15790 05c5 0A       		.byte	0xa
 15791 05c6 E803     		.2byte	0x3e8
 15792 05c8 1E       		.byte	0x1e
 15793 05c9 74       		.byte	0x74
 15794 05ca E801     		.sleb128 232
 15795 05cc 94       		.byte	0x94
 15796 05cd 01       		.byte	0x1
 15797 05ce 08       		.byte	0x8
 15798 05cf FF       		.byte	0xff
 15799 05d0 1A       		.byte	0x1a
 15800 05d1 0C       		.byte	0xc
 15801 05d2 002F3A00 		.4byte	0x3a2f00
 15802 05d6 1E       		.byte	0x1e
 15803 05d7 23       		.byte	0x23
 15804 05d8 F403     		.uleb128 0x1f4
 15805 05da F7       		.byte	0xf7
 15806 05db 25       		.uleb128 0x25
 15807 05dc 0A       		.byte	0xa
 15808 05dd D007     		.2byte	0x7d0
 15809 05df F7       		.byte	0xf7
 15810 05e0 25       		.uleb128 0x25
 15811 05e1 1B       		.byte	0x1b
 15812 05e2 F7       		.byte	0xf7
 15813 05e3 00       		.uleb128 0
 15814 05e4 22       		.byte	0x22
 15815 05e5 F7       		.byte	0xf7
 15816 05e6 25       		.uleb128 0x25
 15817 05e7 74       		.byte	0x74
 15818 05e8 E801     		.sleb128 232
 15819 05ea 94       		.byte	0x94
 15820 05eb 01       		.byte	0x1
 15821 05ec 08       		.byte	0x8
 15822 05ed FF       		.byte	0xff
 15823 05ee 1A       		.byte	0x1a
 15824 05ef 0C       		.byte	0xc
 15825 05f0 002F3A00 		.4byte	0x3a2f00
 15826 05f4 1E       		.byte	0x1e
 15827 05f5 23       		.byte	0x23
 15828 05f6 F403     		.uleb128 0x1f4
 15829 05f8 F7       		.byte	0xf7
 15830 05f9 25       		.uleb128 0x25
 15831 05fa 0A       		.byte	0xa
 15832 05fb E803     		.2byte	0x3e8
 15833 05fd F7       		.byte	0xf7
 15834 05fe 25       		.uleb128 0x25
 15835 05ff 1B       		.byte	0x1b
 15836 0600 F7       		.byte	0xf7
 15837 0601 00       		.uleb128 0
 15838 0602 F7       		.byte	0xf7
 15839 0603 25       		.uleb128 0x25
 15840 0604 1B       		.byte	0x1b
 15841 0605 F7       		.byte	0xf7
 15842 0606 00       		.uleb128 0
 15843 0607 74       		.byte	0x74
 15844 0608 DC01     		.sleb128 220
 15845 060a 06       		.byte	0x6
 15846 060b 0A       		.byte	0xa
ARM GAS  /var/folders/d2/nstgp4h54kz7g1l847x_b8wc0000gn/T//cc2apEbl.s 			page 279


 15847 060c E803     		.2byte	0x3e8
 15848 060e 1E       		.byte	0x1e
 15849 060f 74       		.byte	0x74
 15850 0610 E001     		.sleb128 224
 15851 0612 94       		.byte	0x94
 15852 0613 01       		.byte	0x1
 15853 0614 08       		.byte	0x8
 15854 0615 FF       		.byte	0xff
 15855 0616 1A       		.byte	0x1a
 15856 0617 0C       		.byte	0xc
 15857 0618 002F3A00 		.4byte	0x3a2f00
 15858 061c 1E       		.byte	0x1e
 15859 061d 23       		.byte	0x23
 15860 061e F403     		.uleb128 0x1f4
 15861 0620 F7       		.byte	0xf7
 15862 0621 25       		.uleb128 0x25
 15863 0622 0A       		.byte	0xa
 15864 0623 D007     		.2byte	0x7d0
 15865 0625 F7       		.byte	0xf7
 15866 0626 25       		.uleb128 0x25
 15867 0627 1B       		.byte	0x1b
 15868 0628 F7       		.byte	0xf7
 15869 0629 00       		.uleb128 0
 15870 062a 22       		.byte	0x22
 15871 062b F7       		.byte	0xf7
 15872 062c 25       		.uleb128 0x25
 15873 062d 74       		.byte	0x74
 15874 062e E001     		.sleb128 224
 15875 0630 94       		.byte	0x94
 15876 0631 01       		.byte	0x1
 15877 0632 08       		.byte	0x8
 15878 0633 FF       		.byte	0xff
 15879 0634 1A       		.byte	0x1a
 15880 0635 0C       		.byte	0xc
 15881 0636 002F3A00 		.4byte	0x3a2f00
 15882 063a 1E       		.byte	0x1e
 15883 063b 23       		.byte	0x23
 15884 063c F403     		.uleb128 0x1f4
 15885 063e F7       		.byte	0xf7
 15886 063f 25       		.uleb128 0x25
 15887 0640 0A       		.byte	0xa
 15888 0641 E803     		.2byte	0x3e8
 15889 0643 F7       		.byte	0xf7
 15890 0644 25       		.uleb128 0x25
 15891 0645 1B       		.byte	0x1b
 15892 0646 F7       		.byte	0xf7
 15893 0647 00       		.uleb128 0
 15894 0648 F7       		.byte	0xf7
 15895 0649 25       		.uleb128 0x25
 15896 064a 1B       		.byte	0x1b
 15897 064b F7       		.byte	0xf7
 15898 064c 00       		.uleb128 0
 15899 064d 22       		.byte	0x22
 15900 064e 3B       		.byte	0x3b
 15901 064f 24       		.byte	0x24
 15902 0650 7C       		.byte	0x7c
 15903 0651 00       		.sleb128 0
ARM GAS  /var/folders/d2/nstgp4h54kz7g1l847x_b8wc0000gn/T//cc2apEbl.s 			page 280


 15904 0652 1E       		.byte	0x1e
 15905 0653 23       		.byte	0x23
 15906 0654 F403     		.uleb128 0x1f4
 15907 0656 F7       		.byte	0xf7
 15908 0657 25       		.uleb128 0x25
 15909 0658 0A       		.byte	0xa
 15910 0659 E803     		.2byte	0x3e8
 15911 065b F7       		.byte	0xf7
 15912 065c 25       		.uleb128 0x25
 15913 065d 1B       		.byte	0x1b
 15914 065e F7       		.byte	0xf7
 15915 065f 00       		.uleb128 0
 15916 0660 0A       		.byte	0xa
 15917 0661 7706     		.2byte	0x677
 15918 0663 1E       		.byte	0x1e
 15919 0664 23       		.byte	0x23
 15920 0665 F403     		.uleb128 0x1f4
 15921 0667 F7       		.byte	0xf7
 15922 0668 25       		.uleb128 0x25
 15923 0669 0A       		.byte	0xa
 15924 066a E803     		.2byte	0x3e8
 15925 066c F7       		.byte	0xf7
 15926 066d 25       		.uleb128 0x25
 15927 066e 1B       		.byte	0x1b
 15928 066f F7       		.byte	0xf7
 15929 0670 00       		.uleb128 0
 15930 0671 1E       		.byte	0x1e
 15931 0672 23       		.byte	0x23
 15932 0673 8001     		.uleb128 0x80
 15933 0675 38       		.byte	0x38
 15934 0676 25       		.byte	0x25
 15935 0677 9F       		.byte	0x9f
 15936 0678 00000000 		.4byte	0
 15937 067c 00000000 		.4byte	0
 15938              	.LLST187:
 15939 0680 3C000000 		.4byte	.LVL698
 15940 0684 C8020000 		.4byte	.LVL779
 15941 0688 0300     		.2byte	0x3
 15942 068a 74       		.byte	0x74
 15943 068b DC01     		.sleb128 220
 15944 068d C8020000 		.4byte	.LVL779
 15945 0691 E2020000 		.4byte	.LVL781
 15946 0695 0300     		.2byte	0x3
 15947 0697 91       		.byte	0x91
 15948 0698 B87F     		.sleb128 -72
 15949 069a F4020000 		.4byte	.LVL783
 15950 069e FA020000 		.4byte	.LVL786
 15951 06a2 0300     		.2byte	0x3
 15952 06a4 74       		.byte	0x74
 15953 06a5 DC01     		.sleb128 220
 15954 06a7 04030000 		.4byte	.LVL787
 15955 06ab 0C030000 		.4byte	.LVL789
 15956 06af 0300     		.2byte	0x3
 15957 06b1 74       		.byte	0x74
 15958 06b2 DC01     		.sleb128 220
 15959 06b4 00000000 		.4byte	0
 15960 06b8 00000000 		.4byte	0
ARM GAS  /var/folders/d2/nstgp4h54kz7g1l847x_b8wc0000gn/T//cc2apEbl.s 			page 281


 15961              	.LLST188:
 15962 06bc 40000000 		.4byte	.LVL699
 15963 06c0 C8020000 		.4byte	.LVL779
 15964 06c4 0300     		.2byte	0x3
 15965 06c6 74       		.byte	0x74
 15966 06c7 E401     		.sleb128 228
 15967 06c9 F4020000 		.4byte	.LVL783
 15968 06cd FA020000 		.4byte	.LVL786
 15969 06d1 0300     		.2byte	0x3
 15970 06d3 74       		.byte	0x74
 15971 06d4 E401     		.sleb128 228
 15972 06d6 04030000 		.4byte	.LVL787
 15973 06da 0C030000 		.4byte	.LVL789
 15974 06de 0100     		.2byte	0x1
 15975 06e0 5A       		.byte	0x5a
 15976 06e1 00000000 		.4byte	0
 15977 06e5 00000000 		.4byte	0
 15978              	.LLST189:
 15979 06e9 3C020000 		.4byte	.LVL753
 15980 06ed C8020000 		.4byte	.LVL779
 15981 06f1 1700     		.2byte	0x17
 15982 06f3 91       		.byte	0x91
 15983 06f4 B87F     		.sleb128 -72
 15984 06f6 06       		.byte	0x6
 15985 06f7 74       		.byte	0x74
 15986 06f8 E401     		.sleb128 228
 15987 06fa 06       		.byte	0x6
 15988 06fb 22       		.byte	0x22
 15989 06fc 23       		.byte	0x23
 15990 06fd F403     		.uleb128 0x1f4
 15991 06ff F7       		.byte	0xf7
 15992 0700 25       		.uleb128 0x25
 15993 0701 0A       		.byte	0xa
 15994 0702 E803     		.2byte	0x3e8
 15995 0704 F7       		.byte	0xf7
 15996 0705 25       		.uleb128 0x25
 15997 0706 1B       		.byte	0x1b
 15998 0707 F7       		.byte	0xf7
 15999 0708 00       		.uleb128 0
 16000 0709 9F       		.byte	0x9f
 16001 070a 00000000 		.4byte	0
 16002 070e 00000000 		.4byte	0
 16003              	.LLST190:
 16004 0712 60000000 		.4byte	.LVL703
 16005 0716 E2020000 		.4byte	.LVL781
 16006 071a 0400     		.2byte	0x4
 16007 071c 0A       		.byte	0xa
 16008 071d 2003     		.2byte	0x320
 16009 071f 9F       		.byte	0x9f
 16010 0720 04030000 		.4byte	.LVL787
 16011 0724 0C030000 		.4byte	.LVL789
 16012 0728 0400     		.2byte	0x4
 16013 072a 0A       		.byte	0xa
 16014 072b 2003     		.2byte	0x320
 16015 072d 9F       		.byte	0x9f
 16016 072e 00000000 		.4byte	0
 16017 0732 00000000 		.4byte	0
ARM GAS  /var/folders/d2/nstgp4h54kz7g1l847x_b8wc0000gn/T//cc2apEbl.s 			page 282


 16018              	.LLST191:
 16019 0736 0C010000 		.4byte	.LVL707
 16020 073a 1A010000 		.4byte	.LVL710
 16021 073e 0100     		.2byte	0x1
 16022 0740 58       		.byte	0x58
 16023 0741 1A010000 		.4byte	.LVL710
 16024 0745 E2020000 		.4byte	.LVL781
 16025 0749 0100     		.2byte	0x1
 16026 074b 56       		.byte	0x56
 16027 074c 04030000 		.4byte	.LVL787
 16028 0750 0C030000 		.4byte	.LVL789
 16029 0754 0100     		.2byte	0x1
 16030 0756 56       		.byte	0x56
 16031 0757 00000000 		.4byte	0
 16032 075b 00000000 		.4byte	0
 16033              	.LLST192:
 16034 075f 7E010000 		.4byte	.LVL721
 16035 0763 16020000 		.4byte	.LVL747
 16036 0767 0100     		.2byte	0x1
 16037 0769 5C       		.byte	0x5c
 16038 076a 04030000 		.4byte	.LVL787
 16039 076e 0C030000 		.4byte	.LVL789
 16040 0772 0100     		.2byte	0x1
 16041 0774 5C       		.byte	0x5c
 16042 0775 00000000 		.4byte	0
 16043 0779 00000000 		.4byte	0
 16044              	.LLST193:
 16045 077d 7E010000 		.4byte	.LVL721
 16046 0781 94010000 		.4byte	.LVL723
 16047 0785 0D00     		.2byte	0xd
 16048 0787 75       		.byte	0x75
 16049 0788 00       		.sleb128 0
 16050 0789 0A       		.byte	0xa
 16051 078a FFFF     		.2byte	0xffff
 16052 078c 1A       		.byte	0x1a
 16053 078d 0C       		.byte	0xc
 16054 078e 9A990600 		.4byte	0x6999a
 16055 0792 1E       		.byte	0x1e
 16056 0793 9F       		.byte	0x9f
 16057 0794 94010000 		.4byte	.LVL723
 16058 0798 C8020000 		.4byte	.LVL779
 16059 079c 1200     		.2byte	0x12
 16060 079e F3       		.byte	0xf3
 16061 079f 01       		.uleb128 0x1
 16062 07a0 51       		.byte	0x51
 16063 07a1 23       		.byte	0x23
 16064 07a2 08       		.uleb128 0x8
 16065 07a3 94       		.byte	0x94
 16066 07a4 02       		.byte	0x2
 16067 07a5 0A       		.byte	0xa
 16068 07a6 FFFF     		.2byte	0xffff
 16069 07a8 1A       		.byte	0x1a
 16070 07a9 0C       		.byte	0xc
 16071 07aa 9A990600 		.4byte	0x6999a
 16072 07ae 1E       		.byte	0x1e
 16073 07af 9F       		.byte	0x9f
 16074 07b0 04030000 		.4byte	.LVL787
ARM GAS  /var/folders/d2/nstgp4h54kz7g1l847x_b8wc0000gn/T//cc2apEbl.s 			page 283


 16075 07b4 0C030000 		.4byte	.LVL789
 16076 07b8 0D00     		.2byte	0xd
 16077 07ba 75       		.byte	0x75
 16078 07bb 00       		.sleb128 0
 16079 07bc 0A       		.byte	0xa
 16080 07bd FFFF     		.2byte	0xffff
 16081 07bf 1A       		.byte	0x1a
 16082 07c0 0C       		.byte	0xc
 16083 07c1 9A990600 		.4byte	0x6999a
 16084 07c5 1E       		.byte	0x1e
 16085 07c6 9F       		.byte	0x9f
 16086 07c7 00000000 		.4byte	0
 16087 07cb 00000000 		.4byte	0
 16088              	.LLST194:
 16089 07cf 9C010000 		.4byte	.LVL725
 16090 07d3 AA010000 		.4byte	.LVL727
 16091 07d7 8800     		.2byte	0x88
 16092 07d9 40       		.byte	0x40
 16093 07da 3C       		.byte	0x3c
 16094 07db 24       		.byte	0x24
 16095 07dc 71       		.byte	0x71
 16096 07dd 807F     		.sleb128 -128
 16097 07df 0A       		.byte	0xa
 16098 07e0 E803     		.2byte	0x3e8
 16099 07e2 1E       		.byte	0x1e
 16100 07e3 23       		.byte	0x23
 16101 07e4 808002   		.uleb128 0x8000
 16102 07e7 40       		.byte	0x40
 16103 07e8 25       		.byte	0x25
 16104 07e9 40       		.byte	0x40
 16105 07ea 24       		.byte	0x24
 16106 07eb 49       		.byte	0x49
 16107 07ec 41       		.byte	0x41
 16108 07ed 24       		.byte	0x24
 16109 07ee 91       		.byte	0x91
 16110 07ef 4C       		.sleb128 -52
 16111 07f0 06       		.byte	0x6
 16112 07f1 0A       		.byte	0xa
 16113 07f2 E803     		.2byte	0x3e8
 16114 07f4 1E       		.byte	0x1e
 16115 07f5 91       		.byte	0x91
 16116 07f6 4C       		.sleb128 -52
 16117 07f7 06       		.byte	0x6
 16118 07f8 0A       		.byte	0xa
 16119 07f9 E803     		.2byte	0x3e8
 16120 07fb 1E       		.byte	0x1e
 16121 07fc 40       		.byte	0x40
 16122 07fd 4B       		.byte	0x4b
 16123 07fe 24       		.byte	0x24
 16124 07ff 22       		.byte	0x22
 16125 0800 0C       		.byte	0xc
 16126 0801 00003280 		.4byte	0x80320000
 16127 0805 2A       		.byte	0x2a
 16128 0806 28       		.byte	0x28
 16129 0807 0100     		.2byte	0x1
 16130 0809 16       		.byte	0x16
 16131 080a 13       		.byte	0x13
ARM GAS  /var/folders/d2/nstgp4h54kz7g1l847x_b8wc0000gn/T//cc2apEbl.s 			page 284


 16132 080b 31       		.byte	0x31
 16133 080c 24       		.byte	0x24
 16134 080d 1C       		.byte	0x1c
 16135 080e 23       		.byte	0x23
 16136 080f F403     		.uleb128 0x1f4
 16137 0811 F7       		.byte	0xf7
 16138 0812 25       		.uleb128 0x25
 16139 0813 F7       		.byte	0xf7
 16140 0814 2C       		.uleb128 0x2c
 16141 0815 0C       		.byte	0xc
 16142 0816 D34D6210 		.4byte	0x10624dd3
 16143 081a F7       		.byte	0xf7
 16144 081b 2C       		.uleb128 0x2c
 16145 081c 1E       		.byte	0x1e
 16146 081d 08       		.byte	0x8
 16147 081e 20       		.byte	0x20
 16148 081f F7       		.byte	0xf7
 16149 0820 2C       		.uleb128 0x2c
 16150 0821 25       		.byte	0x25
 16151 0822 F7       		.byte	0xf7
 16152 0823 25       		.uleb128 0x25
 16153 0824 F7       		.byte	0xf7
 16154 0825 00       		.uleb128 0
 16155 0826 36       		.byte	0x36
 16156 0827 25       		.byte	0x25
 16157 0828 38       		.byte	0x38
 16158 0829 24       		.byte	0x24
 16159 082a F7       		.byte	0xf7
 16160 082b 25       		.uleb128 0x25
 16161 082c 71       		.byte	0x71
 16162 082d 807F     		.sleb128 -128
 16163 082f 0A       		.byte	0xa
 16164 0830 E803     		.2byte	0x3e8
 16165 0832 1E       		.byte	0x1e
 16166 0833 23       		.byte	0x23
 16167 0834 808002   		.uleb128 0x8000
 16168 0837 40       		.byte	0x40
 16169 0838 25       		.byte	0x25
 16170 0839 40       		.byte	0x40
 16171 083a 24       		.byte	0x24
 16172 083b 23       		.byte	0x23
 16173 083c F403     		.uleb128 0x1f4
 16174 083e F7       		.byte	0xf7
 16175 083f 25       		.uleb128 0x25
 16176 0840 F7       		.byte	0xf7
 16177 0841 2C       		.uleb128 0x2c
 16178 0842 0C       		.byte	0xc
 16179 0843 D34D6210 		.4byte	0x10624dd3
 16180 0847 F7       		.byte	0xf7
 16181 0848 2C       		.uleb128 0x2c
 16182 0849 1E       		.byte	0x1e
 16183 084a 08       		.byte	0x8
 16184 084b 20       		.byte	0x20
 16185 084c F7       		.byte	0xf7
 16186 084d 2C       		.uleb128 0x2c
 16187 084e 25       		.byte	0x25
 16188 084f F7       		.byte	0xf7
ARM GAS  /var/folders/d2/nstgp4h54kz7g1l847x_b8wc0000gn/T//cc2apEbl.s 			page 285


 16189 0850 25       		.uleb128 0x25
 16190 0851 F7       		.byte	0xf7
 16191 0852 00       		.uleb128 0
 16192 0853 36       		.byte	0x36
 16193 0854 25       		.byte	0x25
 16194 0855 F7       		.byte	0xf7
 16195 0856 25       		.uleb128 0x25
 16196 0857 1B       		.byte	0x1b
 16197 0858 F7       		.byte	0xf7
 16198 0859 00       		.uleb128 0
 16199 085a 38       		.byte	0x38
 16200 085b 24       		.byte	0x24
 16201 085c 1C       		.byte	0x1c
 16202 085d 75       		.byte	0x75
 16203 085e 00       		.sleb128 0
 16204 085f 1E       		.byte	0x1e
 16205 0860 9F       		.byte	0x9f
 16206 0861 AA010000 		.4byte	.LVL727
 16207 0865 E1020000 		.4byte	.LVL781-1
 16208 0869 0100     		.2byte	0x1
 16209 086b 53       		.byte	0x53
 16210 086c 00000000 		.4byte	0
 16211 0870 00000000 		.4byte	0
 16212              	.LLST195:
 16213 0874 12020000 		.4byte	.LVL746
 16214 0878 1A020000 		.4byte	.LVL748
 16215 087c 0600     		.2byte	0x6
 16216 087e 78       		.byte	0x78
 16217 087f 00       		.sleb128 0
 16218 0880 72       		.byte	0x72
 16219 0881 00       		.sleb128 0
 16220 0882 1E       		.byte	0x1e
 16221 0883 9F       		.byte	0x9f
 16222 0884 1A020000 		.4byte	.LVL748
 16223 0888 20020000 		.4byte	.LVL749
 16224 088c 0100     		.2byte	0x1
 16225 088e 52       		.byte	0x52
 16226 088f 2A020000 		.4byte	.LVL751
 16227 0893 90020000 		.4byte	.LVL766
 16228 0897 0100     		.2byte	0x1
 16229 0899 52       		.byte	0x52
 16230 089a 00000000 		.4byte	0
 16231 089e 00000000 		.4byte	0
 16232              	.LLST196:
 16233 08a2 82010000 		.4byte	.LVL722
 16234 08a6 9A010000 		.4byte	.LVL724
 16235 08aa 0500     		.2byte	0x5
 16236 08ac 73       		.byte	0x73
 16237 08ad 00       		.sleb128 0
 16238 08ae 38       		.byte	0x38
 16239 08af 24       		.byte	0x24
 16240 08b0 9F       		.byte	0x9f
 16241 08b1 9A010000 		.4byte	.LVL724
 16242 08b5 A0010000 		.4byte	.LVL726
 16243 08b9 0100     		.2byte	0x1
 16244 08bb 53       		.byte	0x53
 16245 08bc A0010000 		.4byte	.LVL726
ARM GAS  /var/folders/d2/nstgp4h54kz7g1l847x_b8wc0000gn/T//cc2apEbl.s 			page 286


 16246 08c0 24020000 		.4byte	.LVL750
 16247 08c4 8100     		.2byte	0x81
 16248 08c6 71       		.byte	0x71
 16249 08c7 807F     		.sleb128 -128
 16250 08c9 0A       		.byte	0xa
 16251 08ca E803     		.2byte	0x3e8
 16252 08cc 1E       		.byte	0x1e
 16253 08cd 23       		.byte	0x23
 16254 08ce 808002   		.uleb128 0x8000
 16255 08d1 40       		.byte	0x40
 16256 08d2 25       		.byte	0x25
 16257 08d3 40       		.byte	0x40
 16258 08d4 24       		.byte	0x24
 16259 08d5 49       		.byte	0x49
 16260 08d6 41       		.byte	0x41
 16261 08d7 24       		.byte	0x24
 16262 08d8 91       		.byte	0x91
 16263 08d9 4C       		.sleb128 -52
 16264 08da 06       		.byte	0x6
 16265 08db 0A       		.byte	0xa
 16266 08dc E803     		.2byte	0x3e8
 16267 08de 1E       		.byte	0x1e
 16268 08df 91       		.byte	0x91
 16269 08e0 4C       		.sleb128 -52
 16270 08e1 06       		.byte	0x6
 16271 08e2 0A       		.byte	0xa
 16272 08e3 E803     		.2byte	0x3e8
 16273 08e5 1E       		.byte	0x1e
 16274 08e6 40       		.byte	0x40
 16275 08e7 4B       		.byte	0x4b
 16276 08e8 24       		.byte	0x24
 16277 08e9 22       		.byte	0x22
 16278 08ea 0C       		.byte	0xc
 16279 08eb 00003280 		.4byte	0x80320000
 16280 08ef 2A       		.byte	0x2a
 16281 08f0 28       		.byte	0x28
 16282 08f1 0100     		.2byte	0x1
 16283 08f3 16       		.byte	0x16
 16284 08f4 13       		.byte	0x13
 16285 08f5 31       		.byte	0x31
 16286 08f6 24       		.byte	0x24
 16287 08f7 1C       		.byte	0x1c
 16288 08f8 23       		.byte	0x23
 16289 08f9 F403     		.uleb128 0x1f4
 16290 08fb F7       		.byte	0xf7
 16291 08fc 25       		.uleb128 0x25
 16292 08fd F7       		.byte	0xf7
 16293 08fe 2C       		.uleb128 0x2c
 16294 08ff 0C       		.byte	0xc
 16295 0900 D34D6210 		.4byte	0x10624dd3
 16296 0904 F7       		.byte	0xf7
 16297 0905 2C       		.uleb128 0x2c
 16298 0906 1E       		.byte	0x1e
 16299 0907 08       		.byte	0x8
 16300 0908 20       		.byte	0x20
 16301 0909 F7       		.byte	0xf7
 16302 090a 2C       		.uleb128 0x2c
ARM GAS  /var/folders/d2/nstgp4h54kz7g1l847x_b8wc0000gn/T//cc2apEbl.s 			page 287


 16303 090b 25       		.byte	0x25
 16304 090c F7       		.byte	0xf7
 16305 090d 25       		.uleb128 0x25
 16306 090e F7       		.byte	0xf7
 16307 090f 00       		.uleb128 0
 16308 0910 36       		.byte	0x36
 16309 0911 25       		.byte	0x25
 16310 0912 38       		.byte	0x38
 16311 0913 24       		.byte	0x24
 16312 0914 F7       		.byte	0xf7
 16313 0915 25       		.uleb128 0x25
 16314 0916 71       		.byte	0x71
 16315 0917 807F     		.sleb128 -128
 16316 0919 0A       		.byte	0xa
 16317 091a E803     		.2byte	0x3e8
 16318 091c 1E       		.byte	0x1e
 16319 091d 23       		.byte	0x23
 16320 091e 808002   		.uleb128 0x8000
 16321 0921 40       		.byte	0x40
 16322 0922 25       		.byte	0x25
 16323 0923 40       		.byte	0x40
 16324 0924 24       		.byte	0x24
 16325 0925 23       		.byte	0x23
 16326 0926 F403     		.uleb128 0x1f4
 16327 0928 F7       		.byte	0xf7
 16328 0929 25       		.uleb128 0x25
 16329 092a F7       		.byte	0xf7
 16330 092b 2C       		.uleb128 0x2c
 16331 092c 0C       		.byte	0xc
 16332 092d D34D6210 		.4byte	0x10624dd3
 16333 0931 F7       		.byte	0xf7
 16334 0932 2C       		.uleb128 0x2c
 16335 0933 1E       		.byte	0x1e
 16336 0934 08       		.byte	0x8
 16337 0935 20       		.byte	0x20
 16338 0936 F7       		.byte	0xf7
 16339 0937 2C       		.uleb128 0x2c
 16340 0938 25       		.byte	0x25
 16341 0939 F7       		.byte	0xf7
 16342 093a 25       		.uleb128 0x25
 16343 093b F7       		.byte	0xf7
 16344 093c 00       		.uleb128 0
 16345 093d 36       		.byte	0x36
 16346 093e 25       		.byte	0x25
 16347 093f F7       		.byte	0xf7
 16348 0940 25       		.uleb128 0x25
 16349 0941 1B       		.byte	0x1b
 16350 0942 F7       		.byte	0xf7
 16351 0943 00       		.uleb128 0
 16352 0944 38       		.byte	0x38
 16353 0945 24       		.byte	0x24
 16354 0946 9F       		.byte	0x9f
 16355 0947 24020000 		.4byte	.LVL750
 16356 094b 2E020000 		.4byte	.LVL752
 16357 094f 7F00     		.2byte	0x7f
 16358 0951 71       		.byte	0x71
 16359 0952 807F     		.sleb128 -128
ARM GAS  /var/folders/d2/nstgp4h54kz7g1l847x_b8wc0000gn/T//cc2apEbl.s 			page 288


 16360 0954 0A       		.byte	0xa
 16361 0955 E803     		.2byte	0x3e8
 16362 0957 1E       		.byte	0x1e
 16363 0958 23       		.byte	0x23
 16364 0959 808002   		.uleb128 0x8000
 16365 095c 40       		.byte	0x40
 16366 095d 25       		.byte	0x25
 16367 095e 40       		.byte	0x40
 16368 095f 24       		.byte	0x24
 16369 0960 49       		.byte	0x49
 16370 0961 41       		.byte	0x41
 16371 0962 24       		.byte	0x24
 16372 0963 91       		.byte	0x91
 16373 0964 4C       		.sleb128 -52
 16374 0965 06       		.byte	0x6
 16375 0966 0A       		.byte	0xa
 16376 0967 E803     		.2byte	0x3e8
 16377 0969 1E       		.byte	0x1e
 16378 096a 91       		.byte	0x91
 16379 096b 4C       		.sleb128 -52
 16380 096c 06       		.byte	0x6
 16381 096d 0A       		.byte	0xa
 16382 096e E803     		.2byte	0x3e8
 16383 0970 1E       		.byte	0x1e
 16384 0971 40       		.byte	0x40
 16385 0972 4B       		.byte	0x4b
 16386 0973 24       		.byte	0x24
 16387 0974 22       		.byte	0x22
 16388 0975 0C       		.byte	0xc
 16389 0976 00003280 		.4byte	0x80320000
 16390 097a 2A       		.byte	0x2a
 16391 097b 28       		.byte	0x28
 16392 097c 0100     		.2byte	0x1
 16393 097e 16       		.byte	0x16
 16394 097f 13       		.byte	0x13
 16395 0980 31       		.byte	0x31
 16396 0981 24       		.byte	0x24
 16397 0982 1C       		.byte	0x1c
 16398 0983 23       		.byte	0x23
 16399 0984 F403     		.uleb128 0x1f4
 16400 0986 F7       		.byte	0xf7
 16401 0987 25       		.uleb128 0x25
 16402 0988 F7       		.byte	0xf7
 16403 0989 2C       		.uleb128 0x2c
 16404 098a 7A       		.byte	0x7a
 16405 098b 00       		.sleb128 0
 16406 098c F7       		.byte	0xf7
 16407 098d 25       		.uleb128 0x25
 16408 098e F7       		.byte	0xf7
 16409 098f 2C       		.uleb128 0x2c
 16410 0990 1E       		.byte	0x1e
 16411 0991 08       		.byte	0x8
 16412 0992 20       		.byte	0x20
 16413 0993 F7       		.byte	0xf7
 16414 0994 2C       		.uleb128 0x2c
 16415 0995 25       		.byte	0x25
 16416 0996 F7       		.byte	0xf7
ARM GAS  /var/folders/d2/nstgp4h54kz7g1l847x_b8wc0000gn/T//cc2apEbl.s 			page 289


 16417 0997 25       		.uleb128 0x25
 16418 0998 F7       		.byte	0xf7
 16419 0999 00       		.uleb128 0
 16420 099a 36       		.byte	0x36
 16421 099b 25       		.byte	0x25
 16422 099c 38       		.byte	0x38
 16423 099d 24       		.byte	0x24
 16424 099e F7       		.byte	0xf7
 16425 099f 25       		.uleb128 0x25
 16426 09a0 71       		.byte	0x71
 16427 09a1 807F     		.sleb128 -128
 16428 09a3 0A       		.byte	0xa
 16429 09a4 E803     		.2byte	0x3e8
 16430 09a6 1E       		.byte	0x1e
 16431 09a7 23       		.byte	0x23
 16432 09a8 808002   		.uleb128 0x8000
 16433 09ab 40       		.byte	0x40
 16434 09ac 25       		.byte	0x25
 16435 09ad 40       		.byte	0x40
 16436 09ae 24       		.byte	0x24
 16437 09af 23       		.byte	0x23
 16438 09b0 F403     		.uleb128 0x1f4
 16439 09b2 F7       		.byte	0xf7
 16440 09b3 25       		.uleb128 0x25
 16441 09b4 F7       		.byte	0xf7
 16442 09b5 2C       		.uleb128 0x2c
 16443 09b6 7A       		.byte	0x7a
 16444 09b7 00       		.sleb128 0
 16445 09b8 F7       		.byte	0xf7
 16446 09b9 25       		.uleb128 0x25
 16447 09ba F7       		.byte	0xf7
 16448 09bb 2C       		.uleb128 0x2c
 16449 09bc 1E       		.byte	0x1e
 16450 09bd 08       		.byte	0x8
 16451 09be 20       		.byte	0x20
 16452 09bf F7       		.byte	0xf7
 16453 09c0 2C       		.uleb128 0x2c
 16454 09c1 25       		.byte	0x25
 16455 09c2 F7       		.byte	0xf7
 16456 09c3 25       		.uleb128 0x25
 16457 09c4 F7       		.byte	0xf7
 16458 09c5 00       		.uleb128 0
 16459 09c6 36       		.byte	0x36
 16460 09c7 25       		.byte	0x25
 16461 09c8 F7       		.byte	0xf7
 16462 09c9 25       		.uleb128 0x25
 16463 09ca 1B       		.byte	0x1b
 16464 09cb F7       		.byte	0xf7
 16465 09cc 00       		.uleb128 0
 16466 09cd 38       		.byte	0x38
 16467 09ce 24       		.byte	0x24
 16468 09cf 9F       		.byte	0x9f
 16469 09d0 2E020000 		.4byte	.LVL752
 16470 09d4 76020000 		.4byte	.LVL762
 16471 09d8 8100     		.2byte	0x81
 16472 09da 71       		.byte	0x71
 16473 09db 807F     		.sleb128 -128
ARM GAS  /var/folders/d2/nstgp4h54kz7g1l847x_b8wc0000gn/T//cc2apEbl.s 			page 290


 16474 09dd 0A       		.byte	0xa
 16475 09de E803     		.2byte	0x3e8
 16476 09e0 1E       		.byte	0x1e
 16477 09e1 23       		.byte	0x23
 16478 09e2 808002   		.uleb128 0x8000
 16479 09e5 40       		.byte	0x40
 16480 09e6 25       		.byte	0x25
 16481 09e7 40       		.byte	0x40
 16482 09e8 24       		.byte	0x24
 16483 09e9 49       		.byte	0x49
 16484 09ea 41       		.byte	0x41
 16485 09eb 24       		.byte	0x24
 16486 09ec 91       		.byte	0x91
 16487 09ed 4C       		.sleb128 -52
 16488 09ee 06       		.byte	0x6
 16489 09ef 0A       		.byte	0xa
 16490 09f0 E803     		.2byte	0x3e8
 16491 09f2 1E       		.byte	0x1e
 16492 09f3 91       		.byte	0x91
 16493 09f4 4C       		.sleb128 -52
 16494 09f5 06       		.byte	0x6
 16495 09f6 0A       		.byte	0xa
 16496 09f7 E803     		.2byte	0x3e8
 16497 09f9 1E       		.byte	0x1e
 16498 09fa 40       		.byte	0x40
 16499 09fb 4B       		.byte	0x4b
 16500 09fc 24       		.byte	0x24
 16501 09fd 22       		.byte	0x22
 16502 09fe 0C       		.byte	0xc
 16503 09ff 00003280 		.4byte	0x80320000
 16504 0a03 2A       		.byte	0x2a
 16505 0a04 28       		.byte	0x28
 16506 0a05 0100     		.2byte	0x1
 16507 0a07 16       		.byte	0x16
 16508 0a08 13       		.byte	0x13
 16509 0a09 31       		.byte	0x31
 16510 0a0a 24       		.byte	0x24
 16511 0a0b 1C       		.byte	0x1c
 16512 0a0c 23       		.byte	0x23
 16513 0a0d F403     		.uleb128 0x1f4
 16514 0a0f F7       		.byte	0xf7
 16515 0a10 25       		.uleb128 0x25
 16516 0a11 F7       		.byte	0xf7
 16517 0a12 2C       		.uleb128 0x2c
 16518 0a13 0C       		.byte	0xc
 16519 0a14 D34D6210 		.4byte	0x10624dd3
 16520 0a18 F7       		.byte	0xf7
 16521 0a19 2C       		.uleb128 0x2c
 16522 0a1a 1E       		.byte	0x1e
 16523 0a1b 08       		.byte	0x8
 16524 0a1c 20       		.byte	0x20
 16525 0a1d F7       		.byte	0xf7
 16526 0a1e 2C       		.uleb128 0x2c
 16527 0a1f 25       		.byte	0x25
 16528 0a20 F7       		.byte	0xf7
 16529 0a21 25       		.uleb128 0x25
 16530 0a22 F7       		.byte	0xf7
ARM GAS  /var/folders/d2/nstgp4h54kz7g1l847x_b8wc0000gn/T//cc2apEbl.s 			page 291


 16531 0a23 00       		.uleb128 0
 16532 0a24 36       		.byte	0x36
 16533 0a25 25       		.byte	0x25
 16534 0a26 38       		.byte	0x38
 16535 0a27 24       		.byte	0x24
 16536 0a28 F7       		.byte	0xf7
 16537 0a29 25       		.uleb128 0x25
 16538 0a2a 71       		.byte	0x71
 16539 0a2b 807F     		.sleb128 -128
 16540 0a2d 0A       		.byte	0xa
 16541 0a2e E803     		.2byte	0x3e8
 16542 0a30 1E       		.byte	0x1e
 16543 0a31 23       		.byte	0x23
 16544 0a32 808002   		.uleb128 0x8000
 16545 0a35 40       		.byte	0x40
 16546 0a36 25       		.byte	0x25
 16547 0a37 40       		.byte	0x40
 16548 0a38 24       		.byte	0x24
 16549 0a39 23       		.byte	0x23
 16550 0a3a F403     		.uleb128 0x1f4
 16551 0a3c F7       		.byte	0xf7
 16552 0a3d 25       		.uleb128 0x25
 16553 0a3e F7       		.byte	0xf7
 16554 0a3f 2C       		.uleb128 0x2c
 16555 0a40 0C       		.byte	0xc
 16556 0a41 D34D6210 		.4byte	0x10624dd3
 16557 0a45 F7       		.byte	0xf7
 16558 0a46 2C       		.uleb128 0x2c
 16559 0a47 1E       		.byte	0x1e
 16560 0a48 08       		.byte	0x8
 16561 0a49 20       		.byte	0x20
 16562 0a4a F7       		.byte	0xf7
 16563 0a4b 2C       		.uleb128 0x2c
 16564 0a4c 25       		.byte	0x25
 16565 0a4d F7       		.byte	0xf7
 16566 0a4e 25       		.uleb128 0x25
 16567 0a4f F7       		.byte	0xf7
 16568 0a50 00       		.uleb128 0
 16569 0a51 36       		.byte	0x36
 16570 0a52 25       		.byte	0x25
 16571 0a53 F7       		.byte	0xf7
 16572 0a54 25       		.uleb128 0x25
 16573 0a55 1B       		.byte	0x1b
 16574 0a56 F7       		.byte	0xf7
 16575 0a57 00       		.uleb128 0
 16576 0a58 38       		.byte	0x38
 16577 0a59 24       		.byte	0x24
 16578 0a5a 9F       		.byte	0x9f
 16579 0a5b 76020000 		.4byte	.LVL762
 16580 0a5f 7E020000 		.4byte	.LVL763
 16581 0a63 7F00     		.2byte	0x7f
 16582 0a65 71       		.byte	0x71
 16583 0a66 807F     		.sleb128 -128
 16584 0a68 0A       		.byte	0xa
 16585 0a69 E803     		.2byte	0x3e8
 16586 0a6b 1E       		.byte	0x1e
 16587 0a6c 23       		.byte	0x23
ARM GAS  /var/folders/d2/nstgp4h54kz7g1l847x_b8wc0000gn/T//cc2apEbl.s 			page 292


 16588 0a6d 808002   		.uleb128 0x8000
 16589 0a70 40       		.byte	0x40
 16590 0a71 25       		.byte	0x25
 16591 0a72 40       		.byte	0x40
 16592 0a73 24       		.byte	0x24
 16593 0a74 49       		.byte	0x49
 16594 0a75 41       		.byte	0x41
 16595 0a76 24       		.byte	0x24
 16596 0a77 91       		.byte	0x91
 16597 0a78 4C       		.sleb128 -52
 16598 0a79 06       		.byte	0x6
 16599 0a7a 0A       		.byte	0xa
 16600 0a7b E803     		.2byte	0x3e8
 16601 0a7d 1E       		.byte	0x1e
 16602 0a7e 91       		.byte	0x91
 16603 0a7f 4C       		.sleb128 -52
 16604 0a80 06       		.byte	0x6
 16605 0a81 0A       		.byte	0xa
 16606 0a82 E803     		.2byte	0x3e8
 16607 0a84 1E       		.byte	0x1e
 16608 0a85 40       		.byte	0x40
 16609 0a86 4B       		.byte	0x4b
 16610 0a87 24       		.byte	0x24
 16611 0a88 22       		.byte	0x22
 16612 0a89 0C       		.byte	0xc
 16613 0a8a 00003280 		.4byte	0x80320000
 16614 0a8e 2A       		.byte	0x2a
 16615 0a8f 28       		.byte	0x28
 16616 0a90 0100     		.2byte	0x1
 16617 0a92 16       		.byte	0x16
 16618 0a93 13       		.byte	0x13
 16619 0a94 31       		.byte	0x31
 16620 0a95 24       		.byte	0x24
 16621 0a96 1C       		.byte	0x1c
 16622 0a97 23       		.byte	0x23
 16623 0a98 F403     		.uleb128 0x1f4
 16624 0a9a F7       		.byte	0xf7
 16625 0a9b 25       		.uleb128 0x25
 16626 0a9c F7       		.byte	0xf7
 16627 0a9d 2C       		.uleb128 0x2c
 16628 0a9e 7C       		.byte	0x7c
 16629 0a9f 00       		.sleb128 0
 16630 0aa0 F7       		.byte	0xf7
 16631 0aa1 25       		.uleb128 0x25
 16632 0aa2 F7       		.byte	0xf7
 16633 0aa3 2C       		.uleb128 0x2c
 16634 0aa4 1E       		.byte	0x1e
 16635 0aa5 08       		.byte	0x8
 16636 0aa6 20       		.byte	0x20
 16637 0aa7 F7       		.byte	0xf7
 16638 0aa8 2C       		.uleb128 0x2c
 16639 0aa9 25       		.byte	0x25
 16640 0aaa F7       		.byte	0xf7
 16641 0aab 25       		.uleb128 0x25
 16642 0aac F7       		.byte	0xf7
 16643 0aad 00       		.uleb128 0
 16644 0aae 36       		.byte	0x36
ARM GAS  /var/folders/d2/nstgp4h54kz7g1l847x_b8wc0000gn/T//cc2apEbl.s 			page 293


 16645 0aaf 25       		.byte	0x25
 16646 0ab0 38       		.byte	0x38
 16647 0ab1 24       		.byte	0x24
 16648 0ab2 F7       		.byte	0xf7
 16649 0ab3 25       		.uleb128 0x25
 16650 0ab4 71       		.byte	0x71
 16651 0ab5 807F     		.sleb128 -128
 16652 0ab7 0A       		.byte	0xa
 16653 0ab8 E803     		.2byte	0x3e8
 16654 0aba 1E       		.byte	0x1e
 16655 0abb 23       		.byte	0x23
 16656 0abc 808002   		.uleb128 0x8000
 16657 0abf 40       		.byte	0x40
 16658 0ac0 25       		.byte	0x25
 16659 0ac1 40       		.byte	0x40
 16660 0ac2 24       		.byte	0x24
 16661 0ac3 23       		.byte	0x23
 16662 0ac4 F403     		.uleb128 0x1f4
 16663 0ac6 F7       		.byte	0xf7
 16664 0ac7 25       		.uleb128 0x25
 16665 0ac8 F7       		.byte	0xf7
 16666 0ac9 2C       		.uleb128 0x2c
 16667 0aca 7C       		.byte	0x7c
 16668 0acb 00       		.sleb128 0
 16669 0acc F7       		.byte	0xf7
 16670 0acd 25       		.uleb128 0x25
 16671 0ace F7       		.byte	0xf7
 16672 0acf 2C       		.uleb128 0x2c
 16673 0ad0 1E       		.byte	0x1e
 16674 0ad1 08       		.byte	0x8
 16675 0ad2 20       		.byte	0x20
 16676 0ad3 F7       		.byte	0xf7
 16677 0ad4 2C       		.uleb128 0x2c
 16678 0ad5 25       		.byte	0x25
 16679 0ad6 F7       		.byte	0xf7
 16680 0ad7 25       		.uleb128 0x25
 16681 0ad8 F7       		.byte	0xf7
 16682 0ad9 00       		.uleb128 0
 16683 0ada 36       		.byte	0x36
 16684 0adb 25       		.byte	0x25
 16685 0adc F7       		.byte	0xf7
 16686 0add 25       		.uleb128 0x25
 16687 0ade 1B       		.byte	0x1b
 16688 0adf F7       		.byte	0xf7
 16689 0ae0 00       		.uleb128 0
 16690 0ae1 38       		.byte	0x38
 16691 0ae2 24       		.byte	0x24
 16692 0ae3 9F       		.byte	0x9f
 16693 0ae4 7E020000 		.4byte	.LVL763
 16694 0ae8 B6020000 		.4byte	.LVL776
 16695 0aec 8100     		.2byte	0x81
 16696 0aee 71       		.byte	0x71
 16697 0aef 807F     		.sleb128 -128
 16698 0af1 0A       		.byte	0xa
 16699 0af2 E803     		.2byte	0x3e8
 16700 0af4 1E       		.byte	0x1e
 16701 0af5 23       		.byte	0x23
ARM GAS  /var/folders/d2/nstgp4h54kz7g1l847x_b8wc0000gn/T//cc2apEbl.s 			page 294


 16702 0af6 808002   		.uleb128 0x8000
 16703 0af9 40       		.byte	0x40
 16704 0afa 25       		.byte	0x25
 16705 0afb 40       		.byte	0x40
 16706 0afc 24       		.byte	0x24
 16707 0afd 49       		.byte	0x49
 16708 0afe 41       		.byte	0x41
 16709 0aff 24       		.byte	0x24
 16710 0b00 91       		.byte	0x91
 16711 0b01 4C       		.sleb128 -52
 16712 0b02 06       		.byte	0x6
 16713 0b03 0A       		.byte	0xa
 16714 0b04 E803     		.2byte	0x3e8
 16715 0b06 1E       		.byte	0x1e
 16716 0b07 91       		.byte	0x91
 16717 0b08 4C       		.sleb128 -52
 16718 0b09 06       		.byte	0x6
 16719 0b0a 0A       		.byte	0xa
 16720 0b0b E803     		.2byte	0x3e8
 16721 0b0d 1E       		.byte	0x1e
 16722 0b0e 40       		.byte	0x40
 16723 0b0f 4B       		.byte	0x4b
 16724 0b10 24       		.byte	0x24
 16725 0b11 22       		.byte	0x22
 16726 0b12 0C       		.byte	0xc
 16727 0b13 00003280 		.4byte	0x80320000
 16728 0b17 2A       		.byte	0x2a
 16729 0b18 28       		.byte	0x28
 16730 0b19 0100     		.2byte	0x1
 16731 0b1b 16       		.byte	0x16
 16732 0b1c 13       		.byte	0x13
 16733 0b1d 31       		.byte	0x31
 16734 0b1e 24       		.byte	0x24
 16735 0b1f 1C       		.byte	0x1c
 16736 0b20 23       		.byte	0x23
 16737 0b21 F403     		.uleb128 0x1f4
 16738 0b23 F7       		.byte	0xf7
 16739 0b24 25       		.uleb128 0x25
 16740 0b25 F7       		.byte	0xf7
 16741 0b26 2C       		.uleb128 0x2c
 16742 0b27 0C       		.byte	0xc
 16743 0b28 D34D6210 		.4byte	0x10624dd3
 16744 0b2c F7       		.byte	0xf7
 16745 0b2d 2C       		.uleb128 0x2c
 16746 0b2e 1E       		.byte	0x1e
 16747 0b2f 08       		.byte	0x8
 16748 0b30 20       		.byte	0x20
 16749 0b31 F7       		.byte	0xf7
 16750 0b32 2C       		.uleb128 0x2c
 16751 0b33 25       		.byte	0x25
 16752 0b34 F7       		.byte	0xf7
 16753 0b35 25       		.uleb128 0x25
 16754 0b36 F7       		.byte	0xf7
 16755 0b37 00       		.uleb128 0
 16756 0b38 36       		.byte	0x36
 16757 0b39 25       		.byte	0x25
 16758 0b3a 38       		.byte	0x38
ARM GAS  /var/folders/d2/nstgp4h54kz7g1l847x_b8wc0000gn/T//cc2apEbl.s 			page 295


 16759 0b3b 24       		.byte	0x24
 16760 0b3c F7       		.byte	0xf7
 16761 0b3d 25       		.uleb128 0x25
 16762 0b3e 71       		.byte	0x71
 16763 0b3f 807F     		.sleb128 -128
 16764 0b41 0A       		.byte	0xa
 16765 0b42 E803     		.2byte	0x3e8
 16766 0b44 1E       		.byte	0x1e
 16767 0b45 23       		.byte	0x23
 16768 0b46 808002   		.uleb128 0x8000
 16769 0b49 40       		.byte	0x40
 16770 0b4a 25       		.byte	0x25
 16771 0b4b 40       		.byte	0x40
 16772 0b4c 24       		.byte	0x24
 16773 0b4d 23       		.byte	0x23
 16774 0b4e F403     		.uleb128 0x1f4
 16775 0b50 F7       		.byte	0xf7
 16776 0b51 25       		.uleb128 0x25
 16777 0b52 F7       		.byte	0xf7
 16778 0b53 2C       		.uleb128 0x2c
 16779 0b54 0C       		.byte	0xc
 16780 0b55 D34D6210 		.4byte	0x10624dd3
 16781 0b59 F7       		.byte	0xf7
 16782 0b5a 2C       		.uleb128 0x2c
 16783 0b5b 1E       		.byte	0x1e
 16784 0b5c 08       		.byte	0x8
 16785 0b5d 20       		.byte	0x20
 16786 0b5e F7       		.byte	0xf7
 16787 0b5f 2C       		.uleb128 0x2c
 16788 0b60 25       		.byte	0x25
 16789 0b61 F7       		.byte	0xf7
 16790 0b62 25       		.uleb128 0x25
 16791 0b63 F7       		.byte	0xf7
 16792 0b64 00       		.uleb128 0
 16793 0b65 36       		.byte	0x36
 16794 0b66 25       		.byte	0x25
 16795 0b67 F7       		.byte	0xf7
 16796 0b68 25       		.uleb128 0x25
 16797 0b69 1B       		.byte	0x1b
 16798 0b6a F7       		.byte	0xf7
 16799 0b6b 00       		.uleb128 0
 16800 0b6c 38       		.byte	0x38
 16801 0b6d 24       		.byte	0x24
 16802 0b6e 9F       		.byte	0x9f
 16803 0b6f B6020000 		.4byte	.LVL776
 16804 0b73 BA020000 		.4byte	.LVL777
 16805 0b77 7F00     		.2byte	0x7f
 16806 0b79 71       		.byte	0x71
 16807 0b7a 807F     		.sleb128 -128
 16808 0b7c 0A       		.byte	0xa
 16809 0b7d E803     		.2byte	0x3e8
 16810 0b7f 1E       		.byte	0x1e
 16811 0b80 23       		.byte	0x23
 16812 0b81 808002   		.uleb128 0x8000
 16813 0b84 40       		.byte	0x40
 16814 0b85 25       		.byte	0x25
 16815 0b86 40       		.byte	0x40
ARM GAS  /var/folders/d2/nstgp4h54kz7g1l847x_b8wc0000gn/T//cc2apEbl.s 			page 296


 16816 0b87 24       		.byte	0x24
 16817 0b88 49       		.byte	0x49
 16818 0b89 41       		.byte	0x41
 16819 0b8a 24       		.byte	0x24
 16820 0b8b 72       		.byte	0x72
 16821 0b8c 00       		.sleb128 0
 16822 0b8d 91       		.byte	0x91
 16823 0b8e 4C       		.sleb128 -52
 16824 0b8f 06       		.byte	0x6
 16825 0b90 1E       		.byte	0x1e
 16826 0b91 72       		.byte	0x72
 16827 0b92 00       		.sleb128 0
 16828 0b93 91       		.byte	0x91
 16829 0b94 4C       		.sleb128 -52
 16830 0b95 06       		.byte	0x6
 16831 0b96 1E       		.byte	0x1e
 16832 0b97 40       		.byte	0x40
 16833 0b98 4B       		.byte	0x4b
 16834 0b99 24       		.byte	0x24
 16835 0b9a 22       		.byte	0x22
 16836 0b9b 0C       		.byte	0xc
 16837 0b9c 00003280 		.4byte	0x80320000
 16838 0ba0 2A       		.byte	0x2a
 16839 0ba1 28       		.byte	0x28
 16840 0ba2 0100     		.2byte	0x1
 16841 0ba4 16       		.byte	0x16
 16842 0ba5 13       		.byte	0x13
 16843 0ba6 31       		.byte	0x31
 16844 0ba7 24       		.byte	0x24
 16845 0ba8 1C       		.byte	0x1c
 16846 0ba9 23       		.byte	0x23
 16847 0baa F403     		.uleb128 0x1f4
 16848 0bac F7       		.byte	0xf7
 16849 0bad 25       		.uleb128 0x25
 16850 0bae F7       		.byte	0xf7
 16851 0baf 2C       		.uleb128 0x2c
 16852 0bb0 0C       		.byte	0xc
 16853 0bb1 D34D6210 		.4byte	0x10624dd3
 16854 0bb5 F7       		.byte	0xf7
 16855 0bb6 2C       		.uleb128 0x2c
 16856 0bb7 1E       		.byte	0x1e
 16857 0bb8 08       		.byte	0x8
 16858 0bb9 20       		.byte	0x20
 16859 0bba F7       		.byte	0xf7
 16860 0bbb 2C       		.uleb128 0x2c
 16861 0bbc 25       		.byte	0x25
 16862 0bbd F7       		.byte	0xf7
 16863 0bbe 25       		.uleb128 0x25
 16864 0bbf F7       		.byte	0xf7
 16865 0bc0 00       		.uleb128 0
 16866 0bc1 36       		.byte	0x36
 16867 0bc2 25       		.byte	0x25
 16868 0bc3 38       		.byte	0x38
 16869 0bc4 24       		.byte	0x24
 16870 0bc5 F7       		.byte	0xf7
 16871 0bc6 25       		.uleb128 0x25
 16872 0bc7 71       		.byte	0x71
ARM GAS  /var/folders/d2/nstgp4h54kz7g1l847x_b8wc0000gn/T//cc2apEbl.s 			page 297


 16873 0bc8 807F     		.sleb128 -128
 16874 0bca 0A       		.byte	0xa
 16875 0bcb E803     		.2byte	0x3e8
 16876 0bcd 1E       		.byte	0x1e
 16877 0bce 23       		.byte	0x23
 16878 0bcf 808002   		.uleb128 0x8000
 16879 0bd2 40       		.byte	0x40
 16880 0bd3 25       		.byte	0x25
 16881 0bd4 40       		.byte	0x40
 16882 0bd5 24       		.byte	0x24
 16883 0bd6 23       		.byte	0x23
 16884 0bd7 F403     		.uleb128 0x1f4
 16885 0bd9 F7       		.byte	0xf7
 16886 0bda 25       		.uleb128 0x25
 16887 0bdb F7       		.byte	0xf7
 16888 0bdc 2C       		.uleb128 0x2c
 16889 0bdd 0C       		.byte	0xc
 16890 0bde D34D6210 		.4byte	0x10624dd3
 16891 0be2 F7       		.byte	0xf7
 16892 0be3 2C       		.uleb128 0x2c
 16893 0be4 1E       		.byte	0x1e
 16894 0be5 08       		.byte	0x8
 16895 0be6 20       		.byte	0x20
 16896 0be7 F7       		.byte	0xf7
 16897 0be8 2C       		.uleb128 0x2c
 16898 0be9 25       		.byte	0x25
 16899 0bea F7       		.byte	0xf7
 16900 0beb 25       		.uleb128 0x25
 16901 0bec F7       		.byte	0xf7
 16902 0bed 00       		.uleb128 0
 16903 0bee 36       		.byte	0x36
 16904 0bef 25       		.byte	0x25
 16905 0bf0 F7       		.byte	0xf7
 16906 0bf1 25       		.uleb128 0x25
 16907 0bf2 1B       		.byte	0x1b
 16908 0bf3 F7       		.byte	0xf7
 16909 0bf4 00       		.uleb128 0
 16910 0bf5 38       		.byte	0x38
 16911 0bf6 24       		.byte	0x24
 16912 0bf7 9F       		.byte	0x9f
 16913 0bf8 BA020000 		.4byte	.LVL777
 16914 0bfc D0020000 		.4byte	.LVL780
 16915 0c00 8100     		.2byte	0x81
 16916 0c02 71       		.byte	0x71
 16917 0c03 807F     		.sleb128 -128
 16918 0c05 0A       		.byte	0xa
 16919 0c06 E803     		.2byte	0x3e8
 16920 0c08 1E       		.byte	0x1e
 16921 0c09 23       		.byte	0x23
 16922 0c0a 808002   		.uleb128 0x8000
 16923 0c0d 40       		.byte	0x40
 16924 0c0e 25       		.byte	0x25
 16925 0c0f 40       		.byte	0x40
 16926 0c10 24       		.byte	0x24
 16927 0c11 49       		.byte	0x49
 16928 0c12 41       		.byte	0x41
 16929 0c13 24       		.byte	0x24
ARM GAS  /var/folders/d2/nstgp4h54kz7g1l847x_b8wc0000gn/T//cc2apEbl.s 			page 298


 16930 0c14 91       		.byte	0x91
 16931 0c15 4C       		.sleb128 -52
 16932 0c16 06       		.byte	0x6
 16933 0c17 0A       		.byte	0xa
 16934 0c18 E803     		.2byte	0x3e8
 16935 0c1a 1E       		.byte	0x1e
 16936 0c1b 91       		.byte	0x91
 16937 0c1c 4C       		.sleb128 -52
 16938 0c1d 06       		.byte	0x6
 16939 0c1e 0A       		.byte	0xa
 16940 0c1f E803     		.2byte	0x3e8
 16941 0c21 1E       		.byte	0x1e
 16942 0c22 40       		.byte	0x40
 16943 0c23 4B       		.byte	0x4b
 16944 0c24 24       		.byte	0x24
 16945 0c25 22       		.byte	0x22
 16946 0c26 0C       		.byte	0xc
 16947 0c27 00003280 		.4byte	0x80320000
 16948 0c2b 2A       		.byte	0x2a
 16949 0c2c 28       		.byte	0x28
 16950 0c2d 0100     		.2byte	0x1
 16951 0c2f 16       		.byte	0x16
 16952 0c30 13       		.byte	0x13
 16953 0c31 31       		.byte	0x31
 16954 0c32 24       		.byte	0x24
 16955 0c33 1C       		.byte	0x1c
 16956 0c34 23       		.byte	0x23
 16957 0c35 F403     		.uleb128 0x1f4
 16958 0c37 F7       		.byte	0xf7
 16959 0c38 25       		.uleb128 0x25
 16960 0c39 F7       		.byte	0xf7
 16961 0c3a 2C       		.uleb128 0x2c
 16962 0c3b 0C       		.byte	0xc
 16963 0c3c D34D6210 		.4byte	0x10624dd3
 16964 0c40 F7       		.byte	0xf7
 16965 0c41 2C       		.uleb128 0x2c
 16966 0c42 1E       		.byte	0x1e
 16967 0c43 08       		.byte	0x8
 16968 0c44 20       		.byte	0x20
 16969 0c45 F7       		.byte	0xf7
 16970 0c46 2C       		.uleb128 0x2c
 16971 0c47 25       		.byte	0x25
 16972 0c48 F7       		.byte	0xf7
 16973 0c49 25       		.uleb128 0x25
 16974 0c4a F7       		.byte	0xf7
 16975 0c4b 00       		.uleb128 0
 16976 0c4c 36       		.byte	0x36
 16977 0c4d 25       		.byte	0x25
 16978 0c4e 38       		.byte	0x38
 16979 0c4f 24       		.byte	0x24
 16980 0c50 F7       		.byte	0xf7
 16981 0c51 25       		.uleb128 0x25
 16982 0c52 71       		.byte	0x71
 16983 0c53 807F     		.sleb128 -128
 16984 0c55 0A       		.byte	0xa
 16985 0c56 E803     		.2byte	0x3e8
 16986 0c58 1E       		.byte	0x1e
ARM GAS  /var/folders/d2/nstgp4h54kz7g1l847x_b8wc0000gn/T//cc2apEbl.s 			page 299


 16987 0c59 23       		.byte	0x23
 16988 0c5a 808002   		.uleb128 0x8000
 16989 0c5d 40       		.byte	0x40
 16990 0c5e 25       		.byte	0x25
 16991 0c5f 40       		.byte	0x40
 16992 0c60 24       		.byte	0x24
 16993 0c61 23       		.byte	0x23
 16994 0c62 F403     		.uleb128 0x1f4
 16995 0c64 F7       		.byte	0xf7
 16996 0c65 25       		.uleb128 0x25
 16997 0c66 F7       		.byte	0xf7
 16998 0c67 2C       		.uleb128 0x2c
 16999 0c68 0C       		.byte	0xc
 17000 0c69 D34D6210 		.4byte	0x10624dd3
 17001 0c6d F7       		.byte	0xf7
 17002 0c6e 2C       		.uleb128 0x2c
 17003 0c6f 1E       		.byte	0x1e
 17004 0c70 08       		.byte	0x8
 17005 0c71 20       		.byte	0x20
 17006 0c72 F7       		.byte	0xf7
 17007 0c73 2C       		.uleb128 0x2c
 17008 0c74 25       		.byte	0x25
 17009 0c75 F7       		.byte	0xf7
 17010 0c76 25       		.uleb128 0x25
 17011 0c77 F7       		.byte	0xf7
 17012 0c78 00       		.uleb128 0
 17013 0c79 36       		.byte	0x36
 17014 0c7a 25       		.byte	0x25
 17015 0c7b F7       		.byte	0xf7
 17016 0c7c 25       		.uleb128 0x25
 17017 0c7d 1B       		.byte	0x1b
 17018 0c7e F7       		.byte	0xf7
 17019 0c7f 00       		.uleb128 0
 17020 0c80 38       		.byte	0x38
 17021 0c81 24       		.byte	0x24
 17022 0c82 9F       		.byte	0x9f
 17023 0c83 04030000 		.4byte	.LVL787
 17024 0c87 0A030000 		.4byte	.LVL788
 17025 0c8b 0500     		.2byte	0x5
 17026 0c8d 73       		.byte	0x73
 17027 0c8e 00       		.sleb128 0
 17028 0c8f 38       		.byte	0x38
 17029 0c90 24       		.byte	0x24
 17030 0c91 9F       		.byte	0x9f
 17031 0c92 0A030000 		.4byte	.LVL788
 17032 0c96 0C030000 		.4byte	.LVL789
 17033 0c9a 8100     		.2byte	0x81
 17034 0c9c 71       		.byte	0x71
 17035 0c9d 807F     		.sleb128 -128
 17036 0c9f 0A       		.byte	0xa
 17037 0ca0 E803     		.2byte	0x3e8
 17038 0ca2 1E       		.byte	0x1e
 17039 0ca3 23       		.byte	0x23
 17040 0ca4 808002   		.uleb128 0x8000
 17041 0ca7 40       		.byte	0x40
 17042 0ca8 25       		.byte	0x25
 17043 0ca9 40       		.byte	0x40
ARM GAS  /var/folders/d2/nstgp4h54kz7g1l847x_b8wc0000gn/T//cc2apEbl.s 			page 300


 17044 0caa 24       		.byte	0x24
 17045 0cab 49       		.byte	0x49
 17046 0cac 41       		.byte	0x41
 17047 0cad 24       		.byte	0x24
 17048 0cae 91       		.byte	0x91
 17049 0caf 4C       		.sleb128 -52
 17050 0cb0 06       		.byte	0x6
 17051 0cb1 0A       		.byte	0xa
 17052 0cb2 E803     		.2byte	0x3e8
 17053 0cb4 1E       		.byte	0x1e
 17054 0cb5 91       		.byte	0x91
 17055 0cb6 4C       		.sleb128 -52
 17056 0cb7 06       		.byte	0x6
 17057 0cb8 0A       		.byte	0xa
 17058 0cb9 E803     		.2byte	0x3e8
 17059 0cbb 1E       		.byte	0x1e
 17060 0cbc 40       		.byte	0x40
 17061 0cbd 4B       		.byte	0x4b
 17062 0cbe 24       		.byte	0x24
 17063 0cbf 22       		.byte	0x22
 17064 0cc0 0C       		.byte	0xc
 17065 0cc1 00003280 		.4byte	0x80320000
 17066 0cc5 2A       		.byte	0x2a
 17067 0cc6 28       		.byte	0x28
 17068 0cc7 0100     		.2byte	0x1
 17069 0cc9 16       		.byte	0x16
 17070 0cca 13       		.byte	0x13
 17071 0ccb 31       		.byte	0x31
 17072 0ccc 24       		.byte	0x24
 17073 0ccd 1C       		.byte	0x1c
 17074 0cce 23       		.byte	0x23
 17075 0ccf F403     		.uleb128 0x1f4
 17076 0cd1 F7       		.byte	0xf7
 17077 0cd2 25       		.uleb128 0x25
 17078 0cd3 F7       		.byte	0xf7
 17079 0cd4 2C       		.uleb128 0x2c
 17080 0cd5 0C       		.byte	0xc
 17081 0cd6 D34D6210 		.4byte	0x10624dd3
 17082 0cda F7       		.byte	0xf7
 17083 0cdb 2C       		.uleb128 0x2c
 17084 0cdc 1E       		.byte	0x1e
 17085 0cdd 08       		.byte	0x8
 17086 0cde 20       		.byte	0x20
 17087 0cdf F7       		.byte	0xf7
 17088 0ce0 2C       		.uleb128 0x2c
 17089 0ce1 25       		.byte	0x25
 17090 0ce2 F7       		.byte	0xf7
 17091 0ce3 25       		.uleb128 0x25
 17092 0ce4 F7       		.byte	0xf7
 17093 0ce5 00       		.uleb128 0
 17094 0ce6 36       		.byte	0x36
 17095 0ce7 25       		.byte	0x25
 17096 0ce8 38       		.byte	0x38
 17097 0ce9 24       		.byte	0x24
 17098 0cea F7       		.byte	0xf7
 17099 0ceb 25       		.uleb128 0x25
 17100 0cec 71       		.byte	0x71
ARM GAS  /var/folders/d2/nstgp4h54kz7g1l847x_b8wc0000gn/T//cc2apEbl.s 			page 301


 17101 0ced 807F     		.sleb128 -128
 17102 0cef 0A       		.byte	0xa
 17103 0cf0 E803     		.2byte	0x3e8
 17104 0cf2 1E       		.byte	0x1e
 17105 0cf3 23       		.byte	0x23
 17106 0cf4 808002   		.uleb128 0x8000
 17107 0cf7 40       		.byte	0x40
 17108 0cf8 25       		.byte	0x25
 17109 0cf9 40       		.byte	0x40
 17110 0cfa 24       		.byte	0x24
 17111 0cfb 23       		.byte	0x23
 17112 0cfc F403     		.uleb128 0x1f4
 17113 0cfe F7       		.byte	0xf7
 17114 0cff 25       		.uleb128 0x25
 17115 0d00 F7       		.byte	0xf7
 17116 0d01 2C       		.uleb128 0x2c
 17117 0d02 0C       		.byte	0xc
 17118 0d03 D34D6210 		.4byte	0x10624dd3
 17119 0d07 F7       		.byte	0xf7
 17120 0d08 2C       		.uleb128 0x2c
 17121 0d09 1E       		.byte	0x1e
 17122 0d0a 08       		.byte	0x8
 17123 0d0b 20       		.byte	0x20
 17124 0d0c F7       		.byte	0xf7
 17125 0d0d 2C       		.uleb128 0x2c
 17126 0d0e 25       		.byte	0x25
 17127 0d0f F7       		.byte	0xf7
 17128 0d10 25       		.uleb128 0x25
 17129 0d11 F7       		.byte	0xf7
 17130 0d12 00       		.uleb128 0
 17131 0d13 36       		.byte	0x36
 17132 0d14 25       		.byte	0x25
 17133 0d15 F7       		.byte	0xf7
 17134 0d16 25       		.uleb128 0x25
 17135 0d17 1B       		.byte	0x1b
 17136 0d18 F7       		.byte	0xf7
 17137 0d19 00       		.uleb128 0
 17138 0d1a 38       		.byte	0x38
 17139 0d1b 24       		.byte	0x24
 17140 0d1c 9F       		.byte	0x9f
 17141 0d1d 00000000 		.4byte	0
 17142 0d21 00000000 		.4byte	0
 17143              	.LLST197:
 17144 0d25 36000000 		.4byte	.LVL697
 17145 0d29 48000000 		.4byte	.LVL700
 17146 0d2d 0D00     		.2byte	0xd
 17147 0d2f 76       		.byte	0x76
 17148 0d30 00       		.sleb128 0
 17149 0d31 0A       		.byte	0xa
 17150 0d32 E803     		.2byte	0x3e8
 17151 0d34 1E       		.byte	0x1e
 17152 0d35 23       		.byte	0x23
 17153 0d36 808002   		.uleb128 0x8000
 17154 0d39 40       		.byte	0x40
 17155 0d3a 25       		.byte	0x25
 17156 0d3b 9F       		.byte	0x9f
 17157 0d3c 48000000 		.4byte	.LVL700
ARM GAS  /var/folders/d2/nstgp4h54kz7g1l847x_b8wc0000gn/T//cc2apEbl.s 			page 302


 17158 0d40 4E000000 		.4byte	.LVL701
 17159 0d44 0700     		.2byte	0x7
 17160 0d46 73       		.byte	0x73
 17161 0d47 808002   		.sleb128 32768
 17162 0d4a 40       		.byte	0x40
 17163 0d4b 25       		.byte	0x25
 17164 0d4c 9F       		.byte	0x9f
 17165 0d4d 4E000000 		.4byte	.LVL701
 17166 0d51 58010000 		.4byte	.LVL719
 17167 0d55 0500     		.2byte	0x5
 17168 0d57 73       		.byte	0x73
 17169 0d58 00       		.sleb128 0
 17170 0d59 40       		.byte	0x40
 17171 0d5a 25       		.byte	0x25
 17172 0d5b 9F       		.byte	0x9f
 17173 0d5c 58010000 		.4byte	.LVL719
 17174 0d60 D0020000 		.4byte	.LVL780
 17175 0d64 0E00     		.2byte	0xe
 17176 0d66 71       		.byte	0x71
 17177 0d67 807F     		.sleb128 -128
 17178 0d69 0A       		.byte	0xa
 17179 0d6a E803     		.2byte	0x3e8
 17180 0d6c 1E       		.byte	0x1e
 17181 0d6d 23       		.byte	0x23
 17182 0d6e 808002   		.uleb128 0x8000
 17183 0d71 40       		.byte	0x40
 17184 0d72 25       		.byte	0x25
 17185 0d73 9F       		.byte	0x9f
 17186 0d74 F4020000 		.4byte	.LVL783
 17187 0d78 F8020000 		.4byte	.LVL785
 17188 0d7c 0500     		.2byte	0x5
 17189 0d7e 73       		.byte	0x73
 17190 0d7f 00       		.sleb128 0
 17191 0d80 40       		.byte	0x40
 17192 0d81 25       		.byte	0x25
 17193 0d82 9F       		.byte	0x9f
 17194 0d83 F8020000 		.4byte	.LVL785
 17195 0d87 04030000 		.4byte	.LVL787
 17196 0d8b 0D00     		.2byte	0xd
 17197 0d8d 76       		.byte	0x76
 17198 0d8e 00       		.sleb128 0
 17199 0d8f 0A       		.byte	0xa
 17200 0d90 E803     		.2byte	0x3e8
 17201 0d92 1E       		.byte	0x1e
 17202 0d93 23       		.byte	0x23
 17203 0d94 808002   		.uleb128 0x8000
 17204 0d97 40       		.byte	0x40
 17205 0d98 25       		.byte	0x25
 17206 0d99 9F       		.byte	0x9f
 17207 0d9a 04030000 		.4byte	.LVL787
 17208 0d9e 0C030000 		.4byte	.LVL789
 17209 0da2 0E00     		.2byte	0xe
 17210 0da4 71       		.byte	0x71
 17211 0da5 807F     		.sleb128 -128
 17212 0da7 0A       		.byte	0xa
 17213 0da8 E803     		.2byte	0x3e8
 17214 0daa 1E       		.byte	0x1e
ARM GAS  /var/folders/d2/nstgp4h54kz7g1l847x_b8wc0000gn/T//cc2apEbl.s 			page 303


 17215 0dab 23       		.byte	0x23
 17216 0dac 808002   		.uleb128 0x8000
 17217 0daf 40       		.byte	0x40
 17218 0db0 25       		.byte	0x25
 17219 0db1 9F       		.byte	0x9f
 17220 0db2 00000000 		.4byte	0
 17221 0db6 00000000 		.4byte	0
 17222              	.LLST198:
 17223 0dba 36000000 		.4byte	.LVL697
 17224 0dbe E1020000 		.4byte	.LVL781-1
 17225 0dc2 1C00     		.2byte	0x1c
 17226 0dc4 91       		.byte	0x91
 17227 0dc5 4C       		.sleb128 -52
 17228 0dc6 06       		.byte	0x6
 17229 0dc7 0A       		.byte	0xa
 17230 0dc8 E803     		.2byte	0x3e8
 17231 0dca 1E       		.byte	0x1e
 17232 0dcb 12       		.byte	0x12
 17233 0dcc 40       		.byte	0x40
 17234 0dcd 4B       		.byte	0x4b
 17235 0dce 24       		.byte	0x24
 17236 0dcf 22       		.byte	0x22
 17237 0dd0 49       		.byte	0x49
 17238 0dd1 41       		.byte	0x41
 17239 0dd2 24       		.byte	0x24
 17240 0dd3 16       		.byte	0x16
 17241 0dd4 14       		.byte	0x14
 17242 0dd5 40       		.byte	0x40
 17243 0dd6 4B       		.byte	0x4b
 17244 0dd7 24       		.byte	0x24
 17245 0dd8 22       		.byte	0x22
 17246 0dd9 2D       		.byte	0x2d
 17247 0dda 28       		.byte	0x28
 17248 0ddb 0100     		.2byte	0x1
 17249 0ddd 16       		.byte	0x16
 17250 0dde 13       		.byte	0x13
 17251 0ddf 9F       		.byte	0x9f
 17252 0de0 F4020000 		.4byte	.LVL783
 17253 0de4 0C030000 		.4byte	.LVL789
 17254 0de8 1C00     		.2byte	0x1c
 17255 0dea 91       		.byte	0x91
 17256 0deb 4C       		.sleb128 -52
 17257 0dec 06       		.byte	0x6
 17258 0ded 0A       		.byte	0xa
 17259 0dee E803     		.2byte	0x3e8
 17260 0df0 1E       		.byte	0x1e
 17261 0df1 12       		.byte	0x12
 17262 0df2 40       		.byte	0x40
 17263 0df3 4B       		.byte	0x4b
 17264 0df4 24       		.byte	0x24
 17265 0df5 22       		.byte	0x22
 17266 0df6 49       		.byte	0x49
 17267 0df7 41       		.byte	0x41
 17268 0df8 24       		.byte	0x24
 17269 0df9 16       		.byte	0x16
 17270 0dfa 14       		.byte	0x14
 17271 0dfb 40       		.byte	0x40
ARM GAS  /var/folders/d2/nstgp4h54kz7g1l847x_b8wc0000gn/T//cc2apEbl.s 			page 304


 17272 0dfc 4B       		.byte	0x4b
 17273 0dfd 24       		.byte	0x24
 17274 0dfe 22       		.byte	0x22
 17275 0dff 2D       		.byte	0x2d
 17276 0e00 28       		.byte	0x28
 17277 0e01 0100     		.2byte	0x1
 17278 0e03 16       		.byte	0x16
 17279 0e04 13       		.byte	0x13
 17280 0e05 9F       		.byte	0x9f
 17281 0e06 00000000 		.4byte	0
 17282 0e0a 00000000 		.4byte	0
 17283              	.LLST199:
 17284 0e0e 1A000000 		.4byte	.LVL693
 17285 0e12 2C000000 		.4byte	.LVL696
 17286 0e16 0200     		.2byte	0x2
 17287 0e18 30       		.byte	0x30
 17288 0e19 9F       		.byte	0x9f
 17289 0e1a 36000000 		.4byte	.LVL697
 17290 0e1e 68000000 		.4byte	.LVL704
 17291 0e22 0100     		.2byte	0x1
 17292 0e24 50       		.byte	0x50
 17293 0e25 E2020000 		.4byte	.LVL781
 17294 0e29 F0020000 		.4byte	.LVL782
 17295 0e2d 0100     		.2byte	0x1
 17296 0e2f 50       		.byte	0x50
 17297 0e30 F0020000 		.4byte	.LVL782
 17298 0e34 F4020000 		.4byte	.LVL783
 17299 0e38 0200     		.2byte	0x2
 17300 0e3a 30       		.byte	0x30
 17301 0e3b 9F       		.byte	0x9f
 17302 0e3c F4020000 		.4byte	.LVL783
 17303 0e40 04030000 		.4byte	.LVL787
 17304 0e44 0100     		.2byte	0x1
 17305 0e46 50       		.byte	0x50
 17306 0e47 0C030000 		.4byte	.LVL789
 17307 0e4b 0F030000 		.4byte	.LVL790-1
 17308 0e4f 0100     		.2byte	0x1
 17309 0e51 50       		.byte	0x50
 17310 0e52 00000000 		.4byte	0
 17311 0e56 00000000 		.4byte	0
 17312              	.LLST200:
 17313 0e5a 7E010000 		.4byte	.LVL721
 17314 0e5e D0020000 		.4byte	.LVL780
 17315 0e62 1D00     		.2byte	0x1d
 17316 0e64 71       		.byte	0x71
 17317 0e65 807F     		.sleb128 -128
 17318 0e67 0A       		.byte	0xa
 17319 0e68 E803     		.2byte	0x3e8
 17320 0e6a 1E       		.byte	0x1e
 17321 0e6b 23       		.byte	0x23
 17322 0e6c 808002   		.uleb128 0x8000
 17323 0e6f 40       		.byte	0x40
 17324 0e70 25       		.byte	0x25
 17325 0e71 40       		.byte	0x40
 17326 0e72 24       		.byte	0x24
 17327 0e73 23       		.byte	0x23
 17328 0e74 F403     		.uleb128 0x1f4
ARM GAS  /var/folders/d2/nstgp4h54kz7g1l847x_b8wc0000gn/T//cc2apEbl.s 			page 305


 17329 0e76 F7       		.byte	0xf7
 17330 0e77 25       		.uleb128 0x25
 17331 0e78 0A       		.byte	0xa
 17332 0e79 E803     		.2byte	0x3e8
 17333 0e7b F7       		.byte	0xf7
 17334 0e7c 25       		.uleb128 0x25
 17335 0e7d 1B       		.byte	0x1b
 17336 0e7e F7       		.byte	0xf7
 17337 0e7f 00       		.uleb128 0
 17338 0e80 9F       		.byte	0x9f
 17339 0e81 04030000 		.4byte	.LVL787
 17340 0e85 0C030000 		.4byte	.LVL789
 17341 0e89 1D00     		.2byte	0x1d
 17342 0e8b 71       		.byte	0x71
 17343 0e8c 807F     		.sleb128 -128
 17344 0e8e 0A       		.byte	0xa
 17345 0e8f E803     		.2byte	0x3e8
 17346 0e91 1E       		.byte	0x1e
 17347 0e92 23       		.byte	0x23
 17348 0e93 808002   		.uleb128 0x8000
 17349 0e96 40       		.byte	0x40
 17350 0e97 25       		.byte	0x25
 17351 0e98 40       		.byte	0x40
 17352 0e99 24       		.byte	0x24
 17353 0e9a 23       		.byte	0x23
 17354 0e9b F403     		.uleb128 0x1f4
 17355 0e9d F7       		.byte	0xf7
 17356 0e9e 25       		.uleb128 0x25
 17357 0e9f 0A       		.byte	0xa
 17358 0ea0 E803     		.2byte	0x3e8
 17359 0ea2 F7       		.byte	0xf7
 17360 0ea3 25       		.uleb128 0x25
 17361 0ea4 1B       		.byte	0x1b
 17362 0ea5 F7       		.byte	0xf7
 17363 0ea6 00       		.uleb128 0
 17364 0ea7 9F       		.byte	0x9f
 17365 0ea8 00000000 		.4byte	0
 17366 0eac 00000000 		.4byte	0
 17367              	.LLST201:
 17368 0eb0 C8010000 		.4byte	.LVL732
 17369 0eb4 84020000 		.4byte	.LVL764
 17370 0eb8 1A00     		.2byte	0x1a
 17371 0eba 73       		.byte	0x73
 17372 0ebb 00       		.sleb128 0
 17373 0ebc 0A       		.byte	0xa
 17374 0ebd 2003     		.2byte	0x320
 17375 0ebf 1E       		.byte	0x1e
 17376 0ec0 23       		.byte	0x23
 17377 0ec1 808002   		.uleb128 0x8000
 17378 0ec4 40       		.byte	0x40
 17379 0ec5 25       		.byte	0x25
 17380 0ec6 73       		.byte	0x73
 17381 0ec7 00       		.sleb128 0
 17382 0ec8 0A       		.byte	0xa
 17383 0ec9 2003     		.2byte	0x320
 17384 0ecb 1E       		.byte	0x1e
 17385 0ecc 23       		.byte	0x23
ARM GAS  /var/folders/d2/nstgp4h54kz7g1l847x_b8wc0000gn/T//cc2apEbl.s 			page 306


 17386 0ecd 808002   		.uleb128 0x8000
 17387 0ed0 40       		.byte	0x40
 17388 0ed1 25       		.byte	0x25
 17389 0ed2 1E       		.byte	0x1e
 17390 0ed3 9F       		.byte	0x9f
 17391 0ed4 84020000 		.4byte	.LVL764
 17392 0ed8 90020000 		.4byte	.LVL766
 17393 0edc 0600     		.2byte	0x6
 17394 0ede 72       		.byte	0x72
 17395 0edf 00       		.sleb128 0
 17396 0ee0 72       		.byte	0x72
 17397 0ee1 00       		.sleb128 0
 17398 0ee2 1E       		.byte	0x1e
 17399 0ee3 9F       		.byte	0x9f
 17400 0ee4 00000000 		.4byte	0
 17401 0ee8 00000000 		.4byte	0
 17402              	.LLST202:
 17403 0eec C8010000 		.4byte	.LVL732
 17404 0ef0 CE010000 		.4byte	.LVL733
 17405 0ef4 0100     		.2byte	0x1
 17406 0ef6 56       		.byte	0x56
 17407 0ef7 CE010000 		.4byte	.LVL733
 17408 0efb D2010000 		.4byte	.LVL734
 17409 0eff 0600     		.2byte	0x6
 17410 0f01 75       		.byte	0x75
 17411 0f02 00       		.sleb128 0
 17412 0f03 75       		.byte	0x75
 17413 0f04 00       		.sleb128 0
 17414 0f05 1E       		.byte	0x1e
 17415 0f06 9F       		.byte	0x9f
 17416 0f07 D2010000 		.4byte	.LVL734
 17417 0f0b 84020000 		.4byte	.LVL764
 17418 0f0f 0E00     		.2byte	0xe
 17419 0f11 76       		.byte	0x76
 17420 0f12 808002   		.sleb128 32768
 17421 0f15 40       		.byte	0x40
 17422 0f16 25       		.byte	0x25
 17423 0f17 76       		.byte	0x76
 17424 0f18 808002   		.sleb128 32768
 17425 0f1b 40       		.byte	0x40
 17426 0f1c 25       		.byte	0x25
 17427 0f1d 1E       		.byte	0x1e
 17428 0f1e 9F       		.byte	0x9f
 17429 0f1f 00000000 		.4byte	0
 17430 0f23 00000000 		.4byte	0
 17431              	.LLST203:
 17432 0f27 D2010000 		.4byte	.LVL734
 17433 0f2b E2010000 		.4byte	.LVL737
 17434 0f2f 0100     		.2byte	0x1
 17435 0f31 55       		.byte	0x55
 17436 0f32 00000000 		.4byte	0
 17437 0f36 00000000 		.4byte	0
 17438              	.LLST204:
 17439 0f3a F8010000 		.4byte	.LVL742
 17440 0f3e FC010000 		.4byte	.LVL743
 17441 0f42 0500     		.2byte	0x5
 17442 0f44 72       		.byte	0x72
ARM GAS  /var/folders/d2/nstgp4h54kz7g1l847x_b8wc0000gn/T//cc2apEbl.s 			page 307


 17443 0f45 00       		.sleb128 0
 17444 0f46 40       		.byte	0x40
 17445 0f47 24       		.byte	0x24
 17446 0f48 9F       		.byte	0x9f
 17447 0f49 FC010000 		.4byte	.LVL743
 17448 0f4d FE010000 		.4byte	.LVL744
 17449 0f51 0100     		.2byte	0x1
 17450 0f53 52       		.byte	0x52
 17451 0f54 FE010000 		.4byte	.LVL744
 17452 0f58 02020000 		.4byte	.LVL745
 17453 0f5c 0300     		.2byte	0x3
 17454 0f5e 72       		.byte	0x72
 17455 0f5f 4E       		.sleb128 -50
 17456 0f60 9F       		.byte	0x9f
 17457 0f61 00000000 		.4byte	0
 17458 0f65 00000000 		.4byte	0
 17459              	.LLST205:
 17460 0f69 1E000000 		.4byte	.LVL694
 17461 0f6d 2C000000 		.4byte	.LVL696
 17462 0f71 0100     		.2byte	0x1
 17463 0f73 5B       		.byte	0x5b
 17464 0f74 2C000000 		.4byte	.LVL696
 17465 0f78 58000000 		.4byte	.LVL702
 17466 0f7c 0100     		.2byte	0x1
 17467 0f7e 56       		.byte	0x56
 17468 0f7f 58000000 		.4byte	.LVL702
 17469 0f83 D6000000 		.4byte	.LVL706
 17470 0f87 0800     		.2byte	0x8
 17471 0f89 76       		.byte	0x76
 17472 0f8a 8001     		.sleb128 128
 17473 0f8c 0B       		.byte	0xb
 17474 0f8d 00FF     		.2byte	0xff00
 17475 0f8f 1A       		.byte	0x1a
 17476 0f90 9F       		.byte	0x9f
 17477 0f91 D6000000 		.4byte	.LVL706
 17478 0f95 D0020000 		.4byte	.LVL780
 17479 0f99 0700     		.2byte	0x7
 17480 0f9b 71       		.byte	0x71
 17481 0f9c 00       		.sleb128 0
 17482 0f9d 0B       		.byte	0xb
 17483 0f9e 00FF     		.2byte	0xff00
 17484 0fa0 1A       		.byte	0x1a
 17485 0fa1 9F       		.byte	0x9f
 17486 0fa2 F0020000 		.4byte	.LVL782
 17487 0fa6 F4020000 		.4byte	.LVL783
 17488 0faa 0100     		.2byte	0x1
 17489 0fac 5B       		.byte	0x5b
 17490 0fad F4020000 		.4byte	.LVL783
 17491 0fb1 04030000 		.4byte	.LVL787
 17492 0fb5 0800     		.2byte	0x8
 17493 0fb7 76       		.byte	0x76
 17494 0fb8 8001     		.sleb128 128
 17495 0fba 0B       		.byte	0xb
 17496 0fbb 00FF     		.2byte	0xff00
 17497 0fbd 1A       		.byte	0x1a
 17498 0fbe 9F       		.byte	0x9f
 17499 0fbf 04030000 		.4byte	.LVL787
ARM GAS  /var/folders/d2/nstgp4h54kz7g1l847x_b8wc0000gn/T//cc2apEbl.s 			page 308


 17500 0fc3 0C030000 		.4byte	.LVL789
 17501 0fc7 0700     		.2byte	0x7
 17502 0fc9 71       		.byte	0x71
 17503 0fca 00       		.sleb128 0
 17504 0fcb 0B       		.byte	0xb
 17505 0fcc 00FF     		.2byte	0xff00
 17506 0fce 1A       		.byte	0x1a
 17507 0fcf 9F       		.byte	0x9f
 17508 0fd0 00000000 		.4byte	0
 17509 0fd4 00000000 		.4byte	0
 17510              	.LLST206:
 17511 0fd8 40000000 		.4byte	.LVL699
 17512 0fdc 58000000 		.4byte	.LVL702
 17513 0fe0 0200     		.2byte	0x2
 17514 0fe2 33       		.byte	0x33
 17515 0fe3 9F       		.byte	0x9f
 17516 0fe4 58000000 		.4byte	.LVL702
 17517 0fe8 16010000 		.4byte	.LVL709
 17518 0fec 0100     		.2byte	0x1
 17519 0fee 5C       		.byte	0x5c
 17520 0fef F4020000 		.4byte	.LVL783
 17521 0ff3 04030000 		.4byte	.LVL787
 17522 0ff7 0100     		.2byte	0x1
 17523 0ff9 5C       		.byte	0x5c
 17524 0ffa 00000000 		.4byte	0
 17525 0ffe 00000000 		.4byte	0
 17526              	.LLST207:
 17527 1002 58000000 		.4byte	.LVL702
 17528 1006 78000000 		.4byte	.LVL705
 17529 100a AB00     		.2byte	0xab
 17530 100c 74       		.byte	0x74
 17531 100d E401     		.sleb128 228
 17532 100f 06       		.byte	0x6
 17533 1010 0A       		.byte	0xa
 17534 1011 E803     		.2byte	0x3e8
 17535 1013 1E       		.byte	0x1e
 17536 1014 74       		.byte	0x74
 17537 1015 E801     		.sleb128 232
 17538 1017 94       		.byte	0x94
 17539 1018 01       		.byte	0x1
 17540 1019 08       		.byte	0x8
 17541 101a FF       		.byte	0xff
 17542 101b 1A       		.byte	0x1a
 17543 101c 0C       		.byte	0xc
 17544 101d 002F3A00 		.4byte	0x3a2f00
 17545 1021 1E       		.byte	0x1e
 17546 1022 23       		.byte	0x23
 17547 1023 F403     		.uleb128 0x1f4
 17548 1025 F7       		.byte	0xf7
 17549 1026 25       		.uleb128 0x25
 17550 1027 0A       		.byte	0xa
 17551 1028 D007     		.2byte	0x7d0
 17552 102a F7       		.byte	0xf7
 17553 102b 25       		.uleb128 0x25
 17554 102c 1B       		.byte	0x1b
 17555 102d F7       		.byte	0xf7
 17556 102e 00       		.uleb128 0
ARM GAS  /var/folders/d2/nstgp4h54kz7g1l847x_b8wc0000gn/T//cc2apEbl.s 			page 309


 17557 102f 22       		.byte	0x22
 17558 1030 F7       		.byte	0xf7
 17559 1031 25       		.uleb128 0x25
 17560 1032 74       		.byte	0x74
 17561 1033 E801     		.sleb128 232
 17562 1035 94       		.byte	0x94
 17563 1036 01       		.byte	0x1
 17564 1037 08       		.byte	0x8
 17565 1038 FF       		.byte	0xff
 17566 1039 1A       		.byte	0x1a
 17567 103a 0C       		.byte	0xc
 17568 103b 002F3A00 		.4byte	0x3a2f00
 17569 103f 1E       		.byte	0x1e
 17570 1040 23       		.byte	0x23
 17571 1041 F403     		.uleb128 0x1f4
 17572 1043 F7       		.byte	0xf7
 17573 1044 25       		.uleb128 0x25
 17574 1045 0A       		.byte	0xa
 17575 1046 E803     		.2byte	0x3e8
 17576 1048 F7       		.byte	0xf7
 17577 1049 25       		.uleb128 0x25
 17578 104a 1B       		.byte	0x1b
 17579 104b F7       		.byte	0xf7
 17580 104c 00       		.uleb128 0
 17581 104d F7       		.byte	0xf7
 17582 104e 25       		.uleb128 0x25
 17583 104f 1B       		.byte	0x1b
 17584 1050 F7       		.byte	0xf7
 17585 1051 00       		.uleb128 0
 17586 1052 74       		.byte	0x74
 17587 1053 DC01     		.sleb128 220
 17588 1055 06       		.byte	0x6
 17589 1056 0A       		.byte	0xa
 17590 1057 E803     		.2byte	0x3e8
 17591 1059 1E       		.byte	0x1e
 17592 105a 72       		.byte	0x72
 17593 105b 00       		.sleb128 0
 17594 105c 08       		.byte	0x8
 17595 105d FF       		.byte	0xff
 17596 105e 1A       		.byte	0x1a
 17597 105f 0C       		.byte	0xc
 17598 1060 002F3A00 		.4byte	0x3a2f00
 17599 1064 1E       		.byte	0x1e
 17600 1065 23       		.byte	0x23
 17601 1066 F403     		.uleb128 0x1f4
 17602 1068 F7       		.byte	0xf7
 17603 1069 25       		.uleb128 0x25
 17604 106a 0A       		.byte	0xa
 17605 106b D007     		.2byte	0x7d0
 17606 106d F7       		.byte	0xf7
 17607 106e 25       		.uleb128 0x25
 17608 106f 1B       		.byte	0x1b
 17609 1070 F7       		.byte	0xf7
 17610 1071 00       		.uleb128 0
 17611 1072 22       		.byte	0x22
 17612 1073 F7       		.byte	0xf7
 17613 1074 25       		.uleb128 0x25
ARM GAS  /var/folders/d2/nstgp4h54kz7g1l847x_b8wc0000gn/T//cc2apEbl.s 			page 310


 17614 1075 72       		.byte	0x72
 17615 1076 00       		.sleb128 0
 17616 1077 08       		.byte	0x8
 17617 1078 FF       		.byte	0xff
 17618 1079 1A       		.byte	0x1a
 17619 107a 0C       		.byte	0xc
 17620 107b 002F3A00 		.4byte	0x3a2f00
 17621 107f 1E       		.byte	0x1e
 17622 1080 23       		.byte	0x23
 17623 1081 F403     		.uleb128 0x1f4
 17624 1083 F7       		.byte	0xf7
 17625 1084 25       		.uleb128 0x25
 17626 1085 0A       		.byte	0xa
 17627 1086 E803     		.2byte	0x3e8
 17628 1088 F7       		.byte	0xf7
 17629 1089 25       		.uleb128 0x25
 17630 108a 1B       		.byte	0x1b
 17631 108b F7       		.byte	0xf7
 17632 108c 00       		.uleb128 0
 17633 108d F7       		.byte	0xf7
 17634 108e 25       		.uleb128 0x25
 17635 108f 1B       		.byte	0x1b
 17636 1090 F7       		.byte	0xf7
 17637 1091 00       		.uleb128 0
 17638 1092 22       		.byte	0x22
 17639 1093 3B       		.byte	0x3b
 17640 1094 24       		.byte	0x24
 17641 1095 7C       		.byte	0x7c
 17642 1096 00       		.sleb128 0
 17643 1097 1E       		.byte	0x1e
 17644 1098 23       		.byte	0x23
 17645 1099 F403     		.uleb128 0x1f4
 17646 109b F7       		.byte	0xf7
 17647 109c 25       		.uleb128 0x25
 17648 109d 0A       		.byte	0xa
 17649 109e E803     		.2byte	0x3e8
 17650 10a0 F7       		.byte	0xf7
 17651 10a1 25       		.uleb128 0x25
 17652 10a2 1B       		.byte	0x1b
 17653 10a3 F7       		.byte	0xf7
 17654 10a4 00       		.uleb128 0
 17655 10a5 0A       		.byte	0xa
 17656 10a6 7706     		.2byte	0x677
 17657 10a8 1E       		.byte	0x1e
 17658 10a9 23       		.byte	0x23
 17659 10aa F403     		.uleb128 0x1f4
 17660 10ac F7       		.byte	0xf7
 17661 10ad 25       		.uleb128 0x25
 17662 10ae 0A       		.byte	0xa
 17663 10af E803     		.2byte	0x3e8
 17664 10b1 F7       		.byte	0xf7
 17665 10b2 25       		.uleb128 0x25
 17666 10b3 1B       		.byte	0x1b
 17667 10b4 F7       		.byte	0xf7
 17668 10b5 00       		.uleb128 0
 17669 10b6 9F       		.byte	0x9f
 17670 10b7 78000000 		.4byte	.LVL705
ARM GAS  /var/folders/d2/nstgp4h54kz7g1l847x_b8wc0000gn/T//cc2apEbl.s 			page 311


 17671 10bb 16010000 		.4byte	.LVL709
 17672 10bf B100     		.2byte	0xb1
 17673 10c1 74       		.byte	0x74
 17674 10c2 E401     		.sleb128 228
 17675 10c4 06       		.byte	0x6
 17676 10c5 0A       		.byte	0xa
 17677 10c6 E803     		.2byte	0x3e8
 17678 10c8 1E       		.byte	0x1e
 17679 10c9 74       		.byte	0x74
 17680 10ca E801     		.sleb128 232
 17681 10cc 94       		.byte	0x94
 17682 10cd 01       		.byte	0x1
 17683 10ce 08       		.byte	0x8
 17684 10cf FF       		.byte	0xff
 17685 10d0 1A       		.byte	0x1a
 17686 10d1 0C       		.byte	0xc
 17687 10d2 002F3A00 		.4byte	0x3a2f00
 17688 10d6 1E       		.byte	0x1e
 17689 10d7 23       		.byte	0x23
 17690 10d8 F403     		.uleb128 0x1f4
 17691 10da F7       		.byte	0xf7
 17692 10db 25       		.uleb128 0x25
 17693 10dc 0A       		.byte	0xa
 17694 10dd D007     		.2byte	0x7d0
 17695 10df F7       		.byte	0xf7
 17696 10e0 25       		.uleb128 0x25
 17697 10e1 1B       		.byte	0x1b
 17698 10e2 F7       		.byte	0xf7
 17699 10e3 00       		.uleb128 0
 17700 10e4 22       		.byte	0x22
 17701 10e5 F7       		.byte	0xf7
 17702 10e6 25       		.uleb128 0x25
 17703 10e7 74       		.byte	0x74
 17704 10e8 E801     		.sleb128 232
 17705 10ea 94       		.byte	0x94
 17706 10eb 01       		.byte	0x1
 17707 10ec 08       		.byte	0x8
 17708 10ed FF       		.byte	0xff
 17709 10ee 1A       		.byte	0x1a
 17710 10ef 0C       		.byte	0xc
 17711 10f0 002F3A00 		.4byte	0x3a2f00
 17712 10f4 1E       		.byte	0x1e
 17713 10f5 23       		.byte	0x23
 17714 10f6 F403     		.uleb128 0x1f4
 17715 10f8 F7       		.byte	0xf7
 17716 10f9 25       		.uleb128 0x25
 17717 10fa 0A       		.byte	0xa
 17718 10fb E803     		.2byte	0x3e8
 17719 10fd F7       		.byte	0xf7
 17720 10fe 25       		.uleb128 0x25
 17721 10ff 1B       		.byte	0x1b
 17722 1100 F7       		.byte	0xf7
 17723 1101 00       		.uleb128 0
 17724 1102 F7       		.byte	0xf7
 17725 1103 25       		.uleb128 0x25
 17726 1104 1B       		.byte	0x1b
 17727 1105 F7       		.byte	0xf7
ARM GAS  /var/folders/d2/nstgp4h54kz7g1l847x_b8wc0000gn/T//cc2apEbl.s 			page 312


 17728 1106 00       		.uleb128 0
 17729 1107 74       		.byte	0x74
 17730 1108 DC01     		.sleb128 220
 17731 110a 06       		.byte	0x6
 17732 110b 0A       		.byte	0xa
 17733 110c E803     		.2byte	0x3e8
 17734 110e 1E       		.byte	0x1e
 17735 110f 74       		.byte	0x74
 17736 1110 E001     		.sleb128 224
 17737 1112 94       		.byte	0x94
 17738 1113 01       		.byte	0x1
 17739 1114 08       		.byte	0x8
 17740 1115 FF       		.byte	0xff
 17741 1116 1A       		.byte	0x1a
 17742 1117 0C       		.byte	0xc
 17743 1118 002F3A00 		.4byte	0x3a2f00
 17744 111c 1E       		.byte	0x1e
 17745 111d 23       		.byte	0x23
 17746 111e F403     		.uleb128 0x1f4
 17747 1120 F7       		.byte	0xf7
 17748 1121 25       		.uleb128 0x25
 17749 1122 0A       		.byte	0xa
 17750 1123 D007     		.2byte	0x7d0
 17751 1125 F7       		.byte	0xf7
 17752 1126 25       		.uleb128 0x25
 17753 1127 1B       		.byte	0x1b
 17754 1128 F7       		.byte	0xf7
 17755 1129 00       		.uleb128 0
 17756 112a 22       		.byte	0x22
 17757 112b F7       		.byte	0xf7
 17758 112c 25       		.uleb128 0x25
 17759 112d 74       		.byte	0x74
 17760 112e E001     		.sleb128 224
 17761 1130 94       		.byte	0x94
 17762 1131 01       		.byte	0x1
 17763 1132 08       		.byte	0x8
 17764 1133 FF       		.byte	0xff
 17765 1134 1A       		.byte	0x1a
 17766 1135 0C       		.byte	0xc
 17767 1136 002F3A00 		.4byte	0x3a2f00
 17768 113a 1E       		.byte	0x1e
 17769 113b 23       		.byte	0x23
 17770 113c F403     		.uleb128 0x1f4
 17771 113e F7       		.byte	0xf7
 17772 113f 25       		.uleb128 0x25
 17773 1140 0A       		.byte	0xa
 17774 1141 E803     		.2byte	0x3e8
 17775 1143 F7       		.byte	0xf7
 17776 1144 25       		.uleb128 0x25
 17777 1145 1B       		.byte	0x1b
 17778 1146 F7       		.byte	0xf7
 17779 1147 00       		.uleb128 0
 17780 1148 F7       		.byte	0xf7
 17781 1149 25       		.uleb128 0x25
 17782 114a 1B       		.byte	0x1b
 17783 114b F7       		.byte	0xf7
 17784 114c 00       		.uleb128 0
ARM GAS  /var/folders/d2/nstgp4h54kz7g1l847x_b8wc0000gn/T//cc2apEbl.s 			page 313


 17785 114d 22       		.byte	0x22
 17786 114e 3B       		.byte	0x3b
 17787 114f 24       		.byte	0x24
 17788 1150 7C       		.byte	0x7c
 17789 1151 00       		.sleb128 0
 17790 1152 1E       		.byte	0x1e
 17791 1153 23       		.byte	0x23
 17792 1154 F403     		.uleb128 0x1f4
 17793 1156 F7       		.byte	0xf7
 17794 1157 25       		.uleb128 0x25
 17795 1158 0A       		.byte	0xa
 17796 1159 E803     		.2byte	0x3e8
 17797 115b F7       		.byte	0xf7
 17798 115c 25       		.uleb128 0x25
 17799 115d 1B       		.byte	0x1b
 17800 115e F7       		.byte	0xf7
 17801 115f 00       		.uleb128 0
 17802 1160 0A       		.byte	0xa
 17803 1161 7706     		.2byte	0x677
 17804 1163 1E       		.byte	0x1e
 17805 1164 23       		.byte	0x23
 17806 1165 F403     		.uleb128 0x1f4
 17807 1167 F7       		.byte	0xf7
 17808 1168 25       		.uleb128 0x25
 17809 1169 0A       		.byte	0xa
 17810 116a E803     		.2byte	0x3e8
 17811 116c F7       		.byte	0xf7
 17812 116d 25       		.uleb128 0x25
 17813 116e 1B       		.byte	0x1b
 17814 116f F7       		.byte	0xf7
 17815 1170 00       		.uleb128 0
 17816 1171 9F       		.byte	0x9f
 17817 1172 F4020000 		.4byte	.LVL783
 17818 1176 F6020000 		.4byte	.LVL784
 17819 117a AB00     		.2byte	0xab
 17820 117c 74       		.byte	0x74
 17821 117d E401     		.sleb128 228
 17822 117f 06       		.byte	0x6
 17823 1180 0A       		.byte	0xa
 17824 1181 E803     		.2byte	0x3e8
 17825 1183 1E       		.byte	0x1e
 17826 1184 74       		.byte	0x74
 17827 1185 E801     		.sleb128 232
 17828 1187 94       		.byte	0x94
 17829 1188 01       		.byte	0x1
 17830 1189 08       		.byte	0x8
 17831 118a FF       		.byte	0xff
 17832 118b 1A       		.byte	0x1a
 17833 118c 0C       		.byte	0xc
 17834 118d 002F3A00 		.4byte	0x3a2f00
 17835 1191 1E       		.byte	0x1e
 17836 1192 23       		.byte	0x23
 17837 1193 F403     		.uleb128 0x1f4
 17838 1195 F7       		.byte	0xf7
 17839 1196 25       		.uleb128 0x25
 17840 1197 0A       		.byte	0xa
 17841 1198 D007     		.2byte	0x7d0
ARM GAS  /var/folders/d2/nstgp4h54kz7g1l847x_b8wc0000gn/T//cc2apEbl.s 			page 314


 17842 119a F7       		.byte	0xf7
 17843 119b 25       		.uleb128 0x25
 17844 119c 1B       		.byte	0x1b
 17845 119d F7       		.byte	0xf7
 17846 119e 00       		.uleb128 0
 17847 119f 22       		.byte	0x22
 17848 11a0 F7       		.byte	0xf7
 17849 11a1 25       		.uleb128 0x25
 17850 11a2 74       		.byte	0x74
 17851 11a3 E801     		.sleb128 232
 17852 11a5 94       		.byte	0x94
 17853 11a6 01       		.byte	0x1
 17854 11a7 08       		.byte	0x8
 17855 11a8 FF       		.byte	0xff
 17856 11a9 1A       		.byte	0x1a
 17857 11aa 0C       		.byte	0xc
 17858 11ab 002F3A00 		.4byte	0x3a2f00
 17859 11af 1E       		.byte	0x1e
 17860 11b0 23       		.byte	0x23
 17861 11b1 F403     		.uleb128 0x1f4
 17862 11b3 F7       		.byte	0xf7
 17863 11b4 25       		.uleb128 0x25
 17864 11b5 0A       		.byte	0xa
 17865 11b6 E803     		.2byte	0x3e8
 17866 11b8 F7       		.byte	0xf7
 17867 11b9 25       		.uleb128 0x25
 17868 11ba 1B       		.byte	0x1b
 17869 11bb F7       		.byte	0xf7
 17870 11bc 00       		.uleb128 0
 17871 11bd F7       		.byte	0xf7
 17872 11be 25       		.uleb128 0x25
 17873 11bf 1B       		.byte	0x1b
 17874 11c0 F7       		.byte	0xf7
 17875 11c1 00       		.uleb128 0
 17876 11c2 74       		.byte	0x74
 17877 11c3 DC01     		.sleb128 220
 17878 11c5 06       		.byte	0x6
 17879 11c6 0A       		.byte	0xa
 17880 11c7 E803     		.2byte	0x3e8
 17881 11c9 1E       		.byte	0x1e
 17882 11ca 72       		.byte	0x72
 17883 11cb 00       		.sleb128 0
 17884 11cc 08       		.byte	0x8
 17885 11cd FF       		.byte	0xff
 17886 11ce 1A       		.byte	0x1a
 17887 11cf 0C       		.byte	0xc
 17888 11d0 002F3A00 		.4byte	0x3a2f00
 17889 11d4 1E       		.byte	0x1e
 17890 11d5 23       		.byte	0x23
 17891 11d6 F403     		.uleb128 0x1f4
 17892 11d8 F7       		.byte	0xf7
 17893 11d9 25       		.uleb128 0x25
 17894 11da 0A       		.byte	0xa
 17895 11db D007     		.2byte	0x7d0
 17896 11dd F7       		.byte	0xf7
 17897 11de 25       		.uleb128 0x25
 17898 11df 1B       		.byte	0x1b
ARM GAS  /var/folders/d2/nstgp4h54kz7g1l847x_b8wc0000gn/T//cc2apEbl.s 			page 315


 17899 11e0 F7       		.byte	0xf7
 17900 11e1 00       		.uleb128 0
 17901 11e2 22       		.byte	0x22
 17902 11e3 F7       		.byte	0xf7
 17903 11e4 25       		.uleb128 0x25
 17904 11e5 72       		.byte	0x72
 17905 11e6 00       		.sleb128 0
 17906 11e7 08       		.byte	0x8
 17907 11e8 FF       		.byte	0xff
 17908 11e9 1A       		.byte	0x1a
 17909 11ea 0C       		.byte	0xc
 17910 11eb 002F3A00 		.4byte	0x3a2f00
 17911 11ef 1E       		.byte	0x1e
 17912 11f0 23       		.byte	0x23
 17913 11f1 F403     		.uleb128 0x1f4
 17914 11f3 F7       		.byte	0xf7
 17915 11f4 25       		.uleb128 0x25
 17916 11f5 0A       		.byte	0xa
 17917 11f6 E803     		.2byte	0x3e8
 17918 11f8 F7       		.byte	0xf7
 17919 11f9 25       		.uleb128 0x25
 17920 11fa 1B       		.byte	0x1b
 17921 11fb F7       		.byte	0xf7
 17922 11fc 00       		.uleb128 0
 17923 11fd F7       		.byte	0xf7
 17924 11fe 25       		.uleb128 0x25
 17925 11ff 1B       		.byte	0x1b
 17926 1200 F7       		.byte	0xf7
 17927 1201 00       		.uleb128 0
 17928 1202 22       		.byte	0x22
 17929 1203 3B       		.byte	0x3b
 17930 1204 24       		.byte	0x24
 17931 1205 7C       		.byte	0x7c
 17932 1206 00       		.sleb128 0
 17933 1207 1E       		.byte	0x1e
 17934 1208 23       		.byte	0x23
 17935 1209 F403     		.uleb128 0x1f4
 17936 120b F7       		.byte	0xf7
 17937 120c 25       		.uleb128 0x25
 17938 120d 0A       		.byte	0xa
 17939 120e E803     		.2byte	0x3e8
 17940 1210 F7       		.byte	0xf7
 17941 1211 25       		.uleb128 0x25
 17942 1212 1B       		.byte	0x1b
 17943 1213 F7       		.byte	0xf7
 17944 1214 00       		.uleb128 0
 17945 1215 0A       		.byte	0xa
 17946 1216 7706     		.2byte	0x677
 17947 1218 1E       		.byte	0x1e
 17948 1219 23       		.byte	0x23
 17949 121a F403     		.uleb128 0x1f4
 17950 121c F7       		.byte	0xf7
 17951 121d 25       		.uleb128 0x25
 17952 121e 0A       		.byte	0xa
 17953 121f E803     		.2byte	0x3e8
 17954 1221 F7       		.byte	0xf7
 17955 1222 25       		.uleb128 0x25
ARM GAS  /var/folders/d2/nstgp4h54kz7g1l847x_b8wc0000gn/T//cc2apEbl.s 			page 316


 17956 1223 1B       		.byte	0x1b
 17957 1224 F7       		.byte	0xf7
 17958 1225 00       		.uleb128 0
 17959 1226 9F       		.byte	0x9f
 17960 1227 F6020000 		.4byte	.LVL784
 17961 122b FA020000 		.4byte	.LVL786
 17962 122f B100     		.2byte	0xb1
 17963 1231 74       		.byte	0x74
 17964 1232 E401     		.sleb128 228
 17965 1234 06       		.byte	0x6
 17966 1235 0A       		.byte	0xa
 17967 1236 E803     		.2byte	0x3e8
 17968 1238 1E       		.byte	0x1e
 17969 1239 74       		.byte	0x74
 17970 123a E801     		.sleb128 232
 17971 123c 94       		.byte	0x94
 17972 123d 01       		.byte	0x1
 17973 123e 08       		.byte	0x8
 17974 123f FF       		.byte	0xff
 17975 1240 1A       		.byte	0x1a
 17976 1241 0C       		.byte	0xc
 17977 1242 002F3A00 		.4byte	0x3a2f00
 17978 1246 1E       		.byte	0x1e
 17979 1247 23       		.byte	0x23
 17980 1248 F403     		.uleb128 0x1f4
 17981 124a F7       		.byte	0xf7
 17982 124b 25       		.uleb128 0x25
 17983 124c 0A       		.byte	0xa
 17984 124d D007     		.2byte	0x7d0
 17985 124f F7       		.byte	0xf7
 17986 1250 25       		.uleb128 0x25
 17987 1251 1B       		.byte	0x1b
 17988 1252 F7       		.byte	0xf7
 17989 1253 00       		.uleb128 0
 17990 1254 22       		.byte	0x22
 17991 1255 F7       		.byte	0xf7
 17992 1256 25       		.uleb128 0x25
 17993 1257 74       		.byte	0x74
 17994 1258 E801     		.sleb128 232
 17995 125a 94       		.byte	0x94
 17996 125b 01       		.byte	0x1
 17997 125c 08       		.byte	0x8
 17998 125d FF       		.byte	0xff
 17999 125e 1A       		.byte	0x1a
 18000 125f 0C       		.byte	0xc
 18001 1260 002F3A00 		.4byte	0x3a2f00
 18002 1264 1E       		.byte	0x1e
 18003 1265 23       		.byte	0x23
 18004 1266 F403     		.uleb128 0x1f4
 18005 1268 F7       		.byte	0xf7
 18006 1269 25       		.uleb128 0x25
 18007 126a 0A       		.byte	0xa
 18008 126b E803     		.2byte	0x3e8
 18009 126d F7       		.byte	0xf7
 18010 126e 25       		.uleb128 0x25
 18011 126f 1B       		.byte	0x1b
 18012 1270 F7       		.byte	0xf7
ARM GAS  /var/folders/d2/nstgp4h54kz7g1l847x_b8wc0000gn/T//cc2apEbl.s 			page 317


 18013 1271 00       		.uleb128 0
 18014 1272 F7       		.byte	0xf7
 18015 1273 25       		.uleb128 0x25
 18016 1274 1B       		.byte	0x1b
 18017 1275 F7       		.byte	0xf7
 18018 1276 00       		.uleb128 0
 18019 1277 74       		.byte	0x74
 18020 1278 DC01     		.sleb128 220
 18021 127a 06       		.byte	0x6
 18022 127b 0A       		.byte	0xa
 18023 127c E803     		.2byte	0x3e8
 18024 127e 1E       		.byte	0x1e
 18025 127f 74       		.byte	0x74
 18026 1280 E001     		.sleb128 224
 18027 1282 94       		.byte	0x94
 18028 1283 01       		.byte	0x1
 18029 1284 08       		.byte	0x8
 18030 1285 FF       		.byte	0xff
 18031 1286 1A       		.byte	0x1a
 18032 1287 0C       		.byte	0xc
 18033 1288 002F3A00 		.4byte	0x3a2f00
 18034 128c 1E       		.byte	0x1e
 18035 128d 23       		.byte	0x23
 18036 128e F403     		.uleb128 0x1f4
 18037 1290 F7       		.byte	0xf7
 18038 1291 25       		.uleb128 0x25
 18039 1292 0A       		.byte	0xa
 18040 1293 D007     		.2byte	0x7d0
 18041 1295 F7       		.byte	0xf7
 18042 1296 25       		.uleb128 0x25
 18043 1297 1B       		.byte	0x1b
 18044 1298 F7       		.byte	0xf7
 18045 1299 00       		.uleb128 0
 18046 129a 22       		.byte	0x22
 18047 129b F7       		.byte	0xf7
 18048 129c 25       		.uleb128 0x25
 18049 129d 74       		.byte	0x74
 18050 129e E001     		.sleb128 224
 18051 12a0 94       		.byte	0x94
 18052 12a1 01       		.byte	0x1
 18053 12a2 08       		.byte	0x8
 18054 12a3 FF       		.byte	0xff
 18055 12a4 1A       		.byte	0x1a
 18056 12a5 0C       		.byte	0xc
 18057 12a6 002F3A00 		.4byte	0x3a2f00
 18058 12aa 1E       		.byte	0x1e
 18059 12ab 23       		.byte	0x23
 18060 12ac F403     		.uleb128 0x1f4
 18061 12ae F7       		.byte	0xf7
 18062 12af 25       		.uleb128 0x25
 18063 12b0 0A       		.byte	0xa
 18064 12b1 E803     		.2byte	0x3e8
 18065 12b3 F7       		.byte	0xf7
 18066 12b4 25       		.uleb128 0x25
 18067 12b5 1B       		.byte	0x1b
 18068 12b6 F7       		.byte	0xf7
 18069 12b7 00       		.uleb128 0
ARM GAS  /var/folders/d2/nstgp4h54kz7g1l847x_b8wc0000gn/T//cc2apEbl.s 			page 318


 18070 12b8 F7       		.byte	0xf7
 18071 12b9 25       		.uleb128 0x25
 18072 12ba 1B       		.byte	0x1b
 18073 12bb F7       		.byte	0xf7
 18074 12bc 00       		.uleb128 0
 18075 12bd 22       		.byte	0x22
 18076 12be 3B       		.byte	0x3b
 18077 12bf 24       		.byte	0x24
 18078 12c0 7C       		.byte	0x7c
 18079 12c1 00       		.sleb128 0
 18080 12c2 1E       		.byte	0x1e
 18081 12c3 23       		.byte	0x23
 18082 12c4 F403     		.uleb128 0x1f4
 18083 12c6 F7       		.byte	0xf7
 18084 12c7 25       		.uleb128 0x25
 18085 12c8 0A       		.byte	0xa
 18086 12c9 E803     		.2byte	0x3e8
 18087 12cb F7       		.byte	0xf7
 18088 12cc 25       		.uleb128 0x25
 18089 12cd 1B       		.byte	0x1b
 18090 12ce F7       		.byte	0xf7
 18091 12cf 00       		.uleb128 0
 18092 12d0 0A       		.byte	0xa
 18093 12d1 7706     		.2byte	0x677
 18094 12d3 1E       		.byte	0x1e
 18095 12d4 23       		.byte	0x23
 18096 12d5 F403     		.uleb128 0x1f4
 18097 12d7 F7       		.byte	0xf7
 18098 12d8 25       		.uleb128 0x25
 18099 12d9 0A       		.byte	0xa
 18100 12da E803     		.2byte	0x3e8
 18101 12dc F7       		.byte	0xf7
 18102 12dd 25       		.uleb128 0x25
 18103 12de 1B       		.byte	0x1b
 18104 12df F7       		.byte	0xf7
 18105 12e0 00       		.uleb128 0
 18106 12e1 9F       		.byte	0x9f
 18107 12e2 00000000 		.4byte	0
 18108 12e6 00000000 		.4byte	0
 18109              	.LLST208:
 18110 12ea 40000000 		.4byte	.LVL699
 18111 12ee 78000000 		.4byte	.LVL705
 18112 12f2 0100     		.2byte	0x1
 18113 12f4 52       		.byte	0x52
 18114 12f5 78000000 		.4byte	.LVL705
 18115 12f9 C8020000 		.4byte	.LVL779
 18116 12fd 0300     		.2byte	0x3
 18117 12ff 74       		.byte	0x74
 18118 1300 E001     		.sleb128 224
 18119 1302 F4020000 		.4byte	.LVL783
 18120 1306 F6020000 		.4byte	.LVL784
 18121 130a 0100     		.2byte	0x1
 18122 130c 52       		.byte	0x52
 18123 130d F6020000 		.4byte	.LVL784
 18124 1311 FA020000 		.4byte	.LVL786
 18125 1315 0300     		.2byte	0x3
 18126 1317 74       		.byte	0x74
ARM GAS  /var/folders/d2/nstgp4h54kz7g1l847x_b8wc0000gn/T//cc2apEbl.s 			page 319


 18127 1318 E001     		.sleb128 224
 18128 131a 04030000 		.4byte	.LVL787
 18129 131e 0C030000 		.4byte	.LVL789
 18130 1322 0300     		.2byte	0x3
 18131 1324 74       		.byte	0x74
 18132 1325 E001     		.sleb128 224
 18133 1327 00000000 		.4byte	0
 18134 132b 00000000 		.4byte	0
 18135              	.LLST209:
 18136 132f 40000000 		.4byte	.LVL699
 18137 1333 C8020000 		.4byte	.LVL779
 18138 1337 0300     		.2byte	0x3
 18139 1339 74       		.byte	0x74
 18140 133a E801     		.sleb128 232
 18141 133c F4020000 		.4byte	.LVL783
 18142 1340 FA020000 		.4byte	.LVL786
 18143 1344 0300     		.2byte	0x3
 18144 1346 74       		.byte	0x74
 18145 1347 E801     		.sleb128 232
 18146 1349 04030000 		.4byte	.LVL787
 18147 134d 0C030000 		.4byte	.LVL789
 18148 1351 0300     		.2byte	0x3
 18149 1353 74       		.byte	0x74
 18150 1354 E801     		.sleb128 232
 18151 1356 00000000 		.4byte	0
 18152 135a 00000000 		.4byte	0
 18153              	.LLST210:
 18154 135e 1E000000 		.4byte	.LVL694
 18155 1362 2C000000 		.4byte	.LVL696
 18156 1366 0600     		.2byte	0x6
 18157 1368 F2       		.byte	0xf2
 18158 1369 0A150000 		.4byte	.Ldebug_info0+5386
 18159 136d 00       		.sleb128 0
 18160 136e F0020000 		.4byte	.LVL782
 18161 1372 F4020000 		.4byte	.LVL783
 18162 1376 0600     		.2byte	0x6
 18163 1378 F2       		.byte	0xf2
 18164 1379 0A150000 		.4byte	.Ldebug_info0+5386
 18165 137d 00       		.sleb128 0
 18166 137e 00000000 		.4byte	0
 18167 1382 00000000 		.4byte	0
 18168              	.LLST211:
 18169 1386 1E000000 		.4byte	.LVL694
 18170 138a 21000000 		.4byte	.LVL695-1
 18171 138e 0100     		.2byte	0x1
 18172 1390 51       		.byte	0x51
 18173 1391 21000000 		.4byte	.LVL695-1
 18174 1395 2C000000 		.4byte	.LVL696
 18175 1399 0100     		.2byte	0x1
 18176 139b 55       		.byte	0x55
 18177 139c F0020000 		.4byte	.LVL782
 18178 13a0 F4020000 		.4byte	.LVL783
 18179 13a4 0100     		.2byte	0x1
 18180 13a6 55       		.byte	0x55
 18181 13a7 00000000 		.4byte	0
 18182 13ab 00000000 		.4byte	0
 18183              	.LLST212:
ARM GAS  /var/folders/d2/nstgp4h54kz7g1l847x_b8wc0000gn/T//cc2apEbl.s 			page 320


 18184 13af 1E000000 		.4byte	.LVL694
 18185 13b3 21000000 		.4byte	.LVL695-1
 18186 13b7 0100     		.2byte	0x1
 18187 13b9 50       		.byte	0x50
 18188 13ba 21000000 		.4byte	.LVL695-1
 18189 13be 2C000000 		.4byte	.LVL696
 18190 13c2 0100     		.2byte	0x1
 18191 13c4 54       		.byte	0x54
 18192 13c5 F0020000 		.4byte	.LVL782
 18193 13c9 F4020000 		.4byte	.LVL783
 18194 13cd 0100     		.2byte	0x1
 18195 13cf 54       		.byte	0x54
 18196 13d0 00000000 		.4byte	0
 18197 13d4 00000000 		.4byte	0
 18198              	.LLST213:
 18199 13d8 28010000 		.4byte	.LVL713
 18200 13dc 3E010000 		.4byte	.LVL718
 18201 13e0 0100     		.2byte	0x1
 18202 13e2 50       		.byte	0x50
 18203 13e3 00000000 		.4byte	0
 18204 13e7 00000000 		.4byte	0
 18205              	.LLST214:
 18206 13eb D2010000 		.4byte	.LVL734
 18207 13ef F8010000 		.4byte	.LVL742
 18208 13f3 0100     		.2byte	0x1
 18209 13f5 55       		.byte	0x55
 18210 13f6 00000000 		.4byte	0
 18211 13fa 00000000 		.4byte	0
 18212              	.LLST215:
 18213 13fe 4C020000 		.4byte	.LVL754
 18214 1402 84020000 		.4byte	.LVL764
 18215 1406 0100     		.2byte	0x1
 18216 1408 5E       		.byte	0x5e
 18217 1409 00000000 		.4byte	0
 18218 140d 00000000 		.4byte	0
 18219              	.LLST216:
 18220 1411 88020000 		.4byte	.LVL765
 18221 1415 B2020000 		.4byte	.LVL775
 18222 1419 0100     		.2byte	0x1
 18223 141b 55       		.byte	0x55
 18224 141c 00000000 		.4byte	0
 18225 1420 00000000 		.4byte	0
 18226              	.LLST158:
 18227 1424 00000000 		.4byte	.LVL626
 18228 1428 16000000 		.4byte	.LVL627
 18229 142c 0100     		.2byte	0x1
 18230 142e 50       		.byte	0x50
 18231 142f 16000000 		.4byte	.LVL627
 18232 1433 58010000 		.4byte	.LFE25
 18233 1437 0400     		.2byte	0x4
 18234 1439 F3       		.byte	0xf3
 18235 143a 01       		.uleb128 0x1
 18236 143b 50       		.byte	0x50
 18237 143c 9F       		.byte	0x9f
 18238 143d 00000000 		.4byte	0
 18239 1441 00000000 		.4byte	0
 18240              	.LLST159:
ARM GAS  /var/folders/d2/nstgp4h54kz7g1l847x_b8wc0000gn/T//cc2apEbl.s 			page 321


 18241 1445 00000000 		.4byte	.LVL626
 18242 1449 2A000000 		.4byte	.LVL633
 18243 144d 0100     		.2byte	0x1
 18244 144f 51       		.byte	0x51
 18245 1450 2A000000 		.4byte	.LVL633
 18246 1454 58010000 		.4byte	.LFE25
 18247 1458 0400     		.2byte	0x4
 18248 145a F3       		.byte	0xf3
 18249 145b 01       		.uleb128 0x1
 18250 145c 51       		.byte	0x51
 18251 145d 9F       		.byte	0x9f
 18252 145e 00000000 		.4byte	0
 18253 1462 00000000 		.4byte	0
 18254              	.LLST160:
 18255 1466 00000000 		.4byte	.LVL626
 18256 146a 32000000 		.4byte	.LVL635
 18257 146e 0100     		.2byte	0x1
 18258 1470 52       		.byte	0x52
 18259 1471 32000000 		.4byte	.LVL635
 18260 1475 58010000 		.4byte	.LFE25
 18261 1479 0400     		.2byte	0x4
 18262 147b F3       		.byte	0xf3
 18263 147c 01       		.uleb128 0x1
 18264 147d 52       		.byte	0x52
 18265 147e 9F       		.byte	0x9f
 18266 147f 00000000 		.4byte	0
 18267 1483 00000000 		.4byte	0
 18268              	.LLST161:
 18269 1487 00000000 		.4byte	.LVL626
 18270 148b 50000000 		.4byte	.LVL640
 18271 148f 0100     		.2byte	0x1
 18272 1491 53       		.byte	0x53
 18273 1492 50000000 		.4byte	.LVL640
 18274 1496 58010000 		.4byte	.LFE25
 18275 149a 0400     		.2byte	0x4
 18276 149c F3       		.byte	0xf3
 18277 149d 01       		.uleb128 0x1
 18278 149e 53       		.byte	0x53
 18279 149f 9F       		.byte	0x9f
 18280 14a0 00000000 		.4byte	0
 18281 14a4 00000000 		.4byte	0
 18282              	.LLST162:
 18283 14a8 00000000 		.4byte	.LVL626
 18284 14ac 30010000 		.4byte	.LVL686
 18285 14b0 0200     		.2byte	0x2
 18286 14b2 91       		.byte	0x91
 18287 14b3 00       		.sleb128 0
 18288 14b4 30010000 		.4byte	.LVL686
 18289 14b8 58010000 		.4byte	.LFE25
 18290 14bc 0200     		.2byte	0x2
 18291 14be 91       		.byte	0x91
 18292 14bf 00       		.sleb128 0
 18293 14c0 00000000 		.4byte	0
 18294 14c4 00000000 		.4byte	0
 18295              	.LLST163:
 18296 14c8 00000000 		.4byte	.LVL626
 18297 14cc 72000000 		.4byte	.LVL644
ARM GAS  /var/folders/d2/nstgp4h54kz7g1l847x_b8wc0000gn/T//cc2apEbl.s 			page 322


 18298 14d0 0200     		.2byte	0x2
 18299 14d2 91       		.byte	0x91
 18300 14d3 04       		.sleb128 4
 18301 14d4 72000000 		.4byte	.LVL644
 18302 14d8 76000000 		.4byte	.LVL645
 18303 14dc 0500     		.2byte	0x5
 18304 14de 71       		.byte	0x71
 18305 14df 00       		.sleb128 0
 18306 14e0 37       		.byte	0x37
 18307 14e1 1E       		.byte	0x1e
 18308 14e2 9F       		.byte	0x9f
 18309 14e3 76000000 		.4byte	.LVL645
 18310 14e7 80000000 		.4byte	.LVL647
 18311 14eb 1E00     		.2byte	0x1e
 18312 14ed 91       		.byte	0x91
 18313 14ee 04       		.sleb128 4
 18314 14ef 06       		.byte	0x6
 18315 14f0 23       		.byte	0x23
 18316 14f1 03       		.uleb128 0x3
 18317 14f2 F7       		.byte	0xf7
 18318 14f3 25       		.uleb128 0x25
 18319 14f4 F7       		.byte	0xf7
 18320 14f5 2C       		.uleb128 0x2c
 18321 14f6 7C       		.byte	0x7c
 18322 14f7 00       		.sleb128 0
 18323 14f8 F7       		.byte	0xf7
 18324 14f9 25       		.uleb128 0x25
 18325 14fa F7       		.byte	0xf7
 18326 14fb 2C       		.uleb128 0x2c
 18327 14fc 1E       		.byte	0x1e
 18328 14fd 08       		.byte	0x8
 18329 14fe 20       		.byte	0x20
 18330 14ff F7       		.byte	0xf7
 18331 1500 2C       		.uleb128 0x2c
 18332 1501 25       		.byte	0x25
 18333 1502 F7       		.byte	0xf7
 18334 1503 25       		.uleb128 0x25
 18335 1504 F7       		.byte	0xf7
 18336 1505 00       		.uleb128 0
 18337 1506 32       		.byte	0x32
 18338 1507 25       		.byte	0x25
 18339 1508 37       		.byte	0x37
 18340 1509 1E       		.byte	0x1e
 18341 150a 9F       		.byte	0x9f
 18342 150b 30010000 		.4byte	.LVL686
 18343 150f 34010000 		.4byte	.LVL687
 18344 1513 0200     		.2byte	0x2
 18345 1515 91       		.byte	0x91
 18346 1516 04       		.sleb128 4
 18347 1517 00000000 		.4byte	0
 18348 151b 00000000 		.4byte	0
 18349              	.LLST164:
 18350 151f 00000000 		.4byte	.LVL626
 18351 1523 30010000 		.4byte	.LVL686
 18352 1527 0200     		.2byte	0x2
 18353 1529 91       		.byte	0x91
 18354 152a 08       		.sleb128 8
ARM GAS  /var/folders/d2/nstgp4h54kz7g1l847x_b8wc0000gn/T//cc2apEbl.s 			page 323


 18355 152b 30010000 		.4byte	.LVL686
 18356 152f 58010000 		.4byte	.LFE25
 18357 1533 0200     		.2byte	0x2
 18358 1535 91       		.byte	0x91
 18359 1536 08       		.sleb128 8
 18360 1537 00000000 		.4byte	0
 18361 153b 00000000 		.4byte	0
 18362              	.LLST165:
 18363 153f 00000000 		.4byte	.LVL626
 18364 1543 30010000 		.4byte	.LVL686
 18365 1547 0200     		.2byte	0x2
 18366 1549 91       		.byte	0x91
 18367 154a 0C       		.sleb128 12
 18368 154b 30010000 		.4byte	.LVL686
 18369 154f 58010000 		.4byte	.LFE25
 18370 1553 0200     		.2byte	0x2
 18371 1555 91       		.byte	0x91
 18372 1556 0C       		.sleb128 12
 18373 1557 00000000 		.4byte	0
 18374 155b 00000000 		.4byte	0
 18375              	.LLST166:
 18376 155f 18000000 		.4byte	.LVL628
 18377 1563 26000000 		.4byte	.LVL631
 18378 1567 0100     		.2byte	0x1
 18379 1569 56       		.byte	0x56
 18380 156a 26000000 		.4byte	.LVL631
 18381 156e 20010000 		.4byte	.LVL685
 18382 1572 0D00     		.2byte	0xd
 18383 1574 F3       		.byte	0xf3
 18384 1575 01       		.uleb128 0x1
 18385 1576 50       		.byte	0x50
 18386 1577 23       		.byte	0x23
 18387 1578 D402     		.uleb128 0x154
 18388 157a 94       		.byte	0x94
 18389 157b 02       		.byte	0x2
 18390 157c 0A       		.byte	0xa
 18391 157d FFFF     		.2byte	0xffff
 18392 157f 1A       		.byte	0x1a
 18393 1580 9F       		.byte	0x9f
 18394 1581 30010000 		.4byte	.LVL686
 18395 1585 3E010000 		.4byte	.LVL689
 18396 1589 0D00     		.2byte	0xd
 18397 158b F3       		.byte	0xf3
 18398 158c 01       		.uleb128 0x1
 18399 158d 50       		.byte	0x50
 18400 158e 23       		.byte	0x23
 18401 158f D402     		.uleb128 0x154
 18402 1591 94       		.byte	0x94
 18403 1592 02       		.byte	0x2
 18404 1593 0A       		.byte	0xa
 18405 1594 FFFF     		.2byte	0xffff
 18406 1596 1A       		.byte	0x1a
 18407 1597 9F       		.byte	0x9f
 18408 1598 00000000 		.4byte	0
 18409 159c 00000000 		.4byte	0
 18410              	.LLST167:
 18411 15a0 18000000 		.4byte	.LVL628
ARM GAS  /var/folders/d2/nstgp4h54kz7g1l847x_b8wc0000gn/T//cc2apEbl.s 			page 324


 18412 15a4 20010000 		.4byte	.LVL685
 18413 15a8 0600     		.2byte	0x6
 18414 15aa F3       		.byte	0xf3
 18415 15ab 01       		.uleb128 0x1
 18416 15ac 50       		.byte	0x50
 18417 15ad 23       		.byte	0x23
 18418 15ae D802     		.uleb128 0x158
 18419 15b0 30010000 		.4byte	.LVL686
 18420 15b4 3E010000 		.4byte	.LVL689
 18421 15b8 0600     		.2byte	0x6
 18422 15ba F3       		.byte	0xf3
 18423 15bb 01       		.uleb128 0x1
 18424 15bc 50       		.byte	0x50
 18425 15bd 23       		.byte	0x23
 18426 15be D802     		.uleb128 0x158
 18427 15c0 00000000 		.4byte	0
 18428 15c4 00000000 		.4byte	0
 18429              	.LLST168:
 18430 15c8 80000000 		.4byte	.LVL647
 18431 15cc 84000000 		.4byte	.LVL648
 18432 15d0 0600     		.2byte	0x6
 18433 15d2 71       		.byte	0x71
 18434 15d3 00       		.sleb128 0
 18435 15d4 73       		.byte	0x73
 18436 15d5 00       		.sleb128 0
 18437 15d6 22       		.byte	0x22
 18438 15d7 9F       		.byte	0x9f
 18439 15d8 84000000 		.4byte	.LVL648
 18440 15dc 86000000 		.4byte	.LVL649
 18441 15e0 1F00     		.2byte	0x1f
 18442 15e2 F3       		.byte	0xf3
 18443 15e3 01       		.uleb128 0x1
 18444 15e4 53       		.byte	0x53
 18445 15e5 91       		.byte	0x91
 18446 15e6 00       		.sleb128 0
 18447 15e7 06       		.byte	0x6
 18448 15e8 1E       		.byte	0x1e
 18449 15e9 23       		.byte	0x23
 18450 15ea 808002   		.uleb128 0x8000
 18451 15ed 40       		.byte	0x40
 18452 15ee 25       		.byte	0x25
 18453 15ef F3       		.byte	0xf3
 18454 15f0 01       		.uleb128 0x1
 18455 15f1 53       		.byte	0x53
 18456 15f2 91       		.byte	0x91
 18457 15f3 00       		.sleb128 0
 18458 15f4 06       		.byte	0x6
 18459 15f5 1E       		.byte	0x1e
 18460 15f6 23       		.byte	0x23
 18461 15f7 808002   		.uleb128 0x8000
 18462 15fa 40       		.byte	0x40
 18463 15fb 25       		.byte	0x25
 18464 15fc 1E       		.byte	0x1e
 18465 15fd 71       		.byte	0x71
 18466 15fe 00       		.sleb128 0
 18467 15ff 22       		.byte	0x22
 18468 1600 9F       		.byte	0x9f
ARM GAS  /var/folders/d2/nstgp4h54kz7g1l847x_b8wc0000gn/T//cc2apEbl.s 			page 325


 18469 1601 86000000 		.4byte	.LVL649
 18470 1605 92000000 		.4byte	.LVL653
 18471 1609 0100     		.2byte	0x1
 18472 160b 53       		.byte	0x53
 18473 160c 92000000 		.4byte	.LVL653
 18474 1610 96000000 		.4byte	.LVL654
 18475 1614 3100     		.2byte	0x31
 18476 1616 F3       		.byte	0xf3
 18477 1617 01       		.uleb128 0x1
 18478 1618 53       		.byte	0x53
 18479 1619 91       		.byte	0x91
 18480 161a 00       		.sleb128 0
 18481 161b 06       		.byte	0x6
 18482 161c 1E       		.byte	0x1e
 18483 161d 23       		.byte	0x23
 18484 161e 808002   		.uleb128 0x8000
 18485 1621 40       		.byte	0x40
 18486 1622 25       		.byte	0x25
 18487 1623 F3       		.byte	0xf3
 18488 1624 01       		.uleb128 0x1
 18489 1625 53       		.byte	0x53
 18490 1626 91       		.byte	0x91
 18491 1627 00       		.sleb128 0
 18492 1628 06       		.byte	0x6
 18493 1629 1E       		.byte	0x1e
 18494 162a 23       		.byte	0x23
 18495 162b 808002   		.uleb128 0x8000
 18496 162e 40       		.byte	0x40
 18497 162f 25       		.byte	0x25
 18498 1630 1E       		.byte	0x1e
 18499 1631 76       		.byte	0x76
 18500 1632 00       		.sleb128 0
 18501 1633 31       		.byte	0x31
 18502 1634 25       		.byte	0x25
 18503 1635 22       		.byte	0x22
 18504 1636 71       		.byte	0x71
 18505 1637 00       		.sleb128 0
 18506 1638 22       		.byte	0x22
 18507 1639 F7       		.byte	0xf7
 18508 163a 25       		.uleb128 0x25
 18509 163b 76       		.byte	0x76
 18510 163c 00       		.sleb128 0
 18511 163d F7       		.byte	0xf7
 18512 163e 25       		.uleb128 0x25
 18513 163f 1B       		.byte	0x1b
 18514 1640 F7       		.byte	0xf7
 18515 1641 00       		.uleb128 0
 18516 1642 3E       		.byte	0x3e
 18517 1643 24       		.byte	0x24
 18518 1644 23       		.byte	0x23
 18519 1645 7F       		.uleb128 0x7f
 18520 1646 9F       		.byte	0x9f
 18521 1647 98000000 		.4byte	.LVL655
 18522 164b 9C000000 		.4byte	.LVL656
 18523 164f 0600     		.2byte	0x6
 18524 1651 72       		.byte	0x72
 18525 1652 00       		.sleb128 0
ARM GAS  /var/folders/d2/nstgp4h54kz7g1l847x_b8wc0000gn/T//cc2apEbl.s 			page 326


 18526 1653 73       		.byte	0x73
 18527 1654 00       		.sleb128 0
 18528 1655 1E       		.byte	0x1e
 18529 1656 9F       		.byte	0x9f
 18530 1657 9C000000 		.4byte	.LVL656
 18531 165b A2000000 		.4byte	.LVL657
 18532 165f 0100     		.2byte	0x1
 18533 1661 52       		.byte	0x52
 18534 1662 A2000000 		.4byte	.LVL657
 18535 1666 A6000000 		.4byte	.LVL658
 18536 166a 0400     		.2byte	0x4
 18537 166c 72       		.byte	0x72
 18538 166d 8C7C     		.sleb128 -500
 18539 166f 9F       		.byte	0x9f
 18540 1670 A8000000 		.4byte	.LVL659
 18541 1674 AA000000 		.4byte	.LVL660
 18542 1678 0500     		.2byte	0x5
 18543 167a 72       		.byte	0x72
 18544 167b 00       		.sleb128 0
 18545 167c 34       		.byte	0x34
 18546 167d 24       		.byte	0x24
 18547 167e 9F       		.byte	0x9f
 18548 167f AA000000 		.4byte	.LVL660
 18549 1683 AE000000 		.4byte	.LVL661
 18550 1687 0100     		.2byte	0x1
 18551 1689 52       		.byte	0x52
 18552 168a AE000000 		.4byte	.LVL661
 18553 168e B8000000 		.4byte	.LVL662
 18554 1692 0400     		.2byte	0x4
 18555 1694 72       		.byte	0x72
 18556 1695 8C7C     		.sleb128 -500
 18557 1697 9F       		.byte	0x9f
 18558 1698 B8000000 		.4byte	.LVL662
 18559 169c F0000000 		.4byte	.LVL672
 18560 16a0 0100     		.2byte	0x1
 18561 16a2 51       		.byte	0x51
 18562 16a3 3A010000 		.4byte	.LVL688
 18563 16a7 3E010000 		.4byte	.LVL689
 18564 16ab 0100     		.2byte	0x1
 18565 16ad 51       		.byte	0x51
 18566 16ae 00000000 		.4byte	0
 18567 16b2 00000000 		.4byte	0
 18568              	.LLST169:
 18569 16b6 1E000000 		.4byte	.LVL630
 18570 16ba 2E000000 		.4byte	.LVL634
 18571 16be 0200     		.2byte	0x2
 18572 16c0 30       		.byte	0x30
 18573 16c1 9F       		.byte	0x9f
 18574 16c2 2E000000 		.4byte	.LVL634
 18575 16c6 32000000 		.4byte	.LVL635
 18576 16ca 0100     		.2byte	0x1
 18577 16cc 51       		.byte	0x51
 18578 16cd 32000000 		.4byte	.LVL635
 18579 16d1 36000000 		.4byte	.LVL636
 18580 16d5 0100     		.2byte	0x1
 18581 16d7 52       		.byte	0x52
 18582 16d8 36000000 		.4byte	.LVL636
ARM GAS  /var/folders/d2/nstgp4h54kz7g1l847x_b8wc0000gn/T//cc2apEbl.s 			page 327


 18583 16dc 3A000000 		.4byte	.LVL637
 18584 16e0 0600     		.2byte	0x6
 18585 16e2 72       		.byte	0x72
 18586 16e3 00       		.sleb128 0
 18587 16e4 72       		.byte	0x72
 18588 16e5 00       		.sleb128 0
 18589 16e6 1E       		.byte	0x1e
 18590 16e7 9F       		.byte	0x9f
 18591 16e8 3A000000 		.4byte	.LVL637
 18592 16ec 3E000000 		.4byte	.LVL638
 18593 16f0 0100     		.2byte	0x1
 18594 16f2 52       		.byte	0x52
 18595 16f3 3E000000 		.4byte	.LVL638
 18596 16f7 40000000 		.4byte	.LVL639
 18597 16fb 0500     		.2byte	0x5
 18598 16fd 72       		.byte	0x72
 18599 16fe 80807E   		.sleb128 -32768
 18600 1701 9F       		.byte	0x9f
 18601 1702 40000000 		.4byte	.LVL639
 18602 1706 9C000000 		.4byte	.LVL656
 18603 170a 0100     		.2byte	0x1
 18604 170c 52       		.byte	0x52
 18605 170d 30010000 		.4byte	.LVL686
 18606 1711 34010000 		.4byte	.LVL687
 18607 1715 0100     		.2byte	0x1
 18608 1717 52       		.byte	0x52
 18609 1718 00000000 		.4byte	0
 18610 171c 00000000 		.4byte	0
 18611              	.LLST170:
 18612 1720 40000000 		.4byte	.LVL639
 18613 1724 50000000 		.4byte	.LVL640
 18614 1728 0600     		.2byte	0x6
 18615 172a 73       		.byte	0x73
 18616 172b 00       		.sleb128 0
 18617 172c 7E       		.byte	0x7e
 18618 172d 00       		.sleb128 0
 18619 172e 1E       		.byte	0x1e
 18620 172f 9F       		.byte	0x9f
 18621 1730 50000000 		.4byte	.LVL640
 18622 1734 5A000000 		.4byte	.LVL641
 18623 1738 0100     		.2byte	0x1
 18624 173a 53       		.byte	0x53
 18625 173b 5A000000 		.4byte	.LVL641
 18626 173f 60000000 		.4byte	.LVL642
 18627 1743 0500     		.2byte	0x5
 18628 1745 73       		.byte	0x73
 18629 1746 80807E   		.sleb128 -32768
 18630 1749 9F       		.byte	0x9f
 18631 174a 60000000 		.4byte	.LVL642
 18632 174e 84000000 		.4byte	.LVL648
 18633 1752 0100     		.2byte	0x1
 18634 1754 53       		.byte	0x53
 18635 1755 84000000 		.4byte	.LVL648
 18636 1759 30010000 		.4byte	.LVL686
 18637 175d 1C00     		.2byte	0x1c
 18638 175f F3       		.byte	0xf3
 18639 1760 01       		.uleb128 0x1
ARM GAS  /var/folders/d2/nstgp4h54kz7g1l847x_b8wc0000gn/T//cc2apEbl.s 			page 328


 18640 1761 53       		.byte	0x53
 18641 1762 91       		.byte	0x91
 18642 1763 00       		.sleb128 0
 18643 1764 06       		.byte	0x6
 18644 1765 1E       		.byte	0x1e
 18645 1766 23       		.byte	0x23
 18646 1767 808002   		.uleb128 0x8000
 18647 176a 40       		.byte	0x40
 18648 176b 25       		.byte	0x25
 18649 176c F3       		.byte	0xf3
 18650 176d 01       		.uleb128 0x1
 18651 176e 53       		.byte	0x53
 18652 176f 91       		.byte	0x91
 18653 1770 00       		.sleb128 0
 18654 1771 06       		.byte	0x6
 18655 1772 1E       		.byte	0x1e
 18656 1773 23       		.byte	0x23
 18657 1774 808002   		.uleb128 0x8000
 18658 1777 40       		.byte	0x40
 18659 1778 25       		.byte	0x25
 18660 1779 1E       		.byte	0x1e
 18661 177a 9F       		.byte	0x9f
 18662 177b 30010000 		.4byte	.LVL686
 18663 177f 34010000 		.4byte	.LVL687
 18664 1783 0100     		.2byte	0x1
 18665 1785 53       		.byte	0x53
 18666 1786 34010000 		.4byte	.LVL687
 18667 178a 58010000 		.4byte	.LFE25
 18668 178e 1C00     		.2byte	0x1c
 18669 1790 F3       		.byte	0xf3
 18670 1791 01       		.uleb128 0x1
 18671 1792 53       		.byte	0x53
 18672 1793 91       		.byte	0x91
 18673 1794 00       		.sleb128 0
 18674 1795 06       		.byte	0x6
 18675 1796 1E       		.byte	0x1e
 18676 1797 23       		.byte	0x23
 18677 1798 808002   		.uleb128 0x8000
 18678 179b 40       		.byte	0x40
 18679 179c 25       		.byte	0x25
 18680 179d F3       		.byte	0xf3
 18681 179e 01       		.uleb128 0x1
 18682 179f 53       		.byte	0x53
 18683 17a0 91       		.byte	0x91
 18684 17a1 00       		.sleb128 0
 18685 17a2 06       		.byte	0x6
 18686 17a3 1E       		.byte	0x1e
 18687 17a4 23       		.byte	0x23
 18688 17a5 808002   		.uleb128 0x8000
 18689 17a8 40       		.byte	0x40
 18690 17a9 25       		.byte	0x25
 18691 17aa 1E       		.byte	0x1e
 18692 17ab 9F       		.byte	0x9f
 18693 17ac 00000000 		.4byte	0
 18694 17b0 00000000 		.4byte	0
 18695              	.LLST171:
 18696 17b4 7C000000 		.4byte	.LVL646
ARM GAS  /var/folders/d2/nstgp4h54kz7g1l847x_b8wc0000gn/T//cc2apEbl.s 			page 329


 18697 17b8 96000000 		.4byte	.LVL654
 18698 17bc 0100     		.2byte	0x1
 18699 17be 51       		.byte	0x51
 18700 17bf 00000000 		.4byte	0
 18701 17c3 00000000 		.4byte	0
 18702              	.LLST172:
 18703 17c7 80000000 		.4byte	.LVL647
 18704 17cb 30010000 		.4byte	.LVL686
 18705 17cf 0300     		.2byte	0x3
 18706 17d1 08       		.byte	0x8
 18707 17d2 FE       		.byte	0xfe
 18708 17d3 9F       		.byte	0x9f
 18709 17d4 34010000 		.4byte	.LVL687
 18710 17d8 58010000 		.4byte	.LFE25
 18711 17dc 0300     		.2byte	0x3
 18712 17de 08       		.byte	0x8
 18713 17df FE       		.byte	0xfe
 18714 17e0 9F       		.byte	0x9f
 18715 17e1 00000000 		.4byte	0
 18716 17e5 00000000 		.4byte	0
 18717              	.LLST173:
 18718 17e9 80000000 		.4byte	.LVL647
 18719 17ed 30010000 		.4byte	.LVL686
 18720 17f1 0600     		.2byte	0x6
 18721 17f3 0C       		.byte	0xc
 18722 17f4 E1520100 		.4byte	0x152e1
 18723 17f8 9F       		.byte	0x9f
 18724 17f9 34010000 		.4byte	.LVL687
 18725 17fd 58010000 		.4byte	.LFE25
 18726 1801 0600     		.2byte	0x6
 18727 1803 0C       		.byte	0xc
 18728 1804 E1520100 		.4byte	0x152e1
 18729 1808 9F       		.byte	0x9f
 18730 1809 00000000 		.4byte	0
 18731 180d 00000000 		.4byte	0
 18732              	.LLST174:
 18733 1811 80000000 		.4byte	.LVL647
 18734 1815 30010000 		.4byte	.LVL686
 18735 1819 0400     		.2byte	0x4
 18736 181b 0A       		.byte	0xa
 18737 181c 1001     		.2byte	0x110
 18738 181e 9F       		.byte	0x9f
 18739 181f 34010000 		.4byte	.LVL687
 18740 1823 58010000 		.4byte	.LFE25
 18741 1827 0400     		.2byte	0x4
 18742 1829 0A       		.byte	0xa
 18743 182a 1001     		.2byte	0x110
 18744 182c 9F       		.byte	0x9f
 18745 182d 00000000 		.4byte	0
 18746 1831 00000000 		.4byte	0
 18747              	.LLST175:
 18748 1835 B8000000 		.4byte	.LVL662
 18749 1839 30010000 		.4byte	.LVL686
 18750 183d 0300     		.2byte	0x3
 18751 183f 08       		.byte	0x8
 18752 1840 40       		.byte	0x40
 18753 1841 9F       		.byte	0x9f
ARM GAS  /var/folders/d2/nstgp4h54kz7g1l847x_b8wc0000gn/T//cc2apEbl.s 			page 330


 18754 1842 34010000 		.4byte	.LVL687
 18755 1846 58010000 		.4byte	.LFE25
 18756 184a 0300     		.2byte	0x3
 18757 184c 08       		.byte	0x8
 18758 184d 40       		.byte	0x40
 18759 184e 9F       		.byte	0x9f
 18760 184f 00000000 		.4byte	0
 18761 1853 00000000 		.4byte	0
 18762              	.LLST176:
 18763 1857 18000000 		.4byte	.LVL628
 18764 185b 1A000000 		.4byte	.LVL629
 18765 185f 0B00     		.2byte	0xb
 18766 1861 F3       		.byte	0xf3
 18767 1862 01       		.uleb128 0x1
 18768 1863 50       		.byte	0x50
 18769 1864 23       		.byte	0x23
 18770 1865 D802     		.uleb128 0x158
 18771 1867 06       		.byte	0x6
 18772 1868 76       		.byte	0x76
 18773 1869 00       		.sleb128 0
 18774 186a 1E       		.byte	0x1e
 18775 186b 9F       		.byte	0x9f
 18776 186c 1A000000 		.4byte	.LVL629
 18777 1870 04010000 		.4byte	.LVL678
 18778 1874 0100     		.2byte	0x1
 18779 1876 55       		.byte	0x55
 18780 1877 04010000 		.4byte	.LVL678
 18781 187b 20010000 		.4byte	.LVL685
 18782 187f 2700     		.2byte	0x27
 18783 1881 F3       		.byte	0xf3
 18784 1882 01       		.uleb128 0x1
 18785 1883 50       		.byte	0x50
 18786 1884 23       		.byte	0x23
 18787 1885 D402     		.uleb128 0x154
 18788 1887 94       		.byte	0x94
 18789 1888 02       		.byte	0x2
 18790 1889 0A       		.byte	0xa
 18791 188a FFFF     		.2byte	0xffff
 18792 188c 1A       		.byte	0x1a
 18793 188d F3       		.byte	0xf3
 18794 188e 01       		.uleb128 0x1
 18795 188f 50       		.byte	0x50
 18796 1890 23       		.byte	0x23
 18797 1891 D802     		.uleb128 0x158
 18798 1893 06       		.byte	0x6
 18799 1894 1E       		.byte	0x1e
 18800 1895 23       		.byte	0x23
 18801 1896 8001     		.uleb128 0x80
 18802 1898 38       		.byte	0x38
 18803 1899 25       		.byte	0x25
 18804 189a F3       		.byte	0xf3
 18805 189b 01       		.uleb128 0x1
 18806 189c 50       		.byte	0x50
 18807 189d 23       		.byte	0x23
 18808 189e D402     		.uleb128 0x154
 18809 18a0 94       		.byte	0x94
 18810 18a1 02       		.byte	0x2
ARM GAS  /var/folders/d2/nstgp4h54kz7g1l847x_b8wc0000gn/T//cc2apEbl.s 			page 331


 18811 18a2 0A       		.byte	0xa
 18812 18a3 FFFF     		.2byte	0xffff
 18813 18a5 1A       		.byte	0x1a
 18814 18a6 1E       		.byte	0x1e
 18815 18a7 9F       		.byte	0x9f
 18816 18a8 30010000 		.4byte	.LVL686
 18817 18ac 3E010000 		.4byte	.LVL689
 18818 18b0 0100     		.2byte	0x1
 18819 18b2 55       		.byte	0x55
 18820 18b3 00000000 		.4byte	0
 18821 18b7 00000000 		.4byte	0
 18822              	.LLST177:
 18823 18bb F0000000 		.4byte	.LVL672
 18824 18bf F6000000 		.4byte	.LVL673
 18825 18c3 0100     		.2byte	0x1
 18826 18c5 51       		.byte	0x51
 18827 18c6 34010000 		.4byte	.LVL687
 18828 18ca 3A010000 		.4byte	.LVL688
 18829 18ce 0100     		.2byte	0x1
 18830 18d0 51       		.byte	0x51
 18831 18d1 00000000 		.4byte	0
 18832 18d5 00000000 		.4byte	0
 18833              	.LLST178:
 18834 18d9 BA000000 		.4byte	.LVL663
 18835 18dd CA000000 		.4byte	.LVL666
 18836 18e1 0100     		.2byte	0x1
 18837 18e3 57       		.byte	0x57
 18838 18e4 CA000000 		.4byte	.LVL666
 18839 18e8 04010000 		.4byte	.LVL678
 18840 18ec 0500     		.2byte	0x5
 18841 18ee 75       		.byte	0x75
 18842 18ef 20       		.sleb128 32
 18843 18f0 36       		.byte	0x36
 18844 18f1 25       		.byte	0x25
 18845 18f2 9F       		.byte	0x9f
 18846 18f3 04010000 		.4byte	.LVL678
 18847 18f7 20010000 		.4byte	.LVL685
 18848 18fb 2B00     		.2byte	0x2b
 18849 18fd F3       		.byte	0xf3
 18850 18fe 01       		.uleb128 0x1
 18851 18ff 50       		.byte	0x50
 18852 1900 23       		.byte	0x23
 18853 1901 D402     		.uleb128 0x154
 18854 1903 94       		.byte	0x94
 18855 1904 02       		.byte	0x2
 18856 1905 0A       		.byte	0xa
 18857 1906 FFFF     		.2byte	0xffff
 18858 1908 1A       		.byte	0x1a
 18859 1909 F3       		.byte	0xf3
 18860 190a 01       		.uleb128 0x1
 18861 190b 50       		.byte	0x50
 18862 190c 23       		.byte	0x23
 18863 190d D802     		.uleb128 0x158
 18864 190f 06       		.byte	0x6
 18865 1910 1E       		.byte	0x1e
 18866 1911 23       		.byte	0x23
 18867 1912 8001     		.uleb128 0x80
ARM GAS  /var/folders/d2/nstgp4h54kz7g1l847x_b8wc0000gn/T//cc2apEbl.s 			page 332


 18868 1914 38       		.byte	0x38
 18869 1915 25       		.byte	0x25
 18870 1916 F3       		.byte	0xf3
 18871 1917 01       		.uleb128 0x1
 18872 1918 50       		.byte	0x50
 18873 1919 23       		.byte	0x23
 18874 191a D402     		.uleb128 0x154
 18875 191c 94       		.byte	0x94
 18876 191d 02       		.byte	0x2
 18877 191e 0A       		.byte	0xa
 18878 191f FFFF     		.2byte	0xffff
 18879 1921 1A       		.byte	0x1a
 18880 1922 1E       		.byte	0x1e
 18881 1923 23       		.byte	0x23
 18882 1924 20       		.uleb128 0x20
 18883 1925 36       		.byte	0x36
 18884 1926 25       		.byte	0x25
 18885 1927 9F       		.byte	0x9f
 18886 1928 34010000 		.4byte	.LVL687
 18887 192c 3A010000 		.4byte	.LVL688
 18888 1930 0500     		.2byte	0x5
 18889 1932 75       		.byte	0x75
 18890 1933 20       		.sleb128 32
 18891 1934 36       		.byte	0x36
 18892 1935 25       		.byte	0x25
 18893 1936 9F       		.byte	0x9f
 18894 1937 3A010000 		.4byte	.LVL688
 18895 193b 3E010000 		.4byte	.LVL689
 18896 193f 0100     		.2byte	0x1
 18897 1941 57       		.byte	0x57
 18898 1942 00000000 		.4byte	0
 18899 1946 00000000 		.4byte	0
 18900              	.LLST179:
 18901 194a 28000000 		.4byte	.LVL632
 18902 194e 2A000000 		.4byte	.LVL633
 18903 1952 0500     		.2byte	0x5
 18904 1954 71       		.byte	0x71
 18905 1955 00       		.sleb128 0
 18906 1956 3A       		.byte	0x3a
 18907 1957 24       		.byte	0x24
 18908 1958 9F       		.byte	0x9f
 18909 1959 2A000000 		.4byte	.LVL633
 18910 195d 2E000000 		.4byte	.LVL634
 18911 1961 0100     		.2byte	0x1
 18912 1963 51       		.byte	0x51
 18913 1964 2E000000 		.4byte	.LVL634
 18914 1968 40000000 		.4byte	.LVL639
 18915 196c 0600     		.2byte	0x6
 18916 196e F3       		.byte	0xf3
 18917 196f 01       		.uleb128 0x1
 18918 1970 51       		.byte	0x51
 18919 1971 3A       		.byte	0x3a
 18920 1972 24       		.byte	0x24
 18921 1973 9F       		.byte	0x9f
 18922 1974 00000000 		.4byte	0
 18923 1978 00000000 		.4byte	0
 18924              	.LLST180:
ARM GAS  /var/folders/d2/nstgp4h54kz7g1l847x_b8wc0000gn/T//cc2apEbl.s 			page 333


 18925 197c BA000000 		.4byte	.LVL663
 18926 1980 E0000000 		.4byte	.LVL671
 18927 1984 0100     		.2byte	0x1
 18928 1986 57       		.byte	0x57
 18929 1987 3A010000 		.4byte	.LVL688
 18930 198b 3E010000 		.4byte	.LVL689
 18931 198f 0100     		.2byte	0x1
 18932 1991 57       		.byte	0x57
 18933 1992 00000000 		.4byte	0
 18934 1996 00000000 		.4byte	0
 18935              	.LLST181:
 18936 199a F0000000 		.4byte	.LVL672
 18937 199e F6000000 		.4byte	.LVL673
 18938 19a2 0100     		.2byte	0x1
 18939 19a4 51       		.byte	0x51
 18940 19a5 00010000 		.4byte	.LVL676
 18941 19a9 1E010000 		.4byte	.LVL684
 18942 19ad 0100     		.2byte	0x1
 18943 19af 51       		.byte	0x51
 18944 19b0 34010000 		.4byte	.LVL687
 18945 19b4 3A010000 		.4byte	.LVL688
 18946 19b8 0100     		.2byte	0x1
 18947 19ba 51       		.byte	0x51
 18948 19bb 00000000 		.4byte	0
 18949 19bf 00000000 		.4byte	0
 18950              	.LLST134:
 18951 19c3 00000000 		.4byte	.LVL579
 18952 19c7 16000000 		.4byte	.LVL581
 18953 19cb 0100     		.2byte	0x1
 18954 19cd 50       		.byte	0x50
 18955 19ce 16000000 		.4byte	.LVL581
 18956 19d2 24000000 		.4byte	.LVL584
 18957 19d6 0100     		.2byte	0x1
 18958 19d8 56       		.byte	0x56
 18959 19d9 24000000 		.4byte	.LVL584
 18960 19dd 30000000 		.4byte	.LVL585
 18961 19e1 0400     		.2byte	0x4
 18962 19e3 F3       		.byte	0xf3
 18963 19e4 01       		.uleb128 0x1
 18964 19e5 50       		.byte	0x50
 18965 19e6 9F       		.byte	0x9f
 18966 19e7 30000000 		.4byte	.LVL585
 18967 19eb 96000000 		.4byte	.LVL599
 18968 19ef 0100     		.2byte	0x1
 18969 19f1 56       		.byte	0x56
 18970 19f2 96000000 		.4byte	.LVL599
 18971 19f6 9A000000 		.4byte	.LVL600
 18972 19fa 0400     		.2byte	0x4
 18973 19fc F3       		.byte	0xf3
 18974 19fd 01       		.uleb128 0x1
 18975 19fe 50       		.byte	0x50
 18976 19ff 9F       		.byte	0x9f
 18977 1a00 9A000000 		.4byte	.LVL600
 18978 1a04 C6000000 		.4byte	.LVL606
 18979 1a08 0100     		.2byte	0x1
 18980 1a0a 56       		.byte	0x56
 18981 1a0b C6000000 		.4byte	.LVL606
ARM GAS  /var/folders/d2/nstgp4h54kz7g1l847x_b8wc0000gn/T//cc2apEbl.s 			page 334


 18982 1a0f D0000000 		.4byte	.LFE22
 18983 1a13 0400     		.2byte	0x4
 18984 1a15 F3       		.byte	0xf3
 18985 1a16 01       		.uleb128 0x1
 18986 1a17 50       		.byte	0x50
 18987 1a18 9F       		.byte	0x9f
 18988 1a19 00000000 		.4byte	0
 18989 1a1d 00000000 		.4byte	0
 18990              	.LLST135:
 18991 1a21 00000000 		.4byte	.LVL579
 18992 1a25 16000000 		.4byte	.LVL581
 18993 1a29 0100     		.2byte	0x1
 18994 1a2b 51       		.byte	0x51
 18995 1a2c 16000000 		.4byte	.LVL581
 18996 1a30 24000000 		.4byte	.LVL584
 18997 1a34 0100     		.2byte	0x1
 18998 1a36 55       		.byte	0x55
 18999 1a37 24000000 		.4byte	.LVL584
 19000 1a3b 30000000 		.4byte	.LVL585
 19001 1a3f 0400     		.2byte	0x4
 19002 1a41 F3       		.byte	0xf3
 19003 1a42 01       		.uleb128 0x1
 19004 1a43 51       		.byte	0x51
 19005 1a44 9F       		.byte	0x9f
 19006 1a45 30000000 		.4byte	.LVL585
 19007 1a49 96000000 		.4byte	.LVL599
 19008 1a4d 0100     		.2byte	0x1
 19009 1a4f 55       		.byte	0x55
 19010 1a50 96000000 		.4byte	.LVL599
 19011 1a54 9A000000 		.4byte	.LVL600
 19012 1a58 0400     		.2byte	0x4
 19013 1a5a F3       		.byte	0xf3
 19014 1a5b 01       		.uleb128 0x1
 19015 1a5c 51       		.byte	0x51
 19016 1a5d 9F       		.byte	0x9f
 19017 1a5e 9A000000 		.4byte	.LVL600
 19018 1a62 C6000000 		.4byte	.LVL606
 19019 1a66 0100     		.2byte	0x1
 19020 1a68 55       		.byte	0x55
 19021 1a69 C6000000 		.4byte	.LVL606
 19022 1a6d D0000000 		.4byte	.LFE22
 19023 1a71 0400     		.2byte	0x4
 19024 1a73 F3       		.byte	0xf3
 19025 1a74 01       		.uleb128 0x1
 19026 1a75 51       		.byte	0x51
 19027 1a76 9F       		.byte	0x9f
 19028 1a77 00000000 		.4byte	0
 19029 1a7b 00000000 		.4byte	0
 19030              	.LLST136:
 19031 1a7f 0C000000 		.4byte	.LVL580
 19032 1a83 24000000 		.4byte	.LVL584
 19033 1a87 0200     		.2byte	0x2
 19034 1a89 30       		.byte	0x30
 19035 1a8a 9F       		.byte	0x9f
 19036 1a8b 30000000 		.4byte	.LVL585
 19037 1a8f 60000000 		.4byte	.LVL591
 19038 1a93 0200     		.2byte	0x2
ARM GAS  /var/folders/d2/nstgp4h54kz7g1l847x_b8wc0000gn/T//cc2apEbl.s 			page 335


 19039 1a95 30       		.byte	0x30
 19040 1a96 9F       		.byte	0x9f
 19041 1a97 60000000 		.4byte	.LVL591
 19042 1a9b 6C000000 		.4byte	.LVL592
 19043 1a9f 0100     		.2byte	0x1
 19044 1aa1 50       		.byte	0x50
 19045 1aa2 6C000000 		.4byte	.LVL592
 19046 1aa6 C6000000 		.4byte	.LVL606
 19047 1aaa 0200     		.2byte	0x2
 19048 1aac 30       		.byte	0x30
 19049 1aad 9F       		.byte	0x9f
 19050 1aae 00000000 		.4byte	0
 19051 1ab2 00000000 		.4byte	0
 19052              	.LLST137:
 19053 1ab6 42000000 		.4byte	.LVL589
 19054 1aba 4A000000 		.4byte	.LVL590
 19055 1abe 0200     		.2byte	0x2
 19056 1ac0 30       		.byte	0x30
 19057 1ac1 9F       		.byte	0x9f
 19058 1ac2 00000000 		.4byte	0
 19059 1ac6 00000000 		.4byte	0
 19060              	.LLST138:
 19061 1aca 0C000000 		.4byte	.LVL580
 19062 1ace 16000000 		.4byte	.LVL581
 19063 1ad2 0200     		.2byte	0x2
 19064 1ad4 30       		.byte	0x30
 19065 1ad5 9F       		.byte	0x9f
 19066 1ad6 16000000 		.4byte	.LVL581
 19067 1ada 18000000 		.4byte	.LVL582
 19068 1ade 0100     		.2byte	0x1
 19069 1ae0 54       		.byte	0x54
 19070 1ae1 18000000 		.4byte	.LVL582
 19071 1ae5 20000000 		.4byte	.LVL583
 19072 1ae9 0100     		.2byte	0x1
 19073 1aeb 52       		.byte	0x52
 19074 1aec 30000000 		.4byte	.LVL585
 19075 1af0 3E000000 		.4byte	.LVL587
 19076 1af4 0300     		.2byte	0x3
 19077 1af6 72       		.byte	0x72
 19078 1af7 01       		.sleb128 1
 19079 1af8 9F       		.byte	0x9f
 19080 1af9 3E000000 		.4byte	.LVL587
 19081 1afd 42000000 		.4byte	.LVL589
 19082 1b01 0100     		.2byte	0x1
 19083 1b03 52       		.byte	0x52
 19084 1b04 42000000 		.4byte	.LVL589
 19085 1b08 4A000000 		.4byte	.LVL590
 19086 1b0c 0100     		.2byte	0x1
 19087 1b0e 54       		.byte	0x54
 19088 1b0f 60000000 		.4byte	.LVL591
 19089 1b13 6C000000 		.4byte	.LVL592
 19090 1b17 0100     		.2byte	0x1
 19091 1b19 54       		.byte	0x54
 19092 1b1a 6C000000 		.4byte	.LVL592
 19093 1b1e 6E000000 		.4byte	.LVL593
 19094 1b22 0300     		.2byte	0x3
 19095 1b24 72       		.byte	0x72
ARM GAS  /var/folders/d2/nstgp4h54kz7g1l847x_b8wc0000gn/T//cc2apEbl.s 			page 336


 19096 1b25 01       		.sleb128 1
 19097 1b26 9F       		.byte	0x9f
 19098 1b27 6E000000 		.4byte	.LVL593
 19099 1b2b 7E000000 		.4byte	.LVL595
 19100 1b2f 0300     		.2byte	0x3
 19101 1b31 72       		.byte	0x72
 19102 1b32 03       		.sleb128 3
 19103 1b33 9F       		.byte	0x9f
 19104 1b34 82000000 		.4byte	.LVL596
 19105 1b38 84000000 		.4byte	.LVL597
 19106 1b3c 0300     		.2byte	0x3
 19107 1b3e 72       		.byte	0x72
 19108 1b3f 01       		.sleb128 1
 19109 1b40 9F       		.byte	0x9f
 19110 1b41 84000000 		.4byte	.LVL597
 19111 1b45 96000000 		.4byte	.LVL599
 19112 1b49 0300     		.2byte	0x3
 19113 1b4b 72       		.byte	0x72
 19114 1b4c 03       		.sleb128 3
 19115 1b4d 9F       		.byte	0x9f
 19116 1b4e 9A000000 		.4byte	.LVL600
 19117 1b52 9C000000 		.4byte	.LVL601
 19118 1b56 0300     		.2byte	0x3
 19119 1b58 72       		.byte	0x72
 19120 1b59 01       		.sleb128 1
 19121 1b5a 9F       		.byte	0x9f
 19122 1b5b 9C000000 		.4byte	.LVL601
 19123 1b5f B0000000 		.4byte	.LVL603
 19124 1b63 0300     		.2byte	0x3
 19125 1b65 72       		.byte	0x72
 19126 1b66 03       		.sleb128 3
 19127 1b67 9F       		.byte	0x9f
 19128 1b68 B0000000 		.4byte	.LVL603
 19129 1b6c B2000000 		.4byte	.LVL604
 19130 1b70 0300     		.2byte	0x3
 19131 1b72 72       		.byte	0x72
 19132 1b73 01       		.sleb128 1
 19133 1b74 9F       		.byte	0x9f
 19134 1b75 B2000000 		.4byte	.LVL604
 19135 1b79 C6000000 		.4byte	.LVL606
 19136 1b7d 0300     		.2byte	0x3
 19137 1b7f 72       		.byte	0x72
 19138 1b80 03       		.sleb128 3
 19139 1b81 9F       		.byte	0x9f
 19140 1b82 00000000 		.4byte	0
 19141 1b86 00000000 		.4byte	0
 19142              	.LLST139:
 19143 1b8a 6E000000 		.4byte	.LVL593
 19144 1b8e 7A000000 		.4byte	.LVL594
 19145 1b92 0200     		.2byte	0x2
 19146 1b94 73       		.byte	0x73
 19147 1b95 01       		.sleb128 1
 19148 1b96 7A000000 		.4byte	.LVL594
 19149 1b9a 7E000000 		.4byte	.LVL595
 19150 1b9e 0100     		.2byte	0x1
 19151 1ba0 50       		.byte	0x50
 19152 1ba1 84000000 		.4byte	.LVL597
ARM GAS  /var/folders/d2/nstgp4h54kz7g1l847x_b8wc0000gn/T//cc2apEbl.s 			page 337


 19153 1ba5 90000000 		.4byte	.LVL598
 19154 1ba9 0200     		.2byte	0x2
 19155 1bab 73       		.byte	0x73
 19156 1bac 01       		.sleb128 1
 19157 1bad 90000000 		.4byte	.LVL598
 19158 1bb1 96000000 		.4byte	.LVL599
 19159 1bb5 0100     		.2byte	0x1
 19160 1bb7 50       		.byte	0x50
 19161 1bb8 9C000000 		.4byte	.LVL601
 19162 1bbc A8000000 		.4byte	.LVL602
 19163 1bc0 0200     		.2byte	0x2
 19164 1bc2 73       		.byte	0x73
 19165 1bc3 01       		.sleb128 1
 19166 1bc4 A8000000 		.4byte	.LVL602
 19167 1bc8 B0000000 		.4byte	.LVL603
 19168 1bcc 0100     		.2byte	0x1
 19169 1bce 50       		.byte	0x50
 19170 1bcf B2000000 		.4byte	.LVL604
 19171 1bd3 BE000000 		.4byte	.LVL605
 19172 1bd7 0200     		.2byte	0x2
 19173 1bd9 73       		.byte	0x73
 19174 1bda 01       		.sleb128 1
 19175 1bdb BE000000 		.4byte	.LVL605
 19176 1bdf C6000000 		.4byte	.LVL606
 19177 1be3 0100     		.2byte	0x1
 19178 1be5 50       		.byte	0x50
 19179 1be6 00000000 		.4byte	0
 19180 1bea 00000000 		.4byte	0
 19181              	.LLST140:
 19182 1bee 6E000000 		.4byte	.LVL593
 19183 1bf2 7A000000 		.4byte	.LVL594
 19184 1bf6 0200     		.2byte	0x2
 19185 1bf8 73       		.byte	0x73
 19186 1bf9 02       		.sleb128 2
 19187 1bfa 84000000 		.4byte	.LVL597
 19188 1bfe 90000000 		.4byte	.LVL598
 19189 1c02 0200     		.2byte	0x2
 19190 1c04 73       		.byte	0x73
 19191 1c05 02       		.sleb128 2
 19192 1c06 9C000000 		.4byte	.LVL601
 19193 1c0a A8000000 		.4byte	.LVL602
 19194 1c0e 0200     		.2byte	0x2
 19195 1c10 73       		.byte	0x73
 19196 1c11 02       		.sleb128 2
 19197 1c12 B2000000 		.4byte	.LVL604
 19198 1c16 BE000000 		.4byte	.LVL605
 19199 1c1a 0200     		.2byte	0x2
 19200 1c1c 73       		.byte	0x73
 19201 1c1d 02       		.sleb128 2
 19202 1c1e 00000000 		.4byte	0
 19203 1c22 00000000 		.4byte	0
 19204              	.LLST141:
 19205 1c26 30000000 		.4byte	.LVL585
 19206 1c2a 3E000000 		.4byte	.LVL587
 19207 1c2e 0500     		.2byte	0x5
 19208 1c30 75       		.byte	0x75
 19209 1c31 00       		.sleb128 0
ARM GAS  /var/folders/d2/nstgp4h54kz7g1l847x_b8wc0000gn/T//cc2apEbl.s 			page 338


 19210 1c32 72       		.byte	0x72
 19211 1c33 00       		.sleb128 0
 19212 1c34 22       		.byte	0x22
 19213 1c35 6C000000 		.4byte	.LVL592
 19214 1c39 7A000000 		.4byte	.LVL594
 19215 1c3d 0500     		.2byte	0x5
 19216 1c3f 75       		.byte	0x75
 19217 1c40 00       		.sleb128 0
 19218 1c41 72       		.byte	0x72
 19219 1c42 00       		.sleb128 0
 19220 1c43 22       		.byte	0x22
 19221 1c44 82000000 		.4byte	.LVL596
 19222 1c48 90000000 		.4byte	.LVL598
 19223 1c4c 0500     		.2byte	0x5
 19224 1c4e 75       		.byte	0x75
 19225 1c4f 00       		.sleb128 0
 19226 1c50 72       		.byte	0x72
 19227 1c51 00       		.sleb128 0
 19228 1c52 22       		.byte	0x22
 19229 1c53 9A000000 		.4byte	.LVL600
 19230 1c57 A8000000 		.4byte	.LVL602
 19231 1c5b 0500     		.2byte	0x5
 19232 1c5d 75       		.byte	0x75
 19233 1c5e 00       		.sleb128 0
 19234 1c5f 72       		.byte	0x72
 19235 1c60 00       		.sleb128 0
 19236 1c61 22       		.byte	0x22
 19237 1c62 B0000000 		.4byte	.LVL603
 19238 1c66 BE000000 		.4byte	.LVL605
 19239 1c6a 0500     		.2byte	0x5
 19240 1c6c 75       		.byte	0x75
 19241 1c6d 00       		.sleb128 0
 19242 1c6e 72       		.byte	0x72
 19243 1c6f 00       		.sleb128 0
 19244 1c70 22       		.byte	0x22
 19245 1c71 00000000 		.4byte	0
 19246 1c75 00000000 		.4byte	0
 19247              	.LLST142:
 19248 1c79 18000000 		.4byte	.LVL582
 19249 1c7d 20000000 		.4byte	.LVL583
 19250 1c81 0100     		.2byte	0x1
 19251 1c83 53       		.byte	0x53
 19252 1c84 30000000 		.4byte	.LVL585
 19253 1c88 32000000 		.4byte	.LVL586
 19254 1c8c 0100     		.2byte	0x1
 19255 1c8e 53       		.byte	0x53
 19256 1c8f 3E000000 		.4byte	.LVL587
 19257 1c93 5F000000 		.4byte	.LVL591-1
 19258 1c97 0100     		.2byte	0x1
 19259 1c99 53       		.byte	0x53
 19260 1c9a 00000000 		.4byte	0
 19261 1c9e 00000000 		.4byte	0
 19262              	.LLST143:
 19263 1ca2 40000000 		.4byte	.LVL588
 19264 1ca6 5F000000 		.4byte	.LVL591-1
 19265 1caa 0100     		.2byte	0x1
 19266 1cac 51       		.byte	0x51
ARM GAS  /var/folders/d2/nstgp4h54kz7g1l847x_b8wc0000gn/T//cc2apEbl.s 			page 339


 19267 1cad 00000000 		.4byte	0
 19268 1cb1 00000000 		.4byte	0
 19269              	.LLST144:
 19270 1cb5 6E000000 		.4byte	.LVL593
 19271 1cb9 7A000000 		.4byte	.LVL594
 19272 1cbd 1200     		.2byte	0x12
 19273 1cbf 73       		.byte	0x73
 19274 1cc0 01       		.sleb128 1
 19275 1cc1 94       		.byte	0x94
 19276 1cc2 01       		.byte	0x1
 19277 1cc3 08       		.byte	0x8
 19278 1cc4 FF       		.byte	0xff
 19279 1cc5 1A       		.byte	0x1a
 19280 1cc6 38       		.byte	0x38
 19281 1cc7 24       		.byte	0x24
 19282 1cc8 73       		.byte	0x73
 19283 1cc9 02       		.sleb128 2
 19284 1cca 94       		.byte	0x94
 19285 1ccb 01       		.byte	0x1
 19286 1ccc 08       		.byte	0x8
 19287 1ccd FF       		.byte	0xff
 19288 1cce 1A       		.byte	0x1a
 19289 1ccf 22       		.byte	0x22
 19290 1cd0 9F       		.byte	0x9f
 19291 1cd1 84000000 		.4byte	.LVL597
 19292 1cd5 90000000 		.4byte	.LVL598
 19293 1cd9 1200     		.2byte	0x12
 19294 1cdb 73       		.byte	0x73
 19295 1cdc 01       		.sleb128 1
 19296 1cdd 94       		.byte	0x94
 19297 1cde 01       		.byte	0x1
 19298 1cdf 08       		.byte	0x8
 19299 1ce0 FF       		.byte	0xff
 19300 1ce1 1A       		.byte	0x1a
 19301 1ce2 38       		.byte	0x38
 19302 1ce3 24       		.byte	0x24
 19303 1ce4 73       		.byte	0x73
 19304 1ce5 02       		.sleb128 2
 19305 1ce6 94       		.byte	0x94
 19306 1ce7 01       		.byte	0x1
 19307 1ce8 08       		.byte	0x8
 19308 1ce9 FF       		.byte	0xff
 19309 1cea 1A       		.byte	0x1a
 19310 1ceb 22       		.byte	0x22
 19311 1cec 9F       		.byte	0x9f
 19312 1ced 9C000000 		.4byte	.LVL601
 19313 1cf1 A8000000 		.4byte	.LVL602
 19314 1cf5 1200     		.2byte	0x12
 19315 1cf7 73       		.byte	0x73
 19316 1cf8 01       		.sleb128 1
 19317 1cf9 94       		.byte	0x94
 19318 1cfa 01       		.byte	0x1
 19319 1cfb 08       		.byte	0x8
 19320 1cfc FF       		.byte	0xff
 19321 1cfd 1A       		.byte	0x1a
 19322 1cfe 38       		.byte	0x38
 19323 1cff 24       		.byte	0x24
ARM GAS  /var/folders/d2/nstgp4h54kz7g1l847x_b8wc0000gn/T//cc2apEbl.s 			page 340


 19324 1d00 73       		.byte	0x73
 19325 1d01 02       		.sleb128 2
 19326 1d02 94       		.byte	0x94
 19327 1d03 01       		.byte	0x1
 19328 1d04 08       		.byte	0x8
 19329 1d05 FF       		.byte	0xff
 19330 1d06 1A       		.byte	0x1a
 19331 1d07 22       		.byte	0x22
 19332 1d08 9F       		.byte	0x9f
 19333 1d09 B2000000 		.4byte	.LVL604
 19334 1d0d BE000000 		.4byte	.LVL605
 19335 1d11 1200     		.2byte	0x12
 19336 1d13 73       		.byte	0x73
 19337 1d14 01       		.sleb128 1
 19338 1d15 94       		.byte	0x94
 19339 1d16 01       		.byte	0x1
 19340 1d17 08       		.byte	0x8
 19341 1d18 FF       		.byte	0xff
 19342 1d19 1A       		.byte	0x1a
 19343 1d1a 38       		.byte	0x38
 19344 1d1b 24       		.byte	0x24
 19345 1d1c 73       		.byte	0x73
 19346 1d1d 02       		.sleb128 2
 19347 1d1e 94       		.byte	0x94
 19348 1d1f 01       		.byte	0x1
 19349 1d20 08       		.byte	0x8
 19350 1d21 FF       		.byte	0xff
 19351 1d22 1A       		.byte	0x1a
 19352 1d23 22       		.byte	0x22
 19353 1d24 9F       		.byte	0x9f
 19354 1d25 00000000 		.4byte	0
 19355 1d29 00000000 		.4byte	0
 19356              	.LLST131:
 19357 1d2d 00000000 		.4byte	.LVL563
 19358 1d31 23000000 		.4byte	.LVL566-1
 19359 1d35 0100     		.2byte	0x1
 19360 1d37 50       		.byte	0x50
 19361 1d38 23000000 		.4byte	.LVL566-1
 19362 1d3c E4000000 		.4byte	.LFE21
 19363 1d40 0100     		.2byte	0x1
 19364 1d42 57       		.byte	0x57
 19365 1d43 00000000 		.4byte	0
 19366 1d47 00000000 		.4byte	0
 19367              	.LLST132:
 19368 1d4b 00000000 		.4byte	.LVL563
 19369 1d4f 0E000000 		.4byte	.LVL564
 19370 1d53 0100     		.2byte	0x1
 19371 1d55 51       		.byte	0x51
 19372 1d56 0E000000 		.4byte	.LVL564
 19373 1d5a E4000000 		.4byte	.LFE21
 19374 1d5e 0100     		.2byte	0x1
 19375 1d60 55       		.byte	0x55
 19376 1d61 00000000 		.4byte	0
 19377 1d65 00000000 		.4byte	0
 19378              	.LLST133:
 19379 1d69 10000000 		.4byte	.LVL565
 19380 1d6d 24000000 		.4byte	.LVL566
ARM GAS  /var/folders/d2/nstgp4h54kz7g1l847x_b8wc0000gn/T//cc2apEbl.s 			page 341


 19381 1d71 0200     		.2byte	0x2
 19382 1d73 30       		.byte	0x30
 19383 1d74 9F       		.byte	0x9f
 19384 1d75 24000000 		.4byte	.LVL566
 19385 1d79 3A000000 		.4byte	.LVL567
 19386 1d7d 0100     		.2byte	0x1
 19387 1d7f 50       		.byte	0x50
 19388 1d80 4A000000 		.4byte	.LVL568
 19389 1d84 5A000000 		.4byte	.LVL569
 19390 1d88 0100     		.2byte	0x1
 19391 1d8a 50       		.byte	0x50
 19392 1d8b 72000000 		.4byte	.LVL570
 19393 1d8f 78000000 		.4byte	.LVL571
 19394 1d93 0100     		.2byte	0x1
 19395 1d95 50       		.byte	0x50
 19396 1d96 7C000000 		.4byte	.LVL572
 19397 1d9a AA000000 		.4byte	.LVL573
 19398 1d9e 0100     		.2byte	0x1
 19399 1da0 50       		.byte	0x50
 19400 1da1 AA000000 		.4byte	.LVL573
 19401 1da5 AC000000 		.4byte	.LVL574
 19402 1da9 0200     		.2byte	0x2
 19403 1dab 30       		.byte	0x30
 19404 1dac 9F       		.byte	0x9f
 19405 1dad B6000000 		.4byte	.LVL575
 19406 1db1 D8000000 		.4byte	.LVL576
 19407 1db5 0100     		.2byte	0x1
 19408 1db7 50       		.byte	0x50
 19409 1db8 D8000000 		.4byte	.LVL576
 19410 1dbc DA000000 		.4byte	.LVL577
 19411 1dc0 0200     		.2byte	0x2
 19412 1dc2 30       		.byte	0x30
 19413 1dc3 9F       		.byte	0x9f
 19414 1dc4 00000000 		.4byte	0
 19415 1dc8 00000000 		.4byte	0
 19416              	.LLST123:
 19417 1dcc 00000000 		.4byte	.LVL530
 19418 1dd0 27000000 		.4byte	.LVL535-1
 19419 1dd4 0100     		.2byte	0x1
 19420 1dd6 50       		.byte	0x50
 19421 1dd7 27000000 		.4byte	.LVL535-1
 19422 1ddb 5E000000 		.4byte	.LVL542
 19423 1ddf 0100     		.2byte	0x1
 19424 1de1 57       		.byte	0x57
 19425 1de2 5E000000 		.4byte	.LVL542
 19426 1de6 6E000000 		.4byte	.LVL543
 19427 1dea 0400     		.2byte	0x4
 19428 1dec F3       		.byte	0xf3
 19429 1ded 01       		.uleb128 0x1
 19430 1dee 50       		.byte	0x50
 19431 1def 9F       		.byte	0x9f
 19432 1df0 6E000000 		.4byte	.LVL543
 19433 1df4 D8000000 		.4byte	.LVL558
 19434 1df8 0100     		.2byte	0x1
 19435 1dfa 57       		.byte	0x57
 19436 1dfb D8000000 		.4byte	.LVL558
 19437 1dff DE000000 		.4byte	.LVL559
ARM GAS  /var/folders/d2/nstgp4h54kz7g1l847x_b8wc0000gn/T//cc2apEbl.s 			page 342


 19438 1e03 0400     		.2byte	0x4
 19439 1e05 F3       		.byte	0xf3
 19440 1e06 01       		.uleb128 0x1
 19441 1e07 50       		.byte	0x50
 19442 1e08 9F       		.byte	0x9f
 19443 1e09 DE000000 		.4byte	.LVL559
 19444 1e0d E4000000 		.4byte	.LVL561
 19445 1e11 0100     		.2byte	0x1
 19446 1e13 57       		.byte	0x57
 19447 1e14 E4000000 		.4byte	.LVL561
 19448 1e18 EC000000 		.4byte	.LFE20
 19449 1e1c 0400     		.2byte	0x4
 19450 1e1e F3       		.byte	0xf3
 19451 1e1f 01       		.uleb128 0x1
 19452 1e20 50       		.byte	0x50
 19453 1e21 9F       		.byte	0x9f
 19454 1e22 00000000 		.4byte	0
 19455 1e26 00000000 		.4byte	0
 19456              	.LLST124:
 19457 1e2a 00000000 		.4byte	.LVL530
 19458 1e2e 16000000 		.4byte	.LVL532
 19459 1e32 0100     		.2byte	0x1
 19460 1e34 51       		.byte	0x51
 19461 1e35 16000000 		.4byte	.LVL532
 19462 1e39 EC000000 		.4byte	.LFE20
 19463 1e3d 0100     		.2byte	0x1
 19464 1e3f 56       		.byte	0x56
 19465 1e40 00000000 		.4byte	0
 19466 1e44 00000000 		.4byte	0
 19467              	.LLST125:
 19468 1e48 0C000000 		.4byte	.LVL531
 19469 1e4c 28000000 		.4byte	.LVL535
 19470 1e50 0200     		.2byte	0x2
 19471 1e52 30       		.byte	0x30
 19472 1e53 9F       		.byte	0x9f
 19473 1e54 28000000 		.4byte	.LVL535
 19474 1e58 42000000 		.4byte	.LVL537
 19475 1e5c 0100     		.2byte	0x1
 19476 1e5e 50       		.byte	0x50
 19477 1e5f 6E000000 		.4byte	.LVL543
 19478 1e63 74000000 		.4byte	.LVL544
 19479 1e67 0100     		.2byte	0x1
 19480 1e69 50       		.byte	0x50
 19481 1e6a 78000000 		.4byte	.LVL545
 19482 1e6e 8E000000 		.4byte	.LVL547
 19483 1e72 0100     		.2byte	0x1
 19484 1e74 50       		.byte	0x50
 19485 1e75 8E000000 		.4byte	.LVL547
 19486 1e79 B2000000 		.4byte	.LVL551
 19487 1e7d 0200     		.2byte	0x2
 19488 1e7f 30       		.byte	0x30
 19489 1e80 9F       		.byte	0x9f
 19490 1e81 BC000000 		.4byte	.LVL552
 19491 1e85 CC000000 		.4byte	.LVL556
 19492 1e89 0100     		.2byte	0x1
 19493 1e8b 50       		.byte	0x50
 19494 1e8c CC000000 		.4byte	.LVL556
ARM GAS  /var/folders/d2/nstgp4h54kz7g1l847x_b8wc0000gn/T//cc2apEbl.s 			page 343


 19495 1e90 D8000000 		.4byte	.LVL558
 19496 1e94 0200     		.2byte	0x2
 19497 1e96 30       		.byte	0x30
 19498 1e97 9F       		.byte	0x9f
 19499 1e98 DE000000 		.4byte	.LVL559
 19500 1e9c E4000000 		.4byte	.LVL561
 19501 1ea0 0100     		.2byte	0x1
 19502 1ea2 50       		.byte	0x50
 19503 1ea3 00000000 		.4byte	0
 19504 1ea7 00000000 		.4byte	0
 19505              	.LLST126:
 19506 1eab 20000000 		.4byte	.LVL534
 19507 1eaf 34000000 		.4byte	.LVL536
 19508 1eb3 0400     		.2byte	0x4
 19509 1eb5 76       		.byte	0x76
 19510 1eb6 CA69     		.sleb128 -2870
 19511 1eb8 9F       		.byte	0x9f
 19512 1eb9 34000000 		.4byte	.LVL536
 19513 1ebd 48000000 		.4byte	.LVL538
 19514 1ec1 0100     		.2byte	0x1
 19515 1ec3 58       		.byte	0x58
 19516 1ec4 4E000000 		.4byte	.LVL539
 19517 1ec8 52000000 		.4byte	.LVL540
 19518 1ecc 0400     		.2byte	0x4
 19519 1ece 78       		.byte	0x78
 19520 1ecf DA7B     		.sleb128 -550
 19521 1ed1 9F       		.byte	0x9f
 19522 1ed2 52000000 		.4byte	.LVL540
 19523 1ed6 59000000 		.4byte	.LVL541-1
 19524 1eda 0100     		.2byte	0x1
 19525 1edc 52       		.byte	0x52
 19526 1edd 59000000 		.4byte	.LVL541-1
 19527 1ee1 5E000000 		.4byte	.LVL542
 19528 1ee5 0400     		.2byte	0x4
 19529 1ee7 78       		.byte	0x78
 19530 1ee8 DA7B     		.sleb128 -550
 19531 1eea 9F       		.byte	0x9f
 19532 1eeb 6E000000 		.4byte	.LVL543
 19533 1eef C6000000 		.4byte	.LVL554
 19534 1ef3 0100     		.2byte	0x1
 19535 1ef5 58       		.byte	0x58
 19536 1ef6 C6000000 		.4byte	.LVL554
 19537 1efa C8000000 		.4byte	.LVL555
 19538 1efe 0600     		.2byte	0x6
 19539 1f00 78       		.byte	0x78
 19540 1f01 00       		.sleb128 0
 19541 1f02 73       		.byte	0x73
 19542 1f03 00       		.sleb128 0
 19543 1f04 1C       		.byte	0x1c
 19544 1f05 9F       		.byte	0x9f
 19545 1f06 CC000000 		.4byte	.LVL556
 19546 1f0a D8000000 		.4byte	.LVL558
 19547 1f0e 0100     		.2byte	0x1
 19548 1f10 58       		.byte	0x58
 19549 1f11 DE000000 		.4byte	.LVL559
 19550 1f15 E2000000 		.4byte	.LVL560
 19551 1f19 0600     		.2byte	0x6
ARM GAS  /var/folders/d2/nstgp4h54kz7g1l847x_b8wc0000gn/T//cc2apEbl.s 			page 344


 19552 1f1b 78       		.byte	0x78
 19553 1f1c 00       		.sleb128 0
 19554 1f1d 73       		.byte	0x73
 19555 1f1e 00       		.sleb128 0
 19556 1f1f 1C       		.byte	0x1c
 19557 1f20 9F       		.byte	0x9f
 19558 1f21 00000000 		.4byte	0
 19559 1f25 00000000 		.4byte	0
 19560              	.LLST127:
 19561 1f29 1E000000 		.4byte	.LVL533
 19562 1f2d 42000000 		.4byte	.LVL537
 19563 1f31 0200     		.2byte	0x2
 19564 1f33 30       		.byte	0x30
 19565 1f34 9F       		.byte	0x9f
 19566 1f35 6E000000 		.4byte	.LVL543
 19567 1f39 86000000 		.4byte	.LVL546
 19568 1f3d 0200     		.2byte	0x2
 19569 1f3f 30       		.byte	0x30
 19570 1f40 9F       		.byte	0x9f
 19571 1f41 86000000 		.4byte	.LVL546
 19572 1f45 8E000000 		.4byte	.LVL547
 19573 1f49 0100     		.2byte	0x1
 19574 1f4b 53       		.byte	0x53
 19575 1f4c A2000000 		.4byte	.LVL548
 19576 1f50 AE000000 		.4byte	.LVL550
 19577 1f54 0100     		.2byte	0x1
 19578 1f56 53       		.byte	0x53
 19579 1f57 C2000000 		.4byte	.LVL553
 19580 1f5b C8000000 		.4byte	.LVL555
 19581 1f5f 0100     		.2byte	0x1
 19582 1f61 53       		.byte	0x53
 19583 1f62 D4000000 		.4byte	.LVL557
 19584 1f66 D8000000 		.4byte	.LVL558
 19585 1f6a 0100     		.2byte	0x1
 19586 1f6c 53       		.byte	0x53
 19587 1f6d DE000000 		.4byte	.LVL559
 19588 1f71 E4000000 		.4byte	.LVL561
 19589 1f75 0100     		.2byte	0x1
 19590 1f77 53       		.byte	0x53
 19591 1f78 00000000 		.4byte	0
 19592 1f7c 00000000 		.4byte	0
 19593              	.LLST128:
 19594 1f80 4E000000 		.4byte	.LVL539
 19595 1f84 52000000 		.4byte	.LVL540
 19596 1f88 0400     		.2byte	0x4
 19597 1f8a 78       		.byte	0x78
 19598 1f8b DA7B     		.sleb128 -550
 19599 1f8d 9F       		.byte	0x9f
 19600 1f8e 52000000 		.4byte	.LVL540
 19601 1f92 59000000 		.4byte	.LVL541-1
 19602 1f96 0100     		.2byte	0x1
 19603 1f98 52       		.byte	0x52
 19604 1f99 59000000 		.4byte	.LVL541-1
 19605 1f9d 5E000000 		.4byte	.LVL542
 19606 1fa1 0400     		.2byte	0x4
 19607 1fa3 78       		.byte	0x78
 19608 1fa4 DA7B     		.sleb128 -550
ARM GAS  /var/folders/d2/nstgp4h54kz7g1l847x_b8wc0000gn/T//cc2apEbl.s 			page 345


 19609 1fa6 9F       		.byte	0x9f
 19610 1fa7 00000000 		.4byte	0
 19611 1fab 00000000 		.4byte	0
 19612              	.LLST129:
 19613 1faf 4E000000 		.4byte	.LVL539
 19614 1fb3 5E000000 		.4byte	.LVL542
 19615 1fb7 0200     		.2byte	0x2
 19616 1fb9 34       		.byte	0x34
 19617 1fba 9F       		.byte	0x9f
 19618 1fbb 00000000 		.4byte	0
 19619 1fbf 00000000 		.4byte	0
 19620              	.LLST130:
 19621 1fc3 4E000000 		.4byte	.LVL539
 19622 1fc7 5E000000 		.4byte	.LVL542
 19623 1fcb 0100     		.2byte	0x1
 19624 1fcd 57       		.byte	0x57
 19625 1fce 00000000 		.4byte	0
 19626 1fd2 00000000 		.4byte	0
 19627              	.LLST119:
 19628 1fd6 00000000 		.4byte	.LVL517
 19629 1fda 16000000 		.4byte	.LVL519
 19630 1fde 0100     		.2byte	0x1
 19631 1fe0 50       		.byte	0x50
 19632 1fe1 16000000 		.4byte	.LVL519
 19633 1fe5 22000000 		.4byte	.LVL520
 19634 1fe9 0400     		.2byte	0x4
 19635 1feb F3       		.byte	0xf3
 19636 1fec 01       		.uleb128 0x1
 19637 1fed 50       		.byte	0x50
 19638 1fee 9F       		.byte	0x9f
 19639 1fef 22000000 		.4byte	.LVL520
 19640 1ff3 2B000000 		.4byte	.LVL523-1
 19641 1ff7 0100     		.2byte	0x1
 19642 1ff9 50       		.byte	0x50
 19643 1ffa 2B000000 		.4byte	.LVL523-1
 19644 1ffe 3C000000 		.4byte	.LVL524
 19645 2002 0400     		.2byte	0x4
 19646 2004 F3       		.byte	0xf3
 19647 2005 01       		.uleb128 0x1
 19648 2006 50       		.byte	0x50
 19649 2007 9F       		.byte	0x9f
 19650 2008 3C000000 		.4byte	.LVL524
 19651 200c 45000000 		.4byte	.LVL527-1
 19652 2010 0100     		.2byte	0x1
 19653 2012 50       		.byte	0x50
 19654 2013 45000000 		.4byte	.LVL527-1
 19655 2017 50000000 		.4byte	.LFE19
 19656 201b 0400     		.2byte	0x4
 19657 201d F3       		.byte	0xf3
 19658 201e 01       		.uleb128 0x1
 19659 201f 50       		.byte	0x50
 19660 2020 9F       		.byte	0x9f
 19661 2021 00000000 		.4byte	0
 19662 2025 00000000 		.4byte	0
 19663              	.LLST120:
 19664 2029 00000000 		.4byte	.LVL517
 19665 202d 16000000 		.4byte	.LVL519
ARM GAS  /var/folders/d2/nstgp4h54kz7g1l847x_b8wc0000gn/T//cc2apEbl.s 			page 346


 19666 2031 0100     		.2byte	0x1
 19667 2033 51       		.byte	0x51
 19668 2034 16000000 		.4byte	.LVL519
 19669 2038 22000000 		.4byte	.LVL520
 19670 203c 0400     		.2byte	0x4
 19671 203e F3       		.byte	0xf3
 19672 203f 01       		.uleb128 0x1
 19673 2040 51       		.byte	0x51
 19674 2041 9F       		.byte	0x9f
 19675 2042 22000000 		.4byte	.LVL520
 19676 2046 28000000 		.4byte	.LVL522
 19677 204a 0100     		.2byte	0x1
 19678 204c 51       		.byte	0x51
 19679 204d 28000000 		.4byte	.LVL522
 19680 2051 3C000000 		.4byte	.LVL524
 19681 2055 0400     		.2byte	0x4
 19682 2057 F3       		.byte	0xf3
 19683 2058 01       		.uleb128 0x1
 19684 2059 51       		.byte	0x51
 19685 205a 9F       		.byte	0x9f
 19686 205b 3C000000 		.4byte	.LVL524
 19687 205f 42000000 		.4byte	.LVL526
 19688 2063 0100     		.2byte	0x1
 19689 2065 51       		.byte	0x51
 19690 2066 42000000 		.4byte	.LVL526
 19691 206a 50000000 		.4byte	.LFE19
 19692 206e 0400     		.2byte	0x4
 19693 2070 F3       		.byte	0xf3
 19694 2071 01       		.uleb128 0x1
 19695 2072 51       		.byte	0x51
 19696 2073 9F       		.byte	0x9f
 19697 2074 00000000 		.4byte	0
 19698 2078 00000000 		.4byte	0
 19699              	.LLST121:
 19700 207c 00000000 		.4byte	.LVL517
 19701 2080 16000000 		.4byte	.LVL519
 19702 2084 0100     		.2byte	0x1
 19703 2086 52       		.byte	0x52
 19704 2087 16000000 		.4byte	.LVL519
 19705 208b 22000000 		.4byte	.LVL520
 19706 208f 0100     		.2byte	0x1
 19707 2091 55       		.byte	0x55
 19708 2092 22000000 		.4byte	.LVL520
 19709 2096 26000000 		.4byte	.LVL521
 19710 209a 0100     		.2byte	0x1
 19711 209c 52       		.byte	0x52
 19712 209d 26000000 		.4byte	.LVL521
 19713 20a1 3C000000 		.4byte	.LVL524
 19714 20a5 0100     		.2byte	0x1
 19715 20a7 55       		.byte	0x55
 19716 20a8 3C000000 		.4byte	.LVL524
 19717 20ac 40000000 		.4byte	.LVL525
 19718 20b0 0100     		.2byte	0x1
 19719 20b2 52       		.byte	0x52
 19720 20b3 40000000 		.4byte	.LVL525
 19721 20b7 50000000 		.4byte	.LFE19
 19722 20bb 0100     		.2byte	0x1
ARM GAS  /var/folders/d2/nstgp4h54kz7g1l847x_b8wc0000gn/T//cc2apEbl.s 			page 347


 19723 20bd 55       		.byte	0x55
 19724 20be 00000000 		.4byte	0
 19725 20c2 00000000 		.4byte	0
 19726              	.LLST122:
 19727 20c6 0A000000 		.4byte	.LVL518
 19728 20ca 16000000 		.4byte	.LVL519
 19729 20ce 0200     		.2byte	0x2
 19730 20d0 30       		.byte	0x30
 19731 20d1 9F       		.byte	0x9f
 19732 20d2 22000000 		.4byte	.LVL520
 19733 20d6 2C000000 		.4byte	.LVL523
 19734 20da 0200     		.2byte	0x2
 19735 20dc 30       		.byte	0x30
 19736 20dd 9F       		.byte	0x9f
 19737 20de 2C000000 		.4byte	.LVL523
 19738 20e2 3C000000 		.4byte	.LVL524
 19739 20e6 0100     		.2byte	0x1
 19740 20e8 50       		.byte	0x50
 19741 20e9 3C000000 		.4byte	.LVL524
 19742 20ed 46000000 		.4byte	.LVL527
 19743 20f1 0200     		.2byte	0x2
 19744 20f3 30       		.byte	0x30
 19745 20f4 9F       		.byte	0x9f
 19746 20f5 46000000 		.4byte	.LVL527
 19747 20f9 48000000 		.4byte	.LVL528
 19748 20fd 0100     		.2byte	0x1
 19749 20ff 50       		.byte	0x50
 19750 2100 00000000 		.4byte	0
 19751 2104 00000000 		.4byte	0
 19752              	.LLST107:
 19753 2108 00000000 		.4byte	.LVL434
 19754 210c 36000000 		.4byte	.LVL437
 19755 2110 0100     		.2byte	0x1
 19756 2112 50       		.byte	0x50
 19757 2113 36000000 		.4byte	.LVL437
 19758 2117 68000000 		.4byte	.LVL444
 19759 211b 0100     		.2byte	0x1
 19760 211d 55       		.byte	0x55
 19761 211e 68000000 		.4byte	.LVL444
 19762 2122 78000000 		.4byte	.LVL445
 19763 2126 0400     		.2byte	0x4
 19764 2128 F3       		.byte	0xf3
 19765 2129 01       		.uleb128 0x1
 19766 212a 50       		.byte	0x50
 19767 212b 9F       		.byte	0x9f
 19768 212c 78000000 		.4byte	.LVL445
 19769 2130 9A000000 		.4byte	.LVL446
 19770 2134 0100     		.2byte	0x1
 19771 2136 50       		.byte	0x50
 19772 2137 9A000000 		.4byte	.LVL446
 19773 213b B2000000 		.4byte	.LVL450
 19774 213f 0100     		.2byte	0x1
 19775 2141 55       		.byte	0x55
 19776 2142 B2000000 		.4byte	.LVL450
 19777 2146 B6000000 		.4byte	.LVL451
 19778 214a 0100     		.2byte	0x1
 19779 214c 50       		.byte	0x50
ARM GAS  /var/folders/d2/nstgp4h54kz7g1l847x_b8wc0000gn/T//cc2apEbl.s 			page 348


 19780 214d B6000000 		.4byte	.LVL451
 19781 2151 B8000000 		.4byte	.LVL452
 19782 2155 0400     		.2byte	0x4
 19783 2157 F3       		.byte	0xf3
 19784 2158 01       		.uleb128 0x1
 19785 2159 50       		.byte	0x50
 19786 215a 9F       		.byte	0x9f
 19787 215b B8000000 		.4byte	.LVL452
 19788 215f BF000000 		.4byte	.LVL454-1
 19789 2163 0100     		.2byte	0x1
 19790 2165 50       		.byte	0x50
 19791 2166 BF000000 		.4byte	.LVL454-1
 19792 216a D0000000 		.4byte	.LVL456
 19793 216e 0100     		.2byte	0x1
 19794 2170 55       		.byte	0x55
 19795 2171 D0000000 		.4byte	.LVL456
 19796 2175 D8000000 		.4byte	.LVL457
 19797 2179 0100     		.2byte	0x1
 19798 217b 50       		.byte	0x50
 19799 217c D8000000 		.4byte	.LVL457
 19800 2180 28010000 		.4byte	.LVL472
 19801 2184 0100     		.2byte	0x1
 19802 2186 55       		.byte	0x55
 19803 2187 28010000 		.4byte	.LVL472
 19804 218b 35010000 		.4byte	.LVL474-1
 19805 218f 0100     		.2byte	0x1
 19806 2191 50       		.byte	0x50
 19807 2192 35010000 		.4byte	.LVL474-1
 19808 2196 92010000 		.4byte	.LVL491
 19809 219a 0100     		.2byte	0x1
 19810 219c 55       		.byte	0x55
 19811 219d 92010000 		.4byte	.LVL491
 19812 21a1 9B010000 		.4byte	.LVL493-1
 19813 21a5 0100     		.2byte	0x1
 19814 21a7 50       		.byte	0x50
 19815 21a8 9B010000 		.4byte	.LVL493-1
 19816 21ac D4010000 		.4byte	.LVL503
 19817 21b0 0100     		.2byte	0x1
 19818 21b2 55       		.byte	0x55
 19819 21b3 D4010000 		.4byte	.LVL503
 19820 21b7 DD010000 		.4byte	.LVL505-1
 19821 21bb 0100     		.2byte	0x1
 19822 21bd 50       		.byte	0x50
 19823 21be DD010000 		.4byte	.LVL505-1
 19824 21c2 F8010000 		.4byte	.LVL509
 19825 21c6 0100     		.2byte	0x1
 19826 21c8 55       		.byte	0x55
 19827 21c9 F8010000 		.4byte	.LVL509
 19828 21cd 01020000 		.4byte	.LVL511-1
 19829 21d1 0100     		.2byte	0x1
 19830 21d3 50       		.byte	0x50
 19831 21d4 01020000 		.4byte	.LVL511-1
 19832 21d8 1C020000 		.4byte	.LVL515
 19833 21dc 0100     		.2byte	0x1
 19834 21de 55       		.byte	0x55
 19835 21df 1C020000 		.4byte	.LVL515
 19836 21e3 24020000 		.4byte	.LFE18
ARM GAS  /var/folders/d2/nstgp4h54kz7g1l847x_b8wc0000gn/T//cc2apEbl.s 			page 349


 19837 21e7 0400     		.2byte	0x4
 19838 21e9 F3       		.byte	0xf3
 19839 21ea 01       		.uleb128 0x1
 19840 21eb 50       		.byte	0x50
 19841 21ec 9F       		.byte	0x9f
 19842 21ed 00000000 		.4byte	0
 19843 21f1 00000000 		.4byte	0
 19844              	.LLST108:
 19845 21f5 00000000 		.4byte	.LVL434
 19846 21f9 36000000 		.4byte	.LVL437
 19847 21fd 0100     		.2byte	0x1
 19848 21ff 51       		.byte	0x51
 19849 2200 36000000 		.4byte	.LVL437
 19850 2204 78000000 		.4byte	.LVL445
 19851 2208 0400     		.2byte	0x4
 19852 220a F3       		.byte	0xf3
 19853 220b 01       		.uleb128 0x1
 19854 220c 51       		.byte	0x51
 19855 220d 9F       		.byte	0x9f
 19856 220e 78000000 		.4byte	.LVL445
 19857 2212 9A000000 		.4byte	.LVL446
 19858 2216 0100     		.2byte	0x1
 19859 2218 51       		.byte	0x51
 19860 2219 9A000000 		.4byte	.LVL446
 19861 221d B2000000 		.4byte	.LVL450
 19862 2221 0400     		.2byte	0x4
 19863 2223 F3       		.byte	0xf3
 19864 2224 01       		.uleb128 0x1
 19865 2225 51       		.byte	0x51
 19866 2226 9F       		.byte	0x9f
 19867 2227 B2000000 		.4byte	.LVL450
 19868 222b BC000000 		.4byte	.LVL453
 19869 222f 0100     		.2byte	0x1
 19870 2231 51       		.byte	0x51
 19871 2232 BC000000 		.4byte	.LVL453
 19872 2236 D0000000 		.4byte	.LVL456
 19873 223a 0400     		.2byte	0x4
 19874 223c F3       		.byte	0xf3
 19875 223d 01       		.uleb128 0x1
 19876 223e 51       		.byte	0x51
 19877 223f 9F       		.byte	0x9f
 19878 2240 D0000000 		.4byte	.LVL456
 19879 2244 D8000000 		.4byte	.LVL457
 19880 2248 0100     		.2byte	0x1
 19881 224a 51       		.byte	0x51
 19882 224b D8000000 		.4byte	.LVL457
 19883 224f 28010000 		.4byte	.LVL472
 19884 2253 0400     		.2byte	0x4
 19885 2255 F3       		.byte	0xf3
 19886 2256 01       		.uleb128 0x1
 19887 2257 51       		.byte	0x51
 19888 2258 9F       		.byte	0x9f
 19889 2259 28010000 		.4byte	.LVL472
 19890 225d 32010000 		.4byte	.LVL473
 19891 2261 0100     		.2byte	0x1
 19892 2263 51       		.byte	0x51
 19893 2264 32010000 		.4byte	.LVL473
ARM GAS  /var/folders/d2/nstgp4h54kz7g1l847x_b8wc0000gn/T//cc2apEbl.s 			page 350


 19894 2268 92010000 		.4byte	.LVL491
 19895 226c 0400     		.2byte	0x4
 19896 226e F3       		.byte	0xf3
 19897 226f 01       		.uleb128 0x1
 19898 2270 51       		.byte	0x51
 19899 2271 9F       		.byte	0x9f
 19900 2272 92010000 		.4byte	.LVL491
 19901 2276 98010000 		.4byte	.LVL492
 19902 227a 0100     		.2byte	0x1
 19903 227c 51       		.byte	0x51
 19904 227d 98010000 		.4byte	.LVL492
 19905 2281 D4010000 		.4byte	.LVL503
 19906 2285 0400     		.2byte	0x4
 19907 2287 F3       		.byte	0xf3
 19908 2288 01       		.uleb128 0x1
 19909 2289 51       		.byte	0x51
 19910 228a 9F       		.byte	0x9f
 19911 228b D4010000 		.4byte	.LVL503
 19912 228f DA010000 		.4byte	.LVL504
 19913 2293 0100     		.2byte	0x1
 19914 2295 51       		.byte	0x51
 19915 2296 DA010000 		.4byte	.LVL504
 19916 229a F8010000 		.4byte	.LVL509
 19917 229e 0400     		.2byte	0x4
 19918 22a0 F3       		.byte	0xf3
 19919 22a1 01       		.uleb128 0x1
 19920 22a2 51       		.byte	0x51
 19921 22a3 9F       		.byte	0x9f
 19922 22a4 F8010000 		.4byte	.LVL509
 19923 22a8 FE010000 		.4byte	.LVL510
 19924 22ac 0100     		.2byte	0x1
 19925 22ae 51       		.byte	0x51
 19926 22af FE010000 		.4byte	.LVL510
 19927 22b3 24020000 		.4byte	.LFE18
 19928 22b7 0400     		.2byte	0x4
 19929 22b9 F3       		.byte	0xf3
 19930 22ba 01       		.uleb128 0x1
 19931 22bb 51       		.byte	0x51
 19932 22bc 9F       		.byte	0x9f
 19933 22bd 00000000 		.4byte	0
 19934 22c1 00000000 		.4byte	0
 19935              	.LLST109:
 19936 22c5 00000000 		.4byte	.LVL434
 19937 22c9 10000000 		.4byte	.LVL436
 19938 22cd 0100     		.2byte	0x1
 19939 22cf 52       		.byte	0x52
 19940 22d0 10000000 		.4byte	.LVL436
 19941 22d4 24020000 		.4byte	.LFE18
 19942 22d8 0400     		.2byte	0x4
 19943 22da F3       		.byte	0xf3
 19944 22db 01       		.uleb128 0x1
 19945 22dc 52       		.byte	0x52
 19946 22dd 9F       		.byte	0x9f
 19947 22de 00000000 		.4byte	0
 19948 22e2 00000000 		.4byte	0
 19949              	.LLST110:
 19950 22e6 0E000000 		.4byte	.LVL435
ARM GAS  /var/folders/d2/nstgp4h54kz7g1l847x_b8wc0000gn/T//cc2apEbl.s 			page 351


 19951 22ea 46000000 		.4byte	.LVL439
 19952 22ee 0200     		.2byte	0x2
 19953 22f0 30       		.byte	0x30
 19954 22f1 9F       		.byte	0x9f
 19955 22f2 46000000 		.4byte	.LVL439
 19956 22f6 54000000 		.4byte	.LVL441
 19957 22fa 0100     		.2byte	0x1
 19958 22fc 50       		.byte	0x50
 19959 22fd 58000000 		.4byte	.LVL442
 19960 2301 60000000 		.4byte	.LVL443
 19961 2305 0100     		.2byte	0x1
 19962 2307 50       		.byte	0x50
 19963 2308 78000000 		.4byte	.LVL445
 19964 230c 9A000000 		.4byte	.LVL446
 19965 2310 0200     		.2byte	0x2
 19966 2312 30       		.byte	0x30
 19967 2313 9F       		.byte	0x9f
 19968 2314 AA000000 		.4byte	.LVL448
 19969 2318 B2000000 		.4byte	.LVL450
 19970 231c 0100     		.2byte	0x1
 19971 231e 50       		.byte	0x50
 19972 231f B2000000 		.4byte	.LVL450
 19973 2323 C0000000 		.4byte	.LVL454
 19974 2327 0200     		.2byte	0x2
 19975 2329 30       		.byte	0x30
 19976 232a 9F       		.byte	0x9f
 19977 232b CA000000 		.4byte	.LVL455
 19978 232f D0000000 		.4byte	.LVL456
 19979 2333 0100     		.2byte	0x1
 19980 2335 50       		.byte	0x50
 19981 2336 D0000000 		.4byte	.LVL456
 19982 233a D8000000 		.4byte	.LVL457
 19983 233e 0200     		.2byte	0x2
 19984 2340 30       		.byte	0x30
 19985 2341 9F       		.byte	0x9f
 19986 2342 D8000000 		.4byte	.LVL457
 19987 2346 DE000000 		.4byte	.LVL458
 19988 234a 0100     		.2byte	0x1
 19989 234c 50       		.byte	0x50
 19990 234d E2000000 		.4byte	.LVL459
 19991 2351 EC000000 		.4byte	.LVL460
 19992 2355 0100     		.2byte	0x1
 19993 2357 50       		.byte	0x50
 19994 2358 F0000000 		.4byte	.LVL461
 19995 235c FA000000 		.4byte	.LVL463
 19996 2360 0100     		.2byte	0x1
 19997 2362 50       		.byte	0x50
 19998 2363 FE000000 		.4byte	.LVL464
 19999 2367 08010000 		.4byte	.LVL465
 20000 236b 0100     		.2byte	0x1
 20001 236d 50       		.byte	0x50
 20002 236e 0C010000 		.4byte	.LVL466
 20003 2372 14010000 		.4byte	.LVL467
 20004 2376 0100     		.2byte	0x1
 20005 2378 50       		.byte	0x50
 20006 2379 18010000 		.4byte	.LVL468
 20007 237d 22010000 		.4byte	.LVL470
ARM GAS  /var/folders/d2/nstgp4h54kz7g1l847x_b8wc0000gn/T//cc2apEbl.s 			page 352


 20008 2381 0100     		.2byte	0x1
 20009 2383 50       		.byte	0x50
 20010 2384 28010000 		.4byte	.LVL472
 20011 2388 36010000 		.4byte	.LVL474
 20012 238c 0200     		.2byte	0x2
 20013 238e 30       		.byte	0x30
 20014 238f 9F       		.byte	0x9f
 20015 2390 44010000 		.4byte	.LVL476
 20016 2394 50010000 		.4byte	.LVL478
 20017 2398 0100     		.2byte	0x1
 20018 239a 54       		.byte	0x54
 20019 239b 5C010000 		.4byte	.LVL480
 20020 239f 60010000 		.4byte	.LVL481
 20021 23a3 0100     		.2byte	0x1
 20022 23a5 54       		.byte	0x54
 20023 23a6 6A010000 		.4byte	.LVL483
 20024 23aa 6E010000 		.4byte	.LVL484
 20025 23ae 0100     		.2byte	0x1
 20026 23b0 54       		.byte	0x54
 20027 23b1 78010000 		.4byte	.LVL486
 20028 23b5 7A010000 		.4byte	.LVL487
 20029 23b9 0100     		.2byte	0x1
 20030 23bb 54       		.byte	0x54
 20031 23bc 86010000 		.4byte	.LVL489
 20032 23c0 8A010000 		.4byte	.LVL490
 20033 23c4 0100     		.2byte	0x1
 20034 23c6 54       		.byte	0x54
 20035 23c7 8A010000 		.4byte	.LVL490
 20036 23cb 92010000 		.4byte	.LVL491
 20037 23cf 0100     		.2byte	0x1
 20038 23d1 50       		.byte	0x50
 20039 23d2 92010000 		.4byte	.LVL491
 20040 23d6 9C010000 		.4byte	.LVL493
 20041 23da 0200     		.2byte	0x2
 20042 23dc 30       		.byte	0x30
 20043 23dd 9F       		.byte	0x9f
 20044 23de AA010000 		.4byte	.LVL495
 20045 23e2 B6010000 		.4byte	.LVL497
 20046 23e6 0100     		.2byte	0x1
 20047 23e8 54       		.byte	0x54
 20048 23e9 C2010000 		.4byte	.LVL499
 20049 23ed C6010000 		.4byte	.LVL500
 20050 23f1 0100     		.2byte	0x1
 20051 23f3 54       		.byte	0x54
 20052 23f4 D0010000 		.4byte	.LVL502
 20053 23f8 D4010000 		.4byte	.LVL503
 20054 23fc 0100     		.2byte	0x1
 20055 23fe 54       		.byte	0x54
 20056 23ff D4010000 		.4byte	.LVL503
 20057 2403 DE010000 		.4byte	.LVL505
 20058 2407 0200     		.2byte	0x2
 20059 2409 30       		.byte	0x30
 20060 240a 9F       		.byte	0x9f
 20061 240b EC010000 		.4byte	.LVL507
 20062 240f F8010000 		.4byte	.LVL509
 20063 2413 0100     		.2byte	0x1
 20064 2415 54       		.byte	0x54
ARM GAS  /var/folders/d2/nstgp4h54kz7g1l847x_b8wc0000gn/T//cc2apEbl.s 			page 353


 20065 2416 F8010000 		.4byte	.LVL509
 20066 241a 02020000 		.4byte	.LVL511
 20067 241e 0200     		.2byte	0x2
 20068 2420 30       		.byte	0x30
 20069 2421 9F       		.byte	0x9f
 20070 2422 10020000 		.4byte	.LVL513
 20071 2426 1C020000 		.4byte	.LVL515
 20072 242a 0100     		.2byte	0x1
 20073 242c 54       		.byte	0x54
 20074 242d 00000000 		.4byte	0
 20075 2431 00000000 		.4byte	0
 20076              	.LLST111:
 20077 2435 50000000 		.4byte	.LVL440
 20078 2439 57000000 		.4byte	.LVL442-1
 20079 243d 0200     		.2byte	0x2
 20080 243f 75       		.byte	0x75
 20081 2440 14       		.sleb128 20
 20082 2441 00000000 		.4byte	0
 20083 2445 00000000 		.4byte	0
 20084              	.LLST112:
 20085 2449 36000000 		.4byte	.LVL437
 20086 244d 42000000 		.4byte	.LVL438
 20087 2451 0100     		.2byte	0x1
 20088 2453 57       		.byte	0x57
 20089 2454 9A000000 		.4byte	.LVL446
 20090 2458 A6000000 		.4byte	.LVL447
 20091 245c 0100     		.2byte	0x1
 20092 245e 57       		.byte	0x57
 20093 245f 00000000 		.4byte	0
 20094 2463 00000000 		.4byte	0
 20095              	.LLST113:
 20096 2467 F4000000 		.4byte	.LVL462
 20097 246b FD000000 		.4byte	.LVL464-1
 20098 246f 0200     		.2byte	0x2
 20099 2471 91       		.byte	0x91
 20100 2472 5C       		.sleb128 -36
 20101 2473 00000000 		.4byte	0
 20102 2477 00000000 		.4byte	0
 20103              	.LLST114:
 20104 247b F4000000 		.4byte	.LVL462
 20105 247f FE000000 		.4byte	.LVL464
 20106 2483 0200     		.2byte	0x2
 20107 2485 33       		.byte	0x33
 20108 2486 9F       		.byte	0x9f
 20109 2487 00000000 		.4byte	0
 20110 248b 00000000 		.4byte	0
 20111              	.LLST115:
 20112 248f F4000000 		.4byte	.LVL462
 20113 2493 FE000000 		.4byte	.LVL464
 20114 2497 0100     		.2byte	0x1
 20115 2499 55       		.byte	0x55
 20116 249a 00000000 		.4byte	0
 20117 249e 00000000 		.4byte	0
 20118              	.LLST116:
 20119 24a2 1C010000 		.4byte	.LVL469
 20120 24a6 25010000 		.4byte	.LVL471-1
 20121 24aa 0200     		.2byte	0x2
ARM GAS  /var/folders/d2/nstgp4h54kz7g1l847x_b8wc0000gn/T//cc2apEbl.s 			page 354


 20122 24ac 91       		.byte	0x91
 20123 24ad 58       		.sleb128 -40
 20124 24ae 00000000 		.4byte	0
 20125 24b2 00000000 		.4byte	0
 20126              	.LLST117:
 20127 24b6 1C010000 		.4byte	.LVL469
 20128 24ba 26010000 		.4byte	.LVL471
 20129 24be 0200     		.2byte	0x2
 20130 24c0 34       		.byte	0x34
 20131 24c1 9F       		.byte	0x9f
 20132 24c2 00000000 		.4byte	0
 20133 24c6 00000000 		.4byte	0
 20134              	.LLST118:
 20135 24ca 1C010000 		.4byte	.LVL469
 20136 24ce 26010000 		.4byte	.LVL471
 20137 24d2 0100     		.2byte	0x1
 20138 24d4 55       		.byte	0x55
 20139 24d5 00000000 		.4byte	0
 20140 24d9 00000000 		.4byte	0
 20141              	.LLST82:
 20142 24dd 00000000 		.4byte	.LVL368
 20143 24e1 28000000 		.4byte	.LVL372
 20144 24e5 0100     		.2byte	0x1
 20145 24e7 50       		.byte	0x50
 20146 24e8 28000000 		.4byte	.LVL372
 20147 24ec 3A000000 		.4byte	.LVL373
 20148 24f0 0400     		.2byte	0x4
 20149 24f2 F3       		.byte	0xf3
 20150 24f3 01       		.uleb128 0x1
 20151 24f4 50       		.byte	0x50
 20152 24f5 9F       		.byte	0x9f
 20153 24f6 3A000000 		.4byte	.LVL373
 20154 24fa 43000000 		.4byte	.LVL376-1
 20155 24fe 0100     		.2byte	0x1
 20156 2500 50       		.byte	0x50
 20157 2501 43000000 		.4byte	.LVL376-1
 20158 2505 7C000000 		.4byte	.LVL380
 20159 2509 0100     		.2byte	0x1
 20160 250b 57       		.byte	0x57
 20161 250c 7C000000 		.4byte	.LVL380
 20162 2510 81000000 		.4byte	.LVL382-1
 20163 2514 0100     		.2byte	0x1
 20164 2516 50       		.byte	0x50
 20165 2517 81000000 		.4byte	.LVL382-1
 20166 251b C2000000 		.4byte	.LVL386
 20167 251f 0100     		.2byte	0x1
 20168 2521 57       		.byte	0x57
 20169 2522 C2000000 		.4byte	.LVL386
 20170 2526 CB000000 		.4byte	.LVL389-1
 20171 252a 0100     		.2byte	0x1
 20172 252c 50       		.byte	0x50
 20173 252d CB000000 		.4byte	.LVL389-1
 20174 2531 F0000000 		.4byte	.LVL395
 20175 2535 0100     		.2byte	0x1
 20176 2537 57       		.byte	0x57
 20177 2538 F0000000 		.4byte	.LVL395
 20178 253c 1C010000 		.4byte	.LVL398
ARM GAS  /var/folders/d2/nstgp4h54kz7g1l847x_b8wc0000gn/T//cc2apEbl.s 			page 355


 20179 2540 0400     		.2byte	0x4
 20180 2542 F3       		.byte	0xf3
 20181 2543 01       		.uleb128 0x1
 20182 2544 50       		.byte	0x50
 20183 2545 9F       		.byte	0x9f
 20184 2546 1C010000 		.4byte	.LVL398
 20185 254a 76010000 		.4byte	.LVL410
 20186 254e 0100     		.2byte	0x1
 20187 2550 57       		.byte	0x57
 20188 2551 76010000 		.4byte	.LVL410
 20189 2555 88010000 		.4byte	.LFE16
 20190 2559 0400     		.2byte	0x4
 20191 255b F3       		.byte	0xf3
 20192 255c 01       		.uleb128 0x1
 20193 255d 50       		.byte	0x50
 20194 255e 9F       		.byte	0x9f
 20195 255f 00000000 		.4byte	0
 20196 2563 00000000 		.4byte	0
 20197              	.LLST83:
 20198 2567 00000000 		.4byte	.LVL368
 20199 256b 28000000 		.4byte	.LVL372
 20200 256f 0100     		.2byte	0x1
 20201 2571 51       		.byte	0x51
 20202 2572 28000000 		.4byte	.LVL372
 20203 2576 3A000000 		.4byte	.LVL373
 20204 257a 0400     		.2byte	0x4
 20205 257c F3       		.byte	0xf3
 20206 257d 01       		.uleb128 0x1
 20207 257e 51       		.byte	0x51
 20208 257f 9F       		.byte	0x9f
 20209 2580 3A000000 		.4byte	.LVL373
 20210 2584 3C000000 		.4byte	.LVL374
 20211 2588 0100     		.2byte	0x1
 20212 258a 51       		.byte	0x51
 20213 258b 3C000000 		.4byte	.LVL374
 20214 258f 7C000000 		.4byte	.LVL380
 20215 2593 0400     		.2byte	0x4
 20216 2595 F3       		.byte	0xf3
 20217 2596 01       		.uleb128 0x1
 20218 2597 51       		.byte	0x51
 20219 2598 9F       		.byte	0x9f
 20220 2599 7C000000 		.4byte	.LVL380
 20221 259d 7E000000 		.4byte	.LVL381
 20222 25a1 0100     		.2byte	0x1
 20223 25a3 51       		.byte	0x51
 20224 25a4 7E000000 		.4byte	.LVL381
 20225 25a8 C2000000 		.4byte	.LVL386
 20226 25ac 0400     		.2byte	0x4
 20227 25ae F3       		.byte	0xf3
 20228 25af 01       		.uleb128 0x1
 20229 25b0 51       		.byte	0x51
 20230 25b1 9F       		.byte	0x9f
 20231 25b2 C2000000 		.4byte	.LVL386
 20232 25b6 C8000000 		.4byte	.LVL388
 20233 25ba 0100     		.2byte	0x1
 20234 25bc 51       		.byte	0x51
 20235 25bd C8000000 		.4byte	.LVL388
ARM GAS  /var/folders/d2/nstgp4h54kz7g1l847x_b8wc0000gn/T//cc2apEbl.s 			page 356


 20236 25c1 88010000 		.4byte	.LFE16
 20237 25c5 0400     		.2byte	0x4
 20238 25c7 F3       		.byte	0xf3
 20239 25c8 01       		.uleb128 0x1
 20240 25c9 51       		.byte	0x51
 20241 25ca 9F       		.byte	0x9f
 20242 25cb 00000000 		.4byte	0
 20243 25cf 00000000 		.4byte	0
 20244              	.LLST84:
 20245 25d3 00000000 		.4byte	.LVL368
 20246 25d7 28000000 		.4byte	.LVL372
 20247 25db 0100     		.2byte	0x1
 20248 25dd 52       		.byte	0x52
 20249 25de 28000000 		.4byte	.LVL372
 20250 25e2 3A000000 		.4byte	.LVL373
 20251 25e6 0100     		.2byte	0x1
 20252 25e8 56       		.byte	0x56
 20253 25e9 3A000000 		.4byte	.LVL373
 20254 25ed 40000000 		.4byte	.LVL375
 20255 25f1 0100     		.2byte	0x1
 20256 25f3 52       		.byte	0x52
 20257 25f4 40000000 		.4byte	.LVL375
 20258 25f8 7C000000 		.4byte	.LVL380
 20259 25fc 0100     		.2byte	0x1
 20260 25fe 56       		.byte	0x56
 20261 25ff 7C000000 		.4byte	.LVL380
 20262 2603 81000000 		.4byte	.LVL382-1
 20263 2607 0100     		.2byte	0x1
 20264 2609 52       		.byte	0x52
 20265 260a 81000000 		.4byte	.LVL382-1
 20266 260e C2000000 		.4byte	.LVL386
 20267 2612 0100     		.2byte	0x1
 20268 2614 56       		.byte	0x56
 20269 2615 C2000000 		.4byte	.LVL386
 20270 2619 C6000000 		.4byte	.LVL387
 20271 261d 0100     		.2byte	0x1
 20272 261f 52       		.byte	0x52
 20273 2620 C6000000 		.4byte	.LVL387
 20274 2624 88010000 		.4byte	.LFE16
 20275 2628 0100     		.2byte	0x1
 20276 262a 56       		.byte	0x56
 20277 262b 00000000 		.4byte	0
 20278 262f 00000000 		.4byte	0
 20279              	.LLST85:
 20280 2633 0E000000 		.4byte	.LVL369
 20281 2637 28000000 		.4byte	.LVL372
 20282 263b 0200     		.2byte	0x2
 20283 263d 30       		.byte	0x30
 20284 263e 9F       		.byte	0x9f
 20285 263f 28000000 		.4byte	.LVL372
 20286 2643 3A000000 		.4byte	.LVL373
 20287 2647 0100     		.2byte	0x1
 20288 2649 50       		.byte	0x50
 20289 264a 3A000000 		.4byte	.LVL373
 20290 264e 44000000 		.4byte	.LVL376
 20291 2652 0200     		.2byte	0x2
 20292 2654 30       		.byte	0x30
ARM GAS  /var/folders/d2/nstgp4h54kz7g1l847x_b8wc0000gn/T//cc2apEbl.s 			page 357


 20293 2655 9F       		.byte	0x9f
 20294 2656 44000000 		.4byte	.LVL376
 20295 265a 48000000 		.4byte	.LVL377
 20296 265e 0100     		.2byte	0x1
 20297 2660 50       		.byte	0x50
 20298 2661 52000000 		.4byte	.LVL378
 20299 2665 7C000000 		.4byte	.LVL380
 20300 2669 0100     		.2byte	0x1
 20301 266b 50       		.byte	0x50
 20302 266c 7C000000 		.4byte	.LVL380
 20303 2670 98000000 		.4byte	.LVL383
 20304 2674 0200     		.2byte	0x2
 20305 2676 30       		.byte	0x30
 20306 2677 9F       		.byte	0x9f
 20307 2678 98000000 		.4byte	.LVL383
 20308 267c C2000000 		.4byte	.LVL386
 20309 2680 0100     		.2byte	0x1
 20310 2682 50       		.byte	0x50
 20311 2683 C2000000 		.4byte	.LVL386
 20312 2687 CC000000 		.4byte	.LVL389
 20313 268b 0200     		.2byte	0x2
 20314 268d 30       		.byte	0x30
 20315 268e 9F       		.byte	0x9f
 20316 268f CC000000 		.4byte	.LVL389
 20317 2693 D8000000 		.4byte	.LVL390
 20318 2697 0100     		.2byte	0x1
 20319 2699 50       		.byte	0x50
 20320 269a DC000000 		.4byte	.LVL391
 20321 269e E0000000 		.4byte	.LVL392
 20322 26a2 0100     		.2byte	0x1
 20323 26a4 50       		.byte	0x50
 20324 26a5 E8000000 		.4byte	.LVL393
 20325 26a9 1C010000 		.4byte	.LVL398
 20326 26ad 0100     		.2byte	0x1
 20327 26af 50       		.byte	0x50
 20328 26b0 1C010000 		.4byte	.LVL398
 20329 26b4 22010000 		.4byte	.LVL399
 20330 26b8 0200     		.2byte	0x2
 20331 26ba 30       		.byte	0x30
 20332 26bb 9F       		.byte	0x9f
 20333 26bc 2C010000 		.4byte	.LVL400
 20334 26c0 3C010000 		.4byte	.LVL402
 20335 26c4 0100     		.2byte	0x1
 20336 26c6 50       		.byte	0x50
 20337 26c7 40010000 		.4byte	.LVL403
 20338 26cb 58010000 		.4byte	.LVL406
 20339 26cf 0100     		.2byte	0x1
 20340 26d1 50       		.byte	0x50
 20341 26d2 62010000 		.4byte	.LVL407
 20342 26d6 79010000 		.4byte	.LVL411-1
 20343 26da 0100     		.2byte	0x1
 20344 26dc 50       		.byte	0x50
 20345 26dd 00000000 		.4byte	0
 20346 26e1 00000000 		.4byte	0
 20347              	.LLST86:
 20348 26e5 16000000 		.4byte	.LVL370
 20349 26e9 28000000 		.4byte	.LVL372
ARM GAS  /var/folders/d2/nstgp4h54kz7g1l847x_b8wc0000gn/T//cc2apEbl.s 			page 358


 20350 26ed 0200     		.2byte	0x2
 20351 26ef 30       		.byte	0x30
 20352 26f0 9F       		.byte	0x9f
 20353 26f1 28000000 		.4byte	.LVL372
 20354 26f5 3A000000 		.4byte	.LVL373
 20355 26f9 0100     		.2byte	0x1
 20356 26fb 54       		.byte	0x54
 20357 26fc 3A000000 		.4byte	.LVL373
 20358 2700 7A000000 		.4byte	.LVL379
 20359 2704 0200     		.2byte	0x2
 20360 2706 30       		.byte	0x30
 20361 2707 9F       		.byte	0x9f
 20362 2708 7C000000 		.4byte	.LVL380
 20363 270c C0000000 		.4byte	.LVL385
 20364 2710 0200     		.2byte	0x2
 20365 2712 30       		.byte	0x30
 20366 2713 9F       		.byte	0x9f
 20367 2714 C2000000 		.4byte	.LVL386
 20368 2718 1A010000 		.4byte	.LVL397
 20369 271c 0200     		.2byte	0x2
 20370 271e 30       		.byte	0x30
 20371 271f 9F       		.byte	0x9f
 20372 2720 1C010000 		.4byte	.LVL398
 20373 2724 76010000 		.4byte	.LVL410
 20374 2728 0200     		.2byte	0x2
 20375 272a 30       		.byte	0x30
 20376 272b 9F       		.byte	0x9f
 20377 272c 76010000 		.4byte	.LVL410
 20378 2730 88010000 		.4byte	.LFE16
 20379 2734 0100     		.2byte	0x1
 20380 2736 54       		.byte	0x54
 20381 2737 00000000 		.4byte	0
 20382 273b 00000000 		.4byte	0
 20383              	.LLST87:
 20384 273f 52000000 		.4byte	.LVL378
 20385 2743 7C000000 		.4byte	.LVL380
 20386 2747 0A00     		.2byte	0xa
 20387 2749 91       		.byte	0x91
 20388 274a 4F       		.sleb128 -49
 20389 274b 94       		.byte	0x94
 20390 274c 01       		.byte	0x1
 20391 274d 08       		.byte	0x8
 20392 274e FF       		.byte	0xff
 20393 274f 1A       		.byte	0x1a
 20394 2750 23       		.byte	0x23
 20395 2751 01       		.uleb128 0x1
 20396 2752 9F       		.byte	0x9f
 20397 2753 00000000 		.4byte	0
 20398 2757 00000000 		.4byte	0
 20399              	.LLST88:
 20400 275b 82000000 		.4byte	.LVL382
 20401 275f 9C000000 		.4byte	.LVL384
 20402 2763 0200     		.2byte	0x2
 20403 2765 30       		.byte	0x30
 20404 2766 9F       		.byte	0x9f
 20405 2767 EC000000 		.4byte	.LVL394
 20406 276b FC000000 		.4byte	.LVL396
ARM GAS  /var/folders/d2/nstgp4h54kz7g1l847x_b8wc0000gn/T//cc2apEbl.s 			page 359


 20407 276f 1500     		.2byte	0x15
 20408 2771 71       		.byte	0x71
 20409 2772 00       		.sleb128 0
 20410 2773 08       		.byte	0x8
 20411 2774 FF       		.byte	0xff
 20412 2775 1A       		.byte	0x1a
 20413 2776 0A       		.byte	0xa
 20414 2777 FFFF     		.2byte	0xffff
 20415 2779 1A       		.byte	0x1a
 20416 277a 71       		.byte	0x71
 20417 277b 00       		.sleb128 0
 20418 277c 38       		.byte	0x38
 20419 277d 25       		.byte	0x25
 20420 277e 0A       		.byte	0xa
 20421 277f FFFF     		.2byte	0xffff
 20422 2781 1A       		.byte	0x1a
 20423 2782 24       		.byte	0x24
 20424 2783 23       		.byte	0x23
 20425 2784 01       		.uleb128 0x1
 20426 2785 9F       		.byte	0x9f
 20427 2786 FC000000 		.4byte	.LVL396
 20428 278a 1C010000 		.4byte	.LVL398
 20429 278e 1900     		.2byte	0x19
 20430 2790 91       		.byte	0x91
 20431 2791 50       		.sleb128 -48
 20432 2792 94       		.byte	0x94
 20433 2793 02       		.byte	0x2
 20434 2794 08       		.byte	0x8
 20435 2795 FF       		.byte	0xff
 20436 2796 1A       		.byte	0x1a
 20437 2797 0A       		.byte	0xa
 20438 2798 FFFF     		.2byte	0xffff
 20439 279a 1A       		.byte	0x1a
 20440 279b 91       		.byte	0x91
 20441 279c 50       		.sleb128 -48
 20442 279d 94       		.byte	0x94
 20443 279e 02       		.byte	0x2
 20444 279f 38       		.byte	0x38
 20445 27a0 25       		.byte	0x25
 20446 27a1 0A       		.byte	0xa
 20447 27a2 FFFF     		.2byte	0xffff
 20448 27a4 1A       		.byte	0x1a
 20449 27a5 24       		.byte	0x24
 20450 27a6 23       		.byte	0x23
 20451 27a7 01       		.uleb128 0x1
 20452 27a8 9F       		.byte	0x9f
 20453 27a9 1C010000 		.4byte	.LVL398
 20454 27ad 22010000 		.4byte	.LVL399
 20455 27b1 0200     		.2byte	0x2
 20456 27b3 30       		.byte	0x30
 20457 27b4 9F       		.byte	0x9f
 20458 27b5 36010000 		.4byte	.LVL401
 20459 27b9 50010000 		.4byte	.LVL404
 20460 27bd 0200     		.2byte	0x2
 20461 27bf 30       		.byte	0x30
 20462 27c0 9F       		.byte	0x9f
 20463 27c1 50010000 		.4byte	.LVL404
ARM GAS  /var/folders/d2/nstgp4h54kz7g1l847x_b8wc0000gn/T//cc2apEbl.s 			page 360


 20464 27c5 56010000 		.4byte	.LVL405
 20465 27c9 0100     		.2byte	0x1
 20466 27cb 58       		.byte	0x58
 20467 27cc 00000000 		.4byte	0
 20468 27d0 00000000 		.4byte	0
 20469              	.LLST89:
 20470 27d4 1A000000 		.4byte	.LVL371
 20471 27d8 28000000 		.4byte	.LVL372
 20472 27dc 0200     		.2byte	0x2
 20473 27de 30       		.byte	0x30
 20474 27df 9F       		.byte	0x9f
 20475 27e0 3A000000 		.4byte	.LVL373
 20476 27e4 9C000000 		.4byte	.LVL384
 20477 27e8 0200     		.2byte	0x2
 20478 27ea 30       		.byte	0x30
 20479 27eb 9F       		.byte	0x9f
 20480 27ec C2000000 		.4byte	.LVL386
 20481 27f0 66010000 		.4byte	.LVL408
 20482 27f4 0200     		.2byte	0x2
 20483 27f6 30       		.byte	0x30
 20484 27f7 9F       		.byte	0x9f
 20485 27f8 66010000 		.4byte	.LVL408
 20486 27fc 6A010000 		.4byte	.LVL409
 20487 2800 1500     		.2byte	0x15
 20488 2802 73       		.byte	0x73
 20489 2803 00       		.sleb128 0
 20490 2804 08       		.byte	0x8
 20491 2805 FF       		.byte	0xff
 20492 2806 1A       		.byte	0x1a
 20493 2807 0A       		.byte	0xa
 20494 2808 FFFF     		.2byte	0xffff
 20495 280a 1A       		.byte	0x1a
 20496 280b 73       		.byte	0x73
 20497 280c 00       		.sleb128 0
 20498 280d 38       		.byte	0x38
 20499 280e 25       		.byte	0x25
 20500 280f 0A       		.byte	0xa
 20501 2810 FFFF     		.2byte	0xffff
 20502 2812 1A       		.byte	0x1a
 20503 2813 24       		.byte	0x24
 20504 2814 23       		.byte	0x23
 20505 2815 01       		.uleb128 0x1
 20506 2816 9F       		.byte	0x9f
 20507 2817 6A010000 		.4byte	.LVL409
 20508 281b 76010000 		.4byte	.LVL410
 20509 281f 1900     		.2byte	0x19
 20510 2821 91       		.byte	0x91
 20511 2822 52       		.sleb128 -46
 20512 2823 94       		.byte	0x94
 20513 2824 02       		.byte	0x2
 20514 2825 08       		.byte	0x8
 20515 2826 FF       		.byte	0xff
 20516 2827 1A       		.byte	0x1a
 20517 2828 0A       		.byte	0xa
 20518 2829 FFFF     		.2byte	0xffff
 20519 282b 1A       		.byte	0x1a
 20520 282c 91       		.byte	0x91
ARM GAS  /var/folders/d2/nstgp4h54kz7g1l847x_b8wc0000gn/T//cc2apEbl.s 			page 361


 20521 282d 52       		.sleb128 -46
 20522 282e 94       		.byte	0x94
 20523 282f 02       		.byte	0x2
 20524 2830 38       		.byte	0x38
 20525 2831 25       		.byte	0x25
 20526 2832 0A       		.byte	0xa
 20527 2833 FFFF     		.2byte	0xffff
 20528 2835 1A       		.byte	0x1a
 20529 2836 24       		.byte	0x24
 20530 2837 23       		.byte	0x23
 20531 2838 01       		.uleb128 0x1
 20532 2839 9F       		.byte	0x9f
 20533 283a 00000000 		.4byte	0
 20534 283e 00000000 		.4byte	0
 20535              	.LLST90:
 20536 2842 52000000 		.4byte	.LVL378
 20537 2846 7A000000 		.4byte	.LVL379
 20538 284a 0200     		.2byte	0x2
 20539 284c 91       		.byte	0x91
 20540 284d 4E       		.sleb128 -50
 20541 284e 00000000 		.4byte	0
 20542 2852 00000000 		.4byte	0
 20543              	.LLST91:
 20544 2856 52000000 		.4byte	.LVL378
 20545 285a 7A000000 		.4byte	.LVL379
 20546 285e 0A00     		.2byte	0xa
 20547 2860 91       		.byte	0x91
 20548 2861 4F       		.sleb128 -49
 20549 2862 94       		.byte	0x94
 20550 2863 01       		.byte	0x1
 20551 2864 08       		.byte	0x8
 20552 2865 FF       		.byte	0xff
 20553 2866 1A       		.byte	0x1a
 20554 2867 23       		.byte	0x23
 20555 2868 01       		.uleb128 0x1
 20556 2869 9F       		.byte	0x9f
 20557 286a 00000000 		.4byte	0
 20558 286e 00000000 		.4byte	0
 20559              	.LLST92:
 20560 2872 52000000 		.4byte	.LVL378
 20561 2876 7A000000 		.4byte	.LVL379
 20562 287a 0100     		.2byte	0x1
 20563 287c 57       		.byte	0x57
 20564 287d 00000000 		.4byte	0
 20565 2881 00000000 		.4byte	0
 20566              	.LLST93:
 20567 2885 9C000000 		.4byte	.LVL384
 20568 2889 C0000000 		.4byte	.LVL385
 20569 288d 0200     		.2byte	0x2
 20570 288f 79       		.byte	0x79
 20571 2890 00       		.sleb128 0
 20572 2891 00000000 		.4byte	0
 20573 2895 00000000 		.4byte	0
 20574              	.LLST94:
 20575 2899 9C000000 		.4byte	.LVL384
 20576 289d C0000000 		.4byte	.LVL385
 20577 28a1 0100     		.2byte	0x1
ARM GAS  /var/folders/d2/nstgp4h54kz7g1l847x_b8wc0000gn/T//cc2apEbl.s 			page 362


 20578 28a3 57       		.byte	0x57
 20579 28a4 00000000 		.4byte	0
 20580 28a8 00000000 		.4byte	0
 20581              	.LLST95:
 20582 28ac EC000000 		.4byte	.LVL394
 20583 28b0 1A010000 		.4byte	.LVL397
 20584 28b4 0200     		.2byte	0x2
 20585 28b6 91       		.byte	0x91
 20586 28b7 4E       		.sleb128 -50
 20587 28b8 00000000 		.4byte	0
 20588 28bc 00000000 		.4byte	0
 20589              	.LLST96:
 20590 28c0 EC000000 		.4byte	.LVL394
 20591 28c4 FC000000 		.4byte	.LVL396
 20592 28c8 1500     		.2byte	0x15
 20593 28ca 71       		.byte	0x71
 20594 28cb 00       		.sleb128 0
 20595 28cc 08       		.byte	0x8
 20596 28cd FF       		.byte	0xff
 20597 28ce 1A       		.byte	0x1a
 20598 28cf 0A       		.byte	0xa
 20599 28d0 FFFF     		.2byte	0xffff
 20600 28d2 1A       		.byte	0x1a
 20601 28d3 71       		.byte	0x71
 20602 28d4 00       		.sleb128 0
 20603 28d5 38       		.byte	0x38
 20604 28d6 25       		.byte	0x25
 20605 28d7 0A       		.byte	0xa
 20606 28d8 FFFF     		.2byte	0xffff
 20607 28da 1A       		.byte	0x1a
 20608 28db 24       		.byte	0x24
 20609 28dc 23       		.byte	0x23
 20610 28dd 01       		.uleb128 0x1
 20611 28de 9F       		.byte	0x9f
 20612 28df FC000000 		.4byte	.LVL396
 20613 28e3 1A010000 		.4byte	.LVL397
 20614 28e7 1900     		.2byte	0x19
 20615 28e9 91       		.byte	0x91
 20616 28ea 50       		.sleb128 -48
 20617 28eb 94       		.byte	0x94
 20618 28ec 02       		.byte	0x2
 20619 28ed 08       		.byte	0x8
 20620 28ee FF       		.byte	0xff
 20621 28ef 1A       		.byte	0x1a
 20622 28f0 0A       		.byte	0xa
 20623 28f1 FFFF     		.2byte	0xffff
 20624 28f3 1A       		.byte	0x1a
 20625 28f4 91       		.byte	0x91
 20626 28f5 50       		.sleb128 -48
 20627 28f6 94       		.byte	0x94
 20628 28f7 02       		.byte	0x2
 20629 28f8 38       		.byte	0x38
 20630 28f9 25       		.byte	0x25
 20631 28fa 0A       		.byte	0xa
 20632 28fb FFFF     		.2byte	0xffff
 20633 28fd 1A       		.byte	0x1a
 20634 28fe 24       		.byte	0x24
ARM GAS  /var/folders/d2/nstgp4h54kz7g1l847x_b8wc0000gn/T//cc2apEbl.s 			page 363


 20635 28ff 23       		.byte	0x23
 20636 2900 01       		.uleb128 0x1
 20637 2901 9F       		.byte	0x9f
 20638 2902 00000000 		.4byte	0
 20639 2906 00000000 		.4byte	0
 20640              	.LLST97:
 20641 290a EC000000 		.4byte	.LVL394
 20642 290e F0000000 		.4byte	.LVL395
 20643 2912 0100     		.2byte	0x1
 20644 2914 57       		.byte	0x57
 20645 2915 F0000000 		.4byte	.LVL395
 20646 2919 1A010000 		.4byte	.LVL397
 20647 291d 0400     		.2byte	0x4
 20648 291f F3       		.byte	0xf3
 20649 2920 01       		.uleb128 0x1
 20650 2921 50       		.byte	0x50
 20651 2922 9F       		.byte	0x9f
 20652 2923 00000000 		.4byte	0
 20653 2927 00000000 		.4byte	0
 20654              	.LLST53:
 20655 292b 00000000 		.4byte	.LVL128
 20656 292f 22000000 		.4byte	.LVL131
 20657 2933 0100     		.2byte	0x1
 20658 2935 50       		.byte	0x50
 20659 2936 22000000 		.4byte	.LVL131
 20660 293a 36000000 		.4byte	.LVL132
 20661 293e 0400     		.2byte	0x4
 20662 2940 F3       		.byte	0xf3
 20663 2941 01       		.uleb128 0x1
 20664 2942 50       		.byte	0x50
 20665 2943 9F       		.byte	0x9f
 20666 2944 36000000 		.4byte	.LVL132
 20667 2948 41000000 		.4byte	.LVL134-1
 20668 294c 0100     		.2byte	0x1
 20669 294e 50       		.byte	0x50
 20670 294f 41000000 		.4byte	.LVL134-1
 20671 2953 B8050000 		.4byte	.LVL339
 20672 2957 0100     		.2byte	0x1
 20673 2959 55       		.byte	0x55
 20674 295a B8050000 		.4byte	.LVL339
 20675 295e C0050000 		.4byte	.LFE10
 20676 2962 0400     		.2byte	0x4
 20677 2964 F3       		.byte	0xf3
 20678 2965 01       		.uleb128 0x1
 20679 2966 50       		.byte	0x50
 20680 2967 9F       		.byte	0x9f
 20681 2968 00000000 		.4byte	0
 20682 296c 00000000 		.4byte	0
 20683              	.LLST54:
 20684 2970 00000000 		.4byte	.LVL128
 20685 2974 22000000 		.4byte	.LVL131
 20686 2978 0100     		.2byte	0x1
 20687 297a 51       		.byte	0x51
 20688 297b 22000000 		.4byte	.LVL131
 20689 297f 36000000 		.4byte	.LVL132
 20690 2983 0400     		.2byte	0x4
 20691 2985 F3       		.byte	0xf3
ARM GAS  /var/folders/d2/nstgp4h54kz7g1l847x_b8wc0000gn/T//cc2apEbl.s 			page 364


 20692 2986 01       		.uleb128 0x1
 20693 2987 51       		.byte	0x51
 20694 2988 9F       		.byte	0x9f
 20695 2989 36000000 		.4byte	.LVL132
 20696 298d 3C000000 		.4byte	.LVL133
 20697 2991 0100     		.2byte	0x1
 20698 2993 51       		.byte	0x51
 20699 2994 3C000000 		.4byte	.LVL133
 20700 2998 C0050000 		.4byte	.LFE10
 20701 299c 0400     		.2byte	0x4
 20702 299e F3       		.byte	0xf3
 20703 299f 01       		.uleb128 0x1
 20704 29a0 51       		.byte	0x51
 20705 29a1 9F       		.byte	0x9f
 20706 29a2 00000000 		.4byte	0
 20707 29a6 00000000 		.4byte	0
 20708              	.LLST55:
 20709 29aa 1A000000 		.4byte	.LVL129
 20710 29ae 22000000 		.4byte	.LVL131
 20711 29b2 0200     		.2byte	0x2
 20712 29b4 30       		.byte	0x30
 20713 29b5 9F       		.byte	0x9f
 20714 29b6 36000000 		.4byte	.LVL132
 20715 29ba 46000000 		.4byte	.LVL135
 20716 29be 0200     		.2byte	0x2
 20717 29c0 30       		.byte	0x30
 20718 29c1 9F       		.byte	0x9f
 20719 29c2 46000000 		.4byte	.LVL135
 20720 29c6 54000000 		.4byte	.LVL137
 20721 29ca 0100     		.2byte	0x1
 20722 29cc 59       		.byte	0x59
 20723 29cd 60000000 		.4byte	.LVL139
 20724 29d1 66000000 		.4byte	.LVL140
 20725 29d5 0100     		.2byte	0x1
 20726 29d7 59       		.byte	0x59
 20727 29d8 72000000 		.4byte	.LVL142
 20728 29dc 76000000 		.4byte	.LVL143
 20729 29e0 0100     		.2byte	0x1
 20730 29e2 59       		.byte	0x59
 20731 29e3 8A000000 		.4byte	.LVL145
 20732 29e7 8E000000 		.4byte	.LVL146
 20733 29eb 0100     		.2byte	0x1
 20734 29ed 59       		.byte	0x59
 20735 29ee 9E000000 		.4byte	.LVL148
 20736 29f2 A4000000 		.4byte	.LVL149
 20737 29f6 0100     		.2byte	0x1
 20738 29f8 59       		.byte	0x59
 20739 29f9 B0000000 		.4byte	.LVL151
 20740 29fd B8000000 		.4byte	.LVL152
 20741 2a01 0100     		.2byte	0x1
 20742 2a03 59       		.byte	0x59
 20743 2a04 C2000000 		.4byte	.LVL154
 20744 2a08 C6000000 		.4byte	.LVL155
 20745 2a0c 0100     		.2byte	0x1
 20746 2a0e 59       		.byte	0x59
 20747 2a0f D0000000 		.4byte	.LVL157
 20748 2a13 D4000000 		.4byte	.LVL158
ARM GAS  /var/folders/d2/nstgp4h54kz7g1l847x_b8wc0000gn/T//cc2apEbl.s 			page 365


 20749 2a17 0100     		.2byte	0x1
 20750 2a19 59       		.byte	0x59
 20751 2a1a E2000000 		.4byte	.LVL160
 20752 2a1e EC000000 		.4byte	.LVL161
 20753 2a22 0100     		.2byte	0x1
 20754 2a24 59       		.byte	0x59
 20755 2a25 EC000000 		.4byte	.LVL161
 20756 2a29 34010000 		.4byte	.LVL166
 20757 2a2d 0100     		.2byte	0x1
 20758 2a2f 54       		.byte	0x54
 20759 2a30 34010000 		.4byte	.LVL166
 20760 2a34 40010000 		.4byte	.LVL168
 20761 2a38 0600     		.2byte	0x6
 20762 2a3a 74       		.byte	0x74
 20763 2a3b 00       		.sleb128 0
 20764 2a3c 7B       		.byte	0x7b
 20765 2a3d 00       		.sleb128 0
 20766 2a3e 21       		.byte	0x21
 20767 2a3f 9F       		.byte	0x9f
 20768 2a40 4E010000 		.4byte	.LVL170
 20769 2a44 54010000 		.4byte	.LVL171
 20770 2a48 0100     		.2byte	0x1
 20771 2a4a 54       		.byte	0x54
 20772 2a4b 5C010000 		.4byte	.LVL173
 20773 2a4f 5E010000 		.4byte	.LVL174
 20774 2a53 0100     		.2byte	0x1
 20775 2a55 54       		.byte	0x54
 20776 2a56 66010000 		.4byte	.LVL176
 20777 2a5a 6C010000 		.4byte	.LVL177
 20778 2a5e 0100     		.2byte	0x1
 20779 2a60 54       		.byte	0x54
 20780 2a61 76010000 		.4byte	.LVL179
 20781 2a65 7C010000 		.4byte	.LVL180
 20782 2a69 0100     		.2byte	0x1
 20783 2a6b 54       		.byte	0x54
 20784 2a6c 84010000 		.4byte	.LVL182
 20785 2a70 86010000 		.4byte	.LVL183
 20786 2a74 0100     		.2byte	0x1
 20787 2a76 54       		.byte	0x54
 20788 2a77 8E010000 		.4byte	.LVL185
 20789 2a7b 90010000 		.4byte	.LVL186
 20790 2a7f 0100     		.2byte	0x1
 20791 2a81 54       		.byte	0x54
 20792 2a82 9E010000 		.4byte	.LVL188
 20793 2a86 A6010000 		.4byte	.LVL189
 20794 2a8a 0100     		.2byte	0x1
 20795 2a8c 54       		.byte	0x54
 20796 2a8d D6010000 		.4byte	.LVL191
 20797 2a91 D8010000 		.4byte	.LVL192
 20798 2a95 0100     		.2byte	0x1
 20799 2a97 54       		.byte	0x54
 20800 2a98 E0010000 		.4byte	.LVL194
 20801 2a9c E4010000 		.4byte	.LVL195
 20802 2aa0 0100     		.2byte	0x1
 20803 2aa2 54       		.byte	0x54
 20804 2aa3 FA010000 		.4byte	.LVL197
 20805 2aa7 00020000 		.4byte	.LVL198
ARM GAS  /var/folders/d2/nstgp4h54kz7g1l847x_b8wc0000gn/T//cc2apEbl.s 			page 366


 20806 2aab 0100     		.2byte	0x1
 20807 2aad 54       		.byte	0x54
 20808 2aae 34020000 		.4byte	.LVL200
 20809 2ab2 36020000 		.4byte	.LVL201
 20810 2ab6 0100     		.2byte	0x1
 20811 2ab8 54       		.byte	0x54
 20812 2ab9 3E020000 		.4byte	.LVL203
 20813 2abd 42020000 		.4byte	.LVL204
 20814 2ac1 0100     		.2byte	0x1
 20815 2ac3 54       		.byte	0x54
 20816 2ac4 52020000 		.4byte	.LVL206
 20817 2ac8 60020000 		.4byte	.LVL207
 20818 2acc 0100     		.2byte	0x1
 20819 2ace 54       		.byte	0x54
 20820 2acf 8C020000 		.4byte	.LVL209
 20821 2ad3 8E020000 		.4byte	.LVL210
 20822 2ad7 0100     		.2byte	0x1
 20823 2ad9 54       		.byte	0x54
 20824 2ada 96020000 		.4byte	.LVL212
 20825 2ade 9A020000 		.4byte	.LVL213
 20826 2ae2 0100     		.2byte	0x1
 20827 2ae4 54       		.byte	0x54
 20828 2ae5 AE020000 		.4byte	.LVL215
 20829 2ae9 C0020000 		.4byte	.LVL216
 20830 2aed 0100     		.2byte	0x1
 20831 2aef 54       		.byte	0x54
 20832 2af0 C6020000 		.4byte	.LVL217
 20833 2af4 F0020000 		.4byte	.LVL220
 20834 2af8 0100     		.2byte	0x1
 20835 2afa 54       		.byte	0x54
 20836 2afb FA020000 		.4byte	.LVL222
 20837 2aff 00030000 		.4byte	.LVL223
 20838 2b03 0100     		.2byte	0x1
 20839 2b05 54       		.byte	0x54
 20840 2b06 0E030000 		.4byte	.LVL225
 20841 2b0a 10030000 		.4byte	.LVL226
 20842 2b0e 0100     		.2byte	0x1
 20843 2b10 54       		.byte	0x54
 20844 2b11 1E030000 		.4byte	.LVL228
 20845 2b15 22030000 		.4byte	.LVL229
 20846 2b19 0100     		.2byte	0x1
 20847 2b1b 54       		.byte	0x54
 20848 2b1c 2C030000 		.4byte	.LVL231
 20849 2b20 30030000 		.4byte	.LVL232
 20850 2b24 0100     		.2byte	0x1
 20851 2b26 54       		.byte	0x54
 20852 2b27 3A030000 		.4byte	.LVL234
 20853 2b2b 3E030000 		.4byte	.LVL235
 20854 2b2f 0100     		.2byte	0x1
 20855 2b31 54       		.byte	0x54
 20856 2b32 48030000 		.4byte	.LVL237
 20857 2b36 4A030000 		.4byte	.LVL238
 20858 2b3a 0100     		.2byte	0x1
 20859 2b3c 54       		.byte	0x54
 20860 2b3d 56030000 		.4byte	.LVL240
 20861 2b41 58030000 		.4byte	.LVL241
 20862 2b45 0100     		.2byte	0x1
ARM GAS  /var/folders/d2/nstgp4h54kz7g1l847x_b8wc0000gn/T//cc2apEbl.s 			page 367


 20863 2b47 54       		.byte	0x54
 20864 2b48 5A030000 		.4byte	.LVL242
 20865 2b4c F0030000 		.4byte	.LVL257
 20866 2b50 0100     		.2byte	0x1
 20867 2b52 54       		.byte	0x54
 20868 2b53 F0030000 		.4byte	.LVL257
 20869 2b57 FC030000 		.4byte	.LVL259
 20870 2b5b 0600     		.2byte	0x6
 20871 2b5d 74       		.byte	0x74
 20872 2b5e 00       		.sleb128 0
 20873 2b5f 79       		.byte	0x79
 20874 2b60 00       		.sleb128 0
 20875 2b61 21       		.byte	0x21
 20876 2b62 9F       		.byte	0x9f
 20877 2b63 08040000 		.4byte	.LVL261
 20878 2b67 0E040000 		.4byte	.LVL262
 20879 2b6b 0100     		.2byte	0x1
 20880 2b6d 54       		.byte	0x54
 20881 2b6e 16040000 		.4byte	.LVL264
 20882 2b72 18040000 		.4byte	.LVL265
 20883 2b76 0100     		.2byte	0x1
 20884 2b78 54       		.byte	0x54
 20885 2b79 20040000 		.4byte	.LVL267
 20886 2b7d 24040000 		.4byte	.LVL268
 20887 2b81 0100     		.2byte	0x1
 20888 2b83 54       		.byte	0x54
 20889 2b84 2E040000 		.4byte	.LVL270
 20890 2b88 34040000 		.4byte	.LVL271
 20891 2b8c 0100     		.2byte	0x1
 20892 2b8e 54       		.byte	0x54
 20893 2b8f 3C040000 		.4byte	.LVL273
 20894 2b93 3E040000 		.4byte	.LVL274
 20895 2b97 0100     		.2byte	0x1
 20896 2b99 54       		.byte	0x54
 20897 2b9a 46040000 		.4byte	.LVL276
 20898 2b9e 48040000 		.4byte	.LVL277
 20899 2ba2 0100     		.2byte	0x1
 20900 2ba4 54       		.byte	0x54
 20901 2ba5 56040000 		.4byte	.LVL279
 20902 2ba9 5E040000 		.4byte	.LVL280
 20903 2bad 0100     		.2byte	0x1
 20904 2baf 54       		.byte	0x54
 20905 2bb0 6A040000 		.4byte	.LVL282
 20906 2bb4 6C040000 		.4byte	.LVL283
 20907 2bb8 0100     		.2byte	0x1
 20908 2bba 54       		.byte	0x54
 20909 2bbb 74040000 		.4byte	.LVL285
 20910 2bbf 78040000 		.4byte	.LVL286
 20911 2bc3 0100     		.2byte	0x1
 20912 2bc5 54       		.byte	0x54
 20913 2bc6 86040000 		.4byte	.LVL288
 20914 2bca 90040000 		.4byte	.LVL289
 20915 2bce 0100     		.2byte	0x1
 20916 2bd0 54       		.byte	0x54
 20917 2bd1 9A040000 		.4byte	.LVL291
 20918 2bd5 9C040000 		.4byte	.LVL292
 20919 2bd9 0100     		.2byte	0x1
ARM GAS  /var/folders/d2/nstgp4h54kz7g1l847x_b8wc0000gn/T//cc2apEbl.s 			page 368


 20920 2bdb 54       		.byte	0x54
 20921 2bdc A4040000 		.4byte	.LVL294
 20922 2be0 A8040000 		.4byte	.LVL295
 20923 2be4 0100     		.2byte	0x1
 20924 2be6 54       		.byte	0x54
 20925 2be7 B4040000 		.4byte	.LVL297
 20926 2beb B8040000 		.4byte	.LVL298
 20927 2bef 0100     		.2byte	0x1
 20928 2bf1 54       		.byte	0x54
 20929 2bf2 C6040000 		.4byte	.LVL300
 20930 2bf6 C8040000 		.4byte	.LVL301
 20931 2bfa 0100     		.2byte	0x1
 20932 2bfc 54       		.byte	0x54
 20933 2bfd E6040000 		.4byte	.LVL304
 20934 2c01 E8040000 		.4byte	.LVL305
 20935 2c05 0100     		.2byte	0x1
 20936 2c07 54       		.byte	0x54
 20937 2c08 EA040000 		.4byte	.LVL306
 20938 2c0c FC040000 		.4byte	.LVL310
 20939 2c10 0100     		.2byte	0x1
 20940 2c12 54       		.byte	0x54
 20941 2c13 FC040000 		.4byte	.LVL310
 20942 2c17 08050000 		.4byte	.LVL312
 20943 2c1b 0600     		.2byte	0x6
 20944 2c1d 74       		.byte	0x74
 20945 2c1e 00       		.sleb128 0
 20946 2c1f 79       		.byte	0x79
 20947 2c20 00       		.sleb128 0
 20948 2c21 21       		.byte	0x21
 20949 2c22 9F       		.byte	0x9f
 20950 2c23 18050000 		.4byte	.LVL314
 20951 2c27 22050000 		.4byte	.LVL315
 20952 2c2b 0100     		.2byte	0x1
 20953 2c2d 54       		.byte	0x54
 20954 2c2e 32050000 		.4byte	.LVL317
 20955 2c32 34050000 		.4byte	.LVL318
 20956 2c36 0100     		.2byte	0x1
 20957 2c38 54       		.byte	0x54
 20958 2c39 3C050000 		.4byte	.LVL320
 20959 2c3d 40050000 		.4byte	.LVL321
 20960 2c41 0100     		.2byte	0x1
 20961 2c43 54       		.byte	0x54
 20962 2c44 52050000 		.4byte	.LVL323
 20963 2c48 5C050000 		.4byte	.LVL324
 20964 2c4c 0100     		.2byte	0x1
 20965 2c4e 54       		.byte	0x54
 20966 2c4f 72050000 		.4byte	.LVL326
 20967 2c53 74050000 		.4byte	.LVL327
 20968 2c57 0100     		.2byte	0x1
 20969 2c59 54       		.byte	0x54
 20970 2c5a 7C050000 		.4byte	.LVL329
 20971 2c5e 80050000 		.4byte	.LVL330
 20972 2c62 0100     		.2byte	0x1
 20973 2c64 54       		.byte	0x54
 20974 2c65 8C050000 		.4byte	.LVL332
 20975 2c69 90050000 		.4byte	.LVL333
 20976 2c6d 0100     		.2byte	0x1
ARM GAS  /var/folders/d2/nstgp4h54kz7g1l847x_b8wc0000gn/T//cc2apEbl.s 			page 369


 20977 2c6f 54       		.byte	0x54
 20978 2c70 94050000 		.4byte	.LVL334
 20979 2c74 B8050000 		.4byte	.LVL339
 20980 2c78 0100     		.2byte	0x1
 20981 2c7a 54       		.byte	0x54
 20982 2c7b 00000000 		.4byte	0
 20983 2c7f 00000000 		.4byte	0
 20984              	.LLST56:
 20985 2c83 1A000000 		.4byte	.LVL129
 20986 2c87 22000000 		.4byte	.LVL131
 20987 2c8b 0200     		.2byte	0x2
 20988 2c8d 30       		.byte	0x30
 20989 2c8e 9F       		.byte	0x9f
 20990 2c8f 36000000 		.4byte	.LVL132
 20991 2c93 FC000000 		.4byte	.LVL162
 20992 2c97 0200     		.2byte	0x2
 20993 2c99 30       		.byte	0x30
 20994 2c9a 9F       		.byte	0x9f
 20995 2c9b FC000000 		.4byte	.LVL162
 20996 2c9f 16010000 		.4byte	.LVL163
 20997 2ca3 0300     		.2byte	0x3
 20998 2ca5 91       		.byte	0x91
 20999 2ca6 9C7F     		.sleb128 -100
 21000 2ca8 16010000 		.4byte	.LVL163
 21001 2cac 1A010000 		.4byte	.LVL164
 21002 2cb0 0200     		.2byte	0x2
 21003 2cb2 30       		.byte	0x30
 21004 2cb3 9F       		.byte	0x9f
 21005 2cb4 1A010000 		.4byte	.LVL164
 21006 2cb8 F0040000 		.4byte	.LVL308
 21007 2cbc 0300     		.2byte	0x3
 21008 2cbe 91       		.byte	0x91
 21009 2cbf 9C7F     		.sleb128 -100
 21010 2cc1 F0040000 		.4byte	.LVL308
 21011 2cc5 32050000 		.4byte	.LVL317
 21012 2cc9 0200     		.2byte	0x2
 21013 2ccb 30       		.byte	0x30
 21014 2ccc 9F       		.byte	0x9f
 21015 2ccd 9E050000 		.4byte	.LVL335
 21016 2cd1 B8050000 		.4byte	.LVL339
 21017 2cd5 0300     		.2byte	0x3
 21018 2cd7 91       		.byte	0x91
 21019 2cd8 9C7F     		.sleb128 -100
 21020 2cda 00000000 		.4byte	0
 21021 2cde 00000000 		.4byte	0
 21022              	.LLST57:
 21023 2ce2 1A000000 		.4byte	.LVL129
 21024 2ce6 22000000 		.4byte	.LVL131
 21025 2cea 0200     		.2byte	0x2
 21026 2cec 30       		.byte	0x30
 21027 2ced 9F       		.byte	0x9f
 21028 2cee 36000000 		.4byte	.LVL132
 21029 2cf2 FC000000 		.4byte	.LVL162
 21030 2cf6 0200     		.2byte	0x2
 21031 2cf8 30       		.byte	0x30
 21032 2cf9 9F       		.byte	0x9f
 21033 2cfa FC000000 		.4byte	.LVL162
ARM GAS  /var/folders/d2/nstgp4h54kz7g1l847x_b8wc0000gn/T//cc2apEbl.s 			page 370


 21034 2cfe 16010000 		.4byte	.LVL163
 21035 2d02 0300     		.2byte	0x3
 21036 2d04 91       		.byte	0x91
 21037 2d05 A07F     		.sleb128 -96
 21038 2d07 16010000 		.4byte	.LVL163
 21039 2d0b 1A010000 		.4byte	.LVL164
 21040 2d0f 0200     		.2byte	0x2
 21041 2d11 30       		.byte	0x30
 21042 2d12 9F       		.byte	0x9f
 21043 2d13 1A010000 		.4byte	.LVL164
 21044 2d17 F0040000 		.4byte	.LVL308
 21045 2d1b 0300     		.2byte	0x3
 21046 2d1d 91       		.byte	0x91
 21047 2d1e A07F     		.sleb128 -96
 21048 2d20 F0040000 		.4byte	.LVL308
 21049 2d24 32050000 		.4byte	.LVL317
 21050 2d28 0200     		.2byte	0x2
 21051 2d2a 30       		.byte	0x30
 21052 2d2b 9F       		.byte	0x9f
 21053 2d2c 9E050000 		.4byte	.LVL335
 21054 2d30 B8050000 		.4byte	.LVL339
 21055 2d34 0300     		.2byte	0x3
 21056 2d36 91       		.byte	0x91
 21057 2d37 A07F     		.sleb128 -96
 21058 2d39 00000000 		.4byte	0
 21059 2d3d 00000000 		.4byte	0
 21060              	.LLST58:
 21061 2d41 1E000000 		.4byte	.LVL130
 21062 2d45 22000000 		.4byte	.LVL131
 21063 2d49 0200     		.2byte	0x2
 21064 2d4b 30       		.byte	0x30
 21065 2d4c 9F       		.byte	0x9f
 21066 2d4d 36000000 		.4byte	.LVL132
 21067 2d51 DA030000 		.4byte	.LVL252
 21068 2d55 0200     		.2byte	0x2
 21069 2d57 30       		.byte	0x30
 21070 2d58 9F       		.byte	0x9f
 21071 2d59 E4030000 		.4byte	.LVL255
 21072 2d5d 9E050000 		.4byte	.LVL335
 21073 2d61 0200     		.2byte	0x2
 21074 2d63 30       		.byte	0x30
 21075 2d64 9F       		.byte	0x9f
 21076 2d65 9E050000 		.4byte	.LVL335
 21077 2d69 A2050000 		.4byte	.LVL336
 21078 2d6d 0400     		.2byte	0x4
 21079 2d6f 79       		.byte	0x79
 21080 2d70 804E     		.sleb128 -6400
 21081 2d72 9F       		.byte	0x9f
 21082 2d73 A2050000 		.4byte	.LVL336
 21083 2d77 B6050000 		.4byte	.LVL338
 21084 2d7b 0100     		.2byte	0x1
 21085 2d7d 53       		.byte	0x53
 21086 2d7e 00000000 		.4byte	0
 21087 2d82 00000000 		.4byte	0
 21088              	.LLST59:
 21089 2d86 1E000000 		.4byte	.LVL130
 21090 2d8a 22000000 		.4byte	.LVL131
ARM GAS  /var/folders/d2/nstgp4h54kz7g1l847x_b8wc0000gn/T//cc2apEbl.s 			page 371


 21091 2d8e 0200     		.2byte	0x2
 21092 2d90 30       		.byte	0x30
 21093 2d91 9F       		.byte	0x9f
 21094 2d92 36000000 		.4byte	.LVL132
 21095 2d96 DA030000 		.4byte	.LVL252
 21096 2d9a 0200     		.2byte	0x2
 21097 2d9c 30       		.byte	0x30
 21098 2d9d 9F       		.byte	0x9f
 21099 2d9e E4030000 		.4byte	.LVL255
 21100 2da2 9E050000 		.4byte	.LVL335
 21101 2da6 0200     		.2byte	0x2
 21102 2da8 30       		.byte	0x30
 21103 2da9 9F       		.byte	0x9f
 21104 2daa 9E050000 		.4byte	.LVL335
 21105 2dae A2050000 		.4byte	.LVL336
 21106 2db2 0B00     		.2byte	0xb
 21107 2db4 79       		.byte	0x79
 21108 2db5 804E     		.sleb128 -6400
 21109 2db7 0A       		.byte	0xa
 21110 2db8 E803     		.2byte	0x3e8
 21111 2dba 1E       		.byte	0x1e
 21112 2dbb 34       		.byte	0x34
 21113 2dbc 25       		.byte	0x25
 21114 2dbd 1F       		.byte	0x1f
 21115 2dbe 9F       		.byte	0x9f
 21116 2dbf A2050000 		.4byte	.LVL336
 21117 2dc3 B6050000 		.4byte	.LVL338
 21118 2dc7 0A00     		.2byte	0xa
 21119 2dc9 73       		.byte	0x73
 21120 2dca 00       		.sleb128 0
 21121 2dcb 0A       		.byte	0xa
 21122 2dcc E803     		.2byte	0x3e8
 21123 2dce 1E       		.byte	0x1e
 21124 2dcf 34       		.byte	0x34
 21125 2dd0 25       		.byte	0x25
 21126 2dd1 1F       		.byte	0x1f
 21127 2dd2 9F       		.byte	0x9f
 21128 2dd3 00000000 		.4byte	0
 21129 2dd7 00000000 		.4byte	0
 21130              	.LLST60:
 21131 2ddb 1E000000 		.4byte	.LVL130
 21132 2ddf 22000000 		.4byte	.LVL131
 21133 2de3 0200     		.2byte	0x2
 21134 2de5 30       		.byte	0x30
 21135 2de6 9F       		.byte	0x9f
 21136 2de7 36000000 		.4byte	.LVL132
 21137 2deb E2020000 		.4byte	.LVL218
 21138 2def 0200     		.2byte	0x2
 21139 2df1 30       		.byte	0x30
 21140 2df2 9F       		.byte	0x9f
 21141 2df3 E2020000 		.4byte	.LVL218
 21142 2df7 DA030000 		.4byte	.LVL252
 21143 2dfb 0100     		.2byte	0x1
 21144 2dfd 59       		.byte	0x59
 21145 2dfe E4030000 		.4byte	.LVL255
 21146 2e02 E6040000 		.4byte	.LVL304
 21147 2e06 0200     		.2byte	0x2
ARM GAS  /var/folders/d2/nstgp4h54kz7g1l847x_b8wc0000gn/T//cc2apEbl.s 			page 372


 21148 2e08 30       		.byte	0x30
 21149 2e09 9F       		.byte	0x9f
 21150 2e0a E6040000 		.4byte	.LVL304
 21151 2e0e F0040000 		.4byte	.LVL308
 21152 2e12 0100     		.2byte	0x1
 21153 2e14 59       		.byte	0x59
 21154 2e15 F0040000 		.4byte	.LVL308
 21155 2e19 9E050000 		.4byte	.LVL335
 21156 2e1d 0200     		.2byte	0x2
 21157 2e1f 30       		.byte	0x30
 21158 2e20 9F       		.byte	0x9f
 21159 2e21 9E050000 		.4byte	.LVL335
 21160 2e25 A6050000 		.4byte	.LVL337
 21161 2e29 0100     		.2byte	0x1
 21162 2e2b 59       		.byte	0x59
 21163 2e2c A6050000 		.4byte	.LVL337
 21164 2e30 B6050000 		.4byte	.LVL338
 21165 2e34 0400     		.2byte	0x4
 21166 2e36 73       		.byte	0x73
 21167 2e37 8032     		.sleb128 6400
 21168 2e39 9F       		.byte	0x9f
 21169 2e3a 00000000 		.4byte	0
 21170 2e3e 00000000 		.4byte	0
 21171              	.LLST61:
 21172 2e42 1E000000 		.4byte	.LVL130
 21173 2e46 22000000 		.4byte	.LVL131
 21174 2e4a 0200     		.2byte	0x2
 21175 2e4c 30       		.byte	0x30
 21176 2e4d 9F       		.byte	0x9f
 21177 2e4e 36000000 		.4byte	.LVL132
 21178 2e52 E2020000 		.4byte	.LVL218
 21179 2e56 0200     		.2byte	0x2
 21180 2e58 30       		.byte	0x30
 21181 2e59 9F       		.byte	0x9f
 21182 2e5a E2020000 		.4byte	.LVL218
 21183 2e5e E4030000 		.4byte	.LVL255
 21184 2e62 0300     		.2byte	0x3
 21185 2e64 91       		.byte	0x91
 21186 2e65 A47F     		.sleb128 -92
 21187 2e67 E4030000 		.4byte	.LVL255
 21188 2e6b 6A040000 		.4byte	.LVL282
 21189 2e6f 0200     		.2byte	0x2
 21190 2e71 30       		.byte	0x30
 21191 2e72 9F       		.byte	0x9f
 21192 2e73 6A040000 		.4byte	.LVL282
 21193 2e77 9A040000 		.4byte	.LVL291
 21194 2e7b 0100     		.2byte	0x1
 21195 2e7d 59       		.byte	0x59
 21196 2e7e F0040000 		.4byte	.LVL308
 21197 2e82 9E050000 		.4byte	.LVL335
 21198 2e86 0200     		.2byte	0x2
 21199 2e88 30       		.byte	0x30
 21200 2e89 9F       		.byte	0x9f
 21201 2e8a 9E050000 		.4byte	.LVL335
 21202 2e8e B8050000 		.4byte	.LVL339
 21203 2e92 0300     		.2byte	0x3
 21204 2e94 91       		.byte	0x91
ARM GAS  /var/folders/d2/nstgp4h54kz7g1l847x_b8wc0000gn/T//cc2apEbl.s 			page 373


 21205 2e95 A47F     		.sleb128 -92
 21206 2e97 00000000 		.4byte	0
 21207 2e9b 00000000 		.4byte	0
 21208              	.LLST62:
 21209 2e9f A8030000 		.4byte	.LVL248
 21210 2ea3 AE030000 		.4byte	.LVL249
 21211 2ea7 0400     		.2byte	0x4
 21212 2ea9 75       		.byte	0x75
 21213 2eaa F301     		.sleb128 243
 21214 2eac 9F       		.byte	0x9f
 21215 2ead AE030000 		.4byte	.LVL249
 21216 2eb1 B1030000 		.4byte	.LVL250-1
 21217 2eb5 0100     		.2byte	0x1
 21218 2eb7 50       		.byte	0x50
 21219 2eb8 B1030000 		.4byte	.LVL250-1
 21220 2ebc B2030000 		.4byte	.LVL250
 21221 2ec0 0400     		.2byte	0x4
 21222 2ec2 75       		.byte	0x75
 21223 2ec3 F301     		.sleb128 243
 21224 2ec5 9F       		.byte	0x9f
 21225 2ec6 00000000 		.4byte	0
 21226 2eca 00000000 		.4byte	0
 21227              	.LLST63:
 21228 2ece 1E000000 		.4byte	.LVL130
 21229 2ed2 22000000 		.4byte	.LVL131
 21230 2ed6 0100     		.2byte	0x1
 21231 2ed8 56       		.byte	0x56
 21232 2ed9 36000000 		.4byte	.LVL132
 21233 2edd DE030000 		.4byte	.LVL254
 21234 2ee1 0100     		.2byte	0x1
 21235 2ee3 56       		.byte	0x56
 21236 2ee4 E4030000 		.4byte	.LVL255
 21237 2ee8 B8050000 		.4byte	.LVL339
 21238 2eec 0100     		.2byte	0x1
 21239 2eee 56       		.byte	0x56
 21240 2eef 00000000 		.4byte	0
 21241 2ef3 00000000 		.4byte	0
 21242              	.LLST64:
 21243 2ef7 1E000000 		.4byte	.LVL130
 21244 2efb 22000000 		.4byte	.LVL131
 21245 2eff 0200     		.2byte	0x2
 21246 2f01 30       		.byte	0x30
 21247 2f02 9F       		.byte	0x9f
 21248 2f03 36000000 		.4byte	.LVL132
 21249 2f07 D0030000 		.4byte	.LVL251
 21250 2f0b 0200     		.2byte	0x2
 21251 2f0d 30       		.byte	0x30
 21252 2f0e 9F       		.byte	0x9f
 21253 2f0f D0030000 		.4byte	.LVL251
 21254 2f13 DC030000 		.4byte	.LVL253
 21255 2f17 0700     		.2byte	0x7
 21256 2f19 91       		.byte	0x91
 21257 2f1a A47F     		.sleb128 -92
 21258 2f1c 06       		.byte	0x6
 21259 2f1d 39       		.byte	0x39
 21260 2f1e 24       		.byte	0x24
 21261 2f1f 9F       		.byte	0x9f
ARM GAS  /var/folders/d2/nstgp4h54kz7g1l847x_b8wc0000gn/T//cc2apEbl.s 			page 374


 21262 2f20 E4030000 		.4byte	.LVL255
 21263 2f24 9E050000 		.4byte	.LVL335
 21264 2f28 0200     		.2byte	0x2
 21265 2f2a 30       		.byte	0x30
 21266 2f2b 9F       		.byte	0x9f
 21267 2f2c 9E050000 		.4byte	.LVL335
 21268 2f30 B8050000 		.4byte	.LVL339
 21269 2f34 0700     		.2byte	0x7
 21270 2f36 91       		.byte	0x91
 21271 2f37 A47F     		.sleb128 -92
 21272 2f39 06       		.byte	0x6
 21273 2f3a 39       		.byte	0x39
 21274 2f3b 24       		.byte	0x24
 21275 2f3c 9F       		.byte	0x9f
 21276 2f3d 00000000 		.4byte	0
 21277 2f41 00000000 		.4byte	0
 21278              	.LLST65:
 21279 2f45 7A030000 		.4byte	.LVL243
 21280 2f49 84030000 		.4byte	.LVL244
 21281 2f4d 0200     		.2byte	0x2
 21282 2f4f 30       		.byte	0x30
 21283 2f50 9F       		.byte	0x9f
 21284 2f51 84030000 		.4byte	.LVL244
 21285 2f55 88030000 		.4byte	.LVL245
 21286 2f59 0800     		.2byte	0x8
 21287 2f5b 71       		.byte	0x71
 21288 2f5c 00       		.sleb128 0
 21289 2f5d 91       		.byte	0x91
 21290 2f5e 00       		.sleb128 0
 21291 2f5f 1C       		.byte	0x1c
 21292 2f60 23       		.byte	0x23
 21293 2f61 48       		.uleb128 0x48
 21294 2f62 9F       		.byte	0x9f
 21295 2f63 88030000 		.4byte	.LVL245
 21296 2f67 8C030000 		.4byte	.LVL246
 21297 2f6b 0800     		.2byte	0x8
 21298 2f6d 71       		.byte	0x71
 21299 2f6e 00       		.sleb128 0
 21300 2f6f 91       		.byte	0x91
 21301 2f70 00       		.sleb128 0
 21302 2f71 1C       		.byte	0x1c
 21303 2f72 23       		.byte	0x23
 21304 2f73 47       		.uleb128 0x47
 21305 2f74 9F       		.byte	0x9f
 21306 2f75 8C030000 		.4byte	.LVL246
 21307 2f79 90030000 		.4byte	.LVL247
 21308 2f7d 0800     		.2byte	0x8
 21309 2f7f 71       		.byte	0x71
 21310 2f80 00       		.sleb128 0
 21311 2f81 91       		.byte	0x91
 21312 2f82 00       		.sleb128 0
 21313 2f83 1C       		.byte	0x1c
 21314 2f84 23       		.byte	0x23
 21315 2f85 48       		.uleb128 0x48
 21316 2f86 9F       		.byte	0x9f
 21317 2f87 00000000 		.4byte	0
 21318 2f8b 00000000 		.4byte	0
ARM GAS  /var/folders/d2/nstgp4h54kz7g1l847x_b8wc0000gn/T//cc2apEbl.s 			page 375


 21319              	.LLST50:
 21320 2f8f 00000000 		.4byte	.LVL112
 21321 2f93 13000000 		.4byte	.LVL114-1
 21322 2f97 0100     		.2byte	0x1
 21323 2f99 50       		.byte	0x50
 21324 2f9a 13000000 		.4byte	.LVL114-1
 21325 2f9e 64000000 		.4byte	.LFE9
 21326 2fa2 0100     		.2byte	0x1
 21327 2fa4 56       		.byte	0x56
 21328 2fa5 00000000 		.4byte	0
 21329 2fa9 00000000 		.4byte	0
 21330              	.LLST51:
 21331 2fad 0A000000 		.4byte	.LVL113
 21332 2fb1 14000000 		.4byte	.LVL114
 21333 2fb5 0200     		.2byte	0x2
 21334 2fb7 30       		.byte	0x30
 21335 2fb8 9F       		.byte	0x9f
 21336 2fb9 14000000 		.4byte	.LVL114
 21337 2fbd 2C000000 		.4byte	.LVL119
 21338 2fc1 0100     		.2byte	0x1
 21339 2fc3 50       		.byte	0x50
 21340 2fc4 36000000 		.4byte	.LVL121
 21341 2fc8 3A000000 		.4byte	.LVL122
 21342 2fcc 0100     		.2byte	0x1
 21343 2fce 50       		.byte	0x50
 21344 2fcf 3A000000 		.4byte	.LVL122
 21345 2fd3 44000000 		.4byte	.LVL123
 21346 2fd7 0100     		.2byte	0x1
 21347 2fd9 54       		.byte	0x54
 21348 2fda 44000000 		.4byte	.LVL123
 21349 2fde 4A000000 		.4byte	.LVL124
 21350 2fe2 0600     		.2byte	0x6
 21351 2fe4 70       		.byte	0x70
 21352 2fe5 00       		.sleb128 0
 21353 2fe6 74       		.byte	0x74
 21354 2fe7 00       		.sleb128 0
 21355 2fe8 21       		.byte	0x21
 21356 2fe9 9F       		.byte	0x9f
 21357 2fea 54000000 		.4byte	.LVL125
 21358 2fee 5A000000 		.4byte	.LVL126
 21359 2ff2 0100     		.2byte	0x1
 21360 2ff4 50       		.byte	0x50
 21361 2ff5 00000000 		.4byte	0
 21362 2ff9 00000000 		.4byte	0
 21363              	.LLST52:
 21364 2ffd 1E000000 		.4byte	.LVL115
 21365 3001 20000000 		.4byte	.LVL116
 21366 3005 0700     		.2byte	0x7
 21367 3007 0A       		.byte	0xa
 21368 3008 D007     		.2byte	0x7d0
 21369 300a 75       		.byte	0x75
 21370 300b 00       		.sleb128 0
 21371 300c 1C       		.byte	0x1c
 21372 300d 9F       		.byte	0x9f
 21373 300e 20000000 		.4byte	.LVL116
 21374 3012 22000000 		.4byte	.LVL117
 21375 3016 0700     		.2byte	0x7
ARM GAS  /var/folders/d2/nstgp4h54kz7g1l847x_b8wc0000gn/T//cc2apEbl.s 			page 376


 21376 3018 0A       		.byte	0xa
 21377 3019 D107     		.2byte	0x7d1
 21378 301b 75       		.byte	0x75
 21379 301c 00       		.sleb128 0
 21380 301d 1C       		.byte	0x1c
 21381 301e 9F       		.byte	0x9f
 21382 301f 22000000 		.4byte	.LVL117
 21383 3023 3A000000 		.4byte	.LVL122
 21384 3027 0700     		.2byte	0x7
 21385 3029 0A       		.byte	0xa
 21386 302a D007     		.2byte	0x7d0
 21387 302c 75       		.byte	0x75
 21388 302d 00       		.sleb128 0
 21389 302e 1C       		.byte	0x1c
 21390 302f 9F       		.byte	0x9f
 21391 3030 54000000 		.4byte	.LVL125
 21392 3034 5A000000 		.4byte	.LVL126
 21393 3038 0700     		.2byte	0x7
 21394 303a 0A       		.byte	0xa
 21395 303b D007     		.2byte	0x7d0
 21396 303d 75       		.byte	0x75
 21397 303e 00       		.sleb128 0
 21398 303f 1C       		.byte	0x1c
 21399 3040 9F       		.byte	0x9f
 21400 3041 00000000 		.4byte	0
 21401 3045 00000000 		.4byte	0
 21402              	.LLST46:
 21403 3049 00000000 		.4byte	.LVL94
 21404 304d 32000000 		.4byte	.LVL101
 21405 3051 0100     		.2byte	0x1
 21406 3053 50       		.byte	0x50
 21407 3054 32000000 		.4byte	.LVL101
 21408 3058 46000000 		.4byte	.LVL106
 21409 305c 0400     		.2byte	0x4
 21410 305e F3       		.byte	0xf3
 21411 305f 01       		.uleb128 0x1
 21412 3060 50       		.byte	0x50
 21413 3061 9F       		.byte	0x9f
 21414 3062 46000000 		.4byte	.LVL106
 21415 3066 4A000000 		.4byte	.LVL107
 21416 306a 0100     		.2byte	0x1
 21417 306c 50       		.byte	0x50
 21418 306d 4A000000 		.4byte	.LVL107
 21419 3071 56000000 		.4byte	.LVL108
 21420 3075 0400     		.2byte	0x4
 21421 3077 F3       		.byte	0xf3
 21422 3078 01       		.uleb128 0x1
 21423 3079 50       		.byte	0x50
 21424 307a 9F       		.byte	0x9f
 21425 307b 56000000 		.4byte	.LVL108
 21426 307f 58000000 		.4byte	.LVL109
 21427 3083 0100     		.2byte	0x1
 21428 3085 50       		.byte	0x50
 21429 3086 58000000 		.4byte	.LVL109
 21430 308a 64000000 		.4byte	.LFE8
 21431 308e 0400     		.2byte	0x4
 21432 3090 F3       		.byte	0xf3
ARM GAS  /var/folders/d2/nstgp4h54kz7g1l847x_b8wc0000gn/T//cc2apEbl.s 			page 377


 21433 3091 01       		.uleb128 0x1
 21434 3092 50       		.byte	0x50
 21435 3093 9F       		.byte	0x9f
 21436 3094 00000000 		.4byte	0
 21437 3098 00000000 		.4byte	0
 21438              	.LLST47:
 21439 309c 00000000 		.4byte	.LVL94
 21440 30a0 1A000000 		.4byte	.LVL96
 21441 30a4 0100     		.2byte	0x1
 21442 30a6 51       		.byte	0x51
 21443 30a7 1A000000 		.4byte	.LVL96
 21444 30ab 46000000 		.4byte	.LVL106
 21445 30af 0400     		.2byte	0x4
 21446 30b1 F3       		.byte	0xf3
 21447 30b2 01       		.uleb128 0x1
 21448 30b3 51       		.byte	0x51
 21449 30b4 9F       		.byte	0x9f
 21450 30b5 46000000 		.4byte	.LVL106
 21451 30b9 4A000000 		.4byte	.LVL107
 21452 30bd 0100     		.2byte	0x1
 21453 30bf 51       		.byte	0x51
 21454 30c0 4A000000 		.4byte	.LVL107
 21455 30c4 64000000 		.4byte	.LFE8
 21456 30c8 0400     		.2byte	0x4
 21457 30ca F3       		.byte	0xf3
 21458 30cb 01       		.uleb128 0x1
 21459 30cc 51       		.byte	0x51
 21460 30cd 9F       		.byte	0x9f
 21461 30ce 00000000 		.4byte	0
 21462 30d2 00000000 		.4byte	0
 21463              	.LLST48:
 21464 30d6 0A000000 		.4byte	.LVL95
 21465 30da 4A000000 		.4byte	.LVL107
 21466 30de 0200     		.2byte	0x2
 21467 30e0 30       		.byte	0x30
 21468 30e1 9F       		.byte	0x9f
 21469 30e2 56000000 		.4byte	.LVL108
 21470 30e6 58000000 		.4byte	.LVL109
 21471 30ea 0200     		.2byte	0x2
 21472 30ec 30       		.byte	0x30
 21473 30ed 9F       		.byte	0x9f
 21474 30ee 58000000 		.4byte	.LVL109
 21475 30f2 5A000000 		.4byte	.LVL110
 21476 30f6 0100     		.2byte	0x1
 21477 30f8 53       		.byte	0x53
 21478 30f9 00000000 		.4byte	0
 21479 30fd 00000000 		.4byte	0
 21480              	.LLST49:
 21481 3101 1E000000 		.4byte	.LVL97
 21482 3105 46000000 		.4byte	.LVL106
 21483 3109 0100     		.2byte	0x1
 21484 310b 51       		.byte	0x51
 21485 310c 56000000 		.4byte	.LVL108
 21486 3110 5A000000 		.4byte	.LVL110
 21487 3114 0100     		.2byte	0x1
 21488 3116 51       		.byte	0x51
 21489 3117 00000000 		.4byte	0
ARM GAS  /var/folders/d2/nstgp4h54kz7g1l847x_b8wc0000gn/T//cc2apEbl.s 			page 378


 21490 311b 00000000 		.4byte	0
 21491              	.LLST36:
 21492 311f 00000000 		.4byte	.LVL55
 21493 3123 1A000000 		.4byte	.LVL57
 21494 3127 0100     		.2byte	0x1
 21495 3129 50       		.byte	0x50
 21496 312a 1A000000 		.4byte	.LVL57
 21497 312e 54000000 		.4byte	.LFE4
 21498 3132 0100     		.2byte	0x1
 21499 3134 55       		.byte	0x55
 21500 3135 00000000 		.4byte	0
 21501 3139 00000000 		.4byte	0
 21502              	.LLST37:
 21503 313d 14000000 		.4byte	.LVL56
 21504 3141 1A000000 		.4byte	.LVL57
 21505 3145 0200     		.2byte	0x2
 21506 3147 30       		.byte	0x30
 21507 3148 9F       		.byte	0x9f
 21508 3149 1A000000 		.4byte	.LVL57
 21509 314d 28000000 		.4byte	.LVL60
 21510 3151 0100     		.2byte	0x1
 21511 3153 50       		.byte	0x50
 21512 3154 34000000 		.4byte	.LVL62
 21513 3158 48000000 		.4byte	.LVL65
 21514 315c 0100     		.2byte	0x1
 21515 315e 50       		.byte	0x50
 21516 315f 4A000000 		.4byte	.LVL66
 21517 3163 4D000000 		.4byte	.LVL67-1
 21518 3167 0100     		.2byte	0x1
 21519 3169 50       		.byte	0x50
 21520 316a 00000000 		.4byte	0
 21521 316e 00000000 		.4byte	0
 21522              	.LLST38:
 21523 3172 14000000 		.4byte	.LVL56
 21524 3176 1A000000 		.4byte	.LVL57
 21525 317a 0200     		.2byte	0x2
 21526 317c 30       		.byte	0x30
 21527 317d 9F       		.byte	0x9f
 21528 317e 1A000000 		.4byte	.LVL57
 21529 3182 22000000 		.4byte	.LVL58
 21530 3186 0700     		.2byte	0x7
 21531 3188 0A       		.byte	0xa
 21532 3189 D007     		.2byte	0x7d0
 21533 318b 74       		.byte	0x74
 21534 318c 00       		.sleb128 0
 21535 318d 1C       		.byte	0x1c
 21536 318e 9F       		.byte	0x9f
 21537 318f 22000000 		.4byte	.LVL58
 21538 3193 24000000 		.4byte	.LVL59
 21539 3197 0700     		.2byte	0x7
 21540 3199 0A       		.byte	0xa
 21541 319a D107     		.2byte	0x7d1
 21542 319c 74       		.byte	0x74
 21543 319d 00       		.sleb128 0
 21544 319e 1C       		.byte	0x1c
 21545 319f 9F       		.byte	0x9f
 21546 31a0 24000000 		.4byte	.LVL59
ARM GAS  /var/folders/d2/nstgp4h54kz7g1l847x_b8wc0000gn/T//cc2apEbl.s 			page 379


 21547 31a4 38000000 		.4byte	.LVL63
 21548 31a8 0700     		.2byte	0x7
 21549 31aa 0A       		.byte	0xa
 21550 31ab D007     		.2byte	0x7d0
 21551 31ad 74       		.byte	0x74
 21552 31ae 00       		.sleb128 0
 21553 31af 1C       		.byte	0x1c
 21554 31b0 9F       		.byte	0x9f
 21555 31b1 44000000 		.4byte	.LVL64
 21556 31b5 4A000000 		.4byte	.LVL66
 21557 31b9 0700     		.2byte	0x7
 21558 31bb 0A       		.byte	0xa
 21559 31bc D007     		.2byte	0x7d0
 21560 31be 74       		.byte	0x74
 21561 31bf 00       		.sleb128 0
 21562 31c0 1C       		.byte	0x1c
 21563 31c1 9F       		.byte	0x9f
 21564 31c2 00000000 		.4byte	0
 21565 31c6 00000000 		.4byte	0
 21566              	.LLST30:
 21567 31ca 00000000 		.4byte	.LVL45
 21568 31ce 14000000 		.4byte	.LVL49
 21569 31d2 0100     		.2byte	0x1
 21570 31d4 50       		.byte	0x50
 21571 31d5 14000000 		.4byte	.LVL49
 21572 31d9 3C000000 		.4byte	.LFE3
 21573 31dd 0400     		.2byte	0x4
 21574 31df F3       		.byte	0xf3
 21575 31e0 01       		.uleb128 0x1
 21576 31e1 50       		.byte	0x50
 21577 31e2 9F       		.byte	0x9f
 21578 31e3 00000000 		.4byte	0
 21579 31e7 00000000 		.4byte	0
 21580              	.LLST31:
 21581 31eb 00000000 		.4byte	.LVL45
 21582 31ef 14000000 		.4byte	.LVL49
 21583 31f3 0100     		.2byte	0x1
 21584 31f5 51       		.byte	0x51
 21585 31f6 14000000 		.4byte	.LVL49
 21586 31fa 3C000000 		.4byte	.LFE3
 21587 31fe 0400     		.2byte	0x4
 21588 3200 F3       		.byte	0xf3
 21589 3201 01       		.uleb128 0x1
 21590 3202 51       		.byte	0x51
 21591 3203 9F       		.byte	0x9f
 21592 3204 00000000 		.4byte	0
 21593 3208 00000000 		.4byte	0
 21594              	.LLST32:
 21595 320c 18000000 		.4byte	.LVL50
 21596 3210 24000000 		.4byte	.LVL53
 21597 3214 0100     		.2byte	0x1
 21598 3216 52       		.byte	0x52
 21599 3217 00000000 		.4byte	0
 21600 321b 00000000 		.4byte	0
 21601              	.LLST33:
 21602 321f 14000000 		.4byte	.LVL49
 21603 3223 1C000000 		.4byte	.LVL51
ARM GAS  /var/folders/d2/nstgp4h54kz7g1l847x_b8wc0000gn/T//cc2apEbl.s 			page 380


 21604 3227 0800     		.2byte	0x8
 21605 3229 F3       		.byte	0xf3
 21606 322a 01       		.uleb128 0x1
 21607 322b 50       		.byte	0x50
 21608 322c 20       		.byte	0x20
 21609 322d 70       		.byte	0x70
 21610 322e 00       		.sleb128 0
 21611 322f 22       		.byte	0x22
 21612 3230 9F       		.byte	0x9f
 21613 3231 1C000000 		.4byte	.LVL51
 21614 3235 24000000 		.4byte	.LVL53
 21615 3239 0700     		.2byte	0x7
 21616 323b 70       		.byte	0x70
 21617 323c 00       		.sleb128 0
 21618 323d F3       		.byte	0xf3
 21619 323e 01       		.uleb128 0x1
 21620 323f 50       		.byte	0x50
 21621 3240 1C       		.byte	0x1c
 21622 3241 9F       		.byte	0x9f
 21623 3242 00000000 		.4byte	0
 21624 3246 00000000 		.4byte	0
 21625              	.LLST34:
 21626 324a 0A000000 		.4byte	.LVL46
 21627 324e 0C000000 		.4byte	.LVL47
 21628 3252 0500     		.2byte	0x5
 21629 3254 71       		.byte	0x71
 21630 3255 00       		.sleb128 0
 21631 3256 31       		.byte	0x31
 21632 3257 25       		.byte	0x25
 21633 3258 9F       		.byte	0x9f
 21634 3259 0C000000 		.4byte	.LVL47
 21635 325d 12000000 		.4byte	.LVL48
 21636 3261 0100     		.2byte	0x1
 21637 3263 54       		.byte	0x54
 21638 3264 12000000 		.4byte	.LVL48
 21639 3268 14000000 		.4byte	.LVL49
 21640 326c 0500     		.2byte	0x5
 21641 326e 71       		.byte	0x71
 21642 326f 00       		.sleb128 0
 21643 3270 31       		.byte	0x31
 21644 3271 25       		.byte	0x25
 21645 3272 9F       		.byte	0x9f
 21646 3273 14000000 		.4byte	.LVL49
 21647 3277 3C000000 		.4byte	.LFE3
 21648 327b 0600     		.2byte	0x6
 21649 327d F3       		.byte	0xf3
 21650 327e 01       		.uleb128 0x1
 21651 327f 51       		.byte	0x51
 21652 3280 31       		.byte	0x31
 21653 3281 25       		.byte	0x25
 21654 3282 9F       		.byte	0x9f
 21655 3283 00000000 		.4byte	0
 21656 3287 00000000 		.4byte	0
 21657              	.LLST35:
 21658 328b 0A000000 		.4byte	.LVL46
 21659 328f 14000000 		.4byte	.LVL49
 21660 3293 0200     		.2byte	0x2
ARM GAS  /var/folders/d2/nstgp4h54kz7g1l847x_b8wc0000gn/T//cc2apEbl.s 			page 381


 21661 3295 30       		.byte	0x30
 21662 3296 9F       		.byte	0x9f
 21663 3297 14000000 		.4byte	.LVL49
 21664 329b 18000000 		.4byte	.LVL50
 21665 329f 0900     		.2byte	0x9
 21666 32a1 73       		.byte	0x73
 21667 32a2 00       		.sleb128 0
 21668 32a3 F3       		.byte	0xf3
 21669 32a4 01       		.uleb128 0x1
 21670 32a5 50       		.byte	0x50
 21671 32a6 1C       		.byte	0x1c
 21672 32a7 23       		.byte	0x23
 21673 32a8 01       		.uleb128 0x1
 21674 32a9 9F       		.byte	0x9f
 21675 32aa 18000000 		.4byte	.LVL50
 21676 32ae 22000000 		.4byte	.LVL52
 21677 32b2 0700     		.2byte	0x7
 21678 32b4 73       		.byte	0x73
 21679 32b5 00       		.sleb128 0
 21680 32b6 F3       		.byte	0xf3
 21681 32b7 01       		.uleb128 0x1
 21682 32b8 50       		.byte	0x50
 21683 32b9 1C       		.byte	0x1c
 21684 32ba 9F       		.byte	0x9f
 21685 32bb 22000000 		.4byte	.LVL52
 21686 32bf 24000000 		.4byte	.LVL53
 21687 32c3 0900     		.2byte	0x9
 21688 32c5 73       		.byte	0x73
 21689 32c6 00       		.sleb128 0
 21690 32c7 F3       		.byte	0xf3
 21691 32c8 01       		.uleb128 0x1
 21692 32c9 50       		.byte	0x50
 21693 32ca 1C       		.byte	0x1c
 21694 32cb 23       		.byte	0x23
 21695 32cc 01       		.uleb128 0x1
 21696 32cd 9F       		.byte	0x9f
 21697 32ce 00000000 		.4byte	0
 21698 32d2 00000000 		.4byte	0
 21699              	.LLST0:
 21700 32d6 00000000 		.4byte	.LVL0
 21701 32da 0C000000 		.4byte	.LVL1
 21702 32de 0100     		.2byte	0x1
 21703 32e0 50       		.byte	0x50
 21704 32e1 0C000000 		.4byte	.LVL1
 21705 32e5 14000000 		.4byte	.LVL2
 21706 32e9 0300     		.2byte	0x3
 21707 32eb 70       		.byte	0x70
 21708 32ec 01       		.sleb128 1
 21709 32ed 9F       		.byte	0x9f
 21710 32ee 14000000 		.4byte	.LVL2
 21711 32f2 40000000 		.4byte	.LFE28
 21712 32f6 0400     		.2byte	0x4
 21713 32f8 F3       		.byte	0xf3
 21714 32f9 01       		.uleb128 0x1
 21715 32fa 50       		.byte	0x50
 21716 32fb 9F       		.byte	0x9f
 21717 32fc 00000000 		.4byte	0
ARM GAS  /var/folders/d2/nstgp4h54kz7g1l847x_b8wc0000gn/T//cc2apEbl.s 			page 382


 21718 3300 00000000 		.4byte	0
 21719              	.LLST1:
 21720 3304 26000000 		.4byte	.LVL7
 21721 3308 2C000000 		.4byte	.LVL8
 21722 330c 0600     		.2byte	0x6
 21723 330e 70       		.byte	0x70
 21724 330f 00       		.sleb128 0
 21725 3310 73       		.byte	0x73
 21726 3311 00       		.sleb128 0
 21727 3312 22       		.byte	0x22
 21728 3313 9F       		.byte	0x9f
 21729 3314 00000000 		.4byte	0
 21730 3318 00000000 		.4byte	0
 21731              	.LLST2:
 21732 331c 0C000000 		.4byte	.LVL1
 21733 3320 2C000000 		.4byte	.LVL8
 21734 3324 0100     		.2byte	0x1
 21735 3326 50       		.byte	0x50
 21736 3327 00000000 		.4byte	0
 21737 332b 00000000 		.4byte	0
 21738              	.LLST3:
 21739 332f 0C000000 		.4byte	.LVL1
 21740 3333 14000000 		.4byte	.LVL2
 21741 3337 0200     		.2byte	0x2
 21742 3339 30       		.byte	0x30
 21743 333a 9F       		.byte	0x9f
 21744 333b 14000000 		.4byte	.LVL2
 21745 333f 18000000 		.4byte	.LVL4
 21746 3343 0100     		.2byte	0x1
 21747 3345 53       		.byte	0x53
 21748 3346 1E000000 		.4byte	.LVL5
 21749 334a 24000000 		.4byte	.LVL6
 21750 334e 0100     		.2byte	0x1
 21751 3350 53       		.byte	0x53
 21752 3351 00000000 		.4byte	0
 21753 3355 00000000 		.4byte	0
 21754              	.LLST4:
 21755 3359 00000000 		.4byte	.LVL10
 21756 335d 1F000000 		.4byte	.LVL12-1
 21757 3361 0100     		.2byte	0x1
 21758 3363 50       		.byte	0x50
 21759 3364 1F000000 		.4byte	.LVL12-1
 21760 3368 C4000000 		.4byte	.LVL28
 21761 336c 0100     		.2byte	0x1
 21762 336e 55       		.byte	0x55
 21763 336f C4000000 		.4byte	.LVL28
 21764 3373 CD000000 		.4byte	.LVL31-1
 21765 3377 0100     		.2byte	0x1
 21766 3379 50       		.byte	0x50
 21767 337a CD000000 		.4byte	.LVL31-1
 21768 337e 28010000 		.4byte	.LVL42
 21769 3382 0100     		.2byte	0x1
 21770 3384 55       		.byte	0x55
 21771 3385 28010000 		.4byte	.LVL42
 21772 3389 2E010000 		.4byte	.LVL43
 21773 338d 0100     		.2byte	0x1
 21774 338f 50       		.byte	0x50
ARM GAS  /var/folders/d2/nstgp4h54kz7g1l847x_b8wc0000gn/T//cc2apEbl.s 			page 383


 21775 3390 2E010000 		.4byte	.LVL43
 21776 3394 40010000 		.4byte	.LFE29
 21777 3398 0100     		.2byte	0x1
 21778 339a 55       		.byte	0x55
 21779 339b 00000000 		.4byte	0
 21780 339f 00000000 		.4byte	0
 21781              	.LLST5:
 21782 33a3 00000000 		.4byte	.LVL10
 21783 33a7 1C000000 		.4byte	.LVL11
 21784 33ab 0100     		.2byte	0x1
 21785 33ad 51       		.byte	0x51
 21786 33ae 1C000000 		.4byte	.LVL11
 21787 33b2 C4000000 		.4byte	.LVL28
 21788 33b6 0400     		.2byte	0x4
 21789 33b8 F3       		.byte	0xf3
 21790 33b9 01       		.uleb128 0x1
 21791 33ba 51       		.byte	0x51
 21792 33bb 9F       		.byte	0x9f
 21793 33bc C4000000 		.4byte	.LVL28
 21794 33c0 CA000000 		.4byte	.LVL30
 21795 33c4 0100     		.2byte	0x1
 21796 33c6 51       		.byte	0x51
 21797 33c7 CA000000 		.4byte	.LVL30
 21798 33cb 28010000 		.4byte	.LVL42
 21799 33cf 0400     		.2byte	0x4
 21800 33d1 F3       		.byte	0xf3
 21801 33d2 01       		.uleb128 0x1
 21802 33d3 51       		.byte	0x51
 21803 33d4 9F       		.byte	0x9f
 21804 33d5 28010000 		.4byte	.LVL42
 21805 33d9 2E010000 		.4byte	.LVL43
 21806 33dd 0100     		.2byte	0x1
 21807 33df 51       		.byte	0x51
 21808 33e0 2E010000 		.4byte	.LVL43
 21809 33e4 40010000 		.4byte	.LFE29
 21810 33e8 0400     		.2byte	0x4
 21811 33ea F3       		.byte	0xf3
 21812 33eb 01       		.uleb128 0x1
 21813 33ec 51       		.byte	0x51
 21814 33ed 9F       		.byte	0x9f
 21815 33ee 00000000 		.4byte	0
 21816 33f2 00000000 		.4byte	0
 21817              	.LLST6:
 21818 33f6 00000000 		.4byte	.LVL10
 21819 33fa 1F000000 		.4byte	.LVL12-1
 21820 33fe 0100     		.2byte	0x1
 21821 3400 52       		.byte	0x52
 21822 3401 1F000000 		.4byte	.LVL12-1
 21823 3405 C4000000 		.4byte	.LVL28
 21824 3409 0100     		.2byte	0x1
 21825 340b 57       		.byte	0x57
 21826 340c C4000000 		.4byte	.LVL28
 21827 3410 C8000000 		.4byte	.LVL29
 21828 3414 0100     		.2byte	0x1
 21829 3416 52       		.byte	0x52
 21830 3417 C8000000 		.4byte	.LVL29
 21831 341b 28010000 		.4byte	.LVL42
ARM GAS  /var/folders/d2/nstgp4h54kz7g1l847x_b8wc0000gn/T//cc2apEbl.s 			page 384


 21832 341f 0100     		.2byte	0x1
 21833 3421 57       		.byte	0x57
 21834 3422 28010000 		.4byte	.LVL42
 21835 3426 2E010000 		.4byte	.LVL43
 21836 342a 0100     		.2byte	0x1
 21837 342c 52       		.byte	0x52
 21838 342d 2E010000 		.4byte	.LVL43
 21839 3431 40010000 		.4byte	.LFE29
 21840 3435 0100     		.2byte	0x1
 21841 3437 57       		.byte	0x57
 21842 3438 00000000 		.4byte	0
 21843 343c 00000000 		.4byte	0
 21844              	.LLST7:
 21845 3440 36000000 		.4byte	.LVL14
 21846 3444 42000000 		.4byte	.LVL16
 21847 3448 0100     		.2byte	0x1
 21848 344a 50       		.byte	0x50
 21849 344b 6E000000 		.4byte	.LVL21
 21850 344f 76000000 		.4byte	.LVL22
 21851 3453 0100     		.2byte	0x1
 21852 3455 50       		.byte	0x50
 21853 3456 76000000 		.4byte	.LVL22
 21854 345a 86000000 		.4byte	.LVL23
 21855 345e 0100     		.2byte	0x1
 21856 3460 54       		.byte	0x54
 21857 3461 94000000 		.4byte	.LVL24
 21858 3465 A2000000 		.4byte	.LVL25
 21859 3469 0100     		.2byte	0x1
 21860 346b 50       		.byte	0x50
 21861 346c A6000000 		.4byte	.LVL26
 21862 3470 C4000000 		.4byte	.LVL28
 21863 3474 0100     		.2byte	0x1
 21864 3476 50       		.byte	0x50
 21865 3477 D6000000 		.4byte	.LVL32
 21866 347b 0E010000 		.4byte	.LVL37
 21867 347f 0100     		.2byte	0x1
 21868 3481 54       		.byte	0x54
 21869 3482 0E010000 		.4byte	.LVL37
 21870 3486 1A010000 		.4byte	.LVL38
 21871 348a 0100     		.2byte	0x1
 21872 348c 50       		.byte	0x50
 21873 348d 1A010000 		.4byte	.LVL38
 21874 3491 20010000 		.4byte	.LVL40
 21875 3495 0100     		.2byte	0x1
 21876 3497 54       		.byte	0x54
 21877 3498 2E010000 		.4byte	.LVL43
 21878 349c 40010000 		.4byte	.LFE29
 21879 34a0 0100     		.2byte	0x1
 21880 34a2 54       		.byte	0x54
 21881 34a3 00000000 		.4byte	0
 21882 34a7 00000000 		.4byte	0
 21883              	.LLST8:
 21884 34ab 20000000 		.4byte	.LVL12
 21885 34af 2C000000 		.4byte	.LVL13
 21886 34b3 0200     		.2byte	0x2
 21887 34b5 30       		.byte	0x30
 21888 34b6 9F       		.byte	0x9f
ARM GAS  /var/folders/d2/nstgp4h54kz7g1l847x_b8wc0000gn/T//cc2apEbl.s 			page 385


 21889 34b7 86000000 		.4byte	.LVL23
 21890 34bb BC000000 		.4byte	.LVL27
 21891 34bf 0200     		.2byte	0x2
 21892 34c1 30       		.byte	0x30
 21893 34c2 9F       		.byte	0x9f
 21894 34c3 BC000000 		.4byte	.LVL27
 21895 34c7 C4000000 		.4byte	.LVL28
 21896 34cb 0100     		.2byte	0x1
 21897 34cd 58       		.byte	0x58
 21898 34ce E0000000 		.4byte	.LVL33
 21899 34d2 E4000000 		.4byte	.LVL34
 21900 34d6 2700     		.2byte	0x27
 21901 34d8 77       		.byte	0x77
 21902 34d9 00       		.sleb128 0
 21903 34da 0A       		.byte	0xa
 21904 34db E803     		.2byte	0x3e8
 21905 34dd 1E       		.byte	0x1e
 21906 34de 73       		.byte	0x73
 21907 34df 00       		.sleb128 0
 21908 34e0 F7       		.byte	0xf7
 21909 34e1 25       		.uleb128 0x25
 21910 34e2 0A       		.byte	0xa
 21911 34e3 D007     		.2byte	0x7d0
 21912 34e5 F7       		.byte	0xf7
 21913 34e6 25       		.uleb128 0x25
 21914 34e7 1B       		.byte	0x1b
 21915 34e8 F7       		.byte	0xf7
 21916 34e9 00       		.uleb128 0
 21917 34ea 22       		.byte	0x22
 21918 34eb F7       		.byte	0xf7
 21919 34ec 25       		.uleb128 0x25
 21920 34ed 73       		.byte	0x73
 21921 34ee 00       		.sleb128 0
 21922 34ef F7       		.byte	0xf7
 21923 34f0 25       		.uleb128 0x25
 21924 34f1 0A       		.byte	0xa
 21925 34f2 E803     		.2byte	0x3e8
 21926 34f4 F7       		.byte	0xf7
 21927 34f5 25       		.uleb128 0x25
 21928 34f6 1B       		.byte	0x1b
 21929 34f7 F7       		.byte	0xf7
 21930 34f8 00       		.uleb128 0
 21931 34f9 F7       		.byte	0xf7
 21932 34fa 25       		.uleb128 0x25
 21933 34fb 1B       		.byte	0x1b
 21934 34fc F7       		.byte	0xf7
 21935 34fd 00       		.uleb128 0
 21936 34fe 9F       		.byte	0x9f
 21937 34ff E4000000 		.4byte	.LVL34
 21938 3503 F8000000 		.4byte	.LVL36
 21939 3507 4300     		.2byte	0x43
 21940 3509 77       		.byte	0x77
 21941 350a 00       		.sleb128 0
 21942 350b 0A       		.byte	0xa
 21943 350c E803     		.2byte	0x3e8
 21944 350e 1E       		.byte	0x1e
 21945 350f 91       		.byte	0x91
ARM GAS  /var/folders/d2/nstgp4h54kz7g1l847x_b8wc0000gn/T//cc2apEbl.s 			page 386


 21946 3510 51       		.sleb128 -47
 21947 3511 94       		.byte	0x94
 21948 3512 01       		.byte	0x1
 21949 3513 08       		.byte	0x8
 21950 3514 FF       		.byte	0xff
 21951 3515 1A       		.byte	0x1a
 21952 3516 0C       		.byte	0xc
 21953 3517 002F3A00 		.4byte	0x3a2f00
 21954 351b 1E       		.byte	0x1e
 21955 351c 23       		.byte	0x23
 21956 351d F403     		.uleb128 0x1f4
 21957 351f F7       		.byte	0xf7
 21958 3520 25       		.uleb128 0x25
 21959 3521 0A       		.byte	0xa
 21960 3522 D007     		.2byte	0x7d0
 21961 3524 F7       		.byte	0xf7
 21962 3525 25       		.uleb128 0x25
 21963 3526 1B       		.byte	0x1b
 21964 3527 F7       		.byte	0xf7
 21965 3528 00       		.uleb128 0
 21966 3529 22       		.byte	0x22
 21967 352a F7       		.byte	0xf7
 21968 352b 25       		.uleb128 0x25
 21969 352c 91       		.byte	0x91
 21970 352d 51       		.sleb128 -47
 21971 352e 94       		.byte	0x94
 21972 352f 01       		.byte	0x1
 21973 3530 08       		.byte	0x8
 21974 3531 FF       		.byte	0xff
 21975 3532 1A       		.byte	0x1a
 21976 3533 0C       		.byte	0xc
 21977 3534 002F3A00 		.4byte	0x3a2f00
 21978 3538 1E       		.byte	0x1e
 21979 3539 23       		.byte	0x23
 21980 353a F403     		.uleb128 0x1f4
 21981 353c F7       		.byte	0xf7
 21982 353d 25       		.uleb128 0x25
 21983 353e 0A       		.byte	0xa
 21984 353f E803     		.2byte	0x3e8
 21985 3541 F7       		.byte	0xf7
 21986 3542 25       		.uleb128 0x25
 21987 3543 1B       		.byte	0x1b
 21988 3544 F7       		.byte	0xf7
 21989 3545 00       		.uleb128 0
 21990 3546 F7       		.byte	0xf7
 21991 3547 25       		.uleb128 0x25
 21992 3548 1B       		.byte	0x1b
 21993 3549 F7       		.byte	0xf7
 21994 354a 00       		.uleb128 0
 21995 354b 9F       		.byte	0x9f
 21996 354c 1A010000 		.4byte	.LVL38
 21997 3550 1D010000 		.4byte	.LVL39-1
 21998 3554 4300     		.2byte	0x43
 21999 3556 77       		.byte	0x77
 22000 3557 00       		.sleb128 0
 22001 3558 0A       		.byte	0xa
 22002 3559 E803     		.2byte	0x3e8
ARM GAS  /var/folders/d2/nstgp4h54kz7g1l847x_b8wc0000gn/T//cc2apEbl.s 			page 387


 22003 355b 1E       		.byte	0x1e
 22004 355c 91       		.byte	0x91
 22005 355d 51       		.sleb128 -47
 22006 355e 94       		.byte	0x94
 22007 355f 01       		.byte	0x1
 22008 3560 08       		.byte	0x8
 22009 3561 FF       		.byte	0xff
 22010 3562 1A       		.byte	0x1a
 22011 3563 0C       		.byte	0xc
 22012 3564 002F3A00 		.4byte	0x3a2f00
 22013 3568 1E       		.byte	0x1e
 22014 3569 23       		.byte	0x23
 22015 356a F403     		.uleb128 0x1f4
 22016 356c F7       		.byte	0xf7
 22017 356d 25       		.uleb128 0x25
 22018 356e 0A       		.byte	0xa
 22019 356f D007     		.2byte	0x7d0
 22020 3571 F7       		.byte	0xf7
 22021 3572 25       		.uleb128 0x25
 22022 3573 1B       		.byte	0x1b
 22023 3574 F7       		.byte	0xf7
 22024 3575 00       		.uleb128 0
 22025 3576 22       		.byte	0x22
 22026 3577 F7       		.byte	0xf7
 22027 3578 25       		.uleb128 0x25
 22028 3579 91       		.byte	0x91
 22029 357a 51       		.sleb128 -47
 22030 357b 94       		.byte	0x94
 22031 357c 01       		.byte	0x1
 22032 357d 08       		.byte	0x8
 22033 357e FF       		.byte	0xff
 22034 357f 1A       		.byte	0x1a
 22035 3580 0C       		.byte	0xc
 22036 3581 002F3A00 		.4byte	0x3a2f00
 22037 3585 1E       		.byte	0x1e
 22038 3586 23       		.byte	0x23
 22039 3587 F403     		.uleb128 0x1f4
 22040 3589 F7       		.byte	0xf7
 22041 358a 25       		.uleb128 0x25
 22042 358b 0A       		.byte	0xa
 22043 358c E803     		.2byte	0x3e8
 22044 358e F7       		.byte	0xf7
 22045 358f 25       		.uleb128 0x25
 22046 3590 1B       		.byte	0x1b
 22047 3591 F7       		.byte	0xf7
 22048 3592 00       		.uleb128 0
 22049 3593 F7       		.byte	0xf7
 22050 3594 25       		.uleb128 0x25
 22051 3595 1B       		.byte	0x1b
 22052 3596 F7       		.byte	0xf7
 22053 3597 00       		.uleb128 0
 22054 3598 9F       		.byte	0x9f
 22055 3599 00000000 		.4byte	0
 22056 359d 00000000 		.4byte	0
 22057              	.LLST9:
 22058 35a1 5E000000 		.4byte	.LVL18
 22059 35a5 62000000 		.4byte	.LVL19
ARM GAS  /var/folders/d2/nstgp4h54kz7g1l847x_b8wc0000gn/T//cc2apEbl.s 			page 388


 22060 35a9 0600     		.2byte	0x6
 22061 35ab 70       		.byte	0x70
 22062 35ac 00       		.sleb128 0
 22063 35ad 78       		.byte	0x78
 22064 35ae 00       		.sleb128 0
 22065 35af 22       		.byte	0x22
 22066 35b0 9F       		.byte	0x9f
 22067 35b1 62000000 		.4byte	.LVL19
 22068 35b5 66000000 		.4byte	.LVL20
 22069 35b9 0100     		.2byte	0x1
 22070 35bb 50       		.byte	0x50
 22071 35bc 20010000 		.4byte	.LVL40
 22072 35c0 23010000 		.4byte	.LVL41-1
 22073 35c4 0100     		.2byte	0x1
 22074 35c6 50       		.byte	0x50
 22075 35c7 00000000 		.4byte	0
 22076 35cb 00000000 		.4byte	0
 22077              	.LLST10:
 22078 35cf 3A000000 		.4byte	.LVL15
 22079 35d3 4A000000 		.4byte	.LVL17
 22080 35d7 0200     		.2byte	0x2
 22081 35d9 79       		.byte	0x79
 22082 35da 00       		.sleb128 0
 22083 35db 00000000 		.4byte	0
 22084 35df 00000000 		.4byte	0
 22085              	.LLST11:
 22086 35e3 3A000000 		.4byte	.LVL15
 22087 35e7 4A000000 		.4byte	.LVL17
 22088 35eb 0100     		.2byte	0x1
 22089 35ed 57       		.byte	0x57
 22090 35ee 00000000 		.4byte	0
 22091 35f2 00000000 		.4byte	0
 22092              	.LLST12:
 22093 35f6 3A000000 		.4byte	.LVL15
 22094 35fa 4A000000 		.4byte	.LVL17
 22095 35fe 0100     		.2byte	0x1
 22096 3600 55       		.byte	0x55
 22097 3601 00000000 		.4byte	0
 22098 3605 00000000 		.4byte	0
 22099              	.LLST13:
 22100 3609 3A000000 		.4byte	.LVL15
 22101 360d 4A000000 		.4byte	.LVL17
 22102 3611 0200     		.2byte	0x2
 22103 3613 30       		.byte	0x30
 22104 3614 9F       		.byte	0x9f
 22105 3615 00000000 		.4byte	0
 22106 3619 00000000 		.4byte	0
 22107              	.LLST14:
 22108 361d 3A000000 		.4byte	.LVL15
 22109 3621 76000000 		.4byte	.LVL22
 22110 3625 0A00     		.2byte	0xa
 22111 3627 9E       		.byte	0x9e
 22112 3628 08       		.uleb128 0x8
 22113 3629 77060000 		.8byte	0x677
 22113      00000000 
 22114 3631 20010000 		.4byte	.LVL40
 22115 3635 28010000 		.4byte	.LVL42
ARM GAS  /var/folders/d2/nstgp4h54kz7g1l847x_b8wc0000gn/T//cc2apEbl.s 			page 389


 22116 3639 0A00     		.2byte	0xa
 22117 363b 9E       		.byte	0x9e
 22118 363c 08       		.uleb128 0x8
 22119 363d 77060000 		.8byte	0x677
 22119      00000000 
 22120 3645 00000000 		.4byte	0
 22121 3649 00000000 		.4byte	0
 22122              	.LLST15:
 22123 364d 3A000000 		.4byte	.LVL15
 22124 3651 76000000 		.4byte	.LVL22
 22125 3655 0400     		.2byte	0x4
 22126 3657 0A       		.byte	0xa
 22127 3658 0009     		.2byte	0x900
 22128 365a 9F       		.byte	0x9f
 22129 365b 20010000 		.4byte	.LVL40
 22130 365f 28010000 		.4byte	.LVL42
 22131 3663 0400     		.2byte	0x4
 22132 3665 0A       		.byte	0xa
 22133 3666 0009     		.2byte	0x900
 22134 3668 9F       		.byte	0x9f
 22135 3669 00000000 		.4byte	0
 22136 366d 00000000 		.4byte	0
 22137              	.LLST17:
 22138 3671 5E000000 		.4byte	.LVL18
 22139 3675 66000000 		.4byte	.LVL20
 22140 3679 0200     		.2byte	0x2
 22141 367b 30       		.byte	0x30
 22142 367c 9F       		.byte	0x9f
 22143 367d 20010000 		.4byte	.LVL40
 22144 3681 28010000 		.4byte	.LVL42
 22145 3685 0200     		.2byte	0x2
 22146 3687 30       		.byte	0x30
 22147 3688 9F       		.byte	0x9f
 22148 3689 00000000 		.4byte	0
 22149 368d 00000000 		.4byte	0
 22150              	.LLST18:
 22151 3691 5E000000 		.4byte	.LVL18
 22152 3695 76000000 		.4byte	.LVL22
 22153 3699 0200     		.2byte	0x2
 22154 369b 30       		.byte	0x30
 22155 369c 9F       		.byte	0x9f
 22156 369d 20010000 		.4byte	.LVL40
 22157 36a1 28010000 		.4byte	.LVL42
 22158 36a5 0200     		.2byte	0x2
 22159 36a7 30       		.byte	0x30
 22160 36a8 9F       		.byte	0x9f
 22161 36a9 00000000 		.4byte	0
 22162 36ad 00000000 		.4byte	0
 22163              	.LLST20:
 22164 36b1 D6000000 		.4byte	.LVL32
 22165 36b5 E0000000 		.4byte	.LVL33
 22166 36b9 0200     		.2byte	0x2
 22167 36bb 91       		.byte	0x91
 22168 36bc 51       		.sleb128 -47
 22169 36bd 00000000 		.4byte	0
 22170 36c1 00000000 		.4byte	0
 22171              	.LLST21:
ARM GAS  /var/folders/d2/nstgp4h54kz7g1l847x_b8wc0000gn/T//cc2apEbl.s 			page 390


 22172 36c5 D6000000 		.4byte	.LVL32
 22173 36c9 E0000000 		.4byte	.LVL33
 22174 36cd 0100     		.2byte	0x1
 22175 36cf 57       		.byte	0x57
 22176 36d0 00000000 		.4byte	0
 22177 36d4 00000000 		.4byte	0
 22178              	.LLST22:
 22179 36d8 D6000000 		.4byte	.LVL32
 22180 36dc E0000000 		.4byte	.LVL33
 22181 36e0 0100     		.2byte	0x1
 22182 36e2 55       		.byte	0x55
 22183 36e3 00000000 		.4byte	0
 22184 36e7 00000000 		.4byte	0
 22185              	.LLST23:
 22186 36eb D6000000 		.4byte	.LVL32
 22187 36ef E0000000 		.4byte	.LVL33
 22188 36f3 0200     		.2byte	0x2
 22189 36f5 30       		.byte	0x30
 22190 36f6 9F       		.byte	0x9f
 22191 36f7 00000000 		.4byte	0
 22192 36fb 00000000 		.4byte	0
 22193              	.LLST24:
 22194 36ff D6000000 		.4byte	.LVL32
 22195 3703 20010000 		.4byte	.LVL40
 22196 3707 0A00     		.2byte	0xa
 22197 3709 9E       		.byte	0x9e
 22198 370a 08       		.uleb128 0x8
 22199 370b 77060000 		.8byte	0x677
 22199      00000000 
 22200 3713 00000000 		.4byte	0
 22201 3717 00000000 		.4byte	0
 22202              	.LLST25:
 22203 371b D6000000 		.4byte	.LVL32
 22204 371f 20010000 		.4byte	.LVL40
 22205 3723 0400     		.2byte	0x4
 22206 3725 0A       		.byte	0xa
 22207 3726 0009     		.2byte	0x900
 22208 3728 9F       		.byte	0x9f
 22209 3729 00000000 		.4byte	0
 22210 372d 00000000 		.4byte	0
 22211              	.LLST26:
 22212 3731 F6000000 		.4byte	.LVL35
 22213 3735 F8000000 		.4byte	.LVL36
 22214 3739 0100     		.2byte	0x1
 22215 373b 50       		.byte	0x50
 22216 373c 1A010000 		.4byte	.LVL38
 22217 3740 1D010000 		.4byte	.LVL39-1
 22218 3744 0100     		.2byte	0x1
 22219 3746 50       		.byte	0x50
 22220 3747 00000000 		.4byte	0
 22221 374b 00000000 		.4byte	0
 22222              	.LLST27:
 22223 374f F6000000 		.4byte	.LVL35
 22224 3753 F8000000 		.4byte	.LVL36
 22225 3757 0200     		.2byte	0x2
 22226 3759 30       		.byte	0x30
 22227 375a 9F       		.byte	0x9f
ARM GAS  /var/folders/d2/nstgp4h54kz7g1l847x_b8wc0000gn/T//cc2apEbl.s 			page 391


 22228 375b 1A010000 		.4byte	.LVL38
 22229 375f 20010000 		.4byte	.LVL40
 22230 3763 0200     		.2byte	0x2
 22231 3765 30       		.byte	0x30
 22232 3766 9F       		.byte	0x9f
 22233 3767 00000000 		.4byte	0
 22234 376b 00000000 		.4byte	0
 22235              	.LLST28:
 22236 376f F6000000 		.4byte	.LVL35
 22237 3773 20010000 		.4byte	.LVL40
 22238 3777 0200     		.2byte	0x2
 22239 3779 30       		.byte	0x30
 22240 377a 9F       		.byte	0x9f
 22241 377b 00000000 		.4byte	0
 22242 377f 00000000 		.4byte	0
 22243              	.LLST39:
 22244 3783 00000000 		.4byte	.LVL68
 22245 3787 14000000 		.4byte	.LVL70
 22246 378b 0100     		.2byte	0x1
 22247 378d 50       		.byte	0x50
 22248 378e 14000000 		.4byte	.LVL70
 22249 3792 20000000 		.4byte	.LVL71
 22250 3796 0400     		.2byte	0x4
 22251 3798 F3       		.byte	0xf3
 22252 3799 01       		.uleb128 0x1
 22253 379a 50       		.byte	0x50
 22254 379b 9F       		.byte	0x9f
 22255 379c 20000000 		.4byte	.LVL71
 22256 37a0 23000000 		.4byte	.LVL72-1
 22257 37a4 0100     		.2byte	0x1
 22258 37a6 50       		.byte	0x50
 22259 37a7 23000000 		.4byte	.LVL72-1
 22260 37ab 28000000 		.4byte	.LFE5
 22261 37af 0400     		.2byte	0x4
 22262 37b1 F3       		.byte	0xf3
 22263 37b2 01       		.uleb128 0x1
 22264 37b3 50       		.byte	0x50
 22265 37b4 9F       		.byte	0x9f
 22266 37b5 00000000 		.4byte	0
 22267 37b9 00000000 		.4byte	0
 22268              	.LLST40:
 22269 37bd 0A000000 		.4byte	.LVL69
 22270 37c1 14000000 		.4byte	.LVL70
 22271 37c5 0500     		.2byte	0x5
 22272 37c7 70       		.byte	0x70
 22273 37c8 01       		.sleb128 1
 22274 37c9 31       		.byte	0x31
 22275 37ca 24       		.byte	0x24
 22276 37cb 9F       		.byte	0x9f
 22277 37cc 14000000 		.4byte	.LVL70
 22278 37d0 20000000 		.4byte	.LVL71
 22279 37d4 0800     		.2byte	0x8
 22280 37d6 F3       		.byte	0xf3
 22281 37d7 01       		.uleb128 0x1
 22282 37d8 50       		.byte	0x50
 22283 37d9 23       		.byte	0x23
 22284 37da 01       		.uleb128 0x1
ARM GAS  /var/folders/d2/nstgp4h54kz7g1l847x_b8wc0000gn/T//cc2apEbl.s 			page 392


 22285 37db 31       		.byte	0x31
 22286 37dc 24       		.byte	0x24
 22287 37dd 9F       		.byte	0x9f
 22288 37de 20000000 		.4byte	.LVL71
 22289 37e2 23000000 		.4byte	.LVL72-1
 22290 37e6 0500     		.2byte	0x5
 22291 37e8 70       		.byte	0x70
 22292 37e9 01       		.sleb128 1
 22293 37ea 31       		.byte	0x31
 22294 37eb 24       		.byte	0x24
 22295 37ec 9F       		.byte	0x9f
 22296 37ed 23000000 		.4byte	.LVL72-1
 22297 37f1 28000000 		.4byte	.LFE5
 22298 37f5 0800     		.2byte	0x8
 22299 37f7 F3       		.byte	0xf3
 22300 37f8 01       		.uleb128 0x1
 22301 37f9 50       		.byte	0x50
 22302 37fa 23       		.byte	0x23
 22303 37fb 01       		.uleb128 0x1
 22304 37fc 31       		.byte	0x31
 22305 37fd 24       		.byte	0x24
 22306 37fe 9F       		.byte	0x9f
 22307 37ff 00000000 		.4byte	0
 22308 3803 00000000 		.4byte	0
 22309              	.LLST41:
 22310 3807 00000000 		.4byte	.LVL73
 22311 380b 14000000 		.4byte	.LVL75
 22312 380f 0100     		.2byte	0x1
 22313 3811 50       		.byte	0x50
 22314 3812 14000000 		.4byte	.LVL75
 22315 3816 1E000000 		.4byte	.LVL76
 22316 381a 0400     		.2byte	0x4
 22317 381c F3       		.byte	0xf3
 22318 381d 01       		.uleb128 0x1
 22319 381e 50       		.byte	0x50
 22320 381f 9F       		.byte	0x9f
 22321 3820 1E000000 		.4byte	.LVL76
 22322 3824 21000000 		.4byte	.LVL77-1
 22323 3828 0100     		.2byte	0x1
 22324 382a 50       		.byte	0x50
 22325 382b 21000000 		.4byte	.LVL77-1
 22326 382f 28000000 		.4byte	.LFE6
 22327 3833 0400     		.2byte	0x4
 22328 3835 F3       		.byte	0xf3
 22329 3836 01       		.uleb128 0x1
 22330 3837 50       		.byte	0x50
 22331 3838 9F       		.byte	0x9f
 22332 3839 00000000 		.4byte	0
 22333 383d 00000000 		.4byte	0
 22334              	.LLST42:
 22335 3841 0A000000 		.4byte	.LVL74
 22336 3845 14000000 		.4byte	.LVL75
 22337 3849 0700     		.2byte	0x7
 22338 384b 70       		.byte	0x70
 22339 384c 00       		.sleb128 0
 22340 384d 31       		.byte	0x31
 22341 384e 25       		.byte	0x25
ARM GAS  /var/folders/d2/nstgp4h54kz7g1l847x_b8wc0000gn/T//cc2apEbl.s 			page 393


 22342 384f 31       		.byte	0x31
 22343 3850 1C       		.byte	0x1c
 22344 3851 9F       		.byte	0x9f
 22345 3852 14000000 		.4byte	.LVL75
 22346 3856 1E000000 		.4byte	.LVL76
 22347 385a 0800     		.2byte	0x8
 22348 385c F3       		.byte	0xf3
 22349 385d 01       		.uleb128 0x1
 22350 385e 50       		.byte	0x50
 22351 385f 31       		.byte	0x31
 22352 3860 25       		.byte	0x25
 22353 3861 31       		.byte	0x31
 22354 3862 1C       		.byte	0x1c
 22355 3863 9F       		.byte	0x9f
 22356 3864 1E000000 		.4byte	.LVL76
 22357 3868 21000000 		.4byte	.LVL77-1
 22358 386c 0700     		.2byte	0x7
 22359 386e 70       		.byte	0x70
 22360 386f 00       		.sleb128 0
 22361 3870 31       		.byte	0x31
 22362 3871 25       		.byte	0x25
 22363 3872 31       		.byte	0x31
 22364 3873 1C       		.byte	0x1c
 22365 3874 9F       		.byte	0x9f
 22366 3875 21000000 		.4byte	.LVL77-1
 22367 3879 28000000 		.4byte	.LFE6
 22368 387d 0800     		.2byte	0x8
 22369 387f F3       		.byte	0xf3
 22370 3880 01       		.uleb128 0x1
 22371 3881 50       		.byte	0x50
 22372 3882 31       		.byte	0x31
 22373 3883 25       		.byte	0x25
 22374 3884 31       		.byte	0x31
 22375 3885 1C       		.byte	0x1c
 22376 3886 9F       		.byte	0x9f
 22377 3887 00000000 		.4byte	0
 22378 388b 00000000 		.4byte	0
 22379              	.LLST43:
 22380 388f 00000000 		.4byte	.LVL78
 22381 3893 2A000000 		.4byte	.LVL85
 22382 3897 0100     		.2byte	0x1
 22383 3899 50       		.byte	0x50
 22384 389a 2A000000 		.4byte	.LVL85
 22385 389e 38000000 		.4byte	.LVL90
 22386 38a2 0100     		.2byte	0x1
 22387 38a4 50       		.byte	0x50
 22388 38a5 3E000000 		.4byte	.LVL91
 22389 38a9 42000000 		.4byte	.LVL92
 22390 38ad 0100     		.2byte	0x1
 22391 38af 50       		.byte	0x50
 22392 38b0 00000000 		.4byte	0
 22393 38b4 00000000 		.4byte	0
 22394              	.LLST44:
 22395 38b8 0A000000 		.4byte	.LVL79
 22396 38bc 1E000000 		.4byte	.LVL83
 22397 38c0 0200     		.2byte	0x2
 22398 38c2 30       		.byte	0x30
ARM GAS  /var/folders/d2/nstgp4h54kz7g1l847x_b8wc0000gn/T//cc2apEbl.s 			page 394


 22399 38c3 9F       		.byte	0x9f
 22400 38c4 1E000000 		.4byte	.LVL83
 22401 38c8 30000000 		.4byte	.LVL88
 22402 38cc 0100     		.2byte	0x1
 22403 38ce 52       		.byte	0x52
 22404 38cf 3E000000 		.4byte	.LVL91
 22405 38d3 42000000 		.4byte	.LVL92
 22406 38d7 0200     		.2byte	0x2
 22407 38d9 30       		.byte	0x30
 22408 38da 9F       		.byte	0x9f
 22409 38db 00000000 		.4byte	0
 22410 38df 00000000 		.4byte	0
 22411              	.LLST45:
 22412 38e3 0A000000 		.4byte	.LVL79
 22413 38e7 14000000 		.4byte	.LVL80
 22414 38eb 0400     		.2byte	0x4
 22415 38ed 40       		.byte	0x40
 22416 38ee 4A       		.byte	0x4a
 22417 38ef 24       		.byte	0x24
 22418 38f0 9F       		.byte	0x9f
 22419 38f1 14000000 		.4byte	.LVL80
 22420 38f5 1C000000 		.4byte	.LVL82
 22421 38f9 0100     		.2byte	0x1
 22422 38fb 53       		.byte	0x53
 22423 38fc 1E000000 		.4byte	.LVL83
 22424 3900 2C000000 		.4byte	.LVL86
 22425 3904 0100     		.2byte	0x1
 22426 3906 53       		.byte	0x53
 22427 3907 2C000000 		.4byte	.LVL86
 22428 390b 2E000000 		.4byte	.LVL87
 22429 390f 0500     		.2byte	0x5
 22430 3911 73       		.byte	0x73
 22431 3912 00       		.sleb128 0
 22432 3913 32       		.byte	0x32
 22433 3914 25       		.byte	0x25
 22434 3915 9F       		.byte	0x9f
 22435 3916 2E000000 		.4byte	.LVL87
 22436 391a 34000000 		.4byte	.LVL89
 22437 391e 0100     		.2byte	0x1
 22438 3920 53       		.byte	0x53
 22439 3921 3E000000 		.4byte	.LVL91
 22440 3925 42000000 		.4byte	.LVL92
 22441 3929 0100     		.2byte	0x1
 22442 392b 53       		.byte	0x53
 22443 392c 00000000 		.4byte	0
 22444 3930 00000000 		.4byte	0
 22445              	.LLST66:
 22446 3934 00000000 		.4byte	.LVL341
 22447 3938 06000000 		.4byte	.LVL342
 22448 393c 0100     		.2byte	0x1
 22449 393e 50       		.byte	0x50
 22450 393f 06000000 		.4byte	.LVL342
 22451 3943 2C000000 		.4byte	.LFE11
 22452 3947 0400     		.2byte	0x4
 22453 3949 F3       		.byte	0xf3
 22454 394a 01       		.uleb128 0x1
 22455 394b 50       		.byte	0x50
ARM GAS  /var/folders/d2/nstgp4h54kz7g1l847x_b8wc0000gn/T//cc2apEbl.s 			page 395


 22456 394c 9F       		.byte	0x9f
 22457 394d 00000000 		.4byte	0
 22458 3951 00000000 		.4byte	0
 22459              	.LLST67:
 22460 3955 00000000 		.4byte	.LVL341
 22461 3959 21000000 		.4byte	.LVL344-1
 22462 395d 0100     		.2byte	0x1
 22463 395f 51       		.byte	0x51
 22464 3960 21000000 		.4byte	.LVL344-1
 22465 3964 2C000000 		.4byte	.LFE11
 22466 3968 0400     		.2byte	0x4
 22467 396a F3       		.byte	0xf3
 22468 396b 01       		.uleb128 0x1
 22469 396c 51       		.byte	0x51
 22470 396d 9F       		.byte	0x9f
 22471 396e 00000000 		.4byte	0
 22472 3972 00000000 		.4byte	0
 22473              	.LLST68:
 22474 3976 10000000 		.4byte	.LVL343
 22475 397a 21000000 		.4byte	.LVL344-1
 22476 397e 0C00     		.2byte	0xc
 22477 3980 71       		.byte	0x71
 22478 3981 00       		.sleb128 0
 22479 3982 08       		.byte	0x8
 22480 3983 FF       		.byte	0xff
 22481 3984 1A       		.byte	0x1a
 22482 3985 0C       		.byte	0xc
 22483 3986 002F3A00 		.4byte	0x3a2f00
 22484 398a 1E       		.byte	0x1e
 22485 398b 9F       		.byte	0x9f
 22486 398c 21000000 		.4byte	.LVL344-1
 22487 3990 2C000000 		.4byte	.LFE11
 22488 3994 0D00     		.2byte	0xd
 22489 3996 F3       		.byte	0xf3
 22490 3997 01       		.uleb128 0x1
 22491 3998 51       		.byte	0x51
 22492 3999 08       		.byte	0x8
 22493 399a FF       		.byte	0xff
 22494 399b 1A       		.byte	0x1a
 22495 399c 0C       		.byte	0xc
 22496 399d 002F3A00 		.4byte	0x3a2f00
 22497 39a1 1E       		.byte	0x1e
 22498 39a2 9F       		.byte	0x9f
 22499 39a3 00000000 		.4byte	0
 22500 39a7 00000000 		.4byte	0
 22501              	.LLST69:
 22502 39ab 00000000 		.4byte	.LVL345
 22503 39af 1D000000 		.4byte	.LVL347-1
 22504 39b3 0100     		.2byte	0x1
 22505 39b5 50       		.byte	0x50
 22506 39b6 1D000000 		.4byte	.LVL347-1
 22507 39ba 1E000000 		.4byte	.LVL347
 22508 39be 0400     		.2byte	0x4
 22509 39c0 F3       		.byte	0xf3
 22510 39c1 01       		.uleb128 0x1
 22511 39c2 50       		.byte	0x50
 22512 39c3 9F       		.byte	0x9f
ARM GAS  /var/folders/d2/nstgp4h54kz7g1l847x_b8wc0000gn/T//cc2apEbl.s 			page 396


 22513 39c4 1E000000 		.4byte	.LVL347
 22514 39c8 2B000000 		.4byte	.LVL349-1
 22515 39cc 0100     		.2byte	0x1
 22516 39ce 50       		.byte	0x50
 22517 39cf 2B000000 		.4byte	.LVL349-1
 22518 39d3 30000000 		.4byte	.LFE12
 22519 39d7 0400     		.2byte	0x4
 22520 39d9 F3       		.byte	0xf3
 22521 39da 01       		.uleb128 0x1
 22522 39db 50       		.byte	0x50
 22523 39dc 9F       		.byte	0x9f
 22524 39dd 00000000 		.4byte	0
 22525 39e1 00000000 		.4byte	0
 22526              	.LLST70:
 22527 39e5 0A000000 		.4byte	.LVL346
 22528 39e9 1E000000 		.4byte	.LVL347
 22529 39ed 0200     		.2byte	0x2
 22530 39ef 30       		.byte	0x30
 22531 39f0 9F       		.byte	0x9f
 22532 39f1 1E000000 		.4byte	.LVL347
 22533 39f5 28000000 		.4byte	.LVL348
 22534 39f9 0100     		.2byte	0x1
 22535 39fb 50       		.byte	0x50
 22536 39fc 00000000 		.4byte	0
 22537 3a00 00000000 		.4byte	0
 22538              	.LLST71:
 22539 3a04 00000000 		.4byte	.LVL350
 22540 3a08 16000000 		.4byte	.LVL352
 22541 3a0c 0100     		.2byte	0x1
 22542 3a0e 50       		.byte	0x50
 22543 3a0f 16000000 		.4byte	.LVL352
 22544 3a13 2C000000 		.4byte	.LFE13
 22545 3a17 0400     		.2byte	0x4
 22546 3a19 F3       		.byte	0xf3
 22547 3a1a 01       		.uleb128 0x1
 22548 3a1b 50       		.byte	0x50
 22549 3a1c 9F       		.byte	0x9f
 22550 3a1d 00000000 		.4byte	0
 22551 3a21 00000000 		.4byte	0
 22552              	.LLST72:
 22553 3a25 0A000000 		.4byte	.LVL351
 22554 3a29 16000000 		.4byte	.LVL352
 22555 3a2d 1500     		.2byte	0x15
 22556 3a2f 70       		.byte	0x70
 22557 3a30 00       		.sleb128 0
 22558 3a31 08       		.byte	0x8
 22559 3a32 FF       		.byte	0xff
 22560 3a33 1A       		.byte	0x1a
 22561 3a34 0A       		.byte	0xa
 22562 3a35 FFFF     		.2byte	0xffff
 22563 3a37 1A       		.byte	0x1a
 22564 3a38 70       		.byte	0x70
 22565 3a39 00       		.sleb128 0
 22566 3a3a 38       		.byte	0x38
 22567 3a3b 25       		.byte	0x25
 22568 3a3c 0A       		.byte	0xa
 22569 3a3d FFFF     		.2byte	0xffff
ARM GAS  /var/folders/d2/nstgp4h54kz7g1l847x_b8wc0000gn/T//cc2apEbl.s 			page 397


 22570 3a3f 1A       		.byte	0x1a
 22571 3a40 24       		.byte	0x24
 22572 3a41 23       		.byte	0x23
 22573 3a42 01       		.uleb128 0x1
 22574 3a43 9F       		.byte	0x9f
 22575 3a44 16000000 		.4byte	.LVL352
 22576 3a48 2C000000 		.4byte	.LFE13
 22577 3a4c 1700     		.2byte	0x17
 22578 3a4e F3       		.byte	0xf3
 22579 3a4f 01       		.uleb128 0x1
 22580 3a50 50       		.byte	0x50
 22581 3a51 08       		.byte	0x8
 22582 3a52 FF       		.byte	0xff
 22583 3a53 1A       		.byte	0x1a
 22584 3a54 0A       		.byte	0xa
 22585 3a55 FFFF     		.2byte	0xffff
 22586 3a57 1A       		.byte	0x1a
 22587 3a58 F3       		.byte	0xf3
 22588 3a59 01       		.uleb128 0x1
 22589 3a5a 50       		.byte	0x50
 22590 3a5b 38       		.byte	0x38
 22591 3a5c 25       		.byte	0x25
 22592 3a5d 0A       		.byte	0xa
 22593 3a5e FFFF     		.2byte	0xffff
 22594 3a60 1A       		.byte	0x1a
 22595 3a61 24       		.byte	0x24
 22596 3a62 23       		.byte	0x23
 22597 3a63 01       		.uleb128 0x1
 22598 3a64 9F       		.byte	0x9f
 22599 3a65 00000000 		.4byte	0
 22600 3a69 00000000 		.4byte	0
 22601              	.LLST73:
 22602 3a6d 00000000 		.4byte	.LVL354
 22603 3a71 08000000 		.4byte	.LVL355
 22604 3a75 0100     		.2byte	0x1
 22605 3a77 50       		.byte	0x50
 22606 3a78 08000000 		.4byte	.LVL355
 22607 3a7c 48000000 		.4byte	.LFE14
 22608 3a80 0400     		.2byte	0x4
 22609 3a82 F3       		.byte	0xf3
 22610 3a83 01       		.uleb128 0x1
 22611 3a84 50       		.byte	0x50
 22612 3a85 9F       		.byte	0x9f
 22613 3a86 00000000 		.4byte	0
 22614 3a8a 00000000 		.4byte	0
 22615              	.LLST74:
 22616 3a8e 00000000 		.4byte	.LVL354
 22617 3a92 2E000000 		.4byte	.LVL360
 22618 3a96 0100     		.2byte	0x1
 22619 3a98 51       		.byte	0x51
 22620 3a99 2E000000 		.4byte	.LVL360
 22621 3a9d 48000000 		.4byte	.LFE14
 22622 3aa1 0400     		.2byte	0x4
 22623 3aa3 F3       		.byte	0xf3
 22624 3aa4 01       		.uleb128 0x1
 22625 3aa5 51       		.byte	0x51
 22626 3aa6 9F       		.byte	0x9f
ARM GAS  /var/folders/d2/nstgp4h54kz7g1l847x_b8wc0000gn/T//cc2apEbl.s 			page 398


 22627 3aa7 00000000 		.4byte	0
 22628 3aab 00000000 		.4byte	0
 22629              	.LLST75:
 22630 3aaf 00000000 		.4byte	.LVL354
 22631 3ab3 1E000000 		.4byte	.LVL359
 22632 3ab7 0100     		.2byte	0x1
 22633 3ab9 52       		.byte	0x52
 22634 3aba 1E000000 		.4byte	.LVL359
 22635 3abe 48000000 		.4byte	.LFE14
 22636 3ac2 0400     		.2byte	0x4
 22637 3ac4 F3       		.byte	0xf3
 22638 3ac5 01       		.uleb128 0x1
 22639 3ac6 52       		.byte	0x52
 22640 3ac7 9F       		.byte	0x9f
 22641 3ac8 00000000 		.4byte	0
 22642 3acc 00000000 		.4byte	0
 22643              	.LLST76:
 22644 3ad0 16000000 		.4byte	.LVL357
 22645 3ad4 1A000000 		.4byte	.LVL358
 22646 3ad8 0D00     		.2byte	0xd
 22647 3ada 70       		.byte	0x70
 22648 3adb 00       		.sleb128 0
 22649 3adc F7       		.byte	0xf7
 22650 3add 25       		.uleb128 0x25
 22651 3ade 0A       		.byte	0xa
 22652 3adf E803     		.2byte	0x3e8
 22653 3ae1 F7       		.byte	0xf7
 22654 3ae2 25       		.uleb128 0x25
 22655 3ae3 1B       		.byte	0x1b
 22656 3ae4 F7       		.byte	0xf7
 22657 3ae5 00       		.uleb128 0
 22658 3ae6 9F       		.byte	0x9f
 22659 3ae7 1A000000 		.4byte	.LVL358
 22660 3aeb 1E000000 		.4byte	.LVL359
 22661 3aef 1600     		.2byte	0x16
 22662 3af1 72       		.byte	0x72
 22663 3af2 00       		.sleb128 0
 22664 3af3 0C       		.byte	0xc
 22665 3af4 002F3A00 		.4byte	0x3a2f00
 22666 3af8 1E       		.byte	0x1e
 22667 3af9 23       		.byte	0x23
 22668 3afa F403     		.uleb128 0x1f4
 22669 3afc F7       		.byte	0xf7
 22670 3afd 25       		.uleb128 0x25
 22671 3afe 0A       		.byte	0xa
 22672 3aff E803     		.2byte	0x3e8
 22673 3b01 F7       		.byte	0xf7
 22674 3b02 25       		.uleb128 0x25
 22675 3b03 1B       		.byte	0x1b
 22676 3b04 F7       		.byte	0xf7
 22677 3b05 00       		.uleb128 0
 22678 3b06 9F       		.byte	0x9f
 22679 3b07 00000000 		.4byte	0
 22680 3b0b 00000000 		.4byte	0
 22681              	.LLST77:
 22682 3b0f 0E000000 		.4byte	.LVL356
 22683 3b13 16000000 		.4byte	.LVL357
ARM GAS  /var/folders/d2/nstgp4h54kz7g1l847x_b8wc0000gn/T//cc2apEbl.s 			page 399


 22684 3b17 0200     		.2byte	0x2
 22685 3b19 30       		.byte	0x30
 22686 3b1a 9F       		.byte	0x9f
 22687 3b1b 16000000 		.4byte	.LVL357
 22688 3b1f 1A000000 		.4byte	.LVL358
 22689 3b23 2700     		.2byte	0x27
 22690 3b25 71       		.byte	0x71
 22691 3b26 00       		.sleb128 0
 22692 3b27 0A       		.byte	0xa
 22693 3b28 E803     		.2byte	0x3e8
 22694 3b2a 1E       		.byte	0x1e
 22695 3b2b 70       		.byte	0x70
 22696 3b2c 00       		.sleb128 0
 22697 3b2d F7       		.byte	0xf7
 22698 3b2e 25       		.uleb128 0x25
 22699 3b2f 0A       		.byte	0xa
 22700 3b30 D007     		.2byte	0x7d0
 22701 3b32 F7       		.byte	0xf7
 22702 3b33 25       		.uleb128 0x25
 22703 3b34 1B       		.byte	0x1b
 22704 3b35 F7       		.byte	0xf7
 22705 3b36 00       		.uleb128 0
 22706 3b37 22       		.byte	0x22
 22707 3b38 F7       		.byte	0xf7
 22708 3b39 25       		.uleb128 0x25
 22709 3b3a 70       		.byte	0x70
 22710 3b3b 00       		.sleb128 0
 22711 3b3c F7       		.byte	0xf7
 22712 3b3d 25       		.uleb128 0x25
 22713 3b3e 0A       		.byte	0xa
 22714 3b3f E803     		.2byte	0x3e8
 22715 3b41 F7       		.byte	0xf7
 22716 3b42 25       		.uleb128 0x25
 22717 3b43 1B       		.byte	0x1b
 22718 3b44 F7       		.byte	0xf7
 22719 3b45 00       		.uleb128 0
 22720 3b46 F7       		.byte	0xf7
 22721 3b47 25       		.uleb128 0x25
 22722 3b48 1B       		.byte	0x1b
 22723 3b49 F7       		.byte	0xf7
 22724 3b4a 00       		.uleb128 0
 22725 3b4b 9F       		.byte	0x9f
 22726 3b4c 1A000000 		.4byte	.LVL358
 22727 3b50 1E000000 		.4byte	.LVL359
 22728 3b54 3900     		.2byte	0x39
 22729 3b56 71       		.byte	0x71
 22730 3b57 00       		.sleb128 0
 22731 3b58 0A       		.byte	0xa
 22732 3b59 E803     		.2byte	0x3e8
 22733 3b5b 1E       		.byte	0x1e
 22734 3b5c 72       		.byte	0x72
 22735 3b5d 00       		.sleb128 0
 22736 3b5e 0C       		.byte	0xc
 22737 3b5f 002F3A00 		.4byte	0x3a2f00
 22738 3b63 1E       		.byte	0x1e
 22739 3b64 23       		.byte	0x23
 22740 3b65 F403     		.uleb128 0x1f4
ARM GAS  /var/folders/d2/nstgp4h54kz7g1l847x_b8wc0000gn/T//cc2apEbl.s 			page 400


 22741 3b67 F7       		.byte	0xf7
 22742 3b68 25       		.uleb128 0x25
 22743 3b69 0A       		.byte	0xa
 22744 3b6a D007     		.2byte	0x7d0
 22745 3b6c F7       		.byte	0xf7
 22746 3b6d 25       		.uleb128 0x25
 22747 3b6e 1B       		.byte	0x1b
 22748 3b6f F7       		.byte	0xf7
 22749 3b70 00       		.uleb128 0
 22750 3b71 22       		.byte	0x22
 22751 3b72 F7       		.byte	0xf7
 22752 3b73 25       		.uleb128 0x25
 22753 3b74 72       		.byte	0x72
 22754 3b75 00       		.sleb128 0
 22755 3b76 0C       		.byte	0xc
 22756 3b77 002F3A00 		.4byte	0x3a2f00
 22757 3b7b 1E       		.byte	0x1e
 22758 3b7c 23       		.byte	0x23
 22759 3b7d F403     		.uleb128 0x1f4
 22760 3b7f F7       		.byte	0xf7
 22761 3b80 25       		.uleb128 0x25
 22762 3b81 0A       		.byte	0xa
 22763 3b82 E803     		.2byte	0x3e8
 22764 3b84 F7       		.byte	0xf7
 22765 3b85 25       		.uleb128 0x25
 22766 3b86 1B       		.byte	0x1b
 22767 3b87 F7       		.byte	0xf7
 22768 3b88 00       		.uleb128 0
 22769 3b89 F7       		.byte	0xf7
 22770 3b8a 25       		.uleb128 0x25
 22771 3b8b 1B       		.byte	0x1b
 22772 3b8c F7       		.byte	0xf7
 22773 3b8d 00       		.uleb128 0
 22774 3b8e 9F       		.byte	0x9f
 22775 3b8f 00000000 		.4byte	0
 22776 3b93 00000000 		.4byte	0
 22777              	.LLST78:
 22778 3b97 00000000 		.4byte	.LVL362
 22779 3b9b 20000000 		.4byte	.LVL365
 22780 3b9f 0100     		.2byte	0x1
 22781 3ba1 50       		.byte	0x50
 22782 3ba2 20000000 		.4byte	.LVL365
 22783 3ba6 48000000 		.4byte	.LFE15
 22784 3baa 0400     		.2byte	0x4
 22785 3bac F3       		.byte	0xf3
 22786 3bad 01       		.uleb128 0x1
 22787 3bae 50       		.byte	0x50
 22788 3baf 9F       		.byte	0x9f
 22789 3bb0 00000000 		.4byte	0
 22790 3bb4 00000000 		.4byte	0
 22791              	.LLST79:
 22792 3bb8 00000000 		.4byte	.LVL362
 22793 3bbc 2E000000 		.4byte	.LVL366
 22794 3bc0 0100     		.2byte	0x1
 22795 3bc2 51       		.byte	0x51
 22796 3bc3 2E000000 		.4byte	.LVL366
 22797 3bc7 48000000 		.4byte	.LFE15
ARM GAS  /var/folders/d2/nstgp4h54kz7g1l847x_b8wc0000gn/T//cc2apEbl.s 			page 401


 22798 3bcb 0400     		.2byte	0x4
 22799 3bcd F3       		.byte	0xf3
 22800 3bce 01       		.uleb128 0x1
 22801 3bcf 51       		.byte	0x51
 22802 3bd0 9F       		.byte	0x9f
 22803 3bd1 00000000 		.4byte	0
 22804 3bd5 00000000 		.4byte	0
 22805              	.LLST80:
 22806 3bd9 00000000 		.4byte	.LVL362
 22807 3bdd 16000000 		.4byte	.LVL363
 22808 3be1 0100     		.2byte	0x1
 22809 3be3 52       		.byte	0x52
 22810 3be4 16000000 		.4byte	.LVL363
 22811 3be8 48000000 		.4byte	.LFE15
 22812 3bec 0400     		.2byte	0x4
 22813 3bee F3       		.byte	0xf3
 22814 3bef 01       		.uleb128 0x1
 22815 3bf0 52       		.byte	0x52
 22816 3bf1 9F       		.byte	0x9f
 22817 3bf2 00000000 		.4byte	0
 22818 3bf6 00000000 		.4byte	0
 22819              	.LLST81:
 22820 3bfa 1A000000 		.4byte	.LVL364
 22821 3bfe 2E000000 		.4byte	.LVL366
 22822 3c02 2E00     		.2byte	0x2e
 22823 3c04 F3       		.byte	0xf3
 22824 3c05 01       		.uleb128 0x1
 22825 3c06 52       		.byte	0x52
 22826 3c07 08       		.byte	0x8
 22827 3c08 FF       		.byte	0xff
 22828 3c09 1A       		.byte	0x1a
 22829 3c0a 0C       		.byte	0xc
 22830 3c0b 002F3A00 		.4byte	0x3a2f00
 22831 3c0f 1E       		.byte	0x1e
 22832 3c10 23       		.byte	0x23
 22833 3c11 F403     		.uleb128 0x1f4
 22834 3c13 F7       		.byte	0xf7
 22835 3c14 25       		.uleb128 0x25
 22836 3c15 0A       		.byte	0xa
 22837 3c16 E803     		.2byte	0x3e8
 22838 3c18 F7       		.byte	0xf7
 22839 3c19 25       		.uleb128 0x25
 22840 3c1a 1B       		.byte	0x1b
 22841 3c1b F7       		.byte	0xf7
 22842 3c1c 00       		.uleb128 0
 22843 3c1d 71       		.byte	0x71
 22844 3c1e 00       		.sleb128 0
 22845 3c1f 0A       		.byte	0xa
 22846 3c20 FFFF     		.2byte	0xffff
 22847 3c22 1A       		.byte	0x1a
 22848 3c23 1E       		.byte	0x1e
 22849 3c24 23       		.byte	0x23
 22850 3c25 F403     		.uleb128 0x1f4
 22851 3c27 F7       		.byte	0xf7
 22852 3c28 25       		.uleb128 0x25
 22853 3c29 0A       		.byte	0xa
 22854 3c2a E803     		.2byte	0x3e8
ARM GAS  /var/folders/d2/nstgp4h54kz7g1l847x_b8wc0000gn/T//cc2apEbl.s 			page 402


 22855 3c2c F7       		.byte	0xf7
 22856 3c2d 25       		.uleb128 0x25
 22857 3c2e 1B       		.byte	0x1b
 22858 3c2f F7       		.byte	0xf7
 22859 3c30 00       		.uleb128 0
 22860 3c31 9F       		.byte	0x9f
 22861 3c32 2E000000 		.4byte	.LVL366
 22862 3c36 48000000 		.4byte	.LFE15
 22863 3c3a 2F00     		.2byte	0x2f
 22864 3c3c F3       		.byte	0xf3
 22865 3c3d 01       		.uleb128 0x1
 22866 3c3e 52       		.byte	0x52
 22867 3c3f 08       		.byte	0x8
 22868 3c40 FF       		.byte	0xff
 22869 3c41 1A       		.byte	0x1a
 22870 3c42 0C       		.byte	0xc
 22871 3c43 002F3A00 		.4byte	0x3a2f00
 22872 3c47 1E       		.byte	0x1e
 22873 3c48 23       		.byte	0x23
 22874 3c49 F403     		.uleb128 0x1f4
 22875 3c4b F7       		.byte	0xf7
 22876 3c4c 25       		.uleb128 0x25
 22877 3c4d 0A       		.byte	0xa
 22878 3c4e E803     		.2byte	0x3e8
 22879 3c50 F7       		.byte	0xf7
 22880 3c51 25       		.uleb128 0x25
 22881 3c52 1B       		.byte	0x1b
 22882 3c53 F7       		.byte	0xf7
 22883 3c54 00       		.uleb128 0
 22884 3c55 F3       		.byte	0xf3
 22885 3c56 01       		.uleb128 0x1
 22886 3c57 51       		.byte	0x51
 22887 3c58 0A       		.byte	0xa
 22888 3c59 FFFF     		.2byte	0xffff
 22889 3c5b 1A       		.byte	0x1a
 22890 3c5c 1E       		.byte	0x1e
 22891 3c5d 23       		.byte	0x23
 22892 3c5e F403     		.uleb128 0x1f4
 22893 3c60 F7       		.byte	0xf7
 22894 3c61 25       		.uleb128 0x25
 22895 3c62 0A       		.byte	0xa
 22896 3c63 E803     		.2byte	0x3e8
 22897 3c65 F7       		.byte	0xf7
 22898 3c66 25       		.uleb128 0x25
 22899 3c67 1B       		.byte	0x1b
 22900 3c68 F7       		.byte	0xf7
 22901 3c69 00       		.uleb128 0
 22902 3c6a 9F       		.byte	0x9f
 22903 3c6b 00000000 		.4byte	0
 22904 3c6f 00000000 		.4byte	0
 22905              	.LLST98:
 22906 3c73 00000000 		.4byte	.LVL412
 22907 3c77 11000000 		.4byte	.LVL414-1
 22908 3c7b 0100     		.2byte	0x1
 22909 3c7d 50       		.byte	0x50
 22910 3c7e 11000000 		.4byte	.LVL414-1
 22911 3c82 1E000000 		.4byte	.LVL415
ARM GAS  /var/folders/d2/nstgp4h54kz7g1l847x_b8wc0000gn/T//cc2apEbl.s 			page 403


 22912 3c86 0400     		.2byte	0x4
 22913 3c88 F3       		.byte	0xf3
 22914 3c89 01       		.uleb128 0x1
 22915 3c8a 50       		.byte	0x50
 22916 3c8b 9F       		.byte	0x9f
 22917 3c8c 1E000000 		.4byte	.LVL415
 22918 3c90 2B000000 		.4byte	.LVL418-1
 22919 3c94 0100     		.2byte	0x1
 22920 3c96 50       		.byte	0x50
 22921 3c97 2B000000 		.4byte	.LVL418-1
 22922 3c9b 76000000 		.4byte	.LVL432
 22923 3c9f 0100     		.2byte	0x1
 22924 3ca1 56       		.byte	0x56
 22925 3ca2 76000000 		.4byte	.LVL432
 22926 3ca6 88000000 		.4byte	.LFE17
 22927 3caa 0400     		.2byte	0x4
 22928 3cac F3       		.byte	0xf3
 22929 3cad 01       		.uleb128 0x1
 22930 3cae 50       		.byte	0x50
 22931 3caf 9F       		.byte	0x9f
 22932 3cb0 00000000 		.4byte	0
 22933 3cb4 00000000 		.4byte	0
 22934              	.LLST99:
 22935 3cb8 00000000 		.4byte	.LVL412
 22936 3cbc 11000000 		.4byte	.LVL414-1
 22937 3cc0 0100     		.2byte	0x1
 22938 3cc2 51       		.byte	0x51
 22939 3cc3 11000000 		.4byte	.LVL414-1
 22940 3cc7 1E000000 		.4byte	.LVL415
 22941 3ccb 0400     		.2byte	0x4
 22942 3ccd F3       		.byte	0xf3
 22943 3cce 01       		.uleb128 0x1
 22944 3ccf 51       		.byte	0x51
 22945 3cd0 9F       		.byte	0x9f
 22946 3cd1 1E000000 		.4byte	.LVL415
 22947 3cd5 22000000 		.4byte	.LVL416
 22948 3cd9 0100     		.2byte	0x1
 22949 3cdb 51       		.byte	0x51
 22950 3cdc 22000000 		.4byte	.LVL416
 22951 3ce0 88000000 		.4byte	.LFE17
 22952 3ce4 0400     		.2byte	0x4
 22953 3ce6 F3       		.byte	0xf3
 22954 3ce7 01       		.uleb128 0x1
 22955 3ce8 51       		.byte	0x51
 22956 3ce9 9F       		.byte	0x9f
 22957 3cea 00000000 		.4byte	0
 22958 3cee 00000000 		.4byte	0
 22959              	.LLST100:
 22960 3cf2 00000000 		.4byte	.LVL412
 22961 3cf6 11000000 		.4byte	.LVL414-1
 22962 3cfa 0100     		.2byte	0x1
 22963 3cfc 52       		.byte	0x52
 22964 3cfd 11000000 		.4byte	.LVL414-1
 22965 3d01 1E000000 		.4byte	.LVL415
 22966 3d05 0400     		.2byte	0x4
 22967 3d07 F3       		.byte	0xf3
 22968 3d08 01       		.uleb128 0x1
ARM GAS  /var/folders/d2/nstgp4h54kz7g1l847x_b8wc0000gn/T//cc2apEbl.s 			page 404


 22969 3d09 52       		.byte	0x52
 22970 3d0a 9F       		.byte	0x9f
 22971 3d0b 1E000000 		.4byte	.LVL415
 22972 3d0f 26000000 		.4byte	.LVL417
 22973 3d13 0100     		.2byte	0x1
 22974 3d15 52       		.byte	0x52
 22975 3d16 26000000 		.4byte	.LVL417
 22976 3d1a 50000000 		.4byte	.LVL423
 22977 3d1e 0100     		.2byte	0x1
 22978 3d20 55       		.byte	0x55
 22979 3d21 50000000 		.4byte	.LVL423
 22980 3d25 88000000 		.4byte	.LFE17
 22981 3d29 0400     		.2byte	0x4
 22982 3d2b F3       		.byte	0xf3
 22983 3d2c 01       		.uleb128 0x1
 22984 3d2d 52       		.byte	0x52
 22985 3d2e 9F       		.byte	0x9f
 22986 3d2f 00000000 		.4byte	0
 22987 3d33 00000000 		.4byte	0
 22988              	.LLST101:
 22989 3d37 0A000000 		.4byte	.LVL413
 22990 3d3b 12000000 		.4byte	.LVL414
 22991 3d3f 0200     		.2byte	0x2
 22992 3d41 30       		.byte	0x30
 22993 3d42 9F       		.byte	0x9f
 22994 3d43 12000000 		.4byte	.LVL414
 22995 3d47 1E000000 		.4byte	.LVL415
 22996 3d4b 0100     		.2byte	0x1
 22997 3d4d 50       		.byte	0x50
 22998 3d4e 1E000000 		.4byte	.LVL415
 22999 3d52 2C000000 		.4byte	.LVL418
 23000 3d56 0200     		.2byte	0x2
 23001 3d58 30       		.byte	0x30
 23002 3d59 9F       		.byte	0x9f
 23003 3d5a 2C000000 		.4byte	.LVL418
 23004 3d5e 68000000 		.4byte	.LVL428
 23005 3d62 0100     		.2byte	0x1
 23006 3d64 50       		.byte	0x50
 23007 3d65 6E000000 		.4byte	.LVL430
 23008 3d69 79000000 		.4byte	.LVL433-1
 23009 3d6d 0100     		.2byte	0x1
 23010 3d6f 50       		.byte	0x50
 23011 3d70 00000000 		.4byte	0
 23012 3d74 00000000 		.4byte	0
 23013              	.LLST102:
 23014 3d78 60000000 		.4byte	.LVL426
 23015 3d7c 6D000000 		.4byte	.LVL430-1
 23016 3d80 0100     		.2byte	0x1
 23017 3d82 52       		.byte	0x52
 23018 3d83 00000000 		.4byte	0
 23019 3d87 00000000 		.4byte	0
 23020              	.LLST103:
 23021 3d8b 54000000 		.4byte	.LVL424
 23022 3d8f 5E000000 		.4byte	.LVL425
 23023 3d93 0100     		.2byte	0x1
 23024 3d95 55       		.byte	0x55
 23025 3d96 5E000000 		.4byte	.LVL425
ARM GAS  /var/folders/d2/nstgp4h54kz7g1l847x_b8wc0000gn/T//cc2apEbl.s 			page 405


 23026 3d9a 62000000 		.4byte	.LVL427
 23027 3d9e 0100     		.2byte	0x1
 23028 3da0 53       		.byte	0x53
 23029 3da1 62000000 		.4byte	.LVL427
 23030 3da5 6A000000 		.4byte	.LVL429
 23031 3da9 5D00     		.2byte	0x5d
 23032 3dab 71       		.byte	0x71
 23033 3dac 00       		.sleb128 0
 23034 3dad F3       		.byte	0xf3
 23035 3dae 01       		.uleb128 0x1
 23036 3daf 52       		.byte	0x52
 23037 3db0 1E       		.byte	0x1e
 23038 3db1 91       		.byte	0x91
 23039 3db2 6B       		.sleb128 -21
 23040 3db3 94       		.byte	0x94
 23041 3db4 01       		.byte	0x1
 23042 3db5 08       		.byte	0x8
 23043 3db6 FF       		.byte	0xff
 23044 3db7 1A       		.byte	0x1a
 23045 3db8 0C       		.byte	0xc
 23046 3db9 002F3A00 		.4byte	0x3a2f00
 23047 3dbd 1E       		.byte	0x1e
 23048 3dbe 23       		.byte	0x23
 23049 3dbf F403     		.uleb128 0x1f4
 23050 3dc1 F7       		.byte	0xf7
 23051 3dc2 25       		.uleb128 0x25
 23052 3dc3 F7       		.byte	0xf7
 23053 3dc4 2C       		.uleb128 0x2c
 23054 3dc5 0C       		.byte	0xc
 23055 3dc6 D34D6210 		.4byte	0x10624dd3
 23056 3dca F7       		.byte	0xf7
 23057 3dcb 2C       		.uleb128 0x2c
 23058 3dcc 1E       		.byte	0x1e
 23059 3dcd 08       		.byte	0x8
 23060 3dce 20       		.byte	0x20
 23061 3dcf F7       		.byte	0xf7
 23062 3dd0 2C       		.uleb128 0x2c
 23063 3dd1 25       		.byte	0x25
 23064 3dd2 F7       		.byte	0xf7
 23065 3dd3 25       		.uleb128 0x25
 23066 3dd4 F7       		.byte	0xf7
 23067 3dd5 00       		.uleb128 0
 23068 3dd6 37       		.byte	0x37
 23069 3dd7 25       		.byte	0x25
 23070 3dd8 22       		.byte	0x22
 23071 3dd9 F7       		.byte	0xf7
 23072 3dda 25       		.uleb128 0x25
 23073 3ddb 91       		.byte	0x91
 23074 3ddc 6B       		.sleb128 -21
 23075 3ddd 94       		.byte	0x94
 23076 3dde 01       		.byte	0x1
 23077 3ddf 08       		.byte	0x8
 23078 3de0 FF       		.byte	0xff
 23079 3de1 1A       		.byte	0x1a
 23080 3de2 0C       		.byte	0xc
 23081 3de3 002F3A00 		.4byte	0x3a2f00
 23082 3de7 1E       		.byte	0x1e
ARM GAS  /var/folders/d2/nstgp4h54kz7g1l847x_b8wc0000gn/T//cc2apEbl.s 			page 406


 23083 3de8 23       		.byte	0x23
 23084 3de9 F403     		.uleb128 0x1f4
 23085 3deb F7       		.byte	0xf7
 23086 3dec 25       		.uleb128 0x25
 23087 3ded F7       		.byte	0xf7
 23088 3dee 2C       		.uleb128 0x2c
 23089 3def 0C       		.byte	0xc
 23090 3df0 D34D6210 		.4byte	0x10624dd3
 23091 3df4 F7       		.byte	0xf7
 23092 3df5 2C       		.uleb128 0x2c
 23093 3df6 1E       		.byte	0x1e
 23094 3df7 08       		.byte	0x8
 23095 3df8 20       		.byte	0x20
 23096 3df9 F7       		.byte	0xf7
 23097 3dfa 2C       		.uleb128 0x2c
 23098 3dfb 25       		.byte	0x25
 23099 3dfc F7       		.byte	0xf7
 23100 3dfd 25       		.uleb128 0x25
 23101 3dfe F7       		.byte	0xf7
 23102 3dff 00       		.uleb128 0
 23103 3e00 36       		.byte	0x36
 23104 3e01 25       		.byte	0x25
 23105 3e02 F7       		.byte	0xf7
 23106 3e03 25       		.uleb128 0x25
 23107 3e04 1B       		.byte	0x1b
 23108 3e05 F7       		.byte	0xf7
 23109 3e06 00       		.uleb128 0
 23110 3e07 9F       		.byte	0x9f
 23111 3e08 6A000000 		.4byte	.LVL429
 23112 3e0c 6D000000 		.4byte	.LVL430-1
 23113 3e10 5E00     		.2byte	0x5e
 23114 3e12 F3       		.byte	0xf3
 23115 3e13 01       		.uleb128 0x1
 23116 3e14 52       		.byte	0x52
 23117 3e15 0A       		.byte	0xa
 23118 3e16 E803     		.2byte	0x3e8
 23119 3e18 1E       		.byte	0x1e
 23120 3e19 91       		.byte	0x91
 23121 3e1a 6B       		.sleb128 -21
 23122 3e1b 94       		.byte	0x94
 23123 3e1c 01       		.byte	0x1
 23124 3e1d 08       		.byte	0x8
 23125 3e1e FF       		.byte	0xff
 23126 3e1f 1A       		.byte	0x1a
 23127 3e20 0C       		.byte	0xc
 23128 3e21 002F3A00 		.4byte	0x3a2f00
 23129 3e25 1E       		.byte	0x1e
 23130 3e26 23       		.byte	0x23
 23131 3e27 F403     		.uleb128 0x1f4
 23132 3e29 F7       		.byte	0xf7
 23133 3e2a 25       		.uleb128 0x25
 23134 3e2b F7       		.byte	0xf7
 23135 3e2c 2C       		.uleb128 0x2c
 23136 3e2d 0C       		.byte	0xc
 23137 3e2e D34D6210 		.4byte	0x10624dd3
 23138 3e32 F7       		.byte	0xf7
 23139 3e33 2C       		.uleb128 0x2c
ARM GAS  /var/folders/d2/nstgp4h54kz7g1l847x_b8wc0000gn/T//cc2apEbl.s 			page 407


 23140 3e34 1E       		.byte	0x1e
 23141 3e35 08       		.byte	0x8
 23142 3e36 20       		.byte	0x20
 23143 3e37 F7       		.byte	0xf7
 23144 3e38 2C       		.uleb128 0x2c
 23145 3e39 25       		.byte	0x25
 23146 3e3a F7       		.byte	0xf7
 23147 3e3b 25       		.uleb128 0x25
 23148 3e3c F7       		.byte	0xf7
 23149 3e3d 00       		.uleb128 0
 23150 3e3e 37       		.byte	0x37
 23151 3e3f 25       		.byte	0x25
 23152 3e40 22       		.byte	0x22
 23153 3e41 F7       		.byte	0xf7
 23154 3e42 25       		.uleb128 0x25
 23155 3e43 91       		.byte	0x91
 23156 3e44 6B       		.sleb128 -21
 23157 3e45 94       		.byte	0x94
 23158 3e46 01       		.byte	0x1
 23159 3e47 08       		.byte	0x8
 23160 3e48 FF       		.byte	0xff
 23161 3e49 1A       		.byte	0x1a
 23162 3e4a 0C       		.byte	0xc
 23163 3e4b 002F3A00 		.4byte	0x3a2f00
 23164 3e4f 1E       		.byte	0x1e
 23165 3e50 23       		.byte	0x23
 23166 3e51 F403     		.uleb128 0x1f4
 23167 3e53 F7       		.byte	0xf7
 23168 3e54 25       		.uleb128 0x25
 23169 3e55 F7       		.byte	0xf7
 23170 3e56 2C       		.uleb128 0x2c
 23171 3e57 0C       		.byte	0xc
 23172 3e58 D34D6210 		.4byte	0x10624dd3
 23173 3e5c F7       		.byte	0xf7
 23174 3e5d 2C       		.uleb128 0x2c
 23175 3e5e 1E       		.byte	0x1e
 23176 3e5f 08       		.byte	0x8
 23177 3e60 20       		.byte	0x20
 23178 3e61 F7       		.byte	0xf7
 23179 3e62 2C       		.uleb128 0x2c
 23180 3e63 25       		.byte	0x25
 23181 3e64 F7       		.byte	0xf7
 23182 3e65 25       		.uleb128 0x25
 23183 3e66 F7       		.byte	0xf7
 23184 3e67 00       		.uleb128 0
 23185 3e68 36       		.byte	0x36
 23186 3e69 25       		.byte	0x25
 23187 3e6a F7       		.byte	0xf7
 23188 3e6b 25       		.uleb128 0x25
 23189 3e6c 1B       		.byte	0x1b
 23190 3e6d F7       		.byte	0xf7
 23191 3e6e 00       		.uleb128 0
 23192 3e6f 9F       		.byte	0x9f
 23193 3e70 70000000 		.4byte	.LVL431
 23194 3e74 76000000 		.4byte	.LVL432
 23195 3e78 0100     		.2byte	0x1
 23196 3e7a 55       		.byte	0x55
ARM GAS  /var/folders/d2/nstgp4h54kz7g1l847x_b8wc0000gn/T//cc2apEbl.s 			page 408


 23197 3e7b 00000000 		.4byte	0
 23198 3e7f 00000000 		.4byte	0
 23199              	.LLST104:
 23200 3e83 30000000 		.4byte	.LVL419
 23201 3e87 54000000 		.4byte	.LVL424
 23202 3e8b 0200     		.2byte	0x2
 23203 3e8d 91       		.byte	0x91
 23204 3e8e 6B       		.sleb128 -21
 23205 3e8f 00000000 		.4byte	0
 23206 3e93 00000000 		.4byte	0
 23207              	.LLST105:
 23208 3e97 30000000 		.4byte	.LVL419
 23209 3e9b 50000000 		.4byte	.LVL423
 23210 3e9f 0100     		.2byte	0x1
 23211 3ea1 55       		.byte	0x55
 23212 3ea2 50000000 		.4byte	.LVL423
 23213 3ea6 54000000 		.4byte	.LVL424
 23214 3eaa 0400     		.2byte	0x4
 23215 3eac F3       		.byte	0xf3
 23216 3ead 01       		.uleb128 0x1
 23217 3eae 52       		.byte	0x52
 23218 3eaf 9F       		.byte	0x9f
 23219 3eb0 00000000 		.4byte	0
 23220 3eb4 00000000 		.4byte	0
 23221              	.LLST106:
 23222 3eb8 30000000 		.4byte	.LVL419
 23223 3ebc 54000000 		.4byte	.LVL424
 23224 3ec0 0100     		.2byte	0x1
 23225 3ec2 56       		.byte	0x56
 23226 3ec3 00000000 		.4byte	0
 23227 3ec7 00000000 		.4byte	0
 23228              	.LLST145:
 23229 3ecb 00000000 		.4byte	.LVL608
 23230 3ecf 1B000000 		.4byte	.LVL612-1
 23231 3ed3 0100     		.2byte	0x1
 23232 3ed5 50       		.byte	0x50
 23233 3ed6 1B000000 		.4byte	.LVL612-1
 23234 3eda 48000000 		.4byte	.LFE23
 23235 3ede 0100     		.2byte	0x1
 23236 3ee0 56       		.byte	0x56
 23237 3ee1 00000000 		.4byte	0
 23238 3ee5 00000000 		.4byte	0
 23239              	.LLST146:
 23240 3ee9 00000000 		.4byte	.LVL608
 23241 3eed 14000000 		.4byte	.LVL610
 23242 3ef1 0100     		.2byte	0x1
 23243 3ef3 51       		.byte	0x51
 23244 3ef4 14000000 		.4byte	.LVL610
 23245 3ef8 48000000 		.4byte	.LFE23
 23246 3efc 0100     		.2byte	0x1
 23247 3efe 57       		.byte	0x57
 23248 3eff 00000000 		.4byte	0
 23249 3f03 00000000 		.4byte	0
 23250              	.LLST147:
 23251 3f07 00000000 		.4byte	.LVL608
 23252 3f0b 0A000000 		.4byte	.LVL609
 23253 3f0f 0100     		.2byte	0x1
ARM GAS  /var/folders/d2/nstgp4h54kz7g1l847x_b8wc0000gn/T//cc2apEbl.s 			page 409


 23254 3f11 52       		.byte	0x52
 23255 3f12 0A000000 		.4byte	.LVL609
 23256 3f16 48000000 		.4byte	.LFE23
 23257 3f1a 0100     		.2byte	0x1
 23258 3f1c 55       		.byte	0x55
 23259 3f1d 00000000 		.4byte	0
 23260 3f21 00000000 		.4byte	0
 23261              	.LLST148:
 23262 3f25 16000000 		.4byte	.LVL611
 23263 3f29 1C000000 		.4byte	.LVL612
 23264 3f2d 0200     		.2byte	0x2
 23265 3f2f 30       		.byte	0x30
 23266 3f30 9F       		.byte	0x9f
 23267 3f31 1C000000 		.4byte	.LVL612
 23268 3f35 41000000 		.4byte	.LVL619-1
 23269 3f39 0100     		.2byte	0x1
 23270 3f3b 50       		.byte	0x50
 23271 3f3c 00000000 		.4byte	0
 23272 3f40 00000000 		.4byte	0
 23273              	.LLST149:
 23274 3f44 24000000 		.4byte	.LVL613
 23275 3f48 32000000 		.4byte	.LVL617
 23276 3f4c 0100     		.2byte	0x1
 23277 3f4e 55       		.byte	0x55
 23278 3f4f 00000000 		.4byte	0
 23279 3f53 00000000 		.4byte	0
 23280              	.LLST150:
 23281 3f57 24000000 		.4byte	.LVL613
 23282 3f5b 32000000 		.4byte	.LVL617
 23283 3f5f 0100     		.2byte	0x1
 23284 3f61 57       		.byte	0x57
 23285 3f62 00000000 		.4byte	0
 23286 3f66 00000000 		.4byte	0
 23287              	.LLST151:
 23288 3f6a 24000000 		.4byte	.LVL613
 23289 3f6e 32000000 		.4byte	.LVL617
 23290 3f72 0100     		.2byte	0x1
 23291 3f74 56       		.byte	0x56
 23292 3f75 00000000 		.4byte	0
 23293 3f79 00000000 		.4byte	0
 23294              	.LLST152:
 23295 3f7d 24000000 		.4byte	.LVL613
 23296 3f81 2C000000 		.4byte	.LVL614
 23297 3f85 0D00     		.2byte	0xd
 23298 3f87 77       		.byte	0x77
 23299 3f88 14       		.sleb128 20
 23300 3f89 94       		.byte	0x94
 23301 3f8a 02       		.byte	0x2
 23302 3f8b 0A       		.byte	0xa
 23303 3f8c FFFF     		.2byte	0xffff
 23304 3f8e 1A       		.byte	0x1a
 23305 3f8f 76       		.byte	0x76
 23306 3f90 20       		.sleb128 32
 23307 3f91 06       		.byte	0x6
 23308 3f92 1E       		.byte	0x1e
 23309 3f93 9F       		.byte	0x9f
 23310 3f94 2C000000 		.4byte	.LVL614
ARM GAS  /var/folders/d2/nstgp4h54kz7g1l847x_b8wc0000gn/T//cc2apEbl.s 			page 410


 23311 3f98 2E000000 		.4byte	.LVL615
 23312 3f9c 0100     		.2byte	0x1
 23313 3f9e 53       		.byte	0x53
 23314 3f9f 2E000000 		.4byte	.LVL615
 23315 3fa3 30000000 		.4byte	.LVL616
 23316 3fa7 0400     		.2byte	0x4
 23317 3fa9 73       		.byte	0x73
 23318 3faa 807F     		.sleb128 -128
 23319 3fac 9F       		.byte	0x9f
 23320 3fad 30000000 		.4byte	.LVL616
 23321 3fb1 32000000 		.4byte	.LVL617
 23322 3fb5 0D00     		.2byte	0xd
 23323 3fb7 77       		.byte	0x77
 23324 3fb8 14       		.sleb128 20
 23325 3fb9 94       		.byte	0x94
 23326 3fba 02       		.byte	0x2
 23327 3fbb 0A       		.byte	0xa
 23328 3fbc FFFF     		.2byte	0xffff
 23329 3fbe 1A       		.byte	0x1a
 23330 3fbf 76       		.byte	0x76
 23331 3fc0 20       		.sleb128 32
 23332 3fc1 06       		.byte	0x6
 23333 3fc2 1E       		.byte	0x1e
 23334 3fc3 9F       		.byte	0x9f
 23335 3fc4 00000000 		.4byte	0
 23336 3fc8 00000000 		.4byte	0
 23337              	.LLST153:
 23338 3fcc 24000000 		.4byte	.LVL613
 23339 3fd0 32000000 		.4byte	.LVL617
 23340 3fd4 0200     		.2byte	0x2
 23341 3fd6 76       		.byte	0x76
 23342 3fd7 20       		.sleb128 32
 23343 3fd8 00000000 		.4byte	0
 23344 3fdc 00000000 		.4byte	0
 23345              	.LLST154:
 23346 3fe0 00000000 		.4byte	.LVL620
 23347 3fe4 15000000 		.4byte	.LVL623-1
 23348 3fe8 0100     		.2byte	0x1
 23349 3fea 50       		.byte	0x50
 23350 3feb 15000000 		.4byte	.LVL623-1
 23351 3fef 34000000 		.4byte	.LFE24
 23352 3ff3 0400     		.2byte	0x4
 23353 3ff5 F3       		.byte	0xf3
 23354 3ff6 01       		.uleb128 0x1
 23355 3ff7 50       		.byte	0x50
 23356 3ff8 9F       		.byte	0x9f
 23357 3ff9 00000000 		.4byte	0
 23358 3ffd 00000000 		.4byte	0
 23359              	.LLST155:
 23360 4001 00000000 		.4byte	.LVL620
 23361 4005 15000000 		.4byte	.LVL623-1
 23362 4009 0100     		.2byte	0x1
 23363 400b 51       		.byte	0x51
 23364 400c 15000000 		.4byte	.LVL623-1
 23365 4010 34000000 		.4byte	.LFE24
 23366 4014 0400     		.2byte	0x4
 23367 4016 F3       		.byte	0xf3
ARM GAS  /var/folders/d2/nstgp4h54kz7g1l847x_b8wc0000gn/T//cc2apEbl.s 			page 411


 23368 4017 01       		.uleb128 0x1
 23369 4018 51       		.byte	0x51
 23370 4019 9F       		.byte	0x9f
 23371 401a 00000000 		.4byte	0
 23372 401e 00000000 		.4byte	0
 23373              	.LLST156:
 23374 4022 00000000 		.4byte	.LVL620
 23375 4026 08000000 		.4byte	.LVL621
 23376 402a 0100     		.2byte	0x1
 23377 402c 52       		.byte	0x52
 23378 402d 08000000 		.4byte	.LVL621
 23379 4031 34000000 		.4byte	.LFE24
 23380 4035 0100     		.2byte	0x1
 23381 4037 54       		.byte	0x54
 23382 4038 00000000 		.4byte	0
 23383 403c 00000000 		.4byte	0
 23384              	.LLST157:
 23385 4040 12000000 		.4byte	.LVL622
 23386 4044 16000000 		.4byte	.LVL623
 23387 4048 0200     		.2byte	0x2
 23388 404a 30       		.byte	0x30
 23389 404b 9F       		.byte	0x9f
 23390 404c 16000000 		.4byte	.LVL623
 23391 4050 2F000000 		.4byte	.LVL625-1
 23392 4054 0100     		.2byte	0x1
 23393 4056 50       		.byte	0x50
 23394 4057 00000000 		.4byte	0
 23395 405b 00000000 		.4byte	0
 23396              		.section	.debug_aranges,"",%progbits
 23397 0000 EC000000 		.4byte	0xec
 23398 0004 0200     		.2byte	0x2
 23399 0006 00000000 		.4byte	.Ldebug_info0
 23400 000a 04       		.byte	0x4
 23401 000b 00       		.byte	0
 23402 000c 0000     		.2byte	0
 23403 000e 0000     		.2byte	0
 23404 0010 00000000 		.4byte	.LFB28
 23405 0014 40000000 		.4byte	.LFE28-.LFB28
 23406 0018 00000000 		.4byte	.LFB29
 23407 001c 40010000 		.4byte	.LFE29-.LFB29
 23408 0020 00000000 		.4byte	.LFB3
 23409 0024 3C000000 		.4byte	.LFE3-.LFB3
 23410 0028 00000000 		.4byte	.LFB4
 23411 002c 54000000 		.4byte	.LFE4-.LFB4
 23412 0030 00000000 		.4byte	.LFB5
 23413 0034 28000000 		.4byte	.LFE5-.LFB5
 23414 0038 00000000 		.4byte	.LFB6
 23415 003c 28000000 		.4byte	.LFE6-.LFB6
 23416 0040 00000000 		.4byte	.LFB7
 23417 0044 4C000000 		.4byte	.LFE7-.LFB7
 23418 0048 00000000 		.4byte	.LFB8
 23419 004c 64000000 		.4byte	.LFE8-.LFB8
 23420 0050 00000000 		.4byte	.LFB9
 23421 0054 64000000 		.4byte	.LFE9-.LFB9
 23422 0058 00000000 		.4byte	.LFB10
 23423 005c C0050000 		.4byte	.LFE10-.LFB10
 23424 0060 00000000 		.4byte	.LFB11
ARM GAS  /var/folders/d2/nstgp4h54kz7g1l847x_b8wc0000gn/T//cc2apEbl.s 			page 412


 23425 0064 2C000000 		.4byte	.LFE11-.LFB11
 23426 0068 00000000 		.4byte	.LFB12
 23427 006c 30000000 		.4byte	.LFE12-.LFB12
 23428 0070 00000000 		.4byte	.LFB13
 23429 0074 2C000000 		.4byte	.LFE13-.LFB13
 23430 0078 00000000 		.4byte	.LFB14
 23431 007c 48000000 		.4byte	.LFE14-.LFB14
 23432 0080 00000000 		.4byte	.LFB15
 23433 0084 48000000 		.4byte	.LFE15-.LFB15
 23434 0088 00000000 		.4byte	.LFB16
 23435 008c 88010000 		.4byte	.LFE16-.LFB16
 23436 0090 00000000 		.4byte	.LFB17
 23437 0094 88000000 		.4byte	.LFE17-.LFB17
 23438 0098 00000000 		.4byte	.LFB18
 23439 009c 24020000 		.4byte	.LFE18-.LFB18
 23440 00a0 00000000 		.4byte	.LFB19
 23441 00a4 50000000 		.4byte	.LFE19-.LFB19
 23442 00a8 00000000 		.4byte	.LFB20
 23443 00ac EC000000 		.4byte	.LFE20-.LFB20
 23444 00b0 00000000 		.4byte	.LFB21
 23445 00b4 E4000000 		.4byte	.LFE21-.LFB21
 23446 00b8 00000000 		.4byte	.LFB22
 23447 00bc D0000000 		.4byte	.LFE22-.LFB22
 23448 00c0 00000000 		.4byte	.LFB23
 23449 00c4 48000000 		.4byte	.LFE23-.LFB23
 23450 00c8 00000000 		.4byte	.LFB24
 23451 00cc 34000000 		.4byte	.LFE24-.LFB24
 23452 00d0 00000000 		.4byte	.LFB25
 23453 00d4 58010000 		.4byte	.LFE25-.LFB25
 23454 00d8 00000000 		.4byte	.LFB26
 23455 00dc 38030000 		.4byte	.LFE26-.LFB26
 23456 00e0 00000000 		.4byte	.LFB27
 23457 00e4 70020000 		.4byte	.LFE27-.LFB27
 23458 00e8 00000000 		.4byte	0
 23459 00ec 00000000 		.4byte	0
 23460              		.section	.debug_ranges,"",%progbits
 23461              	.Ldebug_ranges0:
 23462 0000 3A000000 		.4byte	.LBB110
 23463 0004 40000000 		.4byte	.LBE110
 23464 0008 42000000 		.4byte	.LBB113
 23465 000c 46000000 		.4byte	.LBE113
 23466 0010 00000000 		.4byte	0
 23467 0014 00000000 		.4byte	0
 23468 0018 5E000000 		.4byte	.LBB114
 23469 001c 66000000 		.4byte	.LBE114
 23470 0020 20010000 		.4byte	.LBB131
 23471 0024 28010000 		.4byte	.LBE131
 23472 0028 00000000 		.4byte	0
 23473 002c 00000000 		.4byte	0
 23474 0030 CE000000 		.4byte	.LBB119
 23475 0034 D4000000 		.4byte	.LBE119
 23476 0038 D6000000 		.4byte	.LBB126
 23477 003c F6000000 		.4byte	.LBE126
 23478 0040 00000000 		.4byte	0
 23479 0044 00000000 		.4byte	0
 23480 0048 CE000000 		.4byte	.LBB121
 23481 004c D4000000 		.4byte	.LBE121
ARM GAS  /var/folders/d2/nstgp4h54kz7g1l847x_b8wc0000gn/T//cc2apEbl.s 			page 413


 23482 0050 D6000000 		.4byte	.LBB124
 23483 0054 DA000000 		.4byte	.LBE124
 23484 0058 00000000 		.4byte	0
 23485 005c 00000000 		.4byte	0
 23486 0060 F6000000 		.4byte	.LBB127
 23487 0064 F8000000 		.4byte	.LBE127
 23488 0068 1A010000 		.4byte	.LBB130
 23489 006c 20010000 		.4byte	.LBE130
 23490 0070 00000000 		.4byte	0
 23491 0074 00000000 		.4byte	0
 23492 0078 1E000000 		.4byte	.LBB132
 23493 007c 46000000 		.4byte	.LBE132
 23494 0080 56000000 		.4byte	.LBB135
 23495 0084 58000000 		.4byte	.LBE135
 23496 0088 00000000 		.4byte	0
 23497 008c 00000000 		.4byte	0
 23498 0090 04000000 		.4byte	.LBB136
 23499 0094 06000000 		.4byte	.LBE136
 23500 0098 0E000000 		.4byte	.LBB139
 23501 009c 12000000 		.4byte	.LBE139
 23502 00a0 00000000 		.4byte	0
 23503 00a4 00000000 		.4byte	0
 23504 00a8 02000000 		.4byte	.LBB140
 23505 00ac 04000000 		.4byte	.LBE140
 23506 00b0 08000000 		.4byte	.LBB143
 23507 00b4 0C000000 		.4byte	.LBE143
 23508 00b8 00000000 		.4byte	0
 23509 00bc 00000000 		.4byte	0
 23510 00c0 52000000 		.4byte	.LBB144
 23511 00c4 5A000000 		.4byte	.LBE144
 23512 00c8 5E000000 		.4byte	.LBB153
 23513 00cc 7A000000 		.4byte	.LBE153
 23514 00d0 00000000 		.4byte	0
 23515 00d4 00000000 		.4byte	0
 23516 00d8 52000000 		.4byte	.LBB146
 23517 00dc 58000000 		.4byte	.LBE146
 23518 00e0 5E000000 		.4byte	.LBB149
 23519 00e4 62000000 		.4byte	.LBE149
 23520 00e8 00000000 		.4byte	0
 23521 00ec 00000000 		.4byte	0
 23522 00f0 9C000000 		.4byte	.LBB156
 23523 00f4 A2000000 		.4byte	.LBE156
 23524 00f8 A4000000 		.4byte	.LBB159
 23525 00fc A8000000 		.4byte	.LBE159
 23526 0100 00000000 		.4byte	0
 23527 0104 00000000 		.4byte	0
 23528 0108 EC000000 		.4byte	.LBB160
 23529 010c F4000000 		.4byte	.LBE160
 23530 0110 F6000000 		.4byte	.LBB173
 23531 0114 FA000000 		.4byte	.LBE173
 23532 0118 FE000000 		.4byte	.LBB175
 23533 011c 02010000 		.4byte	.LBE175
 23534 0120 04010000 		.4byte	.LBB177
 23535 0124 1C010000 		.4byte	.LBE177
 23536 0128 00000000 		.4byte	0
 23537 012c 00000000 		.4byte	0
 23538 0130 EC000000 		.4byte	.LBB162
ARM GAS  /var/folders/d2/nstgp4h54kz7g1l847x_b8wc0000gn/T//cc2apEbl.s 			page 414


 23539 0134 F2000000 		.4byte	.LBE162
 23540 0138 F6000000 		.4byte	.LBB165
 23541 013c FA000000 		.4byte	.LBE165
 23542 0140 00000000 		.4byte	0
 23543 0144 00000000 		.4byte	0
 23544 0148 F4000000 		.4byte	.LBB169
 23545 014c F6000000 		.4byte	.LBE169
 23546 0150 FA000000 		.4byte	.LBB174
 23547 0154 FE000000 		.4byte	.LBE174
 23548 0158 02010000 		.4byte	.LBB176
 23549 015c 04010000 		.4byte	.LBE176
 23550 0160 00000000 		.4byte	0
 23551 0164 00000000 		.4byte	0
 23552 0168 30000000 		.4byte	.LBB184
 23553 016c 36000000 		.4byte	.LBE184
 23554 0170 38000000 		.4byte	.LBB187
 23555 0174 3C000000 		.4byte	.LBE187
 23556 0178 00000000 		.4byte	0
 23557 017c 00000000 		.4byte	0
 23558 0180 36000000 		.4byte	.LBB188
 23559 0184 3A000000 		.4byte	.LBE188
 23560 0188 40000000 		.4byte	.LBB193
 23561 018c 42000000 		.4byte	.LBE193
 23562 0190 9A000000 		.4byte	.LBB194
 23563 0194 9E000000 		.4byte	.LBE194
 23564 0198 A4000000 		.4byte	.LBB195
 23565 019c A6000000 		.4byte	.LBE195
 23566 01a0 00000000 		.4byte	0
 23567 01a4 00000000 		.4byte	0
 23568 01a8 4E000000 		.4byte	.LBB202
 23569 01ac 5A000000 		.4byte	.LBE202
 23570 01b0 5C000000 		.4byte	.LBB205
 23571 01b4 5E000000 		.4byte	.LBE205
 23572 01b8 00000000 		.4byte	0
 23573 01bc 00000000 		.4byte	0
 23574 01c0 BA000000 		.4byte	.LBB210
 23575 01c4 E0000000 		.4byte	.LBE210
 23576 01c8 F6000000 		.4byte	.LBB218
 23577 01cc FA000000 		.4byte	.LBE218
 23578 01d0 3A010000 		.4byte	.LBB221
 23579 01d4 3E010000 		.4byte	.LBE221
 23580 01d8 00000000 		.4byte	0
 23581 01dc 00000000 		.4byte	0
 23582 01e0 F0000000 		.4byte	.LBB214
 23583 01e4 F6000000 		.4byte	.LBE214
 23584 01e8 FA000000 		.4byte	.LBB219
 23585 01ec 20010000 		.4byte	.LBE219
 23586 01f0 34010000 		.4byte	.LBB220
 23587 01f4 3A010000 		.4byte	.LBE220
 23588 01f8 00000000 		.4byte	0
 23589 01fc 00000000 		.4byte	0
 23590 0200 10000000 		.4byte	.LBB222
 23591 0204 12000000 		.4byte	.LBE222
 23592 0208 1E000000 		.4byte	.LBB226
 23593 020c 2C000000 		.4byte	.LBE226
 23594 0210 F0020000 		.4byte	.LBB271
 23595 0214 F4020000 		.4byte	.LBE271
ARM GAS  /var/folders/d2/nstgp4h54kz7g1l847x_b8wc0000gn/T//cc2apEbl.s 			page 415


 23596 0218 00000000 		.4byte	0
 23597 021c 00000000 		.4byte	0
 23598 0220 64000000 		.4byte	.LBB227
 23599 0224 68000000 		.4byte	.LBE227
 23600 0228 6C000000 		.4byte	.LBB250
 23601 022c 70000000 		.4byte	.LBE250
 23602 0230 78000000 		.4byte	.LBB252
 23603 0234 84000000 		.4byte	.LBE252
 23604 0238 8C000000 		.4byte	.LBB254
 23605 023c 90000000 		.4byte	.LBE254
 23606 0240 94000000 		.4byte	.LBB256
 23607 0244 A0000000 		.4byte	.LBE256
 23608 0248 A2000000 		.4byte	.LBB258
 23609 024c A4000000 		.4byte	.LBE258
 23610 0250 00000000 		.4byte	0
 23611 0254 00000000 		.4byte	0
 23612 0258 64000000 		.4byte	.LBB229
 23613 025c 68000000 		.4byte	.LBE229
 23614 0260 78000000 		.4byte	.LBB232
 23615 0264 7C000000 		.4byte	.LBE232
 23616 0268 00000000 		.4byte	0
 23617 026c 00000000 		.4byte	0
 23618 0270 6A000000 		.4byte	.LBB238
 23619 0274 6C000000 		.4byte	.LBE238
 23620 0278 74000000 		.4byte	.LBB251
 23621 027c 78000000 		.4byte	.LBE251
 23622 0280 84000000 		.4byte	.LBB253
 23623 0284 8C000000 		.4byte	.LBE253
 23624 0288 90000000 		.4byte	.LBB255
 23625 028c 94000000 		.4byte	.LBE255
 23626 0290 A0000000 		.4byte	.LBB257
 23627 0294 A2000000 		.4byte	.LBE257
 23628 0298 A4000000 		.4byte	.LBB259
 23629 029c AC000000 		.4byte	.LBE259
 23630 02a0 AE000000 		.4byte	.LBB260
 23631 02a4 B4000000 		.4byte	.LBE260
 23632 02a8 00000000 		.4byte	0
 23633 02ac 00000000 		.4byte	0
 23634 02b0 6A000000 		.4byte	.LBB240
 23635 02b4 6C000000 		.4byte	.LBE240
 23636 02b8 74000000 		.4byte	.LBB243
 23637 02bc 78000000 		.4byte	.LBE243
 23638 02c0 00000000 		.4byte	0
 23639 02c4 00000000 		.4byte	0
 23640 02c8 3C020000 		.4byte	.LBB265
 23641 02cc 40020000 		.4byte	.LBE265
 23642 02d0 4C020000 		.4byte	.LBB268
 23643 02d4 84020000 		.4byte	.LBE268
 23644 02d8 00000000 		.4byte	0
 23645 02dc 00000000 		.4byte	0
 23646 02e0 00000000 		.4byte	.LFB28
 23647 02e4 40000000 		.4byte	.LFE28
 23648 02e8 00000000 		.4byte	.LFB29
 23649 02ec 40010000 		.4byte	.LFE29
 23650 02f0 00000000 		.4byte	.LFB3
 23651 02f4 3C000000 		.4byte	.LFE3
 23652 02f8 00000000 		.4byte	.LFB4
ARM GAS  /var/folders/d2/nstgp4h54kz7g1l847x_b8wc0000gn/T//cc2apEbl.s 			page 416


 23653 02fc 54000000 		.4byte	.LFE4
 23654 0300 00000000 		.4byte	.LFB5
 23655 0304 28000000 		.4byte	.LFE5
 23656 0308 00000000 		.4byte	.LFB6
 23657 030c 28000000 		.4byte	.LFE6
 23658 0310 00000000 		.4byte	.LFB7
 23659 0314 4C000000 		.4byte	.LFE7
 23660 0318 00000000 		.4byte	.LFB8
 23661 031c 64000000 		.4byte	.LFE8
 23662 0320 00000000 		.4byte	.LFB9
 23663 0324 64000000 		.4byte	.LFE9
 23664 0328 00000000 		.4byte	.LFB10
 23665 032c C0050000 		.4byte	.LFE10
 23666 0330 00000000 		.4byte	.LFB11
 23667 0334 2C000000 		.4byte	.LFE11
 23668 0338 00000000 		.4byte	.LFB12
 23669 033c 30000000 		.4byte	.LFE12
 23670 0340 00000000 		.4byte	.LFB13
 23671 0344 2C000000 		.4byte	.LFE13
 23672 0348 00000000 		.4byte	.LFB14
 23673 034c 48000000 		.4byte	.LFE14
 23674 0350 00000000 		.4byte	.LFB15
 23675 0354 48000000 		.4byte	.LFE15
 23676 0358 00000000 		.4byte	.LFB16
 23677 035c 88010000 		.4byte	.LFE16
 23678 0360 00000000 		.4byte	.LFB17
 23679 0364 88000000 		.4byte	.LFE17
 23680 0368 00000000 		.4byte	.LFB18
 23681 036c 24020000 		.4byte	.LFE18
 23682 0370 00000000 		.4byte	.LFB19
 23683 0374 50000000 		.4byte	.LFE19
 23684 0378 00000000 		.4byte	.LFB20
 23685 037c EC000000 		.4byte	.LFE20
 23686 0380 00000000 		.4byte	.LFB21
 23687 0384 E4000000 		.4byte	.LFE21
 23688 0388 00000000 		.4byte	.LFB22
 23689 038c D0000000 		.4byte	.LFE22
 23690 0390 00000000 		.4byte	.LFB23
 23691 0394 48000000 		.4byte	.LFE23
 23692 0398 00000000 		.4byte	.LFB24
 23693 039c 34000000 		.4byte	.LFE24
 23694 03a0 00000000 		.4byte	.LFB25
 23695 03a4 58010000 		.4byte	.LFE25
 23696 03a8 00000000 		.4byte	.LFB26
 23697 03ac 38030000 		.4byte	.LFE26
 23698 03b0 00000000 		.4byte	.LFB27
 23699 03b4 70020000 		.4byte	.LFE27
 23700 03b8 00000000 		.4byte	0
 23701 03bc 00000000 		.4byte	0
 23702              		.section	.debug_line,"",%progbits
 23703              	.Ldebug_line0:
 23704 0000 A50E0000 		.section	.debug_str,"MS",%progbits,1
 23704      0200DB03 
 23704      00000201 
 23704      FB0E0D00 
 23704      01010101 
 23705              	.LASF408:
ARM GAS  /var/folders/d2/nstgp4h54kz7g1l847x_b8wc0000gn/T//cc2apEbl.s 			page 417


 23706 0000 6D735F62 		.ascii	"ms_byte\000"
 23706      79746500 
 23707              	.LASF385:
 23708 0008 50726552 		.ascii	"PreRangeEncodedTimeOut\000"
 23708      616E6765 
 23708      456E636F 
 23708      64656454 
 23708      696D654F 
 23709              	.LASF331:
 23710 001f 646D6178 		.ascii	"dmaxDark\000"
 23710      4461726B 
 23710      00
 23711              	.LASF442:
 23712 0028 564C3533 		.ascii	"VL53L0X_WrByte\000"
 23712      4C30585F 
 23712      57724279 
 23712      746500
 23713              	.LASF448:
 23714 0037 564C3533 		.ascii	"VL53L0X_perform_phase_calibration\000"
 23714      4C30585F 
 23714      70657266 
 23714      6F726D5F 
 23714      70686173 
 23715              	.LASF244:
 23716 0059 44657669 		.ascii	"DeviceRangeStatus\000"
 23716      63655261 
 23716      6E676553 
 23716      74617475 
 23716      7300
 23717              	.LASF390:
 23718 006b 6765745F 		.ascii	"get_sequence_step_timeout\000"
 23718      73657175 
 23718      656E6365 
 23718      5F737465 
 23718      705F7469 
 23719              	.LASF399:
 23720 0085 6D616372 		.ascii	"macro_period_ns\000"
 23720      6F5F7065 
 23720      72696F64 
 23720      5F6E7300 
 23721              	.LASF91:
 23722 0095 52656665 		.ascii	"ReferenceSpadType\000"
 23722      72656E63 
 23722      65537061 
 23722      64547970 
 23722      6500
 23723              	.LASF60:
 23724 00a7 5369676E 		.ascii	"SignalRateRtnMegaCps\000"
 23724      616C5261 
 23724      74655274 
 23724      6E4D6567 
 23724      61437073 
 23725              	.LASF140:
 23726 00bc 5F6D6178 		.ascii	"_maxwds\000"
 23726      77647300 
 23727              	.LASF94:
 23728 00c4 50617274 		.ascii	"PartUIDLower\000"
ARM GAS  /var/folders/d2/nstgp4h54kz7g1l847x_b8wc0000gn/T//cc2apEbl.s 			page 418


 23728      5549444C 
 23728      6F776572 
 23728      00
 23729              	.LASF31:
 23730 00d1 50726F64 		.ascii	"ProductRevisionMajor\000"
 23730      75637452 
 23730      65766973 
 23730      696F6E4D 
 23730      616A6F72 
 23731              	.LASF242:
 23732 00e6 564C3533 		.ascii	"VL53L0X_DEV\000"
 23732      4C30585F 
 23732      44455600 
 23733              	.LASF154:
 23734 00f2 5F6F6E5F 		.ascii	"_on_exit_args\000"
 23734      65786974 
 23734      5F617267 
 23734      7300
 23735              	.LASF40:
 23736 0100 48697374 		.ascii	"HistogramMode\000"
 23736      6F677261 
 23736      6D4D6F64 
 23736      6500
 23737              	.LASF389:
 23738 010e 46696E61 		.ascii	"FinalRangeEncodedTimeOut\000"
 23738      6C52616E 
 23738      6765456E 
 23738      636F6465 
 23738      6454696D 
 23739              	.LASF221:
 23740 0127 5F776374 		.ascii	"_wctomb_state\000"
 23740      6F6D625F 
 23740      73746174 
 23740      6500
 23741              	.LASF380:
 23742 0135 7365745F 		.ascii	"set_sequence_step_timeout\000"
 23742      73657175 
 23742      656E6365 
 23742      5F737465 
 23742      705F7469 
 23743              	.LASF372:
 23744 014f 564C3533 		.ascii	"VL53L0X_set_vcsel_pulse_period\000"
 23744      4C30585F 
 23744      7365745F 
 23744      76637365 
 23744      6C5F7075 
 23745              	.LASF239:
 23746 016e 44657669 		.ascii	"DeviceInfo\000"
 23746      6365496E 
 23746      666F00
 23747              	.LASF43:
 23748 0179 5854616C 		.ascii	"XTalkCompensationEnable\000"
 23748      6B436F6D 
 23748      70656E73 
 23748      6174696F 
 23748      6E456E61 
 23749              	.LASF290:
ARM GAS  /var/folders/d2/nstgp4h54kz7g1l847x_b8wc0000gn/T//cc2apEbl.s 			page 419


 23750 0191 7854616C 		.ascii	"xTalkCorrection\000"
 23750      6B436F72 
 23750      72656374 
 23750      696F6E00 
 23751              	.LASF83:
 23752 01a1 50726552 		.ascii	"PreRangeVcselPulsePeriod\000"
 23752      616E6765 
 23752      56637365 
 23752      6C50756C 
 23752      73655065 
 23753              	.LASF218:
 23754 01ba 5F723438 		.ascii	"_r48\000"
 23754      00
 23755              	.LASF344:
 23756 01bf 7054756E 		.ascii	"pTuningSettingBuffer\000"
 23756      696E6753 
 23756      65747469 
 23756      6E674275 
 23756      66666572 
 23757              	.LASF336:
 23758 01d4 70746F74 		.ascii	"ptotal_signal_rate_mcps\000"
 23758      616C5F73 
 23758      69676E61 
 23758      6C5F7261 
 23758      74655F6D 
 23759              	.LASF457:
 23760 01ec 2E2E2F65 		.ascii	"../e-puck2_main-processor/src/sensors/VL53L0X/Api/c"
 23760      2D707563 
 23760      6B325F6D 
 23760      61696E2D 
 23760      70726F63 
 23761 021f 6F72652F 		.ascii	"ore/src/vl53l0x_api_core.c\000"
 23761      7372632F 
 23761      766C3533 
 23761      6C30785F 
 23761      6170695F 
 23762              	.LASF357:
 23763 023a 456E644F 		.ascii	"EndOverheadMicroSeconds\000"
 23763      76657268 
 23763      6561644D 
 23763      6963726F 
 23763      5365636F 
 23764              	.LASF145:
 23765 0252 5F5F746D 		.ascii	"__tm_sec\000"
 23765      5F736563 
 23765      00
 23766              	.LASF252:
 23767 025b 52616E67 		.ascii	"RangeIgnoreThresholdflag\000"
 23767      6549676E 
 23767      6F726554 
 23767      68726573 
 23767      686F6C64 
 23768              	.LASF223:
 23769 0274 5F736967 		.ascii	"_signal_buf\000"
 23769      6E616C5F 
 23769      62756600 
 23770              	.LASF0:
ARM GAS  /var/folders/d2/nstgp4h54kz7g1l847x_b8wc0000gn/T//cc2apEbl.s 			page 420


 23771 0280 756E7369 		.ascii	"unsigned int\000"
 23771      676E6564 
 23771      20696E74 
 23771      00
 23772              	.LASF44:
 23773 028d 5854616C 		.ascii	"XTalkCompensationRangeMilliMeter\000"
 23773      6B436F6D 
 23773      70656E73 
 23773      6174696F 
 23773      6E52616E 
 23774              	.LASF311:
 23775 02ae 70726552 		.ascii	"preRangeVcselPCLKS\000"
 23775      616E6765 
 23775      56637365 
 23775      6C50434C 
 23775      4B5300
 23776              	.LASF248:
 23777 02c1 53746174 		.ascii	"Status\000"
 23777      757300
 23778              	.LASF250:
 23779 02c8 5369676D 		.ascii	"SigmaLimitflag\000"
 23779      614C696D 
 23779      6974666C 
 23779      616700
 23780              	.LASF343:
 23781 02d7 564C3533 		.ascii	"VL53L0X_load_tuning_settings\000"
 23781      4C30585F 
 23781      6C6F6164 
 23781      5F74756E 
 23781      696E675F 
 23782              	.LASF38:
 23783 02f4 564C3533 		.ascii	"VL53L0X_PowerModes\000"
 23783      4C30585F 
 23783      506F7765 
 23783      724D6F64 
 23783      657300
 23784              	.LASF29:
 23785 0307 50726F64 		.ascii	"ProductId\000"
 23785      75637449 
 23785      6400
 23786              	.LASF47:
 23787 0311 4C696D69 		.ascii	"LimitChecksEnable\000"
 23787      74436865 
 23787      636B7345 
 23787      6E61626C 
 23787      6500
 23788              	.LASF166:
 23789 0323 5F666C61 		.ascii	"_flags\000"
 23789      677300
 23790              	.LASF439:
 23791 032a 696E6465 		.ascii	"index\000"
 23791      7800
 23792              	.LASF72:
 23793 0330 4572726F 		.ascii	"ErrorStatus\000"
 23793      72537461 
 23793      74757300 
 23794              	.LASF61:
ARM GAS  /var/folders/d2/nstgp4h54kz7g1l847x_b8wc0000gn/T//cc2apEbl.s 			page 421


 23795 033c 416D6269 		.ascii	"AmbientRateRtnMegaCps\000"
 23795      656E7452 
 23795      61746552 
 23795      746E4D65 
 23795      67614370 
 23796              	.LASF10:
 23797 0352 5F5F696E 		.ascii	"__int32_t\000"
 23797      7433325F 
 23797      7400
 23798              	.LASF328:
 23799 035c 7369676D 		.ascii	"sigmaEstSqTmp\000"
 23799      61457374 
 23799      5371546D 
 23799      7000
 23800              	.LASF183:
 23801 036a 5F657272 		.ascii	"_errno\000"
 23801      6E6F00
 23802              	.LASF354:
 23803 0371 46696E61 		.ascii	"FinalRangeTimeoutMicroSeconds\000"
 23803      6C52616E 
 23803      67655469 
 23803      6D656F75 
 23803      744D6963 
 23804              	.LASF430:
 23805 038f 564C3533 		.ascii	"VL53L0X_decode_vcsel_period\000"
 23805      4C30585F 
 23805      6465636F 
 23805      64655F76 
 23805      6373656C 
 23806              	.LASF280:
 23807 03ab 76637365 		.ascii	"vcselTotalEventsRtn\000"
 23807      6C546F74 
 23807      616C4576 
 23807      656E7473 
 23807      52746E00 
 23808              	.LASF294:
 23809 03bf 7854616C 		.ascii	"xTalkCompRate_mcps\000"
 23809      6B436F6D 
 23809      70526174 
 23809      655F6D63 
 23809      707300
 23810              	.LASF235:
 23811 03d2 5F5F6C6F 		.ascii	"__locale_t\000"
 23811      63616C65 
 23811      5F7400
 23812              	.LASF180:
 23813 03dd 5F6D6273 		.ascii	"_mbstate\000"
 23813      74617465 
 23813      00
 23814              	.LASF338:
 23815 03e6 564C3533 		.ascii	"VL53L0X_get_total_signal_rate\000"
 23815      4C30585F 
 23815      6765745F 
 23815      746F7461 
 23815      6C5F7369 
 23816              	.LASF433:
 23817 0404 564C3533 		.ascii	"VL53L0X_reverse_bytes\000"
ARM GAS  /var/folders/d2/nstgp4h54kz7g1l847x_b8wc0000gn/T//cc2apEbl.s 			page 422


 23817      4C30585F 
 23817      72657665 
 23817      7273655F 
 23817      62797465 
 23818              	.LASF255:
 23819 041a 5369676E 		.ascii	"SignalRefClipLimitCheckEnable\000"
 23819      616C5265 
 23819      66436C69 
 23819      704C696D 
 23819      69744368 
 23820              	.LASF170:
 23821 0438 5F726561 		.ascii	"_read\000"
 23821      6400
 23822              	.LASF410:
 23823 043e 504C4C5F 		.ascii	"PLL_period_ps\000"
 23823      70657269 
 23823      6F645F70 
 23823      7300
 23824              	.LASF404:
 23825 044c 656E636F 		.ascii	"encoded_timeout\000"
 23825      6465645F 
 23825      74696D65 
 23825      6F757400 
 23826              	.LASF138:
 23827 045c 5F5F554C 		.ascii	"__ULong\000"
 23827      6F6E6700 
 23828              	.LASF393:
 23829 0464 54696D65 		.ascii	"TimeoutMicroSeconds\000"
 23829      6F75744D 
 23829      6963726F 
 23829      5365636F 
 23829      6E647300 
 23830              	.LASF225:
 23831 0478 5F6D6272 		.ascii	"_mbrlen_state\000"
 23831      6C656E5F 
 23831      73746174 
 23831      6500
 23832              	.LASF396:
 23833 0486 74696D65 		.ascii	"timeout_period_mclks\000"
 23833      6F75745F 
 23833      70657269 
 23833      6F645F6D 
 23833      636C6B73 
 23834              	.LASF241:
 23835 049b 564C3533 		.ascii	"VL53L0X_Dev_t\000"
 23835      4C30585F 
 23835      4465765F 
 23835      7400
 23836              	.LASF329:
 23837 04a9 7369676E 		.ascii	"signalLimitTmp\000"
 23837      616C4C69 
 23837      6D697454 
 23837      6D7000
 23838              	.LASF310:
 23839 04b8 66696E61 		.ascii	"finalRangeVcselPCLKS\000"
 23839      6C52616E 
 23839      67655663 
ARM GAS  /var/folders/d2/nstgp4h54kz7g1l847x_b8wc0000gn/T//cc2apEbl.s 			page 423


 23839      73656C50 
 23839      434C4B53 
 23840              	.LASF50:
 23841 04cd 57726170 		.ascii	"WrapAroundCheckEnable\000"
 23841      41726F75 
 23841      6E644368 
 23841      65636B45 
 23841      6E61626C 
 23842              	.LASF108:
 23843 04e3 506F7765 		.ascii	"PowerMode\000"
 23843      724D6F64 
 23843      6500
 23844              	.LASF398:
 23845 04ed 6D616372 		.ascii	"macro_period_ps\000"
 23845      6F5F7065 
 23845      72696F64 
 23845      5F707300 
 23846              	.LASF48:
 23847 04fd 4C696D69 		.ascii	"LimitChecksStatus\000"
 23847      74436865 
 23847      636B7353 
 23847      74617475 
 23847      7300
 23848              	.LASF270:
 23849 050f 63416D62 		.ascii	"cAmbientEffectiveWidth_centi_ns\000"
 23849      69656E74 
 23849      45666665 
 23849      63746976 
 23849      65576964 
 23850              	.LASF59:
 23851 052f 52616E67 		.ascii	"RangeDMaxMilliMeter\000"
 23851      65444D61 
 23851      784D696C 
 23851      6C694D65 
 23851      74657200 
 23852              	.LASF298:
 23853 0543 73717231 		.ascii	"sqr1\000"
 23853      00
 23854              	.LASF299:
 23855 0548 73717232 		.ascii	"sqr2\000"
 23855      00
 23856              	.LASF130:
 23857 054d 5F66706F 		.ascii	"_fpos_t\000"
 23857      735F7400 
 23858              	.LASF236:
 23859 0555 5F696D70 		.ascii	"_impure_ptr\000"
 23859      7572655F 
 23859      70747200 
 23860              	.LASF161:
 23861 0561 5F666E73 		.ascii	"_fns\000"
 23861      00
 23862              	.LASF89:
 23863 0566 52657669 		.ascii	"Revision\000"
 23863      73696F6E 
 23863      00
 23864              	.LASF169:
 23865 056f 5F636F6F 		.ascii	"_cookie\000"
ARM GAS  /var/folders/d2/nstgp4h54kz7g1l847x_b8wc0000gn/T//cc2apEbl.s 			page 424


 23865      6B696500 
 23866              	.LASF420:
 23867 0577 5369676E 		.ascii	"SignalRateMeasFixed1104_400_mm\000"
 23867      616C5261 
 23867      74654D65 
 23867      61734669 
 23867      78656431 
 23868              	.LASF34:
 23869 0596 564C3533 		.ascii	"VL53L0X_DeviceInfo_t\000"
 23869      4C30585F 
 23869      44657669 
 23869      6365496E 
 23869      666F5F74 
 23870              	.LASF237:
 23871 05ab 5F676C6F 		.ascii	"_global_impure_ptr\000"
 23871      62616C5F 
 23871      696D7075 
 23871      72655F70 
 23871      747200
 23872              	.LASF98:
 23873 05be 50617274 		.ascii	"Part2PartOffsetNVMMicroMeter\000"
 23873      32506172 
 23873      744F6666 
 23873      7365744E 
 23873      564D4D69 
 23874              	.LASF426:
 23875 05db 4C6F6F70 		.ascii	"LoopNb\000"
 23875      4E6200
 23876              	.LASF143:
 23877 05e2 5F426967 		.ascii	"_Bigint\000"
 23877      696E7400 
 23878              	.LASF151:
 23879 05ea 5F5F746D 		.ascii	"__tm_wday\000"
 23879      5F776461 
 23879      7900
 23880              	.LASF283:
 23881 05f4 66696E61 		.ascii	"finalRangeIntegrationTimeMilliSecs\000"
 23881      6C52616E 
 23881      6765496E 
 23881      74656772 
 23881      6174696F 
 23882              	.LASF284:
 23883 0617 7369676D 		.ascii	"sigmaEstimateP1\000"
 23883      61457374 
 23883      696D6174 
 23883      65503100 
 23884              	.LASF285:
 23885 0627 7369676D 		.ascii	"sigmaEstimateP2\000"
 23885      61457374 
 23885      696D6174 
 23885      65503200 
 23886              	.LASF286:
 23887 0637 7369676D 		.ascii	"sigmaEstimateP3\000"
 23887      61457374 
 23887      696D6174 
 23887      65503300 
 23888              	.LASF193:
ARM GAS  /var/folders/d2/nstgp4h54kz7g1l847x_b8wc0000gn/T//cc2apEbl.s 			page 425


 23889 0647 5F726573 		.ascii	"_result\000"
 23889      756C7400 
 23890              	.LASF24:
 23891 064f 46697850 		.ascii	"FixPoint1616_t\000"
 23891      6F696E74 
 23891      31363136 
 23891      5F7400
 23892              	.LASF96:
 23893 065e 564C3533 		.ascii	"VL53L0X_DeviceSpecificParameters_t\000"
 23893      4C30585F 
 23893      44657669 
 23893      63655370 
 23893      65636966 
 23894              	.LASF21:
 23895 0681 75696E74 		.ascii	"uint32_t\000"
 23895      33325F74 
 23895      00
 23896              	.LASF16:
 23897 068a 696E7438 		.ascii	"int8_t\000"
 23897      5F7400
 23898              	.LASF147:
 23899 0691 5F5F746D 		.ascii	"__tm_hour\000"
 23899      5F686F75 
 23899      7200
 23900              	.LASF360:
 23901 069b 4473734F 		.ascii	"DssOverheadMicroSeconds\000"
 23901      76657268 
 23901      6561644D 
 23901      6963726F 
 23901      5365636F 
 23902              	.LASF263:
 23903 06b3 54656D70 		.ascii	"Temp8\000"
 23903      3800
 23904              	.LASF435:
 23905 06b9 73697A65 		.ascii	"size\000"
 23905      00
 23906              	.LASF324:
 23907 06be 6D696E53 		.ascii	"minSignalNeeded_p2\000"
 23907      69676E61 
 23907      6C4E6565 
 23907      6465645F 
 23907      703200
 23908              	.LASF269:
 23909 06d1 6350756C 		.ascii	"cPulseEffectiveWidth_centi_ns\000"
 23909      73654566 
 23909      66656374 
 23909      69766557 
 23909      69647468 
 23910              	.LASF134:
 23911 06ef 5F5F636F 		.ascii	"__count\000"
 23911      756E7400 
 23912              	.LASF253:
 23913 06f7 5369676D 		.ascii	"SigmaLimitCheckEnable\000"
 23913      614C696D 
 23913      69744368 
 23913      65636B45 
 23913      6E61626C 
ARM GAS  /var/folders/d2/nstgp4h54kz7g1l847x_b8wc0000gn/T//cc2apEbl.s 			page 426


 23914              	.LASF432:
 23915 070d 4E657744 		.ascii	"NewDataReady\000"
 23915      61746152 
 23915      65616479 
 23915      00
 23916              	.LASF68:
 23917 071a 48697374 		.ascii	"HistogramType\000"
 23917      6F677261 
 23917      6D547970 
 23917      6500
 23918              	.LASF376:
 23919 0728 4D696E46 		.ascii	"MinFinalVcselPeriodPCLK\000"
 23919      696E616C 
 23919      56637365 
 23919      6C506572 
 23919      696F6450 
 23920              	.LASF276:
 23921 0740 63544F46 		.ascii	"cTOF_per_mm_ps\000"
 23921      5F706572 
 23921      5F6D6D5F 
 23921      707300
 23922              	.LASF146:
 23923 074f 5F5F746D 		.ascii	"__tm_min\000"
 23923      5F6D696E 
 23923      00
 23924              	.LASF51:
 23925 0758 564C3533 		.ascii	"VL53L0X_DeviceParameters_t\000"
 23925      4C30585F 
 23925      44657669 
 23925      63655061 
 23925      72616D65 
 23926              	.LASF231:
 23927 0773 5F6E6578 		.ascii	"_nextf\000"
 23927      746600
 23928              	.LASF25:
 23929 077a 564C3533 		.ascii	"VL53L0X_DeviceError\000"
 23929      4C30585F 
 23929      44657669 
 23929      63654572 
 23929      726F7200 
 23930              	.LASF436:
 23931 078e 74656D70 		.ascii	"tempData\000"
 23931      44617461 
 23931      00
 23932              	.LASF110:
 23933 0797 74617267 		.ascii	"targetRefRate\000"
 23933      65745265 
 23933      66526174 
 23933      6500
 23934              	.LASF268:
 23935 07a5 70446D61 		.ascii	"pDmax_mm\000"
 23935      785F6D6D 
 23935      00
 23936              	.LASF18:
 23937 07ae 696E7431 		.ascii	"int16_t\000"
 23937      365F7400 
 23938              	.LASF208:
ARM GAS  /var/folders/d2/nstgp4h54kz7g1l847x_b8wc0000gn/T//cc2apEbl.s 			page 427


 23939 07b6 5F72616E 		.ascii	"_rand48\000"
 23939      64343800 
 23940              	.LASF371:
 23941 07be 76637365 		.ascii	"vcsel_period_reg\000"
 23941      6C5F7065 
 23941      72696F64 
 23941      5F726567 
 23941      00
 23942              	.LASF32:
 23943 07cf 50726F64 		.ascii	"ProductRevisionMinor\000"
 23943      75637452 
 23943      65766973 
 23943      696F6E4D 
 23943      696E6F72 
 23944              	.LASF194:
 23945 07e4 5F726573 		.ascii	"_result_k\000"
 23945      756C745F 
 23945      6B00
 23946              	.LASF99:
 23947 07ee 50617274 		.ascii	"Part2PartOffsetAdjustmentNVMMicroMeter\000"
 23947      32506172 
 23947      744F6666 
 23947      73657441 
 23947      646A7573 
 23948              	.LASF1:
 23949 0815 6C6F6E67 		.ascii	"long long unsigned int\000"
 23949      206C6F6E 
 23949      6720756E 
 23949      7369676E 
 23949      65642069 
 23950              	.LASF53:
 23951 082c 416D6254 		.ascii	"AmbTuningWindowFactor_K\000"
 23951      756E696E 
 23951      6757696E 
 23951      646F7746 
 23951      6163746F 
 23952              	.LASF214:
 23953 0844 5F617363 		.ascii	"_asctime_buf\000"
 23953      74696D65 
 23953      5F627566 
 23953      00
 23954              	.LASF165:
 23955 0851 5F5F7346 		.ascii	"__sFILE\000"
 23955      494C4500 
 23956              	.LASF142:
 23957 0859 5F776473 		.ascii	"_wds\000"
 23957      00
 23958              	.LASF281:
 23959 085e 66696E61 		.ascii	"finalRangeTimeoutMicroSecs\000"
 23959      6C52616E 
 23959      67655469 
 23959      6D656F75 
 23959      744D6963 
 23960              	.LASF346:
 23961 0879 53656C65 		.ascii	"SelectParam\000"
 23961      63745061 
 23961      72616D00 
ARM GAS  /var/folders/d2/nstgp4h54kz7g1l847x_b8wc0000gn/T//cc2apEbl.s 			page 428


 23962              	.LASF359:
 23963 0885 5463634F 		.ascii	"TccOverheadMicroSeconds\000"
 23963      76657268 
 23963      6561644D 
 23963      6963726F 
 23963      5365636F 
 23964              	.LASF314:
 23965 089d 70646D61 		.ascii	"pdmax_mm\000"
 23965      785F6D6D 
 23965      00
 23966              	.LASF77:
 23967 08a6 4F736346 		.ascii	"OscFrequencyMHz\000"
 23967      72657175 
 23967      656E6379 
 23967      4D487A00 
 23968              	.LASF8:
 23969 08b6 5F5F7569 		.ascii	"__uint16_t\000"
 23969      6E743136 
 23969      5F7400
 23970              	.LASF381:
 23971 08c1 53657175 		.ascii	"SequenceStepId\000"
 23971      656E6365 
 23971      53746570 
 23971      496400
 23972              	.LASF301:
 23973 08d0 73717274 		.ascii	"sqrtResult_centi_ns\000"
 23973      52657375 
 23973      6C745F63 
 23973      656E7469 
 23973      5F6E7300 
 23974              	.LASF204:
 23975 08e4 5F5F4649 		.ascii	"__FILE\000"
 23975      4C4500
 23976              	.LASF422:
 23977 08eb 5369676E 		.ascii	"SignalRateMeasFixed400mmFix\000"
 23977      616C5261 
 23977      74654D65 
 23977      61734669 
 23977      78656434 
 23978              	.LASF332:
 23979 0907 646D6178 		.ascii	"dmaxAmbient\000"
 23979      416D6269 
 23979      656E7400 
 23980              	.LASF177:
 23981 0913 5F6F6666 		.ascii	"_offset\000"
 23981      73657400 
 23982              	.LASF319:
 23983 091b 63416D62 		.ascii	"cAmbEffWidthDMax_ns\000"
 23983      45666657 
 23983      69647468 
 23983      444D6178 
 23983      5F6E7300 
 23984              	.LASF74:
 23985 092f 52656653 		.ascii	"RefSpadEnables\000"
 23985      70616445 
 23985      6E61626C 
 23985      657300
ARM GAS  /var/folders/d2/nstgp4h54kz7g1l847x_b8wc0000gn/T//cc2apEbl.s 			page 429


 23986              	.LASF27:
 23987 093e 4E616D65 		.ascii	"Name\000"
 23987      00
 23988              	.LASF115:
 23989 0943 55736549 		.ascii	"UseInternalTuningSettings\000"
 23989      6E746572 
 23989      6E616C54 
 23989      756E696E 
 23989      67536574 
 23990              	.LASF188:
 23991 095d 5F656D65 		.ascii	"_emergency\000"
 23991      7267656E 
 23991      637900
 23992              	.LASF437:
 23993 0968 6D697272 		.ascii	"mirrorIndex\000"
 23993      6F72496E 
 23993      64657800 
 23994              	.LASF116:
 23995 0974 4C696E65 		.ascii	"LinearityCorrectiveGain\000"
 23995      61726974 
 23995      79436F72 
 23995      72656374 
 23995      69766547 
 23996              	.LASF449:
 23997 098c 564C3533 		.ascii	"VL53L0X_GetVcselPulsePeriod\000"
 23997      4C30585F 
 23997      47657456 
 23997      6373656C 
 23997      50756C73 
 23998              	.LASF384:
 23999 09a8 4D737263 		.ascii	"MsrcEncodedTimeOut\000"
 23999      456E636F 
 23999      64656454 
 23999      696D654F 
 23999      757400
 24000              	.LASF62:
 24001 09bb 45666665 		.ascii	"EffectiveSpadRtnCount\000"
 24001      63746976 
 24001      65537061 
 24001      6452746E 
 24001      436F756E 
 24002              	.LASF400:
 24003 09d1 61637475 		.ascii	"actual_timeout_period_us\000"
 24003      616C5F74 
 24003      696D656F 
 24003      75745F70 
 24003      6572696F 
 24004              	.LASF418:
 24005 09ea 44697374 		.ascii	"DistMeasTgtFixed1104_mm\000"
 24005      4D656173 
 24005      54677446 
 24005      69786564 
 24005      31313034 
 24006              	.LASF104:
 24007 0a02 53706164 		.ascii	"SpadData\000"
 24007      44617461 
 24007      00
ARM GAS  /var/folders/d2/nstgp4h54kz7g1l847x_b8wc0000gn/T//cc2apEbl.s 			page 430


 24008              	.LASF42:
 24009 0a0b 496E7465 		.ascii	"InterMeasurementPeriodMilliSeconds\000"
 24009      724D6561 
 24009      73757265 
 24009      6D656E74 
 24009      50657269 
 24010              	.LASF401:
 24011 0a2e 564C3533 		.ascii	"VL53L0X_calc_timeout_mclks\000"
 24011      4C30585F 
 24011      63616C63 
 24011      5F74696D 
 24011      656F7574 
 24012              	.LASF90:
 24013 0a49 52656665 		.ascii	"ReferenceSpadCount\000"
 24013      72656E63 
 24013      65537061 
 24013      64436F75 
 24013      6E7400
 24014              	.LASF416:
 24015 0a5c 4F666673 		.ascii	"OffsetFixed1104_mm\000"
 24015      65744669 
 24015      78656431 
 24015      3130345F 
 24015      6D6D00
 24016              	.LASF243:
 24017 0a6f 7375626F 		.ascii	"suboptarg\000"
 24017      70746172 
 24017      6700
 24018              	.LASF152:
 24019 0a79 5F5F746D 		.ascii	"__tm_yday\000"
 24019      5F796461 
 24019      7900
 24020              	.LASF187:
 24021 0a83 5F696E63 		.ascii	"_inc\000"
 24021      00
 24022              	.LASF160:
 24023 0a88 5F696E64 		.ascii	"_ind\000"
 24023      00
 24024              	.LASF88:
 24025 0a8d 4D6F6475 		.ascii	"ModuleId\000"
 24025      6C654964 
 24025      00
 24026              	.LASF67:
 24027 0a96 48697374 		.ascii	"HistogramData\000"
 24027      6F677261 
 24027      6D446174 
 24027      6100
 24028              	.LASF49:
 24029 0aa4 4C696D69 		.ascii	"LimitChecksValue\000"
 24029      74436865 
 24029      636B7356 
 24029      616C7565 
 24029      00
 24030              	.LASF245:
 24031 0ab5 5369676E 		.ascii	"SignalRate\000"
 24031      616C5261 
 24031      746500
ARM GAS  /var/folders/d2/nstgp4h54kz7g1l847x_b8wc0000gn/T//cc2apEbl.s 			page 431


 24032              	.LASF273:
 24033 0ac0 63536967 		.ascii	"cSigmaEstMax\000"
 24033      6D614573 
 24033      744D6178 
 24033      00
 24034              	.LASF121:
 24035 0acd 5463634F 		.ascii	"TccOn\000"
 24035      6E00
 24036              	.LASF424:
 24037 0ad3 564C3533 		.ascii	"VL53L0X_device_read_strobe\000"
 24037      4C30585F 
 24037      64657669 
 24037      63655F72 
 24037      6561645F 
 24038              	.LASF227:
 24039 0aee 5F6D6273 		.ascii	"_mbsrtowcs_state\000"
 24039      72746F77 
 24039      63735F73 
 24039      74617465 
 24039      00
 24040              	.LASF15:
 24041 0aff 5F5F7569 		.ascii	"__uint64_t\000"
 24041      6E743634 
 24041      5F7400
 24042              	.LASF307:
 24043 0b0a 66696E61 		.ascii	"finalRangeMacroPCLKS\000"
 24043      6C52616E 
 24043      67654D61 
 24043      63726F50 
 24043      434C4B53 
 24044              	.LASF406:
 24045 0b1f 564C3533 		.ascii	"VL53L0X_encode_timeout\000"
 24045      4C30585F 
 24045      656E636F 
 24045      64655F74 
 24045      696D656F 
 24046              	.LASF46:
 24047 0b36 52616E67 		.ascii	"RangeOffsetMicroMeters\000"
 24047      654F6666 
 24047      7365744D 
 24047      6963726F 
 24047      4D657465 
 24048              	.LASF445:
 24049 0b4d 564C3533 		.ascii	"VL53L0X_GetSequenceStepEnables\000"
 24049      4C30585F 
 24049      47657453 
 24049      65717565 
 24049      6E636553 
 24050              	.LASF117:
 24051 0b6c 446D6178 		.ascii	"DmaxCalRangeMilliMeter\000"
 24051      43616C52 
 24051      616E6765 
 24051      4D696C6C 
 24051      694D6574 
 24052              	.LASF302:
 24053 0b83 73717274 		.ascii	"sqrtResult\000"
 24053      52657375 
ARM GAS  /var/folders/d2/nstgp4h54kz7g1l847x_b8wc0000gn/T//cc2apEbl.s 			page 432


 24053      6C7400
 24054              	.LASF135:
 24055 0b8e 5F5F7661 		.ascii	"__value\000"
 24055      6C756500 
 24056              	.LASF383:
 24057 0b96 43757272 		.ascii	"CurrentVCSELPulsePeriodPClk\000"
 24057      656E7456 
 24057      4353454C 
 24057      50756C73 
 24057      65506572 
 24058              	.LASF85:
 24059 0bb2 5369676D 		.ascii	"SigmaEstEffPulseWidth\000"
 24059      61457374 
 24059      45666650 
 24059      756C7365 
 24059      57696474 
 24060              	.LASF195:
 24061 0bc8 5F703573 		.ascii	"_p5s\000"
 24061      00
 24062              	.LASF282:
 24063 0bcd 70726552 		.ascii	"preRangeTimeoutMicroSecs\000"
 24063      616E6765 
 24063      54696D65 
 24063      6F75744D 
 24063      6963726F 
 24064              	.LASF247:
 24065 0be6 7050616C 		.ascii	"pPalRangeStatus\000"
 24065      52616E67 
 24065      65537461 
 24065      74757300 
 24066              	.LASF109:
 24067 0bf6 53746F70 		.ascii	"StopVariable\000"
 24067      56617269 
 24067      61626C65 
 24067      00
 24068              	.LASF97:
 24069 0c03 444D6178 		.ascii	"DMaxData\000"
 24069      44617461 
 24069      00
 24070              	.LASF57:
 24071 0c0c 4D656173 		.ascii	"MeasurementTimeUsec\000"
 24071      7572656D 
 24071      656E7454 
 24071      696D6555 
 24071      73656300 
 24072              	.LASF219:
 24073 0c20 5F6D626C 		.ascii	"_mblen_state\000"
 24073      656E5F73 
 24073      74617465 
 24073      00
 24074              	.LASF355:
 24075 0c2d 4D737263 		.ascii	"MsrcDccTccTimeoutMicroSeconds\000"
 24075      44636354 
 24075      63635469 
 24075      6D656F75 
 24075      744D6963 
 24076              	.LASF423:
ARM GAS  /var/folders/d2/nstgp4h54kz7g1l847x_b8wc0000gn/T//cc2apEbl.s 			page 433


 24077 0c4b 4E766D52 		.ascii	"NvmRefGoodSpadMap\000"
 24077      6566476F 
 24077      6F645370 
 24077      61644D61 
 24077      7000
 24078              	.LASF33:
 24079 0c5d 63686172 		.ascii	"char\000"
 24079      00
 24080              	.LASF362:
 24081 0c62 46696E61 		.ascii	"FinalRangeOverheadMicroSeconds\000"
 24081      6C52616E 
 24081      67654F76 
 24081      65726865 
 24081      61644D69 
 24082              	.LASF148:
 24083 0c81 5F5F746D 		.ascii	"__tm_mday\000"
 24083      5F6D6461 
 24083      7900
 24084              	.LASF201:
 24085 0c8b 5F736967 		.ascii	"_sig_func\000"
 24085      5F66756E 
 24085      6300
 24086              	.LASF226:
 24087 0c95 5F6D6272 		.ascii	"_mbrtowc_state\000"
 24087      746F7763 
 24087      5F737461 
 24087      746500
 24088              	.LASF200:
 24089 0ca4 5F617465 		.ascii	"_atexit0\000"
 24089      78697430 
 24089      00
 24090              	.LASF87:
 24091 0cad 52656164 		.ascii	"ReadDataFromDeviceDone\000"
 24091      44617461 
 24091      46726F6D 
 24091      44657669 
 24091      6365446F 
 24092              	.LASF41:
 24093 0cc4 4D656173 		.ascii	"MeasurementTimingBudgetMicroSeconds\000"
 24093      7572656D 
 24093      656E7454 
 24093      696D696E 
 24093      67427564 
 24094              	.LASF258:
 24095 0ce8 5369676E 		.ascii	"SignalRefClipValue\000"
 24095      616C5265 
 24095      66436C69 
 24095      7056616C 
 24095      756500
 24096              	.LASF275:
 24097 0cfb 63416D62 		.ascii	"cAmbToSignalRatioMax\000"
 24097      546F5369 
 24097      676E616C 
 24097      52617469 
 24097      6F4D6178 
 24098              	.LASF101:
 24099 0d10 4C617374 		.ascii	"LastRangeMeasure\000"
ARM GAS  /var/folders/d2/nstgp4h54kz7g1l847x_b8wc0000gn/T//cc2apEbl.s 			page 434


 24099      52616E67 
 24099      654D6561 
 24099      73757265 
 24099      00
 24100              	.LASF293:
 24101 0d21 7065616B 		.ascii	"peakSignalRate_kcps\000"
 24101      5369676E 
 24101      616C5261 
 24101      74655F6B 
 24101      63707300 
 24102              	.LASF261:
 24103 0d35 44657669 		.ascii	"DeviceRangeStatusInternal\000"
 24103      63655261 
 24103      6E676553 
 24103      74617475 
 24103      73496E74 
 24104              	.LASF70:
 24105 0d4f 42756666 		.ascii	"BufferSize\000"
 24105      65725369 
 24105      7A6500
 24106              	.LASF322:
 24107 0d5a 6D696E53 		.ascii	"minSignalNeeded\000"
 24107      69676E61 
 24107      6C4E6565 
 24107      64656400 
 24108              	.LASF137:
 24109 0d6a 5F666C6F 		.ascii	"_flock_t\000"
 24109      636B5F74 
 24109      00
 24110              	.LASF421:
 24111 0d73 50726F64 		.ascii	"ProductId_tmp\000"
 24111      75637449 
 24111      645F746D 
 24111      7000
 24112              	.LASF76:
 24113 0d81 564C3533 		.ascii	"VL53L0X_SpadData_t\000"
 24113      4C30585F 
 24113      53706164 
 24113      44617461 
 24113      5F7400
 24114              	.LASF341:
 24115 0d94 7874616C 		.ascii	"xtalkCompEnable\000"
 24115      6B436F6D 
 24115      70456E61 
 24115      626C6500 
 24116              	.LASF303:
 24117 0da4 746F7461 		.ascii	"totalSignalRate_mcps\000"
 24117      6C536967 
 24117      6E616C52 
 24117      6174655F 
 24117      6D637073 
 24118              	.LASF132:
 24119 0db9 5F5F7763 		.ascii	"__wch\000"
 24119      6800
 24120              	.LASF207:
 24121 0dbf 5F696F62 		.ascii	"_iobs\000"
 24121      7300
ARM GAS  /var/folders/d2/nstgp4h54kz7g1l847x_b8wc0000gn/T//cc2apEbl.s 			page 435


 24122              	.LASF17:
 24123 0dc5 75696E74 		.ascii	"uint8_t\000"
 24123      385F7400 
 24124              	.LASF246:
 24125 0dcd 7052616E 		.ascii	"pRangingMeasurementData\000"
 24125      67696E67 
 24125      4D656173 
 24125      7572656D 
 24125      656E7444 
 24126              	.LASF26:
 24127 0de5 564C3533 		.ascii	"VL53L0X_GpioFunctionality\000"
 24127      4C30585F 
 24127      4770696F 
 24127      46756E63 
 24127      74696F6E 
 24128              	.LASF447:
 24129 0dff 564C3533 		.ascii	"VL53L0X_SetMeasurementTimingBudgetMicroSeconds\000"
 24129      4C30585F 
 24129      5365744D 
 24129      65617375 
 24129      72656D65 
 24130              	.LASF173:
 24131 0e2e 5F636C6F 		.ascii	"_close\000"
 24131      736500
 24132              	.LASF191:
 24133 0e35 5F5F7364 		.ascii	"__sdidinit\000"
 24133      6964696E 
 24133      697400
 24134              	.LASF365:
 24135 0e40 46696E61 		.ascii	"FinalRangeTimingBudgetMicroSeconds\000"
 24135      6C52616E 
 24135      67655469 
 24135      6D696E67 
 24135      42756467 
 24136              	.LASF28:
 24137 0e63 54797065 		.ascii	"Type\000"
 24137      00
 24138              	.LASF278:
 24139 0e68 634D6178 		.ascii	"cMaxXTalk_kcps\000"
 24139      5854616C 
 24139      6B5F6B63 
 24139      707300
 24140              	.LASF254:
 24141 0e77 5369676E 		.ascii	"SignalRateFinalRangeLimitCheckEnable\000"
 24141      616C5261 
 24141      74654669 
 24141      6E616C52 
 24141      616E6765 
 24142              	.LASF37:
 24143 0e9c 564C3533 		.ascii	"VL53L0X_HistogramModes\000"
 24143      4C30585F 
 24143      48697374 
 24143      6F677261 
 24143      6D4D6F64 
 24144              	.LASF184:
 24145 0eb3 5F737464 		.ascii	"_stdin\000"
 24145      696E00
ARM GAS  /var/folders/d2/nstgp4h54kz7g1l847x_b8wc0000gn/T//cc2apEbl.s 			page 436


 24146              	.LASF216:
 24147 0eba 5F67616D 		.ascii	"_gamma_signgam\000"
 24147      6D615F73 
 24147      69676E67 
 24147      616D00
 24148              	.LASF65:
 24149 0ec9 52616E67 		.ascii	"RangeStatus\000"
 24149      65537461 
 24149      74757300 
 24150              	.LASF69:
 24151 0ed5 46697273 		.ascii	"FirstBin\000"
 24151      7442696E 
 24151      00
 24152              	.LASF14:
 24153 0ede 6C6F6E67 		.ascii	"long long int\000"
 24153      206C6F6E 
 24153      6720696E 
 24153      7400
 24154              	.LASF375:
 24155 0eec 4D617850 		.ascii	"MaxPreVcselPeriodPCLK\000"
 24155      72655663 
 24155      73656C50 
 24155      6572696F 
 24155      6450434C 
 24156              	.LASF124:
 24157 0f02 50726552 		.ascii	"PreRangeOn\000"
 24157      616E6765 
 24157      4F6E00
 24158              	.LASF36:
 24159 0f0d 564C3533 		.ascii	"VL53L0X_DeviceModes\000"
 24159      4C30585F 
 24159      44657669 
 24159      63654D6F 
 24159      64657300 
 24160              	.LASF163:
 24161 0f21 5F626173 		.ascii	"_base\000"
 24161      6500
 24162              	.LASF196:
 24163 0f27 5F667265 		.ascii	"_freelist\000"
 24163      656C6973 
 24163      7400
 24164              	.LASF347:
 24165 0f31 4E756D62 		.ascii	"NumberOfWrites\000"
 24165      65724F66 
 24165      57726974 
 24165      657300
 24166              	.LASF210:
 24167 0f40 5F6D756C 		.ascii	"_mult\000"
 24167      7400
 24168              	.LASF123:
 24169 0f46 4473734F 		.ascii	"DssOn\000"
 24169      6E00
 24170              	.LASF92:
 24171 0f4c 52656653 		.ascii	"RefSpadsInitialised\000"
 24171      70616473 
 24171      496E6974 
 24171      69616C69 
ARM GAS  /var/folders/d2/nstgp4h54kz7g1l847x_b8wc0000gn/T//cc2apEbl.s 			page 437


 24171      73656400 
 24172              	.LASF125:
 24173 0f60 46696E61 		.ascii	"FinalRangeOn\000"
 24173      6C52616E 
 24173      67654F6E 
 24173      00
 24174              	.LASF349:
 24175 0f6d 6C6F6361 		.ascii	"localBuffer\000"
 24175      6C427566 
 24175      66657200 
 24176              	.LASF228:
 24177 0f79 5F776372 		.ascii	"_wcrtomb_state\000"
 24177      746F6D62 
 24177      5F737461 
 24177      746500
 24178              	.LASF266:
 24179 0f88 564C3533 		.ascii	"VL53L0X_calc_sigma_estimate\000"
 24179      4C30585F 
 24179      63616C63 
 24179      5F736967 
 24179      6D615F65 
 24180              	.LASF427:
 24181 0fa4 564C3533 		.ascii	"VL53L0X_quadrature_sum\000"
 24181      4C30585F 
 24181      71756164 
 24181      72617475 
 24181      72655F73 
 24182              	.LASF167:
 24183 0fbb 5F66696C 		.ascii	"_file\000"
 24183      6500
 24184              	.LASF450:
 24185 0fc1 564C3533 		.ascii	"VL53L0X_PollingDelay\000"
 24185      4C30585F 
 24185      506F6C6C 
 24185      696E6744 
 24185      656C6179 
 24186              	.LASF6:
 24187 0fd6 5F5F696E 		.ascii	"__int16_t\000"
 24187      7431365F 
 24187      7400
 24188              	.LASF446:
 24189 0fe0 564C3533 		.ascii	"VL53L0X_RdByte\000"
 24189      4C30585F 
 24189      52644279 
 24189      746500
 24190              	.LASF353:
 24191 0fef 53636865 		.ascii	"SchedulerSequenceSteps\000"
 24191      64756C65 
 24191      72536571 
 24191      75656E63 
 24191      65537465 
 24192              	.LASF300:
 24193 1006 73717253 		.ascii	"sqrSum\000"
 24193      756D00
 24194              	.LASF271:
 24195 100d 6344666C 		.ascii	"cDfltFinalRangeIntegrationTimeMilliSecs\000"
 24195      7446696E 
ARM GAS  /var/folders/d2/nstgp4h54kz7g1l847x_b8wc0000gn/T//cc2apEbl.s 			page 438


 24195      616C5261 
 24195      6E676549 
 24195      6E746567 
 24196              	.LASF192:
 24197 1035 5F5F636C 		.ascii	"__cleanup\000"
 24197      65616E75 
 24197      7000
 24198              	.LASF351:
 24199 103f 564C3533 		.ascii	"VL53L0X_get_measurement_timing_budget_micro_seconds"
 24199      4C30585F 
 24199      6765745F 
 24199      6D656173 
 24199      7572656D 
 24200 1072 00       		.ascii	"\000"
 24201              	.LASF438:
 24202 1073 6D696464 		.ascii	"middle\000"
 24202      6C6500
 24203              	.LASF136:
 24204 107a 5F6D6273 		.ascii	"_mbstate_t\000"
 24204      74617465 
 24204      5F7400
 24205              	.LASF443:
 24206 1085 564C3533 		.ascii	"VL53L0X_RdWord\000"
 24206      4C30585F 
 24206      5264576F 
 24206      726400
 24207              	.LASF394:
 24208 1094 4D737263 		.ascii	"MsrcTimeOutMClks\000"
 24208      54696D65 
 24208      4F75744D 
 24208      436C6B73 
 24208      00
 24209              	.LASF54:
 24210 10a5 52657453 		.ascii	"RetSignalAt0mm\000"
 24210      69676E61 
 24210      6C417430 
 24210      6D6D00
 24211              	.LASF153:
 24212 10b4 5F5F746D 		.ascii	"__tm_isdst\000"
 24212      5F697364 
 24212      737400
 24213              	.LASF229:
 24214 10bf 5F776373 		.ascii	"_wcsrtombs_state\000"
 24214      72746F6D 
 24214      62735F73 
 24214      74617465 
 24214      00
 24215              	.LASF317:
 24216 10d0 63536967 		.ascii	"cSigmaEstRef\000"
 24216      6D614573 
 24216      74526566 
 24216      00
 24217              	.LASF361:
 24218 10dd 50726552 		.ascii	"PreRangeOverheadMicroSeconds\000"
 24218      616E6765 
 24218      4F766572 
 24218      68656164 
ARM GAS  /var/folders/d2/nstgp4h54kz7g1l847x_b8wc0000gn/T//cc2apEbl.s 			page 439


 24218      4D696372 
 24219              	.LASF428:
 24220 10fa 564C3533 		.ascii	"VL53L0X_isqrt\000"
 24220      4C30585F 
 24220      69737172 
 24220      7400
 24221              	.LASF230:
 24222 1108 5F685F65 		.ascii	"_h_errno\000"
 24222      72726E6F 
 24222      00
 24223              	.LASF308:
 24224 1111 70726552 		.ascii	"preRangeMacroPCLKS\000"
 24224      616E6765 
 24224      4D616372 
 24224      6F50434C 
 24224      4B5300
 24225              	.LASF373:
 24226 1124 56435345 		.ascii	"VCSELPulsePeriodPCLK\000"
 24226      4C50756C 
 24226      73655065 
 24226      72696F64 
 24226      50434C4B 
 24227              	.LASF417:
 24228 1139 4F666673 		.ascii	"OffsetMicroMeters\000"
 24228      65744D69 
 24228      63726F4D 
 24228      65746572 
 24228      7300
 24229              	.LASF52:
 24230 114b 564C3533 		.ascii	"VL53L0X_State\000"
 24230      4C30585F 
 24230      53746174 
 24230      6500
 24231              	.LASF367:
 24232 1159 53756254 		.ascii	"SubTimeout\000"
 24232      696D656F 
 24232      757400
 24233              	.LASF451:
 24234 1164 564C3533 		.ascii	"VL53L0X_RdDWord\000"
 24234      4C30585F 
 24234      52644457 
 24234      6F726400 
 24235              	.LASF425:
 24236 1174 7374726F 		.ascii	"strobe\000"
 24236      626500
 24237              	.LASF55:
 24238 117b 564C3533 		.ascii	"VL53L0X_DMaxData_t\000"
 24238      4C30585F 
 24238      444D6178 
 24238      44617461 
 24238      5F7400
 24239              	.LASF3:
 24240 118e 5F5F696E 		.ascii	"__int8_t\000"
 24240      74385F74 
 24240      00
 24241              	.LASF126:
 24242 1197 564C3533 		.ascii	"VL53L0X_SchedulerSequenceSteps_t\000"
ARM GAS  /var/folders/d2/nstgp4h54kz7g1l847x_b8wc0000gn/T//cc2apEbl.s 			page 440


 24242      4C30585F 
 24242      53636865 
 24242      64756C65 
 24242      72536571 
 24243              	.LASF397:
 24244 11b8 76637365 		.ascii	"vcsel_period_pclks\000"
 24244      6C5F7065 
 24244      72696F64 
 24244      5F70636C 
 24244      6B7300
 24245              	.LASF434:
 24246 11cb 64617461 		.ascii	"data\000"
 24246      00
 24247              	.LASF287:
 24248 11d0 64656C74 		.ascii	"deltaT_ps\000"
 24248      61545F70 
 24248      7300
 24249              	.LASF149:
 24250 11da 5F5F746D 		.ascii	"__tm_mon\000"
 24250      5F6D6F6E 
 24250      00
 24251              	.LASF39:
 24252 11e3 44657669 		.ascii	"DeviceMode\000"
 24252      63654D6F 
 24252      646500
 24253              	.LASF339:
 24254 11ee 564C3533 		.ascii	"VL53L0X_get_total_xtalk_rate\000"
 24254      4C30585F 
 24254      6765745F 
 24254      746F7461 
 24254      6C5F7874 
 24255              	.LASF45:
 24256 120b 5854616C 		.ascii	"XTalkCompensationRateMegaCps\000"
 24256      6B436F6D 
 24256      70656E73 
 24256      6174696F 
 24256      6E526174 
 24257              	.LASF127:
 24258 1228 564C3533 		.ascii	"VL53L0X_SequenceStepId\000"
 24258      4C30585F 
 24258      53657175 
 24258      656E6365 
 24258      53746570 
 24259              	.LASF23:
 24260 123f 6C6F6E67 		.ascii	"long double\000"
 24260      20646F75 
 24260      626C6500 
 24261              	.LASF312:
 24262 124b 564C3533 		.ascii	"VL53L0X_calc_dmax\000"
 24262      4C30585F 
 24262      63616C63 
 24262      5F646D61 
 24262      7800
 24263              	.LASF128:
 24264 125d 5F4C4F43 		.ascii	"_LOCK_T\000"
 24264      4B5F5400 
 24265              	.LASF19:
ARM GAS  /var/folders/d2/nstgp4h54kz7g1l847x_b8wc0000gn/T//cc2apEbl.s 			page 441


 24266 1265 75696E74 		.ascii	"uint16_t\000"
 24266      31365F74 
 24266      00
 24267              	.LASF441:
 24268 126e 564C3533 		.ascii	"VL53L0X_GetLimitCheckValue\000"
 24268      4C30585F 
 24268      4765744C 
 24268      696D6974 
 24268      43686563 
 24269              	.LASF66:
 24270 1289 564C3533 		.ascii	"VL53L0X_RangingMeasurementData_t\000"
 24270      4C30585F 
 24270      52616E67 
 24270      696E674D 
 24270      65617375 
 24271              	.LASF171:
 24272 12aa 5F777269 		.ascii	"_write\000"
 24272      746500
 24273              	.LASF304:
 24274 12b1 636F7272 		.ascii	"correctedSignalRate_mcps\000"
 24274      65637465 
 24274      64536967 
 24274      6E616C52 
 24274      6174655F 
 24275              	.LASF251:
 24276 12ca 5369676E 		.ascii	"SignalRefClipflag\000"
 24276      616C5265 
 24276      66436C69 
 24276      70666C61 
 24276      6700
 24277              	.LASF429:
 24278 12dc 564C3533 		.ascii	"VL53L0X_encode_vcsel_period\000"
 24278      4C30585F 
 24278      656E636F 
 24278      64655F76 
 24278      6373656C 
 24279              	.LASF378:
 24280 12f8 4D737263 		.ascii	"MsrcTimeoutMicroSeconds\000"
 24280      54696D65 
 24280      6F75744D 
 24280      6963726F 
 24280      5365636F 
 24281              	.LASF412:
 24282 1310 564C3533 		.ascii	"VL53L0X_get_info_from_device\000"
 24282      4C30585F 
 24282      6765745F 
 24282      696E666F 
 24282      5F66726F 
 24283              	.LASF358:
 24284 132d 4D737263 		.ascii	"MsrcOverheadMicroSeconds\000"
 24284      4F766572 
 24284      68656164 
 24284      4D696372 
 24284      6F536563 
 24285              	.LASF407:
 24286 1346 6C735F62 		.ascii	"ls_byte\000"
 24286      79746500 
ARM GAS  /var/folders/d2/nstgp4h54kz7g1l847x_b8wc0000gn/T//cc2apEbl.s 			page 442


 24287              	.LASF454:
 24288 134e 564C3533 		.ascii	"VL53L0X_WrWord\000"
 24288      4C30585F 
 24288      5772576F 
 24288      726400
 24289              	.LASF105:
 24290 135d 53657175 		.ascii	"SequenceConfig\000"
 24290      656E6365 
 24290      436F6E66 
 24290      696700
 24291              	.LASF159:
 24292 136c 5F617465 		.ascii	"_atexit\000"
 24292      78697400 
 24293              	.LASF182:
 24294 1374 5F726565 		.ascii	"_reent\000"
 24294      6E7400
 24295              	.LASF259:
 24296 137b 52616E67 		.ascii	"RangeIgnoreThresholdValue\000"
 24296      6549676E 
 24296      6F726554 
 24296      68726573 
 24296      686F6C64 
 24297              	.LASF296:
 24298 1395 64696666 		.ascii	"diff1_mcps\000"
 24298      315F6D63 
 24298      707300
 24299              	.LASF257:
 24300 13a0 5369676D 		.ascii	"SigmaLimitValue\000"
 24300      614C696D 
 24300      69745661 
 24300      6C756500 
 24301              	.LASF431:
 24302 13b0 564C3533 		.ascii	"VL53L0X_measurement_poll_for_completion\000"
 24302      4C30585F 
 24302      6D656173 
 24302      7572656D 
 24302      656E745F 
 24303              	.LASF274:
 24304 13d8 63536967 		.ascii	"cSigmaEstRtnMax\000"
 24304      6D614573 
 24304      7452746E 
 24304      4D617800 
 24305              	.LASF333:
 24306 13e8 646D6178 		.ascii	"dmaxDarkTmp\000"
 24306      4461726B 
 24306      546D7000 
 24307              	.LASF7:
 24308 13f4 73686F72 		.ascii	"short int\000"
 24308      7420696E 
 24308      7400
 24309              	.LASF320:
 24310 13fe 646D6178 		.ascii	"dmaxCalRange_mm\000"
 24310      43616C52 
 24310      616E6765 
 24310      5F6D6D00 
 24311              	.LASF292:
 24312 140e 616D6269 		.ascii	"ambientRate_kcps\000"
ARM GAS  /var/folders/d2/nstgp4h54kz7g1l847x_b8wc0000gn/T//cc2apEbl.s 			page 443


 24312      656E7452 
 24312      6174655F 
 24312      6B637073 
 24312      00
 24313              	.LASF370:
 24314 141f 70564353 		.ascii	"pVCSELPulsePeriodPCLK\000"
 24314      454C5075 
 24314      6C736550 
 24314      6572696F 
 24314      6450434C 
 24315              	.LASF11:
 24316 1435 6C6F6E67 		.ascii	"long int\000"
 24316      20696E74 
 24316      00
 24317              	.LASF411:
 24318 143e 6D616372 		.ascii	"macro_period_vclks\000"
 24318      6F5F7065 
 24318      72696F64 
 24318      5F76636C 
 24318      6B7300
 24319              	.LASF444:
 24320 1451 564C3533 		.ascii	"VL53L0X_WriteMulti\000"
 24320      4C30585F 
 24320      57726974 
 24320      654D756C 
 24320      746900
 24321              	.LASF93:
 24322 1464 50617274 		.ascii	"PartUIDUpper\000"
 24322      55494455 
 24322      70706572 
 24322      00
 24323              	.LASF112:
 24324 1471 5369676E 		.ascii	"SignalEstimate\000"
 24324      616C4573 
 24324      74696D61 
 24324      746500
 24325              	.LASF392:
 24326 1480 456E636F 		.ascii	"EncodedTimeOutByte\000"
 24326      64656454 
 24326      696D654F 
 24326      75744279 
 24326      746500
 24327              	.LASF386:
 24328 1493 50726552 		.ascii	"PreRangeTimeOutMClks\000"
 24328      616E6765 
 24328      54696D65 
 24328      4F75744D 
 24328      436C6B73 
 24329              	.LASF459:
 24330 14a8 5F5F7374 		.ascii	"__stack_chk_fail\000"
 24330      61636B5F 
 24330      63686B5F 
 24330      6661696C 
 24330      00
 24331              	.LASF240:
 24332 14b9 49326344 		.ascii	"I2cDevAddr\000"
 24332      65764164 
ARM GAS  /var/folders/d2/nstgp4h54kz7g1l847x_b8wc0000gn/T//cc2apEbl.s 			page 444


 24332      647200
 24333              	.LASF203:
 24334 14c4 5F5F7366 		.ascii	"__sf\000"
 24334      00
 24335              	.LASF141:
 24336 14c9 5F736967 		.ascii	"_sign\000"
 24336      6E00
 24337              	.LASF306:
 24338 14cf 76637365 		.ascii	"vcselWidth\000"
 24338      6C576964 
 24338      746800
 24339              	.LASF415:
 24340 14da 546D7044 		.ascii	"TmpDWord\000"
 24340      576F7264 
 24340      00
 24341              	.LASF277:
 24342 14e3 63313642 		.ascii	"c16BitRoundingParam\000"
 24342      6974526F 
 24342      756E6469 
 24342      6E675061 
 24342      72616D00 
 24343              	.LASF352:
 24344 14f7 704D6561 		.ascii	"pMeasurementTimingBudgetMicroSeconds\000"
 24344      73757265 
 24344      6D656E74 
 24344      54696D69 
 24344      6E674275 
 24345              	.LASF178:
 24346 151c 5F646174 		.ascii	"_data\000"
 24346      6100
 24347              	.LASF113:
 24348 1522 4C617374 		.ascii	"LastSignalRefMcps\000"
 24348      5369676E 
 24348      616C5265 
 24348      664D6370 
 24348      7300
 24349              	.LASF133:
 24350 1534 5F5F7763 		.ascii	"__wchb\000"
 24350      686200
 24351              	.LASF22:
 24352 153b 75696E74 		.ascii	"uint64_t\000"
 24352      36345F74 
 24352      00
 24353              	.LASF316:
 24354 1544 63536967 		.ascii	"cSignalLimit\000"
 24354      6E616C4C 
 24354      696D6974 
 24354      00
 24355              	.LASF80:
 24356 1551 46696E61 		.ascii	"FinalRangeTimeoutMicroSecs\000"
 24356      6C52616E 
 24356      67655469 
 24356      6D656F75 
 24356      744D6963 
 24357              	.LASF291:
 24358 156c 7369676D 		.ascii	"sigmaEstimate\000"
 24358      61457374 
ARM GAS  /var/folders/d2/nstgp4h54kz7g1l847x_b8wc0000gn/T//cc2apEbl.s 			page 445


 24358      696D6174 
 24358      6500
 24359              	.LASF150:
 24360 157a 5F5F746D 		.ascii	"__tm_year\000"
 24360      5F796561 
 24360      7200
 24361              	.LASF63:
 24362 1584 5A6F6E65 		.ascii	"ZoneId\000"
 24362      496400
 24363              	.LASF366:
 24364 158b 634D696E 		.ascii	"cMinTimingBudgetMicroSeconds\000"
 24364      54696D69 
 24364      6E674275 
 24364      64676574 
 24364      4D696372 
 24365              	.LASF419:
 24366 15a8 44697374 		.ascii	"DistMeasFixed1104_400_mm\000"
 24366      4D656173 
 24366      46697865 
 24366      64313130 
 24366      345F3430 
 24367              	.LASF363:
 24368 15c1 50726552 		.ascii	"PreRangeTimeoutMicroSeconds\000"
 24368      616E6765 
 24368      54696D65 
 24368      6F75744D 
 24368      6963726F 
 24369              	.LASF318:
 24370 15dd 63416D62 		.ascii	"cAmbEffWidthSigmaEst_ns\000"
 24370      45666657 
 24370      69647468 
 24370      5369676D 
 24370      61457374 
 24371              	.LASF215:
 24372 15f5 5F6C6F63 		.ascii	"_localtime_buf\000"
 24372      616C7469 
 24372      6D655F62 
 24372      756600
 24373              	.LASF265:
 24374 1604 564C3533 		.ascii	"VL53L0X_get_pal_range_status\000"
 24374      4C30585F 
 24374      6765745F 
 24374      70616C5F 
 24374      72616E67 
 24375              	.LASF233:
 24376 1621 5F756E75 		.ascii	"_unused\000"
 24376      73656400 
 24377              	.LASF4:
 24378 1629 5F5F7569 		.ascii	"__uint8_t\000"
 24378      6E74385F 
 24378      7400
 24379              	.LASF199:
 24380 1633 5F6E6577 		.ascii	"_new\000"
 24380      00
 24381              	.LASF369:
 24382 1638 56637365 		.ascii	"VcselPeriodType\000"
 24382      6C506572 
ARM GAS  /var/folders/d2/nstgp4h54kz7g1l847x_b8wc0000gn/T//cc2apEbl.s 			page 446


 24382      696F6454 
 24382      79706500 
 24383              	.LASF197:
 24384 1648 5F637674 		.ascii	"_cvtlen\000"
 24384      6C656E00 
 24385              	.LASF75:
 24386 1650 52656647 		.ascii	"RefGoodSpadMap\000"
 24386      6F6F6453 
 24386      7061644D 
 24386      617000
 24387              	.LASF222:
 24388 165f 5F6C3634 		.ascii	"_l64a_buf\000"
 24388      615F6275 
 24388      6600
 24389              	.LASF35:
 24390 1669 564C3533 		.ascii	"VL53L0X_Error\000"
 24390      4C30585F 
 24390      4572726F 
 24390      7200
 24391              	.LASF356:
 24392 1677 53746172 		.ascii	"StartOverheadMicroSeconds\000"
 24392      744F7665 
 24392      72686561 
 24392      644D6963 
 24392      726F5365 
 24393              	.LASF402:
 24394 1691 74696D65 		.ascii	"timeout_period_us\000"
 24394      6F75745F 
 24394      70657269 
 24394      6F645F75 
 24394      7300
 24395              	.LASF297:
 24396 16a3 64696666 		.ascii	"diff2_mcps\000"
 24396      325F6D63 
 24396      707300
 24397              	.LASF350:
 24398 16ae 54656D70 		.ascii	"Temp16\000"
 24398      313600
 24399              	.LASF377:
 24400 16b5 4D617846 		.ascii	"MaxFinalVcselPeriodPCLK\000"
 24400      696E616C 
 24400      56637365 
 24400      6C506572 
 24400      696F6450 
 24401              	.LASF315:
 24402 16cd 63536967 		.ascii	"cSigmaLimit\000"
 24402      6D614C69 
 24402      6D697400 
 24403              	.LASF374:
 24404 16d9 4D696E50 		.ascii	"MinPreVcselPeriodPCLK\000"
 24404      72655663 
 24404      73656C50 
 24404      6572696F 
 24404      6450434C 
 24405              	.LASF176:
 24406 16ef 5F626C6B 		.ascii	"_blksize\000"
 24406      73697A65 
ARM GAS  /var/folders/d2/nstgp4h54kz7g1l847x_b8wc0000gn/T//cc2apEbl.s 			page 447


 24406      00
 24407              	.LASF144:
 24408 16f8 5F5F746D 		.ascii	"__tm\000"
 24408      00
 24409              	.LASF391:
 24410 16fd 7054696D 		.ascii	"pTimeOutMicroSecs\000"
 24410      654F7574 
 24410      4D696372 
 24410      6F536563 
 24410      7300
 24411              	.LASF179:
 24412 170f 5F6C6F63 		.ascii	"_lock\000"
 24412      6B00
 24413              	.LASF256:
 24414 1715 52616E67 		.ascii	"RangeIgnoreThresholdLimitCheckEnable\000"
 24414      6549676E 
 24414      6F726554 
 24414      68726573 
 24414      686F6C64 
 24415              	.LASF309:
 24416 173a 7065616B 		.ascii	"peakVcselDuration_us\000"
 24416      56637365 
 24416      6C447572 
 24416      6174696F 
 24416      6E5F7573 
 24417              	.LASF100:
 24418 174f 43757272 		.ascii	"CurrentParameters\000"
 24418      656E7450 
 24418      6172616D 
 24418      65746572 
 24418      7300
 24419              	.LASF13:
 24420 1761 6C6F6E67 		.ascii	"long unsigned int\000"
 24420      20756E73 
 24420      69676E65 
 24420      6420696E 
 24420      7400
 24421              	.LASF103:
 24422 1773 44657669 		.ascii	"DeviceSpecificParameters\000"
 24422      63655370 
 24422      65636966 
 24422      69635061 
 24422      72616D65 
 24423              	.LASF206:
 24424 178c 5F6E696F 		.ascii	"_niobs\000"
 24424      627300
 24425              	.LASF131:
 24426 1793 77696E74 		.ascii	"wint_t\000"
 24426      5F7400
 24427              	.LASF114:
 24428 179a 7054756E 		.ascii	"pTuningSettingsPointer\000"
 24428      696E6753 
 24428      65747469 
 24428      6E677350 
 24428      6F696E74 
 24429              	.LASF264:
 24430 17b1 446D6178 		.ascii	"Dmax_mm\000"
ARM GAS  /var/folders/d2/nstgp4h54kz7g1l847x_b8wc0000gn/T//cc2apEbl.s 			page 448


 24430      5F6D6D00 
 24431              	.LASF334:
 24432 17b9 7369676D 		.ascii	"sigmaEstP2Tmp\000"
 24432      61457374 
 24432      5032546D 
 24432      7000
 24433              	.LASF20:
 24434 17c7 696E7433 		.ascii	"int32_t\000"
 24434      325F7400 
 24435              	.LASF321:
 24436 17cf 646D6178 		.ascii	"dmaxCalSignalRateRtn_mcps\000"
 24436      43616C53 
 24436      69676E61 
 24436      6C526174 
 24436      6552746E 
 24437              	.LASF156:
 24438 17e9 5F64736F 		.ascii	"_dso_handle\000"
 24438      5F68616E 
 24438      646C6500 
 24439              	.LASF414:
 24440 17f5 62797465 		.ascii	"byte\000"
 24440      00
 24441              	.LASF234:
 24442 17fa 5F5F6C6F 		.ascii	"__lock\000"
 24442      636B00
 24443              	.LASF345:
 24444 1801 496E6465 		.ascii	"Index\000"
 24444      7800
 24445              	.LASF289:
 24446 1807 7369676D 		.ascii	"sigmaEstRtn\000"
 24446      61457374 
 24446      52746E00 
 24447              	.LASF86:
 24448 1813 5369676D 		.ascii	"SigmaEstEffAmbWidth\000"
 24448      61457374 
 24448      45666641 
 24448      6D625769 
 24448      64746800 
 24449              	.LASF456:
 24450 1827 474E5520 		.ascii	"GNU C11 7.2.1 20170904 (release) [ARM/embedded-7-br"
 24450      43313120 
 24450      372E322E 
 24450      31203230 
 24450      31373039 
 24451 185a 616E6368 		.ascii	"anch revision 255204] -mcpu=cortex-m4 -mfloat-abi=h"
 24451      20726576 
 24451      6973696F 
 24451      6E203235 
 24451      35323034 
 24452 188d 61726420 		.ascii	"ard -mfpu=fpv4-sp-d16 -mno-thumb-interwork -mthumb "
 24452      2D6D6670 
 24452      753D6670 
 24452      76342D73 
 24452      702D6431 
 24453 18c0 2D676764 		.ascii	"-ggdb -O2 -fomit-frame-pointer -falign-functions=16"
 24453      62202D4F 
 24453      32202D66 
ARM GAS  /var/folders/d2/nstgp4h54kz7g1l847x_b8wc0000gn/T//cc2apEbl.s 			page 449


 24453      6F6D6974 
 24453      2D667261 
 24454 18f3 202D666E 		.ascii	" -fno-strict-aliasing -fstack-protector-all -ffunct"
 24454      6F2D7374 
 24454      72696374 
 24454      2D616C69 
 24454      6173696E 
 24455 1926 696F6E2D 		.ascii	"ion-sections -fdata-sections -fno-common -fsingle-p"
 24455      73656374 
 24455      696F6E73 
 24455      202D6664 
 24455      6174612D 
 24456 1959 72656369 		.ascii	"recision-constant\000"
 24456      73696F6E 
 24456      2D636F6E 
 24456      7374616E 
 24456      7400
 24457              	.LASF305:
 24458 196b 7369676D 		.ascii	"sigmaEstRef\000"
 24458      61457374 
 24458      52656600 
 24459              	.LASF185:
 24460 1977 5F737464 		.ascii	"_stdout\000"
 24460      6F757400 
 24461              	.LASF198:
 24462 197f 5F637674 		.ascii	"_cvtbuf\000"
 24462      62756600 
 24463              	.LASF5:
 24464 1987 756E7369 		.ascii	"unsigned char\000"
 24464      676E6564 
 24464      20636861 
 24464      7200
 24465              	.LASF71:
 24466 1995 4E756D62 		.ascii	"NumberOfBins\000"
 24466      65724F66 
 24466      42696E73 
 24466      00
 24467              	.LASF82:
 24468 19a2 50726552 		.ascii	"PreRangeTimeoutMicroSecs\000"
 24468      616E6765 
 24468      54696D65 
 24468      6F75744D 
 24468      6963726F 
 24469              	.LASF413:
 24470 19bb 6F707469 		.ascii	"option\000"
 24470      6F6E00
 24471              	.LASF12:
 24472 19c2 5F5F7569 		.ascii	"__uint32_t\000"
 24472      6E743332 
 24472      5F7400
 24473              	.LASF118:
 24474 19cd 446D6178 		.ascii	"DmaxCalSignalRateRtnMegaCps\000"
 24474      43616C53 
 24474      69676E61 
 24474      6C526174 
 24474      6552746E 
 24475              	.LASF81:
ARM GAS  /var/folders/d2/nstgp4h54kz7g1l847x_b8wc0000gn/T//cc2apEbl.s 			page 450


 24476 19e9 46696E61 		.ascii	"FinalRangeVcselPulsePeriod\000"
 24476      6C52616E 
 24476      67655663 
 24476      73656C50 
 24476      756C7365 
 24477              	.LASF224:
 24478 1a04 5F676574 		.ascii	"_getdate_err\000"
 24478      64617465 
 24478      5F657272 
 24478      00
 24479              	.LASF168:
 24480 1a11 5F6C6266 		.ascii	"_lbfsize\000"
 24480      73697A65 
 24480      00
 24481              	.LASF342:
 24482 1a1a 7874616C 		.ascii	"xtalkPerSpadMegaCps\000"
 24482      6B506572 
 24482      53706164 
 24482      4D656761 
 24482      43707300 
 24483              	.LASF119:
 24484 1a2e 564C3533 		.ascii	"VL53L0X_DevData_t\000"
 24484      4C30585F 
 24484      44657644 
 24484      6174615F 
 24484      7400
 24485              	.LASF337:
 24486 1a40 746F7461 		.ascii	"totalXtalkMegaCps\000"
 24486      6C587461 
 24486      6C6B4D65 
 24486      67614370 
 24486      7300
 24487              	.LASF157:
 24488 1a52 5F666E74 		.ascii	"_fntypes\000"
 24488      79706573 
 24488      00
 24489              	.LASF211:
 24490 1a5b 5F616464 		.ascii	"_add\000"
 24490      00
 24491              	.LASF452:
 24492 1a60 73747263 		.ascii	"strcpy\000"
 24492      707900
 24493              	.LASF455:
 24494 1a67 564C3533 		.ascii	"VL53L0X_GetXTalkCompensationEnable\000"
 24494      4C30585F 
 24494      47657458 
 24494      54616C6B 
 24494      436F6D70 
 24495              	.LASF340:
 24496 1a8a 70746F74 		.ascii	"ptotal_xtalk_rate_mcps\000"
 24496      616C5F78 
 24496      74616C6B 
 24496      5F726174 
 24496      655F6D63 
 24497              	.LASF249:
 24498 1aa1 4E6F6E65 		.ascii	"NoneFlag\000"
 24498      466C6167 
ARM GAS  /var/folders/d2/nstgp4h54kz7g1l847x_b8wc0000gn/T//cc2apEbl.s 			page 451


 24498      00
 24499              	.LASF260:
 24500 1aaa 5369676E 		.ascii	"SignalRatePerSpad\000"
 24500      616C5261 
 24500      74655065 
 24500      72537061 
 24500      6400
 24501              	.LASF30:
 24502 1abc 50726F64 		.ascii	"ProductType\000"
 24502      75637454 
 24502      79706500 
 24503              	.LASF288:
 24504 1ac8 70774D75 		.ascii	"pwMult\000"
 24504      6C7400
 24505              	.LASF162:
 24506 1acf 5F5F7362 		.ascii	"__sbuf\000"
 24506      756600
 24507              	.LASF364:
 24508 1ad6 564C3533 		.ascii	"VL53L0X_set_measurement_timing_budget_micro_seconds"
 24508      4C30585F 
 24508      7365745F 
 24508      6D656173 
 24508      7572656D 
 24509 1b09 00       		.ascii	"\000"
 24510              	.LASF79:
 24511 1b0a 50696E30 		.ascii	"Pin0GpioFunctionality\000"
 24511      4770696F 
 24511      46756E63 
 24511      74696F6E 
 24511      616C6974 
 24512              	.LASF205:
 24513 1b20 5F676C75 		.ascii	"_glue\000"
 24513      6500
 24514              	.LASF327:
 24515 1b26 7369676D 		.ascii	"sigmaLimitTmp\000"
 24515      614C696D 
 24515      6974546D 
 24515      7000
 24516              	.LASF409:
 24517 1b34 564C3533 		.ascii	"VL53L0X_calc_macro_period_ps\000"
 24517      4C30585F 
 24517      63616C63 
 24517      5F6D6163 
 24517      726F5F70 
 24518              	.LASF330:
 24519 1b51 5369676E 		.ascii	"SignalAt0mm\000"
 24519      616C4174 
 24519      306D6D00 
 24520              	.LASF279:
 24521 1b5d 63506C6C 		.ascii	"cPllPeriod_ps\000"
 24521      50657269 
 24521      6F645F70 
 24521      7300
 24522              	.LASF335:
 24523 1b6b 7369676E 		.ascii	"signalRateTemp_mcps\000"
 24523      616C5261 
 24523      74655465 
ARM GAS  /var/folders/d2/nstgp4h54kz7g1l847x_b8wc0000gn/T//cc2apEbl.s 			page 452


 24523      6D705F6D 
 24523      63707300 
 24524              	.LASF202:
 24525 1b7f 5F5F7367 		.ascii	"__sglue\000"
 24525      6C756500 
 24526              	.LASF213:
 24527 1b87 5F737472 		.ascii	"_strtok_last\000"
 24527      746F6B5F 
 24527      6C617374 
 24527      00
 24528              	.LASF220:
 24529 1b94 5F6D6274 		.ascii	"_mbtowc_state\000"
 24529      6F77635F 
 24529      73746174 
 24529      6500
 24530              	.LASF395:
 24531 1ba2 564C3533 		.ascii	"VL53L0X_calc_timeout_us\000"
 24531      4C30585F 
 24531      63616C63 
 24531      5F74696D 
 24531      656F7574 
 24532              	.LASF379:
 24533 1bba 50686173 		.ascii	"PhaseCalInt\000"
 24533      6543616C 
 24533      496E7400 
 24534              	.LASF190:
 24535 1bc6 5F6C6F63 		.ascii	"_locale\000"
 24535      616C6500 
 24536              	.LASF120:
 24537 1bce 564C3533 		.ascii	"VL53L0X_VcselPeriod\000"
 24537      4C30585F 
 24537      56637365 
 24537      6C506572 
 24537      696F6400 
 24538              	.LASF155:
 24539 1be2 5F666E61 		.ascii	"_fnargs\000"
 24539      72677300 
 24540              	.LASF2:
 24541 1bea 7369676E 		.ascii	"signed char\000"
 24541      65642063 
 24541      68617200 
 24542              	.LASF405:
 24543 1bf6 74696D65 		.ascii	"timeout_macro_clks\000"
 24543      6F75745F 
 24543      6D616372 
 24543      6F5F636C 
 24543      6B7300
 24544              	.LASF102:
 24545 1c09 4C617374 		.ascii	"LastHistogramMeasure\000"
 24545      48697374 
 24545      6F677261 
 24545      6D4D6561 
 24545      73757265 
 24546              	.LASF9:
 24547 1c1e 73686F72 		.ascii	"short unsigned int\000"
 24547      7420756E 
 24547      7369676E 
ARM GAS  /var/folders/d2/nstgp4h54kz7g1l847x_b8wc0000gn/T//cc2apEbl.s 			page 453


 24547      65642069 
 24547      6E7400
 24548              	.LASF106:
 24549 1c31 52616E67 		.ascii	"RangeFractionalEnable\000"
 24549      65467261 
 24549      6374696F 
 24549      6E616C45 
 24549      6E61626C 
 24550              	.LASF453:
 24551 1c47 564C3533 		.ascii	"VL53L0X_GetMeasurementDataReady\000"
 24551      4C30585F 
 24551      4765744D 
 24551      65617375 
 24551      72656D65 
 24552              	.LASF295:
 24553 1c67 7854616C 		.ascii	"xTalkCompRate_kcps\000"
 24553      6B436F6D 
 24553      70526174 
 24553      655F6B63 
 24553      707300
 24554              	.LASF58:
 24555 1c7a 52616E67 		.ascii	"RangeMilliMeter\000"
 24555      654D696C 
 24555      6C694D65 
 24555      74657200 
 24556              	.LASF111:
 24557 1c8a 5369676D 		.ascii	"SigmaEstimate\000"
 24557      61457374 
 24557      696D6174 
 24557      6500
 24558              	.LASF272:
 24559 1c98 63566373 		.ascii	"cVcselPulseWidth_ps\000"
 24559      656C5075 
 24559      6C736557 
 24559      69647468 
 24559      5F707300 
 24560              	.LASF56:
 24561 1cac 54696D65 		.ascii	"TimeStamp\000"
 24561      5374616D 
 24561      7000
 24562              	.LASF84:
 24563 1cb6 5369676D 		.ascii	"SigmaEstRefArray\000"
 24563      61457374 
 24563      52656641 
 24563      72726179 
 24563      00
 24564              	.LASF122:
 24565 1cc7 4D737263 		.ascii	"MsrcOn\000"
 24565      4F6E00
 24566              	.LASF164:
 24567 1cce 5F73697A 		.ascii	"_size\000"
 24567      6500
 24568              	.LASF64:
 24569 1cd4 52616E67 		.ascii	"RangeFractionalPart\000"
 24569      65467261 
 24569      6374696F 
 24569      6E616C50 
ARM GAS  /var/folders/d2/nstgp4h54kz7g1l847x_b8wc0000gn/T//cc2apEbl.s 			page 454


 24569      61727400 
 24570              	.LASF440:
 24571 1ce8 564C3533 		.ascii	"VL53L0X_GetLimitCheckEnable\000"
 24571      4C30585F 
 24571      4765744C 
 24571      696D6974 
 24571      43686563 
 24572              	.LASF348:
 24573 1d04 41646472 		.ascii	"Address\000"
 24573      65737300 
 24574              	.LASF129:
 24575 1d0c 5F6F6666 		.ascii	"_off_t\000"
 24575      5F7400
 24576              	.LASF78:
 24577 1d13 4C617374 		.ascii	"LastEncodedTimeout\000"
 24577      456E636F 
 24577      64656454 
 24577      696D656F 
 24577      757400
 24578              	.LASF175:
 24579 1d26 5F6E6275 		.ascii	"_nbuf\000"
 24579      6600
 24580              	.LASF212:
 24581 1d2c 5F756E75 		.ascii	"_unused_rand\000"
 24581      7365645F 
 24581      72616E64 
 24581      00
 24582              	.LASF403:
 24583 1d39 564C3533 		.ascii	"VL53L0X_decode_timeout\000"
 24583      4C30585F 
 24583      6465636F 
 24583      64655F74 
 24583      696D656F 
 24584              	.LASF387:
 24585 1d50 4D737263 		.ascii	"MsrcRangeTimeOutMClks\000"
 24585      52616E67 
 24585      6554696D 
 24585      654F7574 
 24585      4D436C6B 
 24586              	.LASF262:
 24587 1d66 746D7057 		.ascii	"tmpWord\000"
 24587      6F726400 
 24588              	.LASF368:
 24589 1d6e 564C3533 		.ascii	"VL53L0X_get_vcsel_pulse_period\000"
 24589      4C30585F 
 24589      6765745F 
 24589      76637365 
 24589      6C5F7075 
 24590              	.LASF189:
 24591 1d8d 5F756E73 		.ascii	"_unspecified_locale_info\000"
 24591      70656369 
 24591      66696564 
 24591      5F6C6F63 
 24591      616C655F 
 24592              	.LASF323:
 24593 1da6 6D696E53 		.ascii	"minSignalNeeded_p1\000"
 24593      69676E61 
ARM GAS  /var/folders/d2/nstgp4h54kz7g1l847x_b8wc0000gn/T//cc2apEbl.s 			page 455


 24593      6C4E6565 
 24593      6465645F 
 24593      703100
 24594              	.LASF181:
 24595 1db9 5F666C61 		.ascii	"_flags2\000"
 24595      67733200 
 24596              	.LASF325:
 24597 1dc1 6D696E53 		.ascii	"minSignalNeeded_p3\000"
 24597      69676E61 
 24597      6C4E6565 
 24597      6465645F 
 24597      703300
 24598              	.LASF326:
 24599 1dd4 6D696E53 		.ascii	"minSignalNeeded_p4\000"
 24599      69676E61 
 24599      6C4E6565 
 24599      6465645F 
 24599      703400
 24600              	.LASF158:
 24601 1de7 5F69735F 		.ascii	"_is_cxa\000"
 24601      63786100 
 24602              	.LASF267:
 24603 1def 70536967 		.ascii	"pSigmaEstimate\000"
 24603      6D614573 
 24603      74696D61 
 24603      746500
 24604              	.LASF107:
 24605 1dfe 50616C53 		.ascii	"PalState\000"
 24605      74617465 
 24605      00
 24606              	.LASF458:
 24607 1e07 2F557365 		.ascii	"/Users/bharathkeshavamurthy/Workspaces/Talos/src/ma"
 24607      72732F62 
 24607      68617261 
 24607      74686B65 
 24607      73686176 
 24608 1e3a 696E2F63 		.ascii	"in/cpp/org/purdue/ece/talos/optimize\000"
 24608      70702F6F 
 24608      72672F70 
 24608      75726475 
 24608      652F6563 
 24609              	.LASF209:
 24610 1e5f 5F736565 		.ascii	"_seed\000"
 24610      6400
 24611              	.LASF217:
 24612 1e65 5F72616E 		.ascii	"_rand_next\000"
 24612      645F6E65 
 24612      787400
 24613              	.LASF388:
 24614 1e70 46696E61 		.ascii	"FinalRangeTimeOutMClks\000"
 24614      6C52616E 
 24614      67655469 
 24614      6D654F75 
 24614      744D436C 
 24615              	.LASF73:
 24616 1e87 564C3533 		.ascii	"VL53L0X_HistogramMeasurementData_t\000"
 24616      4C30585F 
ARM GAS  /var/folders/d2/nstgp4h54kz7g1l847x_b8wc0000gn/T//cc2apEbl.s 			page 456


 24616      48697374 
 24616      6F677261 
 24616      6D4D6561 
 24617              	.LASF238:
 24618 1eaa 44617461 		.ascii	"Data\000"
 24618      00
 24619              	.LASF172:
 24620 1eaf 5F736565 		.ascii	"_seek\000"
 24620      6B00
 24621              	.LASF139:
 24622 1eb5 5F6E6578 		.ascii	"_next\000"
 24622      7400
 24623              	.LASF382:
 24624 1ebb 54696D65 		.ascii	"TimeOutMicroSecs\000"
 24624      4F75744D 
 24624      6963726F 
 24624      53656373 
 24624      00
 24625              	.LASF186:
 24626 1ecc 5F737464 		.ascii	"_stderr\000"
 24626      65727200 
 24627              	.LASF232:
 24628 1ed4 5F6E6D61 		.ascii	"_nmalloc\000"
 24628      6C6C6F63 
 24628      00
 24629              	.LASF174:
 24630 1edd 5F756275 		.ascii	"_ubuf\000"
 24630      6600
 24631              	.LASF95:
 24632 1ee3 5369676E 		.ascii	"SignalRateMeasFixed400mm\000"
 24632      616C5261 
 24632      74654D65 
 24632      61734669 
 24632      78656434 
 24633              	.LASF313:
 24634 1efc 746F7461 		.ascii	"totalCorrSignalRate_mcps\000"
 24634      6C436F72 
 24634      72536967 
 24634      6E616C52 
 24634      6174655F 
 24635              		.ident	"GCC: (GNU Tools for Arm Embedded Processors 7-2017-q4-major) 7.2.1 20170904 (release) [ARM
ARM GAS  /var/folders/d2/nstgp4h54kz7g1l847x_b8wc0000gn/T//cc2apEbl.s 			page 457


DEFINED SYMBOLS
                            *ABS*:0000000000000000 vl53l0x_api_core.c
/var/folders/d2/nstgp4h54kz7g1l847x_b8wc0000gn/T//cc2apEbl.s:18     .text.VL53L0X_encode_timeout.part.0:0000000000000000 $t
/var/folders/d2/nstgp4h54kz7g1l847x_b8wc0000gn/T//cc2apEbl.s:25     .text.VL53L0X_encode_timeout.part.0:0000000000000000 VL53L0X_encode_timeout.part.0
/var/folders/d2/nstgp4h54kz7g1l847x_b8wc0000gn/T//cc2apEbl.s:94     .text.VL53L0X_encode_timeout.part.0:000000000000003c $d
/var/folders/d2/nstgp4h54kz7g1l847x_b8wc0000gn/T//cc2apEbl.s:99     .text.set_sequence_step_timeout.part.1:0000000000000000 $t
/var/folders/d2/nstgp4h54kz7g1l847x_b8wc0000gn/T//cc2apEbl.s:106    .text.set_sequence_step_timeout.part.1:0000000000000000 set_sequence_step_timeout.part.1
/var/folders/d2/nstgp4h54kz7g1l847x_b8wc0000gn/T//cc2apEbl.s:387    .text.set_sequence_step_timeout.part.1:0000000000000134 $d
/var/folders/d2/nstgp4h54kz7g1l847x_b8wc0000gn/T//cc2apEbl.s:394    .text.VL53L0X_reverse_bytes:0000000000000000 $t
/var/folders/d2/nstgp4h54kz7g1l847x_b8wc0000gn/T//cc2apEbl.s:402    .text.VL53L0X_reverse_bytes:0000000000000000 VL53L0X_reverse_bytes
/var/folders/d2/nstgp4h54kz7g1l847x_b8wc0000gn/T//cc2apEbl.s:465    .text.VL53L0X_reverse_bytes:0000000000000038 $d
/var/folders/d2/nstgp4h54kz7g1l847x_b8wc0000gn/T//cc2apEbl.s:470    .text.VL53L0X_measurement_poll_for_completion:0000000000000000 $t
/var/folders/d2/nstgp4h54kz7g1l847x_b8wc0000gn/T//cc2apEbl.s:478    .text.VL53L0X_measurement_poll_for_completion:0000000000000000 VL53L0X_measurement_poll_for_completion
/var/folders/d2/nstgp4h54kz7g1l847x_b8wc0000gn/T//cc2apEbl.s:561    .text.VL53L0X_measurement_poll_for_completion:0000000000000050 $d
/var/folders/d2/nstgp4h54kz7g1l847x_b8wc0000gn/T//cc2apEbl.s:566    .text.VL53L0X_decode_vcsel_period:0000000000000000 $t
/var/folders/d2/nstgp4h54kz7g1l847x_b8wc0000gn/T//cc2apEbl.s:574    .text.VL53L0X_decode_vcsel_period:0000000000000000 VL53L0X_decode_vcsel_period
/var/folders/d2/nstgp4h54kz7g1l847x_b8wc0000gn/T//cc2apEbl.s:613    .text.VL53L0X_decode_vcsel_period:0000000000000024 $d
/var/folders/d2/nstgp4h54kz7g1l847x_b8wc0000gn/T//cc2apEbl.s:618    .text.VL53L0X_encode_vcsel_period:0000000000000000 $t
/var/folders/d2/nstgp4h54kz7g1l847x_b8wc0000gn/T//cc2apEbl.s:626    .text.VL53L0X_encode_vcsel_period:0000000000000000 VL53L0X_encode_vcsel_period
/var/folders/d2/nstgp4h54kz7g1l847x_b8wc0000gn/T//cc2apEbl.s:665    .text.VL53L0X_encode_vcsel_period:0000000000000024 $d
/var/folders/d2/nstgp4h54kz7g1l847x_b8wc0000gn/T//cc2apEbl.s:670    .text.VL53L0X_isqrt:0000000000000000 $t
/var/folders/d2/nstgp4h54kz7g1l847x_b8wc0000gn/T//cc2apEbl.s:678    .text.VL53L0X_isqrt:0000000000000000 VL53L0X_isqrt
/var/folders/d2/nstgp4h54kz7g1l847x_b8wc0000gn/T//cc2apEbl.s:764    .text.VL53L0X_isqrt:0000000000000048 $d
/var/folders/d2/nstgp4h54kz7g1l847x_b8wc0000gn/T//cc2apEbl.s:769    .text.VL53L0X_quadrature_sum:0000000000000000 $t
/var/folders/d2/nstgp4h54kz7g1l847x_b8wc0000gn/T//cc2apEbl.s:777    .text.VL53L0X_quadrature_sum:0000000000000000 VL53L0X_quadrature_sum
/var/folders/d2/nstgp4h54kz7g1l847x_b8wc0000gn/T//cc2apEbl.s:885    .text.VL53L0X_quadrature_sum:0000000000000060 $d
/var/folders/d2/nstgp4h54kz7g1l847x_b8wc0000gn/T//cc2apEbl.s:890    .text.VL53L0X_device_read_strobe:0000000000000000 $t
/var/folders/d2/nstgp4h54kz7g1l847x_b8wc0000gn/T//cc2apEbl.s:898    .text.VL53L0X_device_read_strobe:0000000000000000 VL53L0X_device_read_strobe
/var/folders/d2/nstgp4h54kz7g1l847x_b8wc0000gn/T//cc2apEbl.s:995    .text.VL53L0X_device_read_strobe:0000000000000060 $d
/var/folders/d2/nstgp4h54kz7g1l847x_b8wc0000gn/T//cc2apEbl.s:1000   .text.VL53L0X_get_info_from_device:0000000000000000 $t
/var/folders/d2/nstgp4h54kz7g1l847x_b8wc0000gn/T//cc2apEbl.s:1008   .text.VL53L0X_get_info_from_device:0000000000000000 VL53L0X_get_info_from_device
/var/folders/d2/nstgp4h54kz7g1l847x_b8wc0000gn/T//cc2apEbl.s:2142   .text.VL53L0X_get_info_from_device:00000000000005bc $d
/var/folders/d2/nstgp4h54kz7g1l847x_b8wc0000gn/T//cc2apEbl.s:2147   .text.VL53L0X_calc_macro_period_ps:0000000000000000 $t
/var/folders/d2/nstgp4h54kz7g1l847x_b8wc0000gn/T//cc2apEbl.s:2155   .text.VL53L0X_calc_macro_period_ps:0000000000000000 VL53L0X_calc_macro_period_ps
/var/folders/d2/nstgp4h54kz7g1l847x_b8wc0000gn/T//cc2apEbl.s:2195   .text.VL53L0X_calc_macro_period_ps:0000000000000024 $d
/var/folders/d2/nstgp4h54kz7g1l847x_b8wc0000gn/T//cc2apEbl.s:2201   .text.VL53L0X_encode_timeout:0000000000000000 $t
/var/folders/d2/nstgp4h54kz7g1l847x_b8wc0000gn/T//cc2apEbl.s:2209   .text.VL53L0X_encode_timeout:0000000000000000 VL53L0X_encode_timeout
/var/folders/d2/nstgp4h54kz7g1l847x_b8wc0000gn/T//cc2apEbl.s:2259   .text.VL53L0X_encode_timeout:000000000000002c $d
/var/folders/d2/nstgp4h54kz7g1l847x_b8wc0000gn/T//cc2apEbl.s:2264   .text.VL53L0X_decode_timeout:0000000000000000 $t
/var/folders/d2/nstgp4h54kz7g1l847x_b8wc0000gn/T//cc2apEbl.s:2272   .text.VL53L0X_decode_timeout:0000000000000000 VL53L0X_decode_timeout
/var/folders/d2/nstgp4h54kz7g1l847x_b8wc0000gn/T//cc2apEbl.s:2315   .text.VL53L0X_decode_timeout:0000000000000028 $d
/var/folders/d2/nstgp4h54kz7g1l847x_b8wc0000gn/T//cc2apEbl.s:2320   .text.VL53L0X_calc_timeout_mclks:0000000000000000 $t
/var/folders/d2/nstgp4h54kz7g1l847x_b8wc0000gn/T//cc2apEbl.s:2328   .text.VL53L0X_calc_timeout_mclks:0000000000000000 VL53L0X_calc_timeout_mclks
/var/folders/d2/nstgp4h54kz7g1l847x_b8wc0000gn/T//cc2apEbl.s:2400   .text.VL53L0X_calc_timeout_mclks:000000000000003c $d
/var/folders/d2/nstgp4h54kz7g1l847x_b8wc0000gn/T//cc2apEbl.s:2407   .text.VL53L0X_calc_timeout_us:0000000000000000 $t
/var/folders/d2/nstgp4h54kz7g1l847x_b8wc0000gn/T//cc2apEbl.s:2415   .text.VL53L0X_calc_timeout_us:0000000000000000 VL53L0X_calc_timeout_us
/var/folders/d2/nstgp4h54kz7g1l847x_b8wc0000gn/T//cc2apEbl.s:2484   .text.VL53L0X_calc_timeout_us:000000000000003c $d
/var/folders/d2/nstgp4h54kz7g1l847x_b8wc0000gn/T//cc2apEbl.s:2491   .text.get_sequence_step_timeout:0000000000000000 $t
/var/folders/d2/nstgp4h54kz7g1l847x_b8wc0000gn/T//cc2apEbl.s:2499   .text.get_sequence_step_timeout:0000000000000000 get_sequence_step_timeout
/var/folders/d2/nstgp4h54kz7g1l847x_b8wc0000gn/T//cc2apEbl.s:2861   .text.get_sequence_step_timeout:000000000000017c $d
/var/folders/d2/nstgp4h54kz7g1l847x_b8wc0000gn/T//cc2apEbl.s:2868   .text.set_sequence_step_timeout:0000000000000000 $t
/var/folders/d2/nstgp4h54kz7g1l847x_b8wc0000gn/T//cc2apEbl.s:2876   .text.set_sequence_step_timeout:0000000000000000 set_sequence_step_timeout
/var/folders/d2/nstgp4h54kz7g1l847x_b8wc0000gn/T//cc2apEbl.s:3002   .text.set_sequence_step_timeout:000000000000007c $d
/var/folders/d2/nstgp4h54kz7g1l847x_b8wc0000gn/T//cc2apEbl.s:3009   .text.VL53L0X_set_vcsel_pulse_period:0000000000000000 $t
/var/folders/d2/nstgp4h54kz7g1l847x_b8wc0000gn/T//cc2apEbl.s:3017   .text.VL53L0X_set_vcsel_pulse_period:0000000000000000 VL53L0X_set_vcsel_pulse_period
/var/folders/d2/nstgp4h54kz7g1l847x_b8wc0000gn/T//cc2apEbl.s:3494   .text.VL53L0X_set_vcsel_pulse_period:0000000000000220 $d
/var/folders/d2/nstgp4h54kz7g1l847x_b8wc0000gn/T//cc2apEbl.s:3499   .text.VL53L0X_get_vcsel_pulse_period:0000000000000000 $t
ARM GAS  /var/folders/d2/nstgp4h54kz7g1l847x_b8wc0000gn/T//cc2apEbl.s 			page 458


/var/folders/d2/nstgp4h54kz7g1l847x_b8wc0000gn/T//cc2apEbl.s:3507   .text.VL53L0X_get_vcsel_pulse_period:0000000000000000 VL53L0X_get_vcsel_pulse_period
/var/folders/d2/nstgp4h54kz7g1l847x_b8wc0000gn/T//cc2apEbl.s:3589   .text.VL53L0X_get_vcsel_pulse_period:000000000000004c $d
/var/folders/d2/nstgp4h54kz7g1l847x_b8wc0000gn/T//cc2apEbl.s:3594   .text.VL53L0X_set_measurement_timing_budget_micro_seconds:0000000000000000 $t
/var/folders/d2/nstgp4h54kz7g1l847x_b8wc0000gn/T//cc2apEbl.s:3602   .text.VL53L0X_set_measurement_timing_budget_micro_seconds:0000000000000000 VL53L0X_set_measurement_timing_budget_micro_seconds
/var/folders/d2/nstgp4h54kz7g1l847x_b8wc0000gn/T//cc2apEbl.s:3802   .text.VL53L0X_set_measurement_timing_budget_micro_seconds:00000000000000e8 $d
/var/folders/d2/nstgp4h54kz7g1l847x_b8wc0000gn/T//cc2apEbl.s:3807   .text.VL53L0X_get_measurement_timing_budget_micro_seconds:0000000000000000 $t
/var/folders/d2/nstgp4h54kz7g1l847x_b8wc0000gn/T//cc2apEbl.s:3815   .text.VL53L0X_get_measurement_timing_budget_micro_seconds:0000000000000000 VL53L0X_get_measurement_timing_budget_micro_seconds
/var/folders/d2/nstgp4h54kz7g1l847x_b8wc0000gn/T//cc2apEbl.s:3998   .text.VL53L0X_get_measurement_timing_budget_micro_seconds:00000000000000e0 $d
/var/folders/d2/nstgp4h54kz7g1l847x_b8wc0000gn/T//cc2apEbl.s:4003   .text.VL53L0X_load_tuning_settings:0000000000000000 $t
/var/folders/d2/nstgp4h54kz7g1l847x_b8wc0000gn/T//cc2apEbl.s:4011   .text.VL53L0X_load_tuning_settings:0000000000000000 VL53L0X_load_tuning_settings
/var/folders/d2/nstgp4h54kz7g1l847x_b8wc0000gn/T//cc2apEbl.s:4079   .text.VL53L0X_load_tuning_settings:000000000000003a $d
/var/folders/d2/nstgp4h54kz7g1l847x_b8wc0000gn/T//cc2apEbl.s:4084   .text.VL53L0X_load_tuning_settings:000000000000003e $t
/var/folders/d2/nstgp4h54kz7g1l847x_b8wc0000gn/T//cc2apEbl.s:4195   .text.VL53L0X_load_tuning_settings:00000000000000cc $d
/var/folders/d2/nstgp4h54kz7g1l847x_b8wc0000gn/T//cc2apEbl.s:4200   .text.VL53L0X_get_total_xtalk_rate:0000000000000000 $t
/var/folders/d2/nstgp4h54kz7g1l847x_b8wc0000gn/T//cc2apEbl.s:4208   .text.VL53L0X_get_total_xtalk_rate:0000000000000000 VL53L0X_get_total_xtalk_rate
/var/folders/d2/nstgp4h54kz7g1l847x_b8wc0000gn/T//cc2apEbl.s:4288   .text.VL53L0X_get_total_xtalk_rate:0000000000000044 $d
/var/folders/d2/nstgp4h54kz7g1l847x_b8wc0000gn/T//cc2apEbl.s:4293   .text.VL53L0X_get_total_signal_rate:0000000000000000 $t
/var/folders/d2/nstgp4h54kz7g1l847x_b8wc0000gn/T//cc2apEbl.s:4301   .text.VL53L0X_get_total_signal_rate:0000000000000000 VL53L0X_get_total_signal_rate
/var/folders/d2/nstgp4h54kz7g1l847x_b8wc0000gn/T//cc2apEbl.s:4359   .text.VL53L0X_get_total_signal_rate:0000000000000030 $d
/var/folders/d2/nstgp4h54kz7g1l847x_b8wc0000gn/T//cc2apEbl.s:4364   .text.VL53L0X_calc_dmax:0000000000000000 $t
/var/folders/d2/nstgp4h54kz7g1l847x_b8wc0000gn/T//cc2apEbl.s:4372   .text.VL53L0X_calc_dmax:0000000000000000 VL53L0X_calc_dmax
/var/folders/d2/nstgp4h54kz7g1l847x_b8wc0000gn/T//cc2apEbl.s:4681   .text.VL53L0X_calc_dmax:0000000000000144 $d
/var/folders/d2/nstgp4h54kz7g1l847x_b8wc0000gn/T//cc2apEbl.s:4690   .text.VL53L0X_calc_sigma_estimate:0000000000000000 $t
/var/folders/d2/nstgp4h54kz7g1l847x_b8wc0000gn/T//cc2apEbl.s:4698   .text.VL53L0X_calc_sigma_estimate:0000000000000000 VL53L0X_calc_sigma_estimate
/var/folders/d2/nstgp4h54kz7g1l847x_b8wc0000gn/T//cc2apEbl.s:5359   .text.VL53L0X_calc_sigma_estimate:0000000000000310 $d
/var/folders/d2/nstgp4h54kz7g1l847x_b8wc0000gn/T//cc2apEbl.s:5373   .text.VL53L0X_get_pal_range_status:0000000000000000 $t
/var/folders/d2/nstgp4h54kz7g1l847x_b8wc0000gn/T//cc2apEbl.s:5381   .text.VL53L0X_get_pal_range_status:0000000000000000 VL53L0X_get_pal_range_status
/var/folders/d2/nstgp4h54kz7g1l847x_b8wc0000gn/T//cc2apEbl.s:5859   .text.VL53L0X_get_pal_range_status:000000000000026c $d

UNDEFINED SYMBOLS
__stack_chk_fail
__stack_chk_guard
VL53L0X_GetSequenceStepEnables
VL53L0X_GetVcselPulsePeriod
VL53L0X_WrWord
VL53L0X_RdWord
VL53L0X_PollingDelay
VL53L0X_GetMeasurementDataReady
VL53L0X_WrByte
VL53L0X_RdByte
VL53L0X_RdDWord
strcpy
VL53L0X_SetMeasurementTimingBudgetMicroSeconds
VL53L0X_perform_phase_calibration
VL53L0X_WriteMulti
VL53L0X_GetXTalkCompensationEnable
VL53L0X_GetLimitCheckEnable
VL53L0X_GetLimitCheckValue
