ARM GAS  /var/folders/d2/nstgp4h54kz7g1l847x_b8wc0000gn/T//cchnnJSs.s 			page 1


   1              		.cpu cortex-m4
   2              		.eabi_attribute 27, 1
   3              		.eabi_attribute 28, 1
   4              		.eabi_attribute 20, 1
   5              		.eabi_attribute 21, 1
   6              		.eabi_attribute 23, 3
   7              		.eabi_attribute 24, 1
   8              		.eabi_attribute 25, 1
   9              		.eabi_attribute 26, 1
  10              		.eabi_attribute 30, 2
  11              		.eabi_attribute 34, 1
  12              		.eabi_attribute 18, 4
  13              		.file	"vl53l0x_platform.c"
  14              		.text
  15              	.Ltext0:
  16              		.cfi_sections	.debug_frame
  17              		.section	.text.VL53L0X_WriteMulti,"ax",%progbits
  18              		.align	1
  19              		.p2align 4,,15
  20              		.global	VL53L0X_WriteMulti
  21              		.syntax unified
  22              		.thumb
  23              		.thumb_func
  24              		.fpu fpv4-sp-d16
  25              		.type	VL53L0X_WriteMulti, %function
  26              	VL53L0X_WriteMulti:
  27              	.LFB3:
  28              		.file 1 "../e-puck2_main-processor/src/sensors/VL53L0X/Api/platform/src/vl53l0x_platform.c"
  29              		.loc 1 93 0
  30              		.cfi_startproc
  31              		@ args = 0, pretend = 0, frame = 8
  32              		@ frame_needed = 0, uses_anonymous_args = 0
  33              	.LVL0:
  34 0000 30B5     		push	{r4, r5, lr}
  35              		.cfi_def_cfa_offset 12
  36              		.cfi_offset 4, -12
  37              		.cfi_offset 5, -8
  38              		.cfi_offset 14, -4
  39 0002 0D4C     		ldr	r4, .L11
  40              		.loc 1 105 0
  41 0004 90F8BF01 		ldrb	r0, [r0, #447]	@ zero_extendqisi2
  42              	.LVL1:
  43              		.loc 1 93 0
  44 0008 2568     		ldr	r5, [r4]
  45 000a 83B0     		sub	sp, sp, #12
  46              		.cfi_def_cfa_offset 24
  47              		.loc 1 100 0
  48 000c 3F2B     		cmp	r3, #63
  49              		.loc 1 93 0
  50 000e 0195     		str	r5, [sp, #4]
  51              	.LVL2:
  52              		.loc 1 100 0
  53 0010 94BF     		ite	ls
  54 0012 0025     		movls	r5, #0
  55 0014 6FF00305 		mvnhi	r5, #3
  56              	.LVL3:
  57              		.loc 1 105 0
ARM GAS  /var/folders/d2/nstgp4h54kz7g1l847x_b8wc0000gn/T//cchnnJSs.s 			page 2


  58 0018 FFF7FEFF 		bl	VL53L0X_write_multi
  59              	.LVL4:
  60              		.loc 1 111 0
  61 001c 019A     		ldr	r2, [sp, #4]
  62 001e 2368     		ldr	r3, [r4]
  63              		.loc 1 107 0
  64 0020 0028     		cmp	r0, #0
  65              	.LVL5:
  66              		.loc 1 111 0
  67 0022 0CBF     		ite	eq
  68 0024 2846     		moveq	r0, r5
  69              	.LVL6:
  70 0026 6FF01300 		mvnne	r0, #19
  71 002a 9A42     		cmp	r2, r3
  72              	.LVL7:
  73 002c 01D1     		bne	.L10
  74 002e 03B0     		add	sp, sp, #12
  75              		.cfi_remember_state
  76              		.cfi_def_cfa_offset 12
  77              		@ sp needed
  78 0030 30BD     		pop	{r4, r5, pc}
  79              	.L10:
  80              		.cfi_restore_state
  81 0032 FFF7FEFF 		bl	__stack_chk_fail
  82              	.LVL8:
  83              	.L12:
  84 0036 00BF     		.align	2
  85              	.L11:
  86 0038 00000000 		.word	__stack_chk_guard
  87              		.cfi_endproc
  88              	.LFE3:
  89              		.size	VL53L0X_WriteMulti, .-VL53L0X_WriteMulti
  90              		.section	.text.VL53L0X_ReadMulti,"ax",%progbits
  91              		.align	1
  92              		.p2align 4,,15
  93              		.global	VL53L0X_ReadMulti
  94              		.syntax unified
  95              		.thumb
  96              		.thumb_func
  97              		.fpu fpv4-sp-d16
  98              		.type	VL53L0X_ReadMulti, %function
  99              	VL53L0X_ReadMulti:
 100              	.LFB4:
 101              		.loc 1 114 0
 102              		.cfi_startproc
 103              		@ args = 0, pretend = 0, frame = 8
 104              		@ frame_needed = 0, uses_anonymous_args = 0
 105              	.LVL9:
 106 0000 30B5     		push	{r4, r5, lr}
 107              		.cfi_def_cfa_offset 12
 108              		.cfi_offset 4, -12
 109              		.cfi_offset 5, -8
 110              		.cfi_offset 14, -4
 111 0002 0D4C     		ldr	r4, .L22
 112              		.loc 1 126 0
 113 0004 90F8BF01 		ldrb	r0, [r0, #447]	@ zero_extendqisi2
 114              	.LVL10:
ARM GAS  /var/folders/d2/nstgp4h54kz7g1l847x_b8wc0000gn/T//cchnnJSs.s 			page 3


 115              		.loc 1 114 0
 116 0008 2568     		ldr	r5, [r4]
 117 000a 83B0     		sub	sp, sp, #12
 118              		.cfi_def_cfa_offset 24
 119              		.loc 1 121 0
 120 000c 3F2B     		cmp	r3, #63
 121              		.loc 1 114 0
 122 000e 0195     		str	r5, [sp, #4]
 123              	.LVL11:
 124              		.loc 1 121 0
 125 0010 94BF     		ite	ls
 126 0012 0025     		movls	r5, #0
 127 0014 6FF00305 		mvnhi	r5, #3
 128              	.LVL12:
 129              		.loc 1 126 0
 130 0018 FFF7FEFF 		bl	VL53L0X_read_multi
 131              	.LVL13:
 132              		.loc 1 132 0
 133 001c 019A     		ldr	r2, [sp, #4]
 134 001e 2368     		ldr	r3, [r4]
 135              		.loc 1 128 0
 136 0020 0028     		cmp	r0, #0
 137              	.LVL14:
 138              		.loc 1 132 0
 139 0022 0CBF     		ite	eq
 140 0024 2846     		moveq	r0, r5
 141              	.LVL15:
 142 0026 6FF01300 		mvnne	r0, #19
 143 002a 9A42     		cmp	r2, r3
 144              	.LVL16:
 145 002c 01D1     		bne	.L21
 146 002e 03B0     		add	sp, sp, #12
 147              		.cfi_remember_state
 148              		.cfi_def_cfa_offset 12
 149              		@ sp needed
 150 0030 30BD     		pop	{r4, r5, pc}
 151              	.L21:
 152              		.cfi_restore_state
 153 0032 FFF7FEFF 		bl	__stack_chk_fail
 154              	.LVL17:
 155              	.L23:
 156 0036 00BF     		.align	2
 157              	.L22:
 158 0038 00000000 		.word	__stack_chk_guard
 159              		.cfi_endproc
 160              	.LFE4:
 161              		.size	VL53L0X_ReadMulti, .-VL53L0X_ReadMulti
 162              		.section	.text.VL53L0X_WrByte,"ax",%progbits
 163              		.align	1
 164              		.p2align 4,,15
 165              		.global	VL53L0X_WrByte
 166              		.syntax unified
 167              		.thumb
 168              		.thumb_func
 169              		.fpu fpv4-sp-d16
 170              		.type	VL53L0X_WrByte, %function
 171              	VL53L0X_WrByte:
ARM GAS  /var/folders/d2/nstgp4h54kz7g1l847x_b8wc0000gn/T//cchnnJSs.s 			page 4


 172              	.LFB5:
 173              		.loc 1 135 0
 174              		.cfi_startproc
 175              		@ args = 0, pretend = 0, frame = 8
 176              		@ frame_needed = 0, uses_anonymous_args = 0
 177              	.LVL18:
 178 0000 10B5     		push	{r4, lr}
 179              		.cfi_def_cfa_offset 8
 180              		.cfi_offset 4, -8
 181              		.cfi_offset 14, -4
 182 0002 0A4C     		ldr	r4, .L30
 183              		.loc 1 142 0
 184 0004 90F8BF01 		ldrb	r0, [r0, #447]	@ zero_extendqisi2
 185              	.LVL19:
 186              		.loc 1 135 0
 187 0008 2368     		ldr	r3, [r4]
 188 000a 82B0     		sub	sp, sp, #8
 189              		.cfi_def_cfa_offset 16
 190              		.loc 1 135 0
 191 000c 0193     		str	r3, [sp, #4]
 192              	.LVL20:
 193              		.loc 1 142 0
 194 000e FFF7FEFF 		bl	VL53L0X_write_byte
 195              	.LVL21:
 196              		.loc 1 148 0
 197 0012 019A     		ldr	r2, [sp, #4]
 198 0014 2368     		ldr	r3, [r4]
 199              		.loc 1 144 0
 200 0016 0028     		cmp	r0, #0
 201              	.LVL22:
 202              		.loc 1 148 0
 203 0018 14BF     		ite	ne
 204 001a 6FF01300 		mvnne	r0, #19
 205              	.LVL23:
 206 001e 0020     		moveq	r0, #0
 207 0020 9A42     		cmp	r2, r3
 208              	.LVL24:
 209 0022 01D1     		bne	.L29
 210 0024 02B0     		add	sp, sp, #8
 211              		.cfi_remember_state
 212              		.cfi_def_cfa_offset 8
 213              		@ sp needed
 214 0026 10BD     		pop	{r4, pc}
 215              	.L29:
 216              		.cfi_restore_state
 217 0028 FFF7FEFF 		bl	__stack_chk_fail
 218              	.LVL25:
 219              	.L31:
 220              		.align	2
 221              	.L30:
 222 002c 00000000 		.word	__stack_chk_guard
 223              		.cfi_endproc
 224              	.LFE5:
 225              		.size	VL53L0X_WrByte, .-VL53L0X_WrByte
 226              		.section	.text.VL53L0X_WrWord,"ax",%progbits
 227              		.align	1
 228              		.p2align 4,,15
ARM GAS  /var/folders/d2/nstgp4h54kz7g1l847x_b8wc0000gn/T//cchnnJSs.s 			page 5


 229              		.global	VL53L0X_WrWord
 230              		.syntax unified
 231              		.thumb
 232              		.thumb_func
 233              		.fpu fpv4-sp-d16
 234              		.type	VL53L0X_WrWord, %function
 235              	VL53L0X_WrWord:
 236              	.LFB6:
 237              		.loc 1 150 0
 238              		.cfi_startproc
 239              		@ args = 0, pretend = 0, frame = 8
 240              		@ frame_needed = 0, uses_anonymous_args = 0
 241              	.LVL26:
 242 0000 10B5     		push	{r4, lr}
 243              		.cfi_def_cfa_offset 8
 244              		.cfi_offset 4, -8
 245              		.cfi_offset 14, -4
 246 0002 0A4C     		ldr	r4, .L38
 247              		.loc 1 157 0
 248 0004 90F8BF01 		ldrb	r0, [r0, #447]	@ zero_extendqisi2
 249              	.LVL27:
 250              		.loc 1 150 0
 251 0008 2368     		ldr	r3, [r4]
 252 000a 82B0     		sub	sp, sp, #8
 253              		.cfi_def_cfa_offset 16
 254              		.loc 1 150 0
 255 000c 0193     		str	r3, [sp, #4]
 256              	.LVL28:
 257              		.loc 1 157 0
 258 000e FFF7FEFF 		bl	VL53L0X_write_word
 259              	.LVL29:
 260              		.loc 1 163 0
 261 0012 019A     		ldr	r2, [sp, #4]
 262 0014 2368     		ldr	r3, [r4]
 263              		.loc 1 159 0
 264 0016 0028     		cmp	r0, #0
 265              	.LVL30:
 266              		.loc 1 163 0
 267 0018 14BF     		ite	ne
 268 001a 6FF01300 		mvnne	r0, #19
 269              	.LVL31:
 270 001e 0020     		moveq	r0, #0
 271 0020 9A42     		cmp	r2, r3
 272              	.LVL32:
 273 0022 01D1     		bne	.L37
 274 0024 02B0     		add	sp, sp, #8
 275              		.cfi_remember_state
 276              		.cfi_def_cfa_offset 8
 277              		@ sp needed
 278 0026 10BD     		pop	{r4, pc}
 279              	.L37:
 280              		.cfi_restore_state
 281 0028 FFF7FEFF 		bl	__stack_chk_fail
 282              	.LVL33:
 283              	.L39:
 284              		.align	2
 285              	.L38:
ARM GAS  /var/folders/d2/nstgp4h54kz7g1l847x_b8wc0000gn/T//cchnnJSs.s 			page 6


 286 002c 00000000 		.word	__stack_chk_guard
 287              		.cfi_endproc
 288              	.LFE6:
 289              		.size	VL53L0X_WrWord, .-VL53L0X_WrWord
 290              		.section	.text.VL53L0X_WrDWord,"ax",%progbits
 291              		.align	1
 292              		.p2align 4,,15
 293              		.global	VL53L0X_WrDWord
 294              		.syntax unified
 295              		.thumb
 296              		.thumb_func
 297              		.fpu fpv4-sp-d16
 298              		.type	VL53L0X_WrDWord, %function
 299              	VL53L0X_WrDWord:
 300              	.LFB7:
 301              		.loc 1 165 0
 302              		.cfi_startproc
 303              		@ args = 0, pretend = 0, frame = 8
 304              		@ frame_needed = 0, uses_anonymous_args = 0
 305              	.LVL34:
 306 0000 10B5     		push	{r4, lr}
 307              		.cfi_def_cfa_offset 8
 308              		.cfi_offset 4, -8
 309              		.cfi_offset 14, -4
 310 0002 0A4C     		ldr	r4, .L46
 311              		.loc 1 172 0
 312 0004 90F8BF01 		ldrb	r0, [r0, #447]	@ zero_extendqisi2
 313              	.LVL35:
 314              		.loc 1 165 0
 315 0008 2368     		ldr	r3, [r4]
 316 000a 82B0     		sub	sp, sp, #8
 317              		.cfi_def_cfa_offset 16
 318              		.loc 1 165 0
 319 000c 0193     		str	r3, [sp, #4]
 320              	.LVL36:
 321              		.loc 1 172 0
 322 000e FFF7FEFF 		bl	VL53L0X_write_dword
 323              	.LVL37:
 324              		.loc 1 178 0
 325 0012 019A     		ldr	r2, [sp, #4]
 326 0014 2368     		ldr	r3, [r4]
 327              		.loc 1 174 0
 328 0016 0028     		cmp	r0, #0
 329              	.LVL38:
 330              		.loc 1 178 0
 331 0018 14BF     		ite	ne
 332 001a 6FF01300 		mvnne	r0, #19
 333              	.LVL39:
 334 001e 0020     		moveq	r0, #0
 335 0020 9A42     		cmp	r2, r3
 336              	.LVL40:
 337 0022 01D1     		bne	.L45
 338 0024 02B0     		add	sp, sp, #8
 339              		.cfi_remember_state
 340              		.cfi_def_cfa_offset 8
 341              		@ sp needed
 342 0026 10BD     		pop	{r4, pc}
ARM GAS  /var/folders/d2/nstgp4h54kz7g1l847x_b8wc0000gn/T//cchnnJSs.s 			page 7


 343              	.L45:
 344              		.cfi_restore_state
 345 0028 FFF7FEFF 		bl	__stack_chk_fail
 346              	.LVL41:
 347              	.L47:
 348              		.align	2
 349              	.L46:
 350 002c 00000000 		.word	__stack_chk_guard
 351              		.cfi_endproc
 352              	.LFE7:
 353              		.size	VL53L0X_WrDWord, .-VL53L0X_WrDWord
 354              		.section	.text.VL53L0X_UpdateByte,"ax",%progbits
 355              		.align	1
 356              		.p2align 4,,15
 357              		.global	VL53L0X_UpdateByte
 358              		.syntax unified
 359              		.thumb
 360              		.thumb_func
 361              		.fpu fpv4-sp-d16
 362              		.type	VL53L0X_UpdateByte, %function
 363              	VL53L0X_UpdateByte:
 364              	.LFB8:
 365              		.loc 1 180 0
 366              		.cfi_startproc
 367              		@ args = 0, pretend = 0, frame = 8
 368              		@ frame_needed = 0, uses_anonymous_args = 0
 369              	.LVL42:
 370 0000 2DE9F041 		push	{r4, r5, r6, r7, r8, lr}
 371              		.cfi_def_cfa_offset 24
 372              		.cfi_offset 4, -24
 373              		.cfi_offset 5, -20
 374              		.cfi_offset 6, -16
 375              		.cfi_offset 7, -12
 376              		.cfi_offset 8, -8
 377              		.cfi_offset 14, -4
 378 0004 134E     		ldr	r6, .L55
 379              		.loc 1 186 0
 380 0006 90F8BF71 		ldrb	r7, [r0, #447]	@ zero_extendqisi2
 381              		.loc 1 180 0
 382 000a 82B0     		sub	sp, sp, #8
 383              		.cfi_def_cfa_offset 32
 384              		.loc 1 180 0
 385 000c 1546     		mov	r5, r2
 386 000e 3268     		ldr	r2, [r6]
 387              	.LVL43:
 388 0010 0192     		str	r2, [sp, #4]
 389              	.LVL44:
 390              		.loc 1 188 0
 391 0012 3846     		mov	r0, r7
 392              	.LVL45:
 393 0014 0DF10302 		add	r2, sp, #3
 394              		.loc 1 180 0
 395 0018 1C46     		mov	r4, r3
 396 001a 8846     		mov	r8, r1
 397              		.loc 1 188 0
 398 001c FFF7FEFF 		bl	VL53L0X_read_byte
 399              	.LVL46:
ARM GAS  /var/folders/d2/nstgp4h54kz7g1l847x_b8wc0000gn/T//cchnnJSs.s 			page 8


 400              		.loc 1 190 0
 401 0020 90B9     		cbnz	r0, .L49
 402              		.loc 1 194 0
 403 0022 9DF80330 		ldrb	r3, [sp, #3]	@ zero_extendqisi2
 404 0026 2B40     		ands	r3, r3, r5
 405 0028 2343     		orrs	r3, r3, r4
 406              		.loc 1 195 0
 407 002a 4146     		mov	r1, r8
 408 002c 3846     		mov	r0, r7
 409              	.LVL47:
 410 002e 1A46     		mov	r2, r3
 411              		.loc 1 194 0
 412 0030 8DF80330 		strb	r3, [sp, #3]
 413              		.loc 1 195 0
 414 0034 FFF7FEFF 		bl	VL53L0X_write_byte
 415              	.LVL48:
 416              		.loc 1 197 0
 417 0038 30B9     		cbnz	r0, .L49
 418              	.LVL49:
 419              	.L50:
 420              		.loc 1 202 0
 421 003a 019A     		ldr	r2, [sp, #4]
 422 003c 3368     		ldr	r3, [r6]
 423 003e 9A42     		cmp	r2, r3
 424 0040 05D1     		bne	.L54
 425 0042 02B0     		add	sp, sp, #8
 426              		.cfi_remember_state
 427              		.cfi_def_cfa_offset 24
 428              		@ sp needed
 429 0044 BDE8F081 		pop	{r4, r5, r6, r7, r8, pc}
 430              	.LVL50:
 431              	.L49:
 432              		.cfi_restore_state
 433              		.loc 1 198 0
 434 0048 6FF01300 		mvn	r0, #19
 435              	.LVL51:
 436 004c F5E7     		b	.L50
 437              	.LVL52:
 438              	.L54:
 439              		.loc 1 202 0
 440 004e FFF7FEFF 		bl	__stack_chk_fail
 441              	.LVL53:
 442              	.L56:
 443 0052 00BF     		.align	2
 444              	.L55:
 445 0054 00000000 		.word	__stack_chk_guard
 446              		.cfi_endproc
 447              	.LFE8:
 448              		.size	VL53L0X_UpdateByte, .-VL53L0X_UpdateByte
 449              		.section	.text.VL53L0X_RdByte,"ax",%progbits
 450              		.align	1
 451              		.p2align 4,,15
 452              		.global	VL53L0X_RdByte
 453              		.syntax unified
 454              		.thumb
 455              		.thumb_func
 456              		.fpu fpv4-sp-d16
ARM GAS  /var/folders/d2/nstgp4h54kz7g1l847x_b8wc0000gn/T//cchnnJSs.s 			page 9


 457              		.type	VL53L0X_RdByte, %function
 458              	VL53L0X_RdByte:
 459              	.LFB9:
 460              		.loc 1 204 0
 461              		.cfi_startproc
 462              		@ args = 0, pretend = 0, frame = 8
 463              		@ frame_needed = 0, uses_anonymous_args = 0
 464              	.LVL54:
 465 0000 10B5     		push	{r4, lr}
 466              		.cfi_def_cfa_offset 8
 467              		.cfi_offset 4, -8
 468              		.cfi_offset 14, -4
 469 0002 0A4C     		ldr	r4, .L63
 470              		.loc 1 211 0
 471 0004 90F8BF01 		ldrb	r0, [r0, #447]	@ zero_extendqisi2
 472              	.LVL55:
 473              		.loc 1 204 0
 474 0008 2368     		ldr	r3, [r4]
 475 000a 82B0     		sub	sp, sp, #8
 476              		.cfi_def_cfa_offset 16
 477              		.loc 1 204 0
 478 000c 0193     		str	r3, [sp, #4]
 479              	.LVL56:
 480              		.loc 1 211 0
 481 000e FFF7FEFF 		bl	VL53L0X_read_byte
 482              	.LVL57:
 483              		.loc 1 217 0
 484 0012 019A     		ldr	r2, [sp, #4]
 485 0014 2368     		ldr	r3, [r4]
 486              		.loc 1 213 0
 487 0016 0028     		cmp	r0, #0
 488              	.LVL58:
 489              		.loc 1 217 0
 490 0018 14BF     		ite	ne
 491 001a 6FF01300 		mvnne	r0, #19
 492              	.LVL59:
 493 001e 0020     		moveq	r0, #0
 494 0020 9A42     		cmp	r2, r3
 495              	.LVL60:
 496 0022 01D1     		bne	.L62
 497 0024 02B0     		add	sp, sp, #8
 498              		.cfi_remember_state
 499              		.cfi_def_cfa_offset 8
 500              		@ sp needed
 501 0026 10BD     		pop	{r4, pc}
 502              	.L62:
 503              		.cfi_restore_state
 504 0028 FFF7FEFF 		bl	__stack_chk_fail
 505              	.LVL61:
 506              	.L64:
 507              		.align	2
 508              	.L63:
 509 002c 00000000 		.word	__stack_chk_guard
 510              		.cfi_endproc
 511              	.LFE9:
 512              		.size	VL53L0X_RdByte, .-VL53L0X_RdByte
 513              		.section	.text.VL53L0X_RdWord,"ax",%progbits
ARM GAS  /var/folders/d2/nstgp4h54kz7g1l847x_b8wc0000gn/T//cchnnJSs.s 			page 10


 514              		.align	1
 515              		.p2align 4,,15
 516              		.global	VL53L0X_RdWord
 517              		.syntax unified
 518              		.thumb
 519              		.thumb_func
 520              		.fpu fpv4-sp-d16
 521              		.type	VL53L0X_RdWord, %function
 522              	VL53L0X_RdWord:
 523              	.LFB10:
 524              		.loc 1 219 0
 525              		.cfi_startproc
 526              		@ args = 0, pretend = 0, frame = 8
 527              		@ frame_needed = 0, uses_anonymous_args = 0
 528              	.LVL62:
 529 0000 10B5     		push	{r4, lr}
 530              		.cfi_def_cfa_offset 8
 531              		.cfi_offset 4, -8
 532              		.cfi_offset 14, -4
 533 0002 0A4C     		ldr	r4, .L71
 534              		.loc 1 226 0
 535 0004 90F8BF01 		ldrb	r0, [r0, #447]	@ zero_extendqisi2
 536              	.LVL63:
 537              		.loc 1 219 0
 538 0008 2368     		ldr	r3, [r4]
 539 000a 82B0     		sub	sp, sp, #8
 540              		.cfi_def_cfa_offset 16
 541              		.loc 1 219 0
 542 000c 0193     		str	r3, [sp, #4]
 543              	.LVL64:
 544              		.loc 1 226 0
 545 000e FFF7FEFF 		bl	VL53L0X_read_word
 546              	.LVL65:
 547              		.loc 1 232 0
 548 0012 019A     		ldr	r2, [sp, #4]
 549 0014 2368     		ldr	r3, [r4]
 550              		.loc 1 228 0
 551 0016 0028     		cmp	r0, #0
 552              	.LVL66:
 553              		.loc 1 232 0
 554 0018 14BF     		ite	ne
 555 001a 6FF01300 		mvnne	r0, #19
 556              	.LVL67:
 557 001e 0020     		moveq	r0, #0
 558 0020 9A42     		cmp	r2, r3
 559              	.LVL68:
 560 0022 01D1     		bne	.L70
 561 0024 02B0     		add	sp, sp, #8
 562              		.cfi_remember_state
 563              		.cfi_def_cfa_offset 8
 564              		@ sp needed
 565 0026 10BD     		pop	{r4, pc}
 566              	.L70:
 567              		.cfi_restore_state
 568 0028 FFF7FEFF 		bl	__stack_chk_fail
 569              	.LVL69:
 570              	.L72:
ARM GAS  /var/folders/d2/nstgp4h54kz7g1l847x_b8wc0000gn/T//cchnnJSs.s 			page 11


 571              		.align	2
 572              	.L71:
 573 002c 00000000 		.word	__stack_chk_guard
 574              		.cfi_endproc
 575              	.LFE10:
 576              		.size	VL53L0X_RdWord, .-VL53L0X_RdWord
 577              		.section	.text.VL53L0X_RdDWord,"ax",%progbits
 578              		.align	1
 579              		.p2align 4,,15
 580              		.global	VL53L0X_RdDWord
 581              		.syntax unified
 582              		.thumb
 583              		.thumb_func
 584              		.fpu fpv4-sp-d16
 585              		.type	VL53L0X_RdDWord, %function
 586              	VL53L0X_RdDWord:
 587              	.LFB11:
 588              		.loc 1 234 0
 589              		.cfi_startproc
 590              		@ args = 0, pretend = 0, frame = 8
 591              		@ frame_needed = 0, uses_anonymous_args = 0
 592              	.LVL70:
 593 0000 10B5     		push	{r4, lr}
 594              		.cfi_def_cfa_offset 8
 595              		.cfi_offset 4, -8
 596              		.cfi_offset 14, -4
 597 0002 0A4C     		ldr	r4, .L79
 598              		.loc 1 241 0
 599 0004 90F8BF01 		ldrb	r0, [r0, #447]	@ zero_extendqisi2
 600              	.LVL71:
 601              		.loc 1 234 0
 602 0008 2368     		ldr	r3, [r4]
 603 000a 82B0     		sub	sp, sp, #8
 604              		.cfi_def_cfa_offset 16
 605              		.loc 1 234 0
 606 000c 0193     		str	r3, [sp, #4]
 607              	.LVL72:
 608              		.loc 1 241 0
 609 000e FFF7FEFF 		bl	VL53L0X_read_dword
 610              	.LVL73:
 611              		.loc 1 247 0
 612 0012 019A     		ldr	r2, [sp, #4]
 613 0014 2368     		ldr	r3, [r4]
 614              		.loc 1 243 0
 615 0016 0028     		cmp	r0, #0
 616              	.LVL74:
 617              		.loc 1 247 0
 618 0018 14BF     		ite	ne
 619 001a 6FF01300 		mvnne	r0, #19
 620              	.LVL75:
 621 001e 0020     		moveq	r0, #0
 622 0020 9A42     		cmp	r2, r3
 623              	.LVL76:
 624 0022 01D1     		bne	.L78
 625 0024 02B0     		add	sp, sp, #8
 626              		.cfi_remember_state
 627              		.cfi_def_cfa_offset 8
ARM GAS  /var/folders/d2/nstgp4h54kz7g1l847x_b8wc0000gn/T//cchnnJSs.s 			page 12


 628              		@ sp needed
 629 0026 10BD     		pop	{r4, pc}
 630              	.L78:
 631              		.cfi_restore_state
 632 0028 FFF7FEFF 		bl	__stack_chk_fail
 633              	.LVL77:
 634              	.L80:
 635              		.align	2
 636              	.L79:
 637 002c 00000000 		.word	__stack_chk_guard
 638              		.cfi_endproc
 639              	.LFE11:
 640              		.size	VL53L0X_RdDWord, .-VL53L0X_RdDWord
 641              		.section	.text.VL53L0X_PollingDelay,"ax",%progbits
 642              		.align	1
 643              		.p2align 4,,15
 644              		.global	VL53L0X_PollingDelay
 645              		.syntax unified
 646              		.thumb
 647              		.thumb_func
 648              		.fpu fpv4-sp-d16
 649              		.type	VL53L0X_PollingDelay, %function
 650              	VL53L0X_PollingDelay:
 651              	.LFB12:
 652              		.loc 1 250 0
 653              		.cfi_startproc
 654              		@ args = 0, pretend = 0, frame = 8
 655              		@ frame_needed = 0, uses_anonymous_args = 0
 656              	.LVL78:
 657 0000 00B5     		push	{lr}
 658              		.cfi_def_cfa_offset 4
 659              		.cfi_offset 14, -4
 660 0002 0D4A     		ldr	r2, .L88
 661 0004 83B0     		sub	sp, sp, #12
 662              		.cfi_def_cfa_offset 16
 663              		.loc 1 250 0
 664 0006 1168     		ldr	r1, [r2]
 665 0008 0191     		str	r1, [sp, #4]
 666              	.LVL79:
 667              		.loc 1 256 0
 668 000a 0023     		movs	r3, #0
 669 000c 0093     		str	r3, [sp]
 670 000e 009B     		ldr	r3, [sp]
 671 0010 F92B     		cmp	r3, #249
 672 0012 06D8     		bhi	.L82
 673              	.L83:
 674              		.loc 1 258 0 discriminator 3
 675              		.syntax unified
 676              	@ 258 "../e-puck2_main-processor/src/sensors/VL53L0X/Api/platform/src/vl53l0x_platform.c" 1
 677 0014 00BF     		nop
 678              	@ 0 "" 2
 679              		.loc 1 256 0 discriminator 3
 680              		.thumb
 681              		.syntax unified
 682 0016 009B     		ldr	r3, [sp]
 683 0018 0133     		adds	r3, r3, #1
 684 001a 0093     		str	r3, [sp]
ARM GAS  /var/folders/d2/nstgp4h54kz7g1l847x_b8wc0000gn/T//cchnnJSs.s 			page 13


 685 001c 009B     		ldr	r3, [sp]
 686 001e F92B     		cmp	r3, #249
 687 0020 F8D9     		bls	.L83
 688              	.L82:
 689              		.loc 1 263 0
 690 0022 0199     		ldr	r1, [sp, #4]
 691 0024 1368     		ldr	r3, [r2]
 692 0026 9942     		cmp	r1, r3
 693 0028 4FF00000 		mov	r0, #0
 694              	.LVL80:
 695 002c 02D1     		bne	.L87
 696 002e 03B0     		add	sp, sp, #12
 697              		.cfi_remember_state
 698              		.cfi_def_cfa_offset 4
 699              		@ sp needed
 700 0030 5DF804FB 		ldr	pc, [sp], #4
 701              	.L87:
 702              		.cfi_restore_state
 703 0034 FFF7FEFF 		bl	__stack_chk_fail
 704              	.LVL81:
 705              	.L89:
 706              		.align	2
 707              	.L88:
 708 0038 00000000 		.word	__stack_chk_guard
 709              		.cfi_endproc
 710              	.LFE12:
 711              		.size	VL53L0X_PollingDelay, .-VL53L0X_PollingDelay
 712              		.text
 713              	.Letext0:
 714              		.file 2 "/Applications/Eclipse_e-puck2.app/Contents/Eclipse_e-puck2/Tools/gcc-arm-none-eabi-7-2017
 715              		.file 3 "/Applications/Eclipse_e-puck2.app/Contents/Eclipse_e-puck2/Tools/gcc-arm-none-eabi-7-2017
 716              		.file 4 "../e-puck2_main-processor/src/sensors/VL53L0X/Api/platform/src/../inc/../../core/inc/vl53
 717              		.file 5 "../e-puck2_main-processor/src/sensors/VL53L0X/Api/platform/src/../inc/../../core/inc/vl53
 718              		.file 6 "../e-puck2_main-processor/src/sensors/VL53L0X/Api/platform/src/../inc/../../core/inc/vl53
 719              		.file 7 "/Applications/Eclipse_e-puck2.app/Contents/Eclipse_e-puck2/Tools/gcc-arm-none-eabi-7-2017
 720              		.file 8 "/Applications/Eclipse_e-puck2.app/Contents/Eclipse_e-puck2/Tools/gcc-arm-none-eabi-7-2017
 721              		.file 9 "/Applications/Eclipse_e-puck2.app/Contents/Eclipse_e-puck2/Tools/gcc-arm-none-eabi-7-2017
 722              		.file 10 "/Applications/Eclipse_e-puck2.app/Contents/Eclipse_e-puck2/Tools/gcc-arm-none-eabi-7-201
 723              		.file 11 "../e-puck2_main-processor/src/sensors/VL53L0X/Api/platform/src/../inc/vl53l0x_platform.h
 724              		.file 12 "../e-puck2_main-processor/src/sensors/VL53L0X/Api/platform/src/../inc/vl53l0x_i2c_platfo