ARM GAS  /var/folders/d2/nstgp4h54kz7g1l847x_b8wc0000gn/T//cc7cS1Ev.s 			page 1


   1              		.cpu cortex-m4
   2              		.eabi_attribute 27, 1
   3              		.eabi_attribute 28, 1
   4              		.eabi_attribute 20, 1
   5              		.eabi_attribute 21, 1
   6              		.eabi_attribute 23, 3
   7              		.eabi_attribute 24, 1
   8              		.eabi_attribute 25, 1
   9              		.eabi_attribute 26, 1
  10              		.eabi_attribute 30, 6
  11              		.eabi_attribute 34, 1
  12              		.eabi_attribute 18, 4
  13              		.file	"vl53l0x_api.c"
  14              		.global	DefaultTuningSettings
  15              		.section	.data.DefaultTuningSettings,"aw",%progbits
  16              		.align	2
  17              		.type	DefaultTuningSettings, %object
  18              		.size	DefaultTuningSettings, 243
  19              	DefaultTuningSettings:
  20 0000 01       		.byte	1
  21 0001 FF       		.byte	-1
  22 0002 01       		.byte	1
  23 0003 01       		.byte	1
  24 0004 00       		.byte	0
  25 0005 00       		.byte	0
  26 0006 01       		.byte	1
  27 0007 FF       		.byte	-1
  28 0008 00       		.byte	0
  29 0009 01       		.byte	1
  30 000a 09       		.byte	9
  31 000b 00       		.byte	0
  32 000c 01       		.byte	1
  33 000d 10       		.byte	16
  34 000e 00       		.byte	0
  35 000f 01       		.byte	1
  36 0010 11       		.byte	17
  37 0011 00       		.byte	0
  38 0012 01       		.byte	1
  39 0013 24       		.byte	36
  40 0014 01       		.byte	1
  41 0015 01       		.byte	1
  42 0016 25       		.byte	37
  43 0017 FF       		.byte	-1
  44 0018 01       		.byte	1
  45 0019 75       		.byte	117
  46 001a 00       		.byte	0
  47 001b 01       		.byte	1
  48 001c FF       		.byte	-1
  49 001d 01       		.byte	1
  50 001e 01       		.byte	1
  51 001f 4E       		.byte	78
  52 0020 2C       		.byte	44
  53 0021 01       		.byte	1
  54 0022 48       		.byte	72
  55 0023 00       		.byte	0
  56 0024 01       		.byte	1
  57 0025 30       		.byte	48
ARM GAS  /var/folders/d2/nstgp4h54kz7g1l847x_b8wc0000gn/T//cc7cS1Ev.s 			page 2


  58 0026 20       		.byte	32
  59 0027 01       		.byte	1
  60 0028 FF       		.byte	-1
  61 0029 00       		.byte	0
  62 002a 01       		.byte	1
  63 002b 30       		.byte	48
  64 002c 09       		.byte	9
  65 002d 01       		.byte	1
  66 002e 54       		.byte	84
  67 002f 00       		.byte	0
  68 0030 01       		.byte	1
  69 0031 31       		.byte	49
  70 0032 04       		.byte	4
  71 0033 01       		.byte	1
  72 0034 32       		.byte	50
  73 0035 03       		.byte	3
  74 0036 01       		.byte	1
  75 0037 40       		.byte	64
  76 0038 83       		.byte	-125
  77 0039 01       		.byte	1
  78 003a 46       		.byte	70
  79 003b 25       		.byte	37
  80 003c 01       		.byte	1
  81 003d 60       		.byte	96
  82 003e 00       		.byte	0
  83 003f 01       		.byte	1
  84 0040 27       		.byte	39
  85 0041 00       		.byte	0
  86 0042 01       		.byte	1
  87 0043 50       		.byte	80
  88 0044 06       		.byte	6
  89 0045 01       		.byte	1
  90 0046 51       		.byte	81
  91 0047 00       		.byte	0
  92 0048 01       		.byte	1
  93 0049 52       		.byte	82
  94 004a 96       		.byte	-106
  95 004b 01       		.byte	1
  96 004c 56       		.byte	86
  97 004d 08       		.byte	8
  98 004e 01       		.byte	1
  99 004f 57       		.byte	87
 100 0050 30       		.byte	48
 101 0051 01       		.byte	1
 102 0052 61       		.byte	97
 103 0053 00       		.byte	0
 104 0054 01       		.byte	1
 105 0055 62       		.byte	98
 106 0056 00       		.byte	0
 107 0057 01       		.byte	1
 108 0058 64       		.byte	100
 109 0059 00       		.byte	0
 110 005a 01       		.byte	1
 111 005b 65       		.byte	101
 112 005c 00       		.byte	0
 113 005d 01       		.byte	1
 114 005e 66       		.byte	102
ARM GAS  /var/folders/d2/nstgp4h54kz7g1l847x_b8wc0000gn/T//cc7cS1Ev.s 			page 3


 115 005f A0       		.byte	-96
 116 0060 01       		.byte	1
 117 0061 FF       		.byte	-1
 118 0062 01       		.byte	1
 119 0063 01       		.byte	1
 120 0064 22       		.byte	34
 121 0065 32       		.byte	50
 122 0066 01       		.byte	1
 123 0067 47       		.byte	71
 124 0068 14       		.byte	20
 125 0069 01       		.byte	1
 126 006a 49       		.byte	73
 127 006b FF       		.byte	-1
 128 006c 01       		.byte	1
 129 006d 4A       		.byte	74
 130 006e 00       		.byte	0
 131 006f 01       		.byte	1
 132 0070 FF       		.byte	-1
 133 0071 00       		.byte	0
 134 0072 01       		.byte	1
 135 0073 7A       		.byte	122
 136 0074 0A       		.byte	10
 137 0075 01       		.byte	1
 138 0076 7B       		.byte	123
 139 0077 00       		.byte	0
 140 0078 01       		.byte	1
 141 0079 78       		.byte	120
 142 007a 21       		.byte	33
 143 007b 01       		.byte	1
 144 007c FF       		.byte	-1
 145 007d 01       		.byte	1
 146 007e 01       		.byte	1
 147 007f 23       		.byte	35
 148 0080 34       		.byte	52
 149 0081 01       		.byte	1
 150 0082 42       		.byte	66
 151 0083 00       		.byte	0
 152 0084 01       		.byte	1
 153 0085 44       		.byte	68
 154 0086 FF       		.byte	-1
 155 0087 01       		.byte	1
 156 0088 45       		.byte	69
 157 0089 26       		.byte	38
 158 008a 01       		.byte	1
 159 008b 46       		.byte	70
 160 008c 05       		.byte	5
 161 008d 01       		.byte	1
 162 008e 40       		.byte	64
 163 008f 40       		.byte	64
 164 0090 01       		.byte	1
 165 0091 0E       		.byte	14
 166 0092 06       		.byte	6
 167 0093 01       		.byte	1
 168 0094 20       		.byte	32
 169 0095 1A       		.byte	26
 170 0096 01       		.byte	1
 171 0097 43       		.byte	67
ARM GAS  /var/folders/d2/nstgp4h54kz7g1l847x_b8wc0000gn/T//cc7cS1Ev.s 			page 4


 172 0098 40       		.byte	64
 173 0099 01       		.byte	1
 174 009a FF       		.byte	-1
 175 009b 00       		.byte	0
 176 009c 01       		.byte	1
 177 009d 34       		.byte	52
 178 009e 03       		.byte	3
 179 009f 01       		.byte	1
 180 00a0 35       		.byte	53
 181 00a1 44       		.byte	68
 182 00a2 01       		.byte	1
 183 00a3 FF       		.byte	-1
 184 00a4 01       		.byte	1
 185 00a5 01       		.byte	1
 186 00a6 31       		.byte	49
 187 00a7 04       		.byte	4
 188 00a8 01       		.byte	1
 189 00a9 4B       		.byte	75
 190 00aa 09       		.byte	9
 191 00ab 01       		.byte	1
 192 00ac 4C       		.byte	76
 193 00ad 05       		.byte	5
 194 00ae 01       		.byte	1
 195 00af 4D       		.byte	77
 196 00b0 04       		.byte	4
 197 00b1 01       		.byte	1
 198 00b2 FF       		.byte	-1
 199 00b3 00       		.byte	0
 200 00b4 01       		.byte	1
 201 00b5 44       		.byte	68
 202 00b6 00       		.byte	0
 203 00b7 01       		.byte	1
 204 00b8 45       		.byte	69
 205 00b9 20       		.byte	32
 206 00ba 01       		.byte	1
 207 00bb 47       		.byte	71
 208 00bc 08       		.byte	8
 209 00bd 01       		.byte	1
 210 00be 48       		.byte	72
 211 00bf 28       		.byte	40
 212 00c0 01       		.byte	1
 213 00c1 67       		.byte	103
 214 00c2 00       		.byte	0
 215 00c3 01       		.byte	1
 216 00c4 70       		.byte	112
 217 00c5 04       		.byte	4
 218 00c6 01       		.byte	1
 219 00c7 71       		.byte	113
 220 00c8 01       		.byte	1
 221 00c9 01       		.byte	1
 222 00ca 72       		.byte	114
 223 00cb FE       		.byte	-2
 224 00cc 01       		.byte	1
 225 00cd 76       		.byte	118
 226 00ce 00       		.byte	0
 227 00cf 01       		.byte	1
 228 00d0 77       		.byte	119
ARM GAS  /var/folders/d2/nstgp4h54kz7g1l847x_b8wc0000gn/T//cc7cS1Ev.s 			page 5


 229 00d1 00       		.byte	0
 230 00d2 01       		.byte	1
 231 00d3 FF       		.byte	-1
 232 00d4 01       		.byte	1
 233 00d5 01       		.byte	1
 234 00d6 0D       		.byte	13
 235 00d7 01       		.byte	1
 236 00d8 01       		.byte	1
 237 00d9 FF       		.byte	-1
 238 00da 00       		.byte	0
 239 00db 01       		.byte	1
 240 00dc 80       		.byte	-128
 241 00dd 01       		.byte	1
 242 00de 01       		.byte	1
 243 00df 01       		.byte	1
 244 00e0 F8       		.byte	-8
 245 00e1 01       		.byte	1
 246 00e2 FF       		.byte	-1
 247 00e3 01       		.byte	1
 248 00e4 01       		.byte	1
 249 00e5 8E       		.byte	-114
 250 00e6 01       		.byte	1
 251 00e7 01       		.byte	1
 252 00e8 00       		.byte	0
 253 00e9 01       		.byte	1
 254 00ea 01       		.byte	1
 255 00eb FF       		.byte	-1
 256 00ec 00       		.byte	0
 257 00ed 01       		.byte	1
 258 00ee 80       		.byte	-128
 259 00ef 00       		.byte	0
 260 00f0 00       		.byte	0
 261 00f1 00       		.byte	0
 262 00f2 00       		.byte	0
 263              		.global	InterruptThresholdSettings
 264              		.section	.data.InterruptThresholdSettings,"aw",%progbits
 265              		.align	2
 266              		.type	InterruptThresholdSettings, %object
 267              		.size	InterruptThresholdSettings, 438
 268              	InterruptThresholdSettings:
 269 0000 01       		.byte	1
 270 0001 FF       		.byte	-1
 271 0002 00       		.byte	0
 272 0003 01       		.byte	1
 273 0004 80       		.byte	-128
 274 0005 01       		.byte	1
 275 0006 01       		.byte	1
 276 0007 FF       		.byte	-1
 277 0008 01       		.byte	1
 278 0009 01       		.byte	1
 279 000a 00       		.byte	0
 280 000b 00       		.byte	0
 281 000c 01       		.byte	1
 282 000d FF       		.byte	-1
 283 000e 01       		.byte	1
 284 000f 01       		.byte	1
 285 0010 4F       		.byte	79
ARM GAS  /var/folders/d2/nstgp4h54kz7g1l847x_b8wc0000gn/T//cc7cS1Ev.s 			page 6


 286 0011 02       		.byte	2
 287 0012 01       		.byte	1
 288 0013 FF       		.byte	-1
 289 0014 0E       		.byte	14
 290 0015 01       		.byte	1
 291 0016 00       		.byte	0
 292 0017 03       		.byte	3
 293 0018 01       		.byte	1
 294 0019 01       		.byte	1
 295 001a 84       		.byte	-124
 296 001b 01       		.byte	1
 297 001c 02       		.byte	2
 298 001d 0A       		.byte	10
 299 001e 01       		.byte	1
 300 001f 03       		.byte	3
 301 0020 03       		.byte	3
 302 0021 01       		.byte	1
 303 0022 04       		.byte	4
 304 0023 08       		.byte	8
 305 0024 01       		.byte	1
 306 0025 05       		.byte	5
 307 0026 C8       		.byte	-56
 308 0027 01       		.byte	1
 309 0028 06       		.byte	6
 310 0029 03       		.byte	3
 311 002a 01       		.byte	1
 312 002b 07       		.byte	7
 313 002c 8D       		.byte	-115
 314 002d 01       		.byte	1
 315 002e 08       		.byte	8
 316 002f 08       		.byte	8
 317 0030 01       		.byte	1
 318 0031 09       		.byte	9
 319 0032 C6       		.byte	-58
 320 0033 01       		.byte	1
 321 0034 0A       		.byte	10
 322 0035 01       		.byte	1
 323 0036 01       		.byte	1
 324 0037 0B       		.byte	11
 325 0038 02       		.byte	2
 326 0039 01       		.byte	1
 327 003a 0C       		.byte	12
 328 003b 00       		.byte	0
 329 003c 01       		.byte	1
 330 003d 0D       		.byte	13
 331 003e D5       		.byte	-43
 332 003f 01       		.byte	1
 333 0040 0E       		.byte	14
 334 0041 18       		.byte	24
 335 0042 01       		.byte	1
 336 0043 0F       		.byte	15
 337 0044 12       		.byte	18
 338 0045 01       		.byte	1
 339 0046 10       		.byte	16
 340 0047 01       		.byte	1
 341 0048 01       		.byte	1
 342 0049 11       		.byte	17
ARM GAS  /var/folders/d2/nstgp4h54kz7g1l847x_b8wc0000gn/T//cc7cS1Ev.s 			page 7


 343 004a 82       		.byte	-126
 344 004b 01       		.byte	1
 345 004c 12       		.byte	18
 346 004d 00       		.byte	0
 347 004e 01       		.byte	1
 348 004f 13       		.byte	19
 349 0050 D5       		.byte	-43
 350 0051 01       		.byte	1
 351 0052 14       		.byte	20
 352 0053 18       		.byte	24
 353 0054 01       		.byte	1
 354 0055 15       		.byte	21
 355 0056 13       		.byte	19
 356 0057 01       		.byte	1
 357 0058 16       		.byte	22
 358 0059 03       		.byte	3
 359 005a 01       		.byte	1
 360 005b 17       		.byte	23
 361 005c 86       		.byte	-122
 362 005d 01       		.byte	1
 363 005e 18       		.byte	24
 364 005f 0A       		.byte	10
 365 0060 01       		.byte	1
 366 0061 19       		.byte	25
 367 0062 09       		.byte	9
 368 0063 01       		.byte	1
 369 0064 1A       		.byte	26
 370 0065 08       		.byte	8
 371 0066 01       		.byte	1
 372 0067 1B       		.byte	27
 373 0068 C2       		.byte	-62
 374 0069 01       		.byte	1
 375 006a 1C       		.byte	28
 376 006b 03       		.byte	3
 377 006c 01       		.byte	1
 378 006d 1D       		.byte	29
 379 006e 8F       		.byte	-113
 380 006f 01       		.byte	1
 381 0070 1E       		.byte	30
 382 0071 0A       		.byte	10
 383 0072 01       		.byte	1
 384 0073 1F       		.byte	31
 385 0074 06       		.byte	6
 386 0075 01       		.byte	1
 387 0076 20       		.byte	32
 388 0077 01       		.byte	1
 389 0078 01       		.byte	1
 390 0079 21       		.byte	33
 391 007a 02       		.byte	2
 392 007b 01       		.byte	1
 393 007c 22       		.byte	34
 394 007d 00       		.byte	0
 395 007e 01       		.byte	1
 396 007f 23       		.byte	35
 397 0080 D5       		.byte	-43
 398 0081 01       		.byte	1
 399 0082 24       		.byte	36
ARM GAS  /var/folders/d2/nstgp4h54kz7g1l847x_b8wc0000gn/T//cc7cS1Ev.s 			page 8


 400 0083 18       		.byte	24
 401 0084 01       		.byte	1
 402 0085 25       		.byte	37
 403 0086 22       		.byte	34
 404 0087 01       		.byte	1
 405 0088 26       		.byte	38
 406 0089 01       		.byte	1
 407 008a 01       		.byte	1
 408 008b 27       		.byte	39
 409 008c 82       		.byte	-126
 410 008d 01       		.byte	1
 411 008e 28       		.byte	40
 412 008f 00       		.byte	0
 413 0090 01       		.byte	1
 414 0091 29       		.byte	41
 415 0092 D5       		.byte	-43
 416 0093 01       		.byte	1
 417 0094 2A       		.byte	42
 418 0095 18       		.byte	24
 419 0096 01       		.byte	1
 420 0097 2B       		.byte	43
 421 0098 0B       		.byte	11
 422 0099 01       		.byte	1
 423 009a 2C       		.byte	44
 424 009b 28       		.byte	40
 425 009c 01       		.byte	1
 426 009d 2D       		.byte	45
 427 009e 78       		.byte	120
 428 009f 01       		.byte	1
 429 00a0 2E       		.byte	46
 430 00a1 28       		.byte	40
 431 00a2 01       		.byte	1
 432 00a3 2F       		.byte	47
 433 00a4 91       		.byte	-111
 434 00a5 01       		.byte	1
 435 00a6 30       		.byte	48
 436 00a7 00       		.byte	0
 437 00a8 01       		.byte	1
 438 00a9 31       		.byte	49
 439 00aa 0B       		.byte	11
 440 00ab 01       		.byte	1
 441 00ac 32       		.byte	50
 442 00ad 00       		.byte	0
 443 00ae 01       		.byte	1
 444 00af 33       		.byte	51
 445 00b0 0B       		.byte	11
 446 00b1 01       		.byte	1
 447 00b2 34       		.byte	52
 448 00b3 00       		.byte	0
 449 00b4 01       		.byte	1
 450 00b5 35       		.byte	53
 451 00b6 A1       		.byte	-95
 452 00b7 01       		.byte	1
 453 00b8 36       		.byte	54
 454 00b9 00       		.byte	0
 455 00ba 01       		.byte	1
 456 00bb 37       		.byte	55
ARM GAS  /var/folders/d2/nstgp4h54kz7g1l847x_b8wc0000gn/T//cc7cS1Ev.s 			page 9


 457 00bc A0       		.byte	-96
 458 00bd 01       		.byte	1
 459 00be 38       		.byte	56
 460 00bf 00       		.byte	0
 461 00c0 01       		.byte	1
 462 00c1 39       		.byte	57
 463 00c2 04       		.byte	4
 464 00c3 01       		.byte	1
 465 00c4 3A       		.byte	58
 466 00c5 28       		.byte	40
 467 00c6 01       		.byte	1
 468 00c7 3B       		.byte	59
 469 00c8 30       		.byte	48
 470 00c9 01       		.byte	1
 471 00ca 3C       		.byte	60
 472 00cb 0C       		.byte	12
 473 00cc 01       		.byte	1
 474 00cd 3D       		.byte	61
 475 00ce 04       		.byte	4
 476 00cf 01       		.byte	1
 477 00d0 3E       		.byte	62
 478 00d1 0F       		.byte	15
 479 00d2 01       		.byte	1
 480 00d3 3F       		.byte	63
 481 00d4 79       		.byte	121
 482 00d5 01       		.byte	1
 483 00d6 40       		.byte	64
 484 00d7 28       		.byte	40
 485 00d8 01       		.byte	1
 486 00d9 41       		.byte	65
 487 00da 1E       		.byte	30
 488 00db 01       		.byte	1
 489 00dc 42       		.byte	66
 490 00dd 2F       		.byte	47
 491 00de 01       		.byte	1
 492 00df 43       		.byte	67
 493 00e0 87       		.byte	-121
 494 00e1 01       		.byte	1
 495 00e2 44       		.byte	68
 496 00e3 00       		.byte	0
 497 00e4 01       		.byte	1
 498 00e5 45       		.byte	69
 499 00e6 0B       		.byte	11
 500 00e7 01       		.byte	1
 501 00e8 46       		.byte	70
 502 00e9 00       		.byte	0
 503 00ea 01       		.byte	1
 504 00eb 47       		.byte	71
 505 00ec 0B       		.byte	11
 506 00ed 01       		.byte	1
 507 00ee 48       		.byte	72
 508 00ef 00       		.byte	0
 509 00f0 01       		.byte	1
 510 00f1 49       		.byte	73
 511 00f2 A7       		.byte	-89
 512 00f3 01       		.byte	1
 513 00f4 4A       		.byte	74
ARM GAS  /var/folders/d2/nstgp4h54kz7g1l847x_b8wc0000gn/T//cc7cS1Ev.s 			page 10


 514 00f5 00       		.byte	0
 515 00f6 01       		.byte	1
 516 00f7 4B       		.byte	75
 517 00f8 A6       		.byte	-90
 518 00f9 01       		.byte	1
 519 00fa 4C       		.byte	76
 520 00fb 00       		.byte	0
 521 00fc 01       		.byte	1
 522 00fd 4D       		.byte	77
 523 00fe 04       		.byte	4
 524 00ff 01       		.byte	1
 525 0100 4E       		.byte	78
 526 0101 01       		.byte	1
 527 0102 01       		.byte	1
 528 0103 4F       		.byte	79
 529 0104 00       		.byte	0
 530 0105 01       		.byte	1
 531 0106 50       		.byte	80
 532 0107 00       		.byte	0
 533 0108 01       		.byte	1
 534 0109 51       		.byte	81
 535 010a 80       		.byte	-128
 536 010b 01       		.byte	1
 537 010c 52       		.byte	82
 538 010d 09       		.byte	9
 539 010e 01       		.byte	1
 540 010f 53       		.byte	83
 541 0110 08       		.byte	8
 542 0111 01       		.byte	1
 543 0112 54       		.byte	84
 544 0113 01       		.byte	1
 545 0114 01       		.byte	1
 546 0115 55       		.byte	85
 547 0116 00       		.byte	0
 548 0117 01       		.byte	1
 549 0118 56       		.byte	86
 550 0119 0F       		.byte	15
 551 011a 01       		.byte	1
 552 011b 57       		.byte	87
 553 011c 79       		.byte	121
 554 011d 01       		.byte	1
 555 011e 58       		.byte	88
 556 011f 09       		.byte	9
 557 0120 01       		.byte	1
 558 0121 59       		.byte	89
 559 0122 05       		.byte	5
 560 0123 01       		.byte	1
 561 0124 5A       		.byte	90
 562 0125 00       		.byte	0
 563 0126 01       		.byte	1
 564 0127 5B       		.byte	91
 565 0128 60       		.byte	96
 566 0129 01       		.byte	1
 567 012a 5C       		.byte	92
 568 012b 05       		.byte	5
 569 012c 01       		.byte	1
 570 012d 5D       		.byte	93
ARM GAS  /var/folders/d2/nstgp4h54kz7g1l847x_b8wc0000gn/T//cc7cS1Ev.s 			page 11


 571 012e D1       		.byte	-47
 572 012f 01       		.byte	1
 573 0130 5E       		.byte	94
 574 0131 0C       		.byte	12
 575 0132 01       		.byte	1
 576 0133 5F       		.byte	95
 577 0134 3C       		.byte	60
 578 0135 01       		.byte	1
 579 0136 60       		.byte	96
 580 0137 00       		.byte	0
 581 0138 01       		.byte	1
 582 0139 61       		.byte	97
 583 013a D0       		.byte	-48
 584 013b 01       		.byte	1
 585 013c 62       		.byte	98
 586 013d 0B       		.byte	11
 587 013e 01       		.byte	1
 588 013f 63       		.byte	99
 589 0140 03       		.byte	3
 590 0141 01       		.byte	1
 591 0142 64       		.byte	100
 592 0143 28       		.byte	40
 593 0144 01       		.byte	1
 594 0145 65       		.byte	101
 595 0146 10       		.byte	16
 596 0147 01       		.byte	1
 597 0148 66       		.byte	102
 598 0149 2A       		.byte	42
 599 014a 01       		.byte	1
 600 014b 67       		.byte	103
 601 014c 39       		.byte	57
 602 014d 01       		.byte	1
 603 014e 68       		.byte	104
 604 014f 0B       		.byte	11
 605 0150 01       		.byte	1
 606 0151 69       		.byte	105
 607 0152 02       		.byte	2
 608 0153 01       		.byte	1
 609 0154 6A       		.byte	106
 610 0155 28       		.byte	40
 611 0156 01       		.byte	1
 612 0157 6B       		.byte	107
 613 0158 10       		.byte	16
 614 0159 01       		.byte	1
 615 015a 6C       		.byte	108
 616 015b 2A       		.byte	42
 617 015c 01       		.byte	1
 618 015d 6D       		.byte	109
 619 015e 61       		.byte	97
 620 015f 01       		.byte	1
 621 0160 6E       		.byte	110
 622 0161 0C       		.byte	12
 623 0162 01       		.byte	1
 624 0163 6F       		.byte	111
 625 0164 00       		.byte	0
 626 0165 01       		.byte	1
 627 0166 70       		.byte	112
ARM GAS  /var/folders/d2/nstgp4h54kz7g1l847x_b8wc0000gn/T//cc7cS1Ev.s 			page 12


 628 0167 0F       		.byte	15
 629 0168 01       		.byte	1
 630 0169 71       		.byte	113
 631 016a 79       		.byte	121
 632 016b 01       		.byte	1
 633 016c 72       		.byte	114
 634 016d 00       		.byte	0
 635 016e 01       		.byte	1
 636 016f 73       		.byte	115
 637 0170 0B       		.byte	11
 638 0171 01       		.byte	1
 639 0172 74       		.byte	116
 640 0173 00       		.byte	0
 641 0174 01       		.byte	1
 642 0175 75       		.byte	117
 643 0176 0B       		.byte	11
 644 0177 01       		.byte	1
 645 0178 76       		.byte	118
 646 0179 00       		.byte	0
 647 017a 01       		.byte	1
 648 017b 77       		.byte	119
 649 017c A1       		.byte	-95
 650 017d 01       		.byte	1
 651 017e 78       		.byte	120
 652 017f 00       		.byte	0
 653 0180 01       		.byte	1
 654 0181 79       		.byte	121
 655 0182 A0       		.byte	-96
 656 0183 01       		.byte	1
 657 0184 7A       		.byte	122
 658 0185 00       		.byte	0
 659 0186 01       		.byte	1
 660 0187 7B       		.byte	123
 661 0188 04       		.byte	4
 662 0189 01       		.byte	1
 663 018a FF       		.byte	-1
 664 018b 04       		.byte	4
 665 018c 01       		.byte	1
 666 018d 79       		.byte	121
 667 018e 1D       		.byte	29
 668 018f 01       		.byte	1
 669 0190 7B       		.byte	123
 670 0191 27       		.byte	39
 671 0192 01       		.byte	1
 672 0193 96       		.byte	-106
 673 0194 0E       		.byte	14
 674 0195 01       		.byte	1
 675 0196 97       		.byte	-105
 676 0197 FE       		.byte	-2
 677 0198 01       		.byte	1
 678 0199 98       		.byte	-104
 679 019a 03       		.byte	3
 680 019b 01       		.byte	1
 681 019c 99       		.byte	-103
 682 019d EF       		.byte	-17
 683 019e 01       		.byte	1
 684 019f 9A       		.byte	-102
ARM GAS  /var/folders/d2/nstgp4h54kz7g1l847x_b8wc0000gn/T//cc7cS1Ev.s 			page 13


 685 01a0 02       		.byte	2
 686 01a1 01       		.byte	1
 687 01a2 9B       		.byte	-101
 688 01a3 44       		.byte	68
 689 01a4 01       		.byte	1
 690 01a5 73       		.byte	115
 691 01a6 07       		.byte	7
 692 01a7 01       		.byte	1
 693 01a8 70       		.byte	112
 694 01a9 01       		.byte	1
 695 01aa 01       		.byte	1
 696 01ab FF       		.byte	-1
 697 01ac 01       		.byte	1
 698 01ad 01       		.byte	1
 699 01ae 00       		.byte	0
 700 01af 01       		.byte	1
 701 01b0 01       		.byte	1
 702 01b1 FF       		.byte	-1
 703 01b2 00       		.byte	0
 704 01b3 00       		.byte	0
 705 01b4 00       		.byte	0
 706 01b5 00       		.byte	0
 707              		.section	.text.VL53L0X_GetVersion,"ax",%progbits
 708              		.align	1
 709              		.global	VL53L0X_GetVersion
 710              		.syntax unified
 711              		.thumb
 712              		.thumb_func
 713              		.fpu fpv4-sp-d16
 714              		.type	VL53L0X_GetVersion, %function
 715              	VL53L0X_GetVersion:
 716              		@ args = 0, pretend = 0, frame = 16
 717              		@ frame_needed = 1, uses_anonymous_args = 0
 718              		@ link register save eliminated.
 719 0000 80B4     		push	{r7}
 720 0002 85B0     		sub	sp, sp, #20
 721 0004 00AF     		add	r7, sp, #0
 722 0006 7860     		str	r0, [r7, #4]
 723 0008 0023     		movs	r3, #0
 724 000a FB73     		strb	r3, [r7, #15]
 725 000c 7B68     		ldr	r3, [r7, #4]
 726 000e 0122     		movs	r2, #1
 727 0010 1A71     		strb	r2, [r3, #4]
 728 0012 7B68     		ldr	r3, [r7, #4]
 729 0014 0022     		movs	r2, #0
 730 0016 5A71     		strb	r2, [r3, #5]
 731 0018 7B68     		ldr	r3, [r7, #4]
 732 001a 0222     		movs	r2, #2
 733 001c 9A71     		strb	r2, [r3, #6]
 734 001e 7B68     		ldr	r3, [r7, #4]
 735 0020 41F2D722 		movw	r2, #4823
 736 0024 1A60     		str	r2, [r3]
 737 0026 97F90F30 		ldrsb	r3, [r7, #15]
 738 002a 1846     		mov	r0, r3
 739 002c 1437     		adds	r7, r7, #20
 740 002e BD46     		mov	sp, r7
 741              		@ sp needed
ARM GAS  /var/folders/d2/nstgp4h54kz7g1l847x_b8wc0000gn/T//cc7cS1Ev.s 			page 14


 742 0030 5DF8047B 		ldr	r7, [sp], #4
 743 0034 7047     		bx	lr
 744              		.size	VL53L0X_GetVersion, .-VL53L0X_GetVersion
 745              		.section	.text.VL53L0X_GetPalSpecVersion,"ax",%progbits
 746              		.align	1
 747              		.global	VL53L0X_GetPalSpecVersion
 748              		.syntax unified
 749              		.thumb
 750              		.thumb_func
 751              		.fpu fpv4-sp-d16
 752              		.type	VL53L0X_GetPalSpecVersion, %function
 753              	VL53L0X_GetPalSpecVersion:
 754              		@ args = 0, pretend = 0, frame = 16
 755              		@ frame_needed = 1, uses_anonymous_args = 0
 756              		@ link register save eliminated.
 757 0000 80B4     		push	{r7}
 758 0002 85B0     		sub	sp, sp, #20
 759 0004 00AF     		add	r7, sp, #0
 760 0006 7860     		str	r0, [r7, #4]
 761 0008 0023     		movs	r3, #0
 762 000a FB73     		strb	r3, [r7, #15]
 763 000c 7B68     		ldr	r3, [r7, #4]
 764 000e 0122     		movs	r2, #1
 765 0010 1A71     		strb	r2, [r3, #4]
 766 0012 7B68     		ldr	r3, [r7, #4]
 767 0014 0222     		movs	r2, #2
 768 0016 5A71     		strb	r2, [r3, #5]
 769 0018 7B68     		ldr	r3, [r7, #4]
 770 001a 0722     		movs	r2, #7
 771 001c 9A71     		strb	r2, [r3, #6]
 772 001e 7B68     		ldr	r3, [r7, #4]
 773 0020 4FF4B462 		mov	r2, #1440
 774 0024 1A60     		str	r2, [r3]
 775 0026 97F90F30 		ldrsb	r3, [r7, #15]
 776 002a 1846     		mov	r0, r3
 777 002c 1437     		adds	r7, r7, #20
 778 002e BD46     		mov	sp, r7
 779              		@ sp needed
 780 0030 5DF8047B 		ldr	r7, [sp], #4
 781 0034 7047     		bx	lr
 782              		.size	VL53L0X_GetPalSpecVersion, .-VL53L0X_GetPalSpecVersion
 783              		.section	.text.VL53L0X_GetProductRevision,"ax",%progbits
 784              		.align	1
 785              		.global	VL53L0X_GetProductRevision
 786              		.syntax unified
 787              		.thumb
 788              		.thumb_func
 789              		.fpu fpv4-sp-d16
 790              		.type	VL53L0X_GetProductRevision, %function
 791              	VL53L0X_GetProductRevision:
 792              		@ args = 0, pretend = 0, frame = 24
 793              		@ frame_needed = 1, uses_anonymous_args = 0
 794 0000 80B5     		push	{r7, lr}
 795 0002 86B0     		sub	sp, sp, #24
 796 0004 00AF     		add	r7, sp, #0
 797 0006 F860     		str	r0, [r7, #12]
 798 0008 B960     		str	r1, [r7, #8]
ARM GAS  /var/folders/d2/nstgp4h54kz7g1l847x_b8wc0000gn/T//cc7cS1Ev.s 			page 15


 799 000a 7A60     		str	r2, [r7, #4]
 800 000c 0023     		movs	r3, #0
 801 000e FB75     		strb	r3, [r7, #23]
 802 0010 07F11603 		add	r3, r7, #22
 803 0014 1A46     		mov	r2, r3
 804 0016 C221     		movs	r1, #194
 805 0018 F868     		ldr	r0, [r7, #12]
 806 001a FFF7FEFF 		bl	VL53L0X_RdByte
 807 001e 0346     		mov	r3, r0
 808 0020 FB75     		strb	r3, [r7, #23]
 809 0022 BB68     		ldr	r3, [r7, #8]
 810 0024 0122     		movs	r2, #1
 811 0026 1A70     		strb	r2, [r3]
 812 0028 BB7D     		ldrb	r3, [r7, #22]	@ zero_extendqisi2
 813 002a 1B09     		lsrs	r3, r3, #4
 814 002c DAB2     		uxtb	r2, r3
 815 002e 7B68     		ldr	r3, [r7, #4]
 816 0030 1A70     		strb	r2, [r3]
 817 0032 97F91730 		ldrsb	r3, [r7, #23]
 818 0036 1846     		mov	r0, r3
 819 0038 1837     		adds	r7, r7, #24
 820 003a BD46     		mov	sp, r7
 821              		@ sp needed
 822 003c 80BD     		pop	{r7, pc}
 823              		.size	VL53L0X_GetProductRevision, .-VL53L0X_GetProductRevision
 824              		.section	.text.VL53L0X_GetDeviceInfo,"ax",%progbits
 825              		.align	1
 826              		.global	VL53L0X_GetDeviceInfo
 827              		.syntax unified
 828              		.thumb
 829              		.thumb_func
 830              		.fpu fpv4-sp-d16
 831              		.type	VL53L0X_GetDeviceInfo, %function
 832              	VL53L0X_GetDeviceInfo:
 833              		@ args = 0, pretend = 0, frame = 16
 834              		@ frame_needed = 1, uses_anonymous_args = 0
 835 0000 80B5     		push	{r7, lr}
 836 0002 84B0     		sub	sp, sp, #16
 837 0004 00AF     		add	r7, sp, #0
 838 0006 7860     		str	r0, [r7, #4]
 839 0008 3960     		str	r1, [r7]
 840 000a 0023     		movs	r3, #0
 841 000c FB73     		strb	r3, [r7, #15]
 842 000e 3968     		ldr	r1, [r7]
 843 0010 7868     		ldr	r0, [r7, #4]
 844 0012 FFF7FEFF 		bl	VL53L0X_get_device_info
 845 0016 0346     		mov	r3, r0
 846 0018 FB73     		strb	r3, [r7, #15]
 847 001a 97F90F30 		ldrsb	r3, [r7, #15]
 848 001e 1846     		mov	r0, r3
 849 0020 1037     		adds	r7, r7, #16
 850 0022 BD46     		mov	sp, r7
 851              		@ sp needed
 852 0024 80BD     		pop	{r7, pc}
 853              		.size	VL53L0X_GetDeviceInfo, .-VL53L0X_GetDeviceInfo
 854              		.section	.text.VL53L0X_GetDeviceErrorStatus,"ax",%progbits
 855              		.align	1
ARM GAS  /var/folders/d2/nstgp4h54kz7g1l847x_b8wc0000gn/T//cc7cS1Ev.s 			page 16


 856              		.global	VL53L0X_GetDeviceErrorStatus
 857              		.syntax unified
 858              		.thumb
 859              		.thumb_func
 860              		.fpu fpv4-sp-d16
 861              		.type	VL53L0X_GetDeviceErrorStatus, %function
 862              	VL53L0X_GetDeviceErrorStatus:
 863              		@ args = 0, pretend = 0, frame = 16
 864              		@ frame_needed = 1, uses_anonymous_args = 0
 865 0000 80B5     		push	{r7, lr}
 866 0002 84B0     		sub	sp, sp, #16
 867 0004 00AF     		add	r7, sp, #0
 868 0006 7860     		str	r0, [r7, #4]
 869 0008 3960     		str	r1, [r7]
 870 000a 0023     		movs	r3, #0
 871 000c FB73     		strb	r3, [r7, #15]
 872 000e 07F10E03 		add	r3, r7, #14
 873 0012 1A46     		mov	r2, r3
 874 0014 1421     		movs	r1, #20
 875 0016 7868     		ldr	r0, [r7, #4]
 876 0018 FFF7FEFF 		bl	VL53L0X_RdByte
 877 001c 0346     		mov	r3, r0
 878 001e FB73     		strb	r3, [r7, #15]
 879 0020 BB7B     		ldrb	r3, [r7, #14]	@ zero_extendqisi2
 880 0022 DB10     		asrs	r3, r3, #3
 881 0024 DBB2     		uxtb	r3, r3
 882 0026 03F00F03 		and	r3, r3, #15
 883 002a DAB2     		uxtb	r2, r3
 884 002c 3B68     		ldr	r3, [r7]
 885 002e 1A70     		strb	r2, [r3]
 886 0030 97F90F30 		ldrsb	r3, [r7, #15]
 887 0034 1846     		mov	r0, r3
 888 0036 1037     		adds	r7, r7, #16
 889 0038 BD46     		mov	sp, r7
 890              		@ sp needed
 891 003a 80BD     		pop	{r7, pc}
 892              		.size	VL53L0X_GetDeviceErrorStatus, .-VL53L0X_GetDeviceErrorStatus
 893              		.section	.text.VL53L0X_GetDeviceErrorString,"ax",%progbits
 894              		.align	1
 895              		.global	VL53L0X_GetDeviceErrorString
 896              		.syntax unified
 897              		.thumb
 898              		.thumb_func
 899              		.fpu fpv4-sp-d16
 900              		.type	VL53L0X_GetDeviceErrorString, %function
 901              	VL53L0X_GetDeviceErrorString:
 902              		@ args = 0, pretend = 0, frame = 16
 903              		@ frame_needed = 1, uses_anonymous_args = 0
 904 0000 80B5     		push	{r7, lr}
 905 0002 84B0     		sub	sp, sp, #16
 906 0004 00AF     		add	r7, sp, #0
 907 0006 0346     		mov	r3, r0
 908 0008 3960     		str	r1, [r7]
 909 000a FB71     		strb	r3, [r7, #7]
 910 000c 0023     		movs	r3, #0
 911 000e FB73     		strb	r3, [r7, #15]
 912 0010 FB79     		ldrb	r3, [r7, #7]	@ zero_extendqisi2
ARM GAS  /var/folders/d2/nstgp4h54kz7g1l847x_b8wc0000gn/T//cc7cS1Ev.s 			page 17


 913 0012 3968     		ldr	r1, [r7]
 914 0014 1846     		mov	r0, r3
 915 0016 FFF7FEFF 		bl	VL53L0X_get_device_error_string
 916 001a 0346     		mov	r3, r0
 917 001c FB73     		strb	r3, [r7, #15]
 918 001e 97F90F30 		ldrsb	r3, [r7, #15]
 919 0022 1846     		mov	r0, r3
 920 0024 1037     		adds	r7, r7, #16
 921 0026 BD46     		mov	sp, r7
 922              		@ sp needed
 923 0028 80BD     		pop	{r7, pc}
 924              		.size	VL53L0X_GetDeviceErrorString, .-VL53L0X_GetDeviceErrorString
 925              		.section	.text.VL53L0X_GetRangeStatusString,"ax",%progbits
 926              		.align	1
 927              		.global	VL53L0X_GetRangeStatusString
 928              		.syntax unified
 929              		.thumb
 930              		.thumb_func
 931              		.fpu fpv4-sp-d16
 932              		.type	VL53L0X_GetRangeStatusString, %function
 933              	VL53L0X_GetRangeStatusString:
 934              		@ args = 0, pretend = 0, frame = 16
 935              		@ frame_needed = 1, uses_anonymous_args = 0
 936 0000 80B5     		push	{r7, lr}
 937 0002 84B0     		sub	sp, sp, #16
 938 0004 00AF     		add	r7, sp, #0
 939 0006 0346     		mov	r3, r0
 940 0008 3960     		str	r1, [r7]
 941 000a FB71     		strb	r3, [r7, #7]
 942 000c 0023     		movs	r3, #0
 943 000e FB73     		strb	r3, [r7, #15]
 944 0010 FB79     		ldrb	r3, [r7, #7]	@ zero_extendqisi2
 945 0012 3968     		ldr	r1, [r7]
 946 0014 1846     		mov	r0, r3
 947 0016 FFF7FEFF 		bl	VL53L0X_get_range_status_string
 948 001a 0346     		mov	r3, r0
 949 001c FB73     		strb	r3, [r7, #15]
 950 001e 97F90F30 		ldrsb	r3, [r7, #15]
 951 0022 1846     		mov	r0, r3
 952 0024 1037     		adds	r7, r7, #16
 953 0026 BD46     		mov	sp, r7
 954              		@ sp needed
 955 0028 80BD     		pop	{r7, pc}
 956              		.size	VL53L0X_GetRangeStatusString, .-VL53L0X_GetRangeStatusString
 957              		.section	.text.VL53L0X_GetPalErrorString,"ax",%progbits
 958              		.align	1
 959              		.global	VL53L0X_GetPalErrorString
 960              		.syntax unified
 961              		.thumb
 962              		.thumb_func
 963              		.fpu fpv4-sp-d16
 964              		.type	VL53L0X_GetPalErrorString, %function
 965              	VL53L0X_GetPalErrorString:
 966              		@ args = 0, pretend = 0, frame = 16
 967              		@ frame_needed = 1, uses_anonymous_args = 0
 968 0000 80B5     		push	{r7, lr}
 969 0002 84B0     		sub	sp, sp, #16
ARM GAS  /var/folders/d2/nstgp4h54kz7g1l847x_b8wc0000gn/T//cc7cS1Ev.s 			page 18


 970 0004 00AF     		add	r7, sp, #0
 971 0006 0346     		mov	r3, r0
 972 0008 3960     		str	r1, [r7]
 973 000a FB71     		strb	r3, [r7, #7]
 974 000c 0023     		movs	r3, #0
 975 000e FB73     		strb	r3, [r7, #15]
 976 0010 97F90730 		ldrsb	r3, [r7, #7]
 977 0014 3968     		ldr	r1, [r7]
 978 0016 1846     		mov	r0, r3
 979 0018 FFF7FEFF 		bl	VL53L0X_get_pal_error_string
 980 001c 0346     		mov	r3, r0
 981 001e FB73     		strb	r3, [r7, #15]
 982 0020 97F90F30 		ldrsb	r3, [r7, #15]
 983 0024 1846     		mov	r0, r3
 984 0026 1037     		adds	r7, r7, #16
 985 0028 BD46     		mov	sp, r7
 986              		@ sp needed
 987 002a 80BD     		pop	{r7, pc}
 988              		.size	VL53L0X_GetPalErrorString, .-VL53L0X_GetPalErrorString
 989              		.section	.text.VL53L0X_GetPalStateString,"ax",%progbits
 990              		.align	1
 991              		.global	VL53L0X_GetPalStateString
 992              		.syntax unified
 993              		.thumb
 994              		.thumb_func
 995              		.fpu fpv4-sp-d16
 996              		.type	VL53L0X_GetPalStateString, %function
 997              	VL53L0X_GetPalStateString:
 998              		@ args = 0, pretend = 0, frame = 16
 999              		@ frame_needed = 1, uses_anonymous_args = 0
 1000 0000 80B5     		push	{r7, lr}
 1001 0002 84B0     		sub	sp, sp, #16
 1002 0004 00AF     		add	r7, sp, #0
 1003 0006 0346     		mov	r3, r0
 1004 0008 3960     		str	r1, [r7]
 1005 000a FB71     		strb	r3, [r7, #7]
 1006 000c 0023     		movs	r3, #0
 1007 000e FB73     		strb	r3, [r7, #15]
 1008 0010 FB79     		ldrb	r3, [r7, #7]	@ zero_extendqisi2
 1009 0012 3968     		ldr	r1, [r7]
 1010 0014 1846     		mov	r0, r3
 1011 0016 FFF7FEFF 		bl	VL53L0X_get_pal_state_string
 1012 001a 0346     		mov	r3, r0
 1013 001c FB73     		strb	r3, [r7, #15]
 1014 001e 97F90F30 		ldrsb	r3, [r7, #15]
 1015 0022 1846     		mov	r0, r3
 1016 0024 1037     		adds	r7, r7, #16
 1017 0026 BD46     		mov	sp, r7
 1018              		@ sp needed
 1019 0028 80BD     		pop	{r7, pc}
 1020              		.size	VL53L0X_GetPalStateString, .-VL53L0X_GetPalStateString
 1021              		.section	.text.VL53L0X_GetPalState,"ax",%progbits
 1022              		.align	1
 1023              		.global	VL53L0X_GetPalState
 1024              		.syntax unified
 1025              		.thumb
 1026              		.thumb_func
ARM GAS  /var/folders/d2/nstgp4h54kz7g1l847x_b8wc0000gn/T//cc7cS1Ev.s 			page 19


 1027              		.fpu fpv4-sp-d16
 1028              		.type	VL53L0X_GetPalState, %function
 1029              	VL53L0X_GetPalState:
 1030              		@ args = 0, pretend = 0, frame = 16
 1031              		@ frame_needed = 1, uses_anonymous_args = 0
 1032              		@ link register save eliminated.
 1033 0000 80B4     		push	{r7}
 1034 0002 85B0     		sub	sp, sp, #20
 1035 0004 00AF     		add	r7, sp, #0
 1036 0006 7860     		str	r0, [r7, #4]
 1037 0008 3960     		str	r1, [r7]
 1038 000a 0023     		movs	r3, #0
 1039 000c FB73     		strb	r3, [r7, #15]
 1040 000e 7B68     		ldr	r3, [r7, #4]
 1041 0010 93F83221 		ldrb	r2, [r3, #306]	@ zero_extendqisi2
 1042 0014 3B68     		ldr	r3, [r7]
 1043 0016 1A70     		strb	r2, [r3]
 1044 0018 97F90F30 		ldrsb	r3, [r7, #15]
 1045 001c 1846     		mov	r0, r3
 1046 001e 1437     		adds	r7, r7, #20
 1047 0020 BD46     		mov	sp, r7
 1048              		@ sp needed
 1049 0022 5DF8047B 		ldr	r7, [sp], #4
 1050 0026 7047     		bx	lr
 1051              		.size	VL53L0X_GetPalState, .-VL53L0X_GetPalState
 1052              		.section	.text.VL53L0X_SetPowerMode,"ax",%progbits
 1053              		.align	1
 1054              		.global	VL53L0X_SetPowerMode
 1055              		.syntax unified
 1056              		.thumb
 1057              		.thumb_func
 1058              		.fpu fpv4-sp-d16
 1059              		.type	VL53L0X_SetPowerMode, %function
 1060              	VL53L0X_SetPowerMode:
 1061              		@ args = 0, pretend = 0, frame = 16
 1062              		@ frame_needed = 1, uses_anonymous_args = 0
 1063 0000 80B5     		push	{r7, lr}
 1064 0002 84B0     		sub	sp, sp, #16
 1065 0004 00AF     		add	r7, sp, #0
 1066 0006 7860     		str	r0, [r7, #4]
 1067 0008 0B46     		mov	r3, r1
 1068 000a FB70     		strb	r3, [r7, #3]
 1069 000c 0023     		movs	r3, #0
 1070 000e FB73     		strb	r3, [r7, #15]
 1071 0010 FB78     		ldrb	r3, [r7, #3]	@ zero_extendqisi2
 1072 0012 002B     		cmp	r3, #0
 1073 0014 05D0     		beq	.L22
 1074 0016 FB78     		ldrb	r3, [r7, #3]	@ zero_extendqisi2
 1075 0018 022B     		cmp	r3, #2
 1076 001a 02D0     		beq	.L22
 1077 001c F823     		movs	r3, #248
 1078 001e FB73     		strb	r3, [r7, #15]
 1079 0020 2EE0     		b	.L23
 1080              	.L22:
 1081 0022 FB78     		ldrb	r3, [r7, #3]	@ zero_extendqisi2
 1082 0024 002B     		cmp	r3, #0
 1083 0026 13D1     		bne	.L24
ARM GAS  /var/folders/d2/nstgp4h54kz7g1l847x_b8wc0000gn/T//cc7cS1Ev.s 			page 20


 1084 0028 0022     		movs	r2, #0
 1085 002a 8021     		movs	r1, #128
 1086 002c 7868     		ldr	r0, [r7, #4]
 1087 002e FFF7FEFF 		bl	VL53L0X_WrByte
 1088 0032 0346     		mov	r3, r0
 1089 0034 FB73     		strb	r3, [r7, #15]
 1090 0036 97F90F30 		ldrsb	r3, [r7, #15]
 1091 003a 002B     		cmp	r3, #0
 1092 003c 20D1     		bne	.L23
 1093 003e 7B68     		ldr	r3, [r7, #4]
 1094 0040 0222     		movs	r2, #2
 1095 0042 83F83221 		strb	r2, [r3, #306]
 1096 0046 7B68     		ldr	r3, [r7, #4]
 1097 0048 0022     		movs	r2, #0
 1098 004a 83F83321 		strb	r2, [r3, #307]
 1099 004e 17E0     		b	.L23
 1100              	.L24:
 1101 0050 0022     		movs	r2, #0
 1102 0052 8021     		movs	r1, #128
 1103 0054 7868     		ldr	r0, [r7, #4]
 1104 0056 FFF7FEFF 		bl	VL53L0X_WrByte
 1105 005a 0346     		mov	r3, r0
 1106 005c FB73     		strb	r3, [r7, #15]
 1107 005e 97F90F30 		ldrsb	r3, [r7, #15]
 1108 0062 002B     		cmp	r3, #0
 1109 0064 04D1     		bne	.L26
 1110 0066 7868     		ldr	r0, [r7, #4]
 1111 0068 FFF7FEFF 		bl	VL53L0X_StaticInit
 1112 006c 0346     		mov	r3, r0
 1113 006e FB73     		strb	r3, [r7, #15]
 1114              	.L26:
 1115 0070 97F90F30 		ldrsb	r3, [r7, #15]
 1116 0074 002B     		cmp	r3, #0
 1117 0076 03D1     		bne	.L23
 1118 0078 7B68     		ldr	r3, [r7, #4]
 1119 007a 0222     		movs	r2, #2
 1120 007c 83F83321 		strb	r2, [r3, #307]
 1121              	.L23:
 1122 0080 97F90F30 		ldrsb	r3, [r7, #15]
 1123 0084 1846     		mov	r0, r3
 1124 0086 1037     		adds	r7, r7, #16
 1125 0088 BD46     		mov	sp, r7
 1126              		@ sp needed
 1127 008a 80BD     		pop	{r7, pc}
 1128              		.size	VL53L0X_SetPowerMode, .-VL53L0X_SetPowerMode
 1129              		.section	.text.VL53L0X_GetPowerMode,"ax",%progbits
 1130              		.align	1
 1131              		.global	VL53L0X_GetPowerMode
 1132              		.syntax unified
 1133              		.thumb
 1134              		.thumb_func
 1135              		.fpu fpv4-sp-d16
 1136              		.type	VL53L0X_GetPowerMode, %function
 1137              	VL53L0X_GetPowerMode:
 1138              		@ args = 0, pretend = 0, frame = 16
 1139              		@ frame_needed = 1, uses_anonymous_args = 0
 1140 0000 80B5     		push	{r7, lr}
ARM GAS  /var/folders/d2/nstgp4h54kz7g1l847x_b8wc0000gn/T//cc7cS1Ev.s 			page 21


 1141 0002 84B0     		sub	sp, sp, #16
 1142 0004 00AF     		add	r7, sp, #0
 1143 0006 7860     		str	r0, [r7, #4]
 1144 0008 3960     		str	r1, [r7]
 1145 000a 0023     		movs	r3, #0
 1146 000c FB73     		strb	r3, [r7, #15]
 1147 000e 07F10E03 		add	r3, r7, #14
 1148 0012 1A46     		mov	r2, r3
 1149 0014 8021     		movs	r1, #128
 1150 0016 7868     		ldr	r0, [r7, #4]
 1151 0018 FFF7FEFF 		bl	VL53L0X_RdByte
 1152 001c 0346     		mov	r3, r0
 1153 001e FB73     		strb	r3, [r7, #15]
 1154 0020 97F90F30 		ldrsb	r3, [r7, #15]
 1155 0024 002B     		cmp	r3, #0
 1156 0026 0BD1     		bne	.L29
 1157 0028 BB7B     		ldrb	r3, [r7, #14]	@ zero_extendqisi2
 1158 002a 012B     		cmp	r3, #1
 1159 002c 04D1     		bne	.L30
 1160 002e 7B68     		ldr	r3, [r7, #4]
 1161 0030 0222     		movs	r2, #2
 1162 0032 83F83321 		strb	r2, [r3, #307]
 1163 0036 03E0     		b	.L29
 1164              	.L30:
 1165 0038 7B68     		ldr	r3, [r7, #4]
 1166 003a 0022     		movs	r2, #0
 1167 003c 83F83321 		strb	r2, [r3, #307]
 1168              	.L29:
 1169 0040 97F90F30 		ldrsb	r3, [r7, #15]
 1170 0044 1846     		mov	r0, r3
 1171 0046 1037     		adds	r7, r7, #16
 1172 0048 BD46     		mov	sp, r7
 1173              		@ sp needed
 1174 004a 80BD     		pop	{r7, pc}
 1175              		.size	VL53L0X_GetPowerMode, .-VL53L0X_GetPowerMode
 1176              		.section	.text.VL53L0X_SetOffsetCalibrationDataMicroMeter,"ax",%progbits
 1177              		.align	1
 1178              		.global	VL53L0X_SetOffsetCalibrationDataMicroMeter
 1179              		.syntax unified
 1180              		.thumb
 1181              		.thumb_func
 1182              		.fpu fpv4-sp-d16
 1183              		.type	VL53L0X_SetOffsetCalibrationDataMicroMeter, %function
 1184              	VL53L0X_SetOffsetCalibrationDataMicroMeter:
 1185              		@ args = 0, pretend = 0, frame = 16
 1186              		@ frame_needed = 1, uses_anonymous_args = 0
 1187 0000 80B5     		push	{r7, lr}
 1188 0002 84B0     		sub	sp, sp, #16
 1189 0004 00AF     		add	r7, sp, #0
 1190 0006 7860     		str	r0, [r7, #4]
 1191 0008 3960     		str	r1, [r7]
 1192 000a 0023     		movs	r3, #0
 1193 000c FB73     		strb	r3, [r7, #15]
 1194 000e 3968     		ldr	r1, [r7]
 1195 0010 7868     		ldr	r0, [r7, #4]
 1196 0012 FFF7FEFF 		bl	VL53L0X_set_offset_calibration_data_micro_meter
 1197 0016 0346     		mov	r3, r0
ARM GAS  /var/folders/d2/nstgp4h54kz7g1l847x_b8wc0000gn/T//cc7cS1Ev.s 			page 22


 1198 0018 FB73     		strb	r3, [r7, #15]
 1199 001a 97F90F30 		ldrsb	r3, [r7, #15]
 1200 001e 1846     		mov	r0, r3
 1201 0020 1037     		adds	r7, r7, #16
 1202 0022 BD46     		mov	sp, r7
 1203              		@ sp needed
 1204 0024 80BD     		pop	{r7, pc}
 1205              		.size	VL53L0X_SetOffsetCalibrationDataMicroMeter, .-VL53L0X_SetOffsetCalibrationDataMicroMeter
 1206              		.section	.text.VL53L0X_GetOffsetCalibrationDataMicroMeter,"ax",%progbits
 1207              		.align	1
 1208              		.global	VL53L0X_GetOffsetCalibrationDataMicroMeter
 1209              		.syntax unified
 1210              		.thumb
 1211              		.thumb_func
 1212              		.fpu fpv4-sp-d16
 1213              		.type	VL53L0X_GetOffsetCalibrationDataMicroMeter, %function
 1214              	VL53L0X_GetOffsetCalibrationDataMicroMeter:
 1215              		@ args = 0, pretend = 0, frame = 16
 1216              		@ frame_needed = 1, uses_anonymous_args = 0
 1217 0000 80B5     		push	{r7, lr}
 1218 0002 84B0     		sub	sp, sp, #16
 1219 0004 00AF     		add	r7, sp, #0
 1220 0006 7860     		str	r0, [r7, #4]
 1221 0008 3960     		str	r1, [r7]
 1222 000a 0023     		movs	r3, #0
 1223 000c FB73     		strb	r3, [r7, #15]
 1224 000e 3968     		ldr	r1, [r7]
 1225 0010 7868     		ldr	r0, [r7, #4]
 1226 0012 FFF7FEFF 		bl	VL53L0X_get_offset_calibration_data_micro_meter
 1227 0016 0346     		mov	r3, r0
 1228 0018 FB73     		strb	r3, [r7, #15]
 1229 001a 97F90F30 		ldrsb	r3, [r7, #15]
 1230 001e 1846     		mov	r0, r3
 1231 0020 1037     		adds	r7, r7, #16
 1232 0022 BD46     		mov	sp, r7
 1233              		@ sp needed
 1234 0024 80BD     		pop	{r7, pc}
 1235              		.size	VL53L0X_GetOffsetCalibrationDataMicroMeter, .-VL53L0X_GetOffsetCalibrationDataMicroMeter
 1236              		.section	.text.VL53L0X_SetLinearityCorrectiveGain,"ax",%progbits
 1237              		.align	1
 1238              		.global	VL53L0X_SetLinearityCorrectiveGain
 1239              		.syntax unified
 1240              		.thumb
 1241              		.thumb_func
 1242              		.fpu fpv4-sp-d16
 1243              		.type	VL53L0X_SetLinearityCorrectiveGain, %function
 1244              	VL53L0X_SetLinearityCorrectiveGain:
 1245              		@ args = 0, pretend = 0, frame = 16
 1246              		@ frame_needed = 1, uses_anonymous_args = 0
 1247 0000 80B5     		push	{r7, lr}
 1248 0002 84B0     		sub	sp, sp, #16
 1249 0004 00AF     		add	r7, sp, #0
 1250 0006 7860     		str	r0, [r7, #4]
 1251 0008 0B46     		mov	r3, r1
 1252 000a 7B80     		strh	r3, [r7, #2]	@ movhi
 1253 000c 0023     		movs	r3, #0
 1254 000e FB73     		strb	r3, [r7, #15]
ARM GAS  /var/folders/d2/nstgp4h54kz7g1l847x_b8wc0000gn/T//cc7cS1Ev.s 			page 23


 1255 0010 B7F90230 		ldrsh	r3, [r7, #2]
 1256 0014 002B     		cmp	r3, #0
 1257 0016 04DB     		blt	.L37
 1258 0018 B7F90230 		ldrsh	r3, [r7, #2]
 1259 001c B3F57A7F 		cmp	r3, #1000
 1260 0020 02DD     		ble	.L38
 1261              	.L37:
 1262 0022 FC23     		movs	r3, #252
 1263 0024 FB73     		strb	r3, [r7, #15]
 1264 0026 0FE0     		b	.L39
 1265              	.L38:
 1266 0028 7A88     		ldrh	r2, [r7, #2]
 1267 002a 7B68     		ldr	r3, [r7, #4]
 1268 002c A3F85221 		strh	r2, [r3, #338]	@ movhi
 1269 0030 B7F90230 		ldrsh	r3, [r7, #2]
 1270 0034 B3F57A7F 		cmp	r3, #1000
 1271 0038 06D0     		beq	.L39
 1272 003a 0022     		movs	r2, #0
 1273 003c 2021     		movs	r1, #32
 1274 003e 7868     		ldr	r0, [r7, #4]
 1275 0040 FFF7FEFF 		bl	VL53L0X_WrWord
 1276 0044 0346     		mov	r3, r0
 1277 0046 FB73     		strb	r3, [r7, #15]
 1278              	.L39:
 1279 0048 97F90F30 		ldrsb	r3, [r7, #15]
 1280 004c 1846     		mov	r0, r3
 1281 004e 1037     		adds	r7, r7, #16
 1282 0050 BD46     		mov	sp, r7
 1283              		@ sp needed
 1284 0052 80BD     		pop	{r7, pc}
 1285              		.size	VL53L0X_SetLinearityCorrectiveGain, .-VL53L0X_SetLinearityCorrectiveGain
 1286              		.section	.text.VL53L0X_GetLinearityCorrectiveGain,"ax",%progbits
 1287              		.align	1
 1288              		.global	VL53L0X_GetLinearityCorrectiveGain
 1289              		.syntax unified
 1290              		.thumb
 1291              		.thumb_func
 1292              		.fpu fpv4-sp-d16
 1293              		.type	VL53L0X_GetLinearityCorrectiveGain, %function
 1294              	VL53L0X_GetLinearityCorrectiveGain:
 1295              		@ args = 0, pretend = 0, frame = 16
 1296              		@ frame_needed = 1, uses_anonymous_args = 0
 1297              		@ link register save eliminated.
 1298 0000 80B4     		push	{r7}
 1299 0002 85B0     		sub	sp, sp, #20
 1300 0004 00AF     		add	r7, sp, #0
 1301 0006 7860     		str	r0, [r7, #4]
 1302 0008 3960     		str	r1, [r7]
 1303 000a 0023     		movs	r3, #0
 1304 000c FB73     		strb	r3, [r7, #15]
 1305 000e 7B68     		ldr	r3, [r7, #4]
 1306 0010 B3F85221 		ldrh	r2, [r3, #338]
 1307 0014 3B68     		ldr	r3, [r7]
 1308 0016 1A80     		strh	r2, [r3]	@ movhi
 1309 0018 97F90F30 		ldrsb	r3, [r7, #15]
 1310 001c 1846     		mov	r0, r3
 1311 001e 1437     		adds	r7, r7, #20
ARM GAS  /var/folders/d2/nstgp4h54kz7g1l847x_b8wc0000gn/T//cc7cS1Ev.s 			page 24


 1312 0020 BD46     		mov	sp, r7
 1313              		@ sp needed
 1314 0022 5DF8047B 		ldr	r7, [sp], #4
 1315 0026 7047     		bx	lr
 1316              		.size	VL53L0X_GetLinearityCorrectiveGain, .-VL53L0X_GetLinearityCorrectiveGain
 1317              		.section	.text.VL53L0X_SetGroupParamHold,"ax",%progbits
 1318              		.align	1
 1319              		.global	VL53L0X_SetGroupParamHold
 1320              		.syntax unified
 1321              		.thumb
 1322              		.thumb_func
 1323              		.fpu fpv4-sp-d16
 1324              		.type	VL53L0X_SetGroupParamHold, %function
 1325              	VL53L0X_SetGroupParamHold:
 1326              		@ args = 0, pretend = 0, frame = 16
 1327              		@ frame_needed = 1, uses_anonymous_args = 0
 1328              		@ link register save eliminated.
 1329 0000 80B4     		push	{r7}
 1330 0002 85B0     		sub	sp, sp, #20
 1331 0004 00AF     		add	r7, sp, #0
 1332 0006 7860     		str	r0, [r7, #4]
 1333 0008 0B46     		mov	r3, r1
 1334 000a FB70     		strb	r3, [r7, #3]
 1335 000c 9D23     		movs	r3, #157
 1336 000e FB73     		strb	r3, [r7, #15]
 1337 0010 97F90F30 		ldrsb	r3, [r7, #15]
 1338 0014 1846     		mov	r0, r3
 1339 0016 1437     		adds	r7, r7, #20
 1340 0018 BD46     		mov	sp, r7
 1341              		@ sp needed
 1342 001a 5DF8047B 		ldr	r7, [sp], #4
 1343 001e 7047     		bx	lr
 1344              		.size	VL53L0X_SetGroupParamHold, .-VL53L0X_SetGroupParamHold
 1345              		.section	.text.VL53L0X_GetUpperLimitMilliMeter,"ax",%progbits
 1346              		.align	1
 1347              		.global	VL53L0X_GetUpperLimitMilliMeter
 1348              		.syntax unified
 1349              		.thumb
 1350              		.thumb_func
 1351              		.fpu fpv4-sp-d16
 1352              		.type	VL53L0X_GetUpperLimitMilliMeter, %function
 1353              	VL53L0X_GetUpperLimitMilliMeter:
 1354              		@ args = 0, pretend = 0, frame = 16
 1355              		@ frame_needed = 1, uses_anonymous_args = 0
 1356              		@ link register save eliminated.
 1357 0000 80B4     		push	{r7}
 1358 0002 85B0     		sub	sp, sp, #20
 1359 0004 00AF     		add	r7, sp, #0
 1360 0006 7860     		str	r0, [r7, #4]
 1361 0008 3960     		str	r1, [r7]
 1362 000a 9D23     		movs	r3, #157
 1363 000c FB73     		strb	r3, [r7, #15]
 1364 000e 97F90F30 		ldrsb	r3, [r7, #15]
 1365 0012 1846     		mov	r0, r3
 1366 0014 1437     		adds	r7, r7, #20
 1367 0016 BD46     		mov	sp, r7
 1368              		@ sp needed
ARM GAS  /var/folders/d2/nstgp4h54kz7g1l847x_b8wc0000gn/T//cc7cS1Ev.s 			page 25


 1369 0018 5DF8047B 		ldr	r7, [sp], #4
 1370 001c 7047     		bx	lr
 1371              		.size	VL53L0X_GetUpperLimitMilliMeter, .-VL53L0X_GetUpperLimitMilliMeter
 1372              		.section	.text.VL53L0X_GetTotalSignalRate,"ax",%progbits
 1373              		.align	1
 1374              		.global	VL53L0X_GetTotalSignalRate
 1375              		.syntax unified
 1376              		.thumb
 1377              		.thumb_func
 1378              		.fpu fpv4-sp-d16
 1379              		.type	VL53L0X_GetTotalSignalRate, %function
 1380              	VL53L0X_GetTotalSignalRate:
 1381              		@ args = 0, pretend = 0, frame = 40
 1382              		@ frame_needed = 1, uses_anonymous_args = 0
 1383 0000 B0B5     		push	{r4, r5, r7, lr}
 1384 0002 8AB0     		sub	sp, sp, #40
 1385 0004 00AF     		add	r7, sp, #0
 1386 0006 7860     		str	r0, [r7, #4]
 1387 0008 3960     		str	r1, [r7]
 1388 000a 0023     		movs	r3, #0
 1389 000c 87F82730 		strb	r3, [r7, #39]
 1390 0010 7B68     		ldr	r3, [r7, #4]
 1391 0012 07F10804 		add	r4, r7, #8
 1392 0016 03F15005 		add	r5, r3, #80
 1393 001a 0FCD     		ldmia	r5!, {r0, r1, r2, r3}
 1394 001c 0FC4     		stmia	r4!, {r0, r1, r2, r3}
 1395 001e 95E80700 		ldm	r5, {r0, r1, r2}
 1396 0022 84E80700 		stm	r4, {r0, r1, r2}
 1397 0026 07F10803 		add	r3, r7, #8
 1398 002a 3A68     		ldr	r2, [r7]
 1399 002c 1946     		mov	r1, r3
 1400 002e 7868     		ldr	r0, [r7, #4]
 1401 0030 FFF7FEFF 		bl	VL53L0X_get_total_signal_rate
 1402 0034 0346     		mov	r3, r0
 1403 0036 87F82730 		strb	r3, [r7, #39]
 1404 003a 97F92730 		ldrsb	r3, [r7, #39]
 1405 003e 1846     		mov	r0, r3
 1406 0040 2837     		adds	r7, r7, #40
 1407 0042 BD46     		mov	sp, r7
 1408              		@ sp needed
 1409 0044 B0BD     		pop	{r4, r5, r7, pc}
 1410              		.size	VL53L0X_GetTotalSignalRate, .-VL53L0X_GetTotalSignalRate
 1411              		.section	.text.VL53L0X_SetDeviceAddress,"ax",%progbits
 1412              		.align	1
 1413              		.global	VL53L0X_SetDeviceAddress
 1414              		.syntax unified
 1415              		.thumb
 1416              		.thumb_func
 1417              		.fpu fpv4-sp-d16
 1418              		.type	VL53L0X_SetDeviceAddress, %function
 1419              	VL53L0X_SetDeviceAddress:
 1420              		@ args = 0, pretend = 0, frame = 16
 1421              		@ frame_needed = 1, uses_anonymous_args = 0
 1422 0000 80B5     		push	{r7, lr}
 1423 0002 84B0     		sub	sp, sp, #16
 1424 0004 00AF     		add	r7, sp, #0
 1425 0006 7860     		str	r0, [r7, #4]
ARM GAS  /var/folders/d2/nstgp4h54kz7g1l847x_b8wc0000gn/T//cc7cS1Ev.s 			page 26


 1426 0008 0B46     		mov	r3, r1
 1427 000a FB70     		strb	r3, [r7, #3]
 1428 000c 0023     		movs	r3, #0
 1429 000e FB73     		strb	r3, [r7, #15]
 1430 0010 FB78     		ldrb	r3, [r7, #3]	@ zero_extendqisi2
 1431 0012 5B08     		lsrs	r3, r3, #1
 1432 0014 DBB2     		uxtb	r3, r3
 1433 0016 1A46     		mov	r2, r3
 1434 0018 8A21     		movs	r1, #138
 1435 001a 7868     		ldr	r0, [r7, #4]
 1436 001c FFF7FEFF 		bl	VL53L0X_WrByte
 1437 0020 0346     		mov	r3, r0
 1438 0022 FB73     		strb	r3, [r7, #15]
 1439 0024 97F90F30 		ldrsb	r3, [r7, #15]
 1440 0028 1846     		mov	r0, r3
 1441 002a 1037     		adds	r7, r7, #16
 1442 002c BD46     		mov	sp, r7
 1443              		@ sp needed
 1444 002e 80BD     		pop	{r7, pc}
 1445              		.size	VL53L0X_SetDeviceAddress, .-VL53L0X_SetDeviceAddress
 1446              		.section	.text.VL53L0X_DataInit,"ax",%progbits
 1447              		.align	1
 1448              		.global	VL53L0X_DataInit
 1449              		.syntax unified
 1450              		.thumb
 1451              		.thumb_func
 1452              		.fpu fpv4-sp-d16
 1453              		.type	VL53L0X_DataInit, %function
 1454              	VL53L0X_DataInit:
 1455              		@ args = 0, pretend = 0, frame = 88
 1456              		@ frame_needed = 1, uses_anonymous_args = 0
 1457 0000 B0B5     		push	{r4, r5, r7, lr}
 1458 0002 96B0     		sub	sp, sp, #88
 1459 0004 00AF     		add	r7, sp, #0
 1460 0006 7860     		str	r0, [r7, #4]
 1461 0008 0023     		movs	r3, #0
 1462 000a 87F85730 		strb	r3, [r7, #87]
 1463 000e 97F95730 		ldrsb	r3, [r7, #87]
 1464 0012 002B     		cmp	r3, #0
 1465 0014 07D1     		bne	.L52
 1466 0016 0022     		movs	r2, #0
 1467 0018 8821     		movs	r1, #136
 1468 001a 7868     		ldr	r0, [r7, #4]
 1469 001c FFF7FEFF 		bl	VL53L0X_WrByte
 1470 0020 0346     		mov	r3, r0
 1471 0022 87F85730 		strb	r3, [r7, #87]
 1472              	.L52:
 1473 0026 7B68     		ldr	r3, [r7, #4]
 1474 0028 0022     		movs	r2, #0
 1475 002a 83F8F020 		strb	r2, [r3, #240]
 1476 002e 7B68     		ldr	r3, [r7, #4]
 1477 0030 4FF47A72 		mov	r2, #1000
 1478 0034 A3F85221 		strh	r2, [r3, #338]	@ movhi
 1479 0038 7B68     		ldr	r3, [r7, #4]
 1480 003a 4FF4C872 		mov	r2, #400
 1481 003e A3F85421 		strh	r2, [r3, #340]	@ movhi
 1482 0042 7B68     		ldr	r3, [r7, #4]
ARM GAS  /var/folders/d2/nstgp4h54kz7g1l847x_b8wc0000gn/T//cc7cS1Ev.s 			page 27


 1483 0044 9E4A     		ldr	r2, .L71
 1484 0046 C3F85821 		str	r2, [r3, #344]
 1485 004a 7B68     		ldr	r3, [r7, #4]
 1486 004c 9D4A     		ldr	r2, .L71+4
 1487 004e C3F8D420 		str	r2, [r3, #212]
 1488 0052 7B68     		ldr	r3, [r7, #4]
 1489 0054 0022     		movs	r2, #0
 1490 0056 1A62     		str	r2, [r3, #32]
 1491 0058 07F11003 		add	r3, r7, #16
 1492 005c 1946     		mov	r1, r3
 1493 005e 7868     		ldr	r0, [r7, #4]
 1494 0060 FFF7FEFF 		bl	VL53L0X_GetDeviceParameters
 1495 0064 0346     		mov	r3, r0
 1496 0066 87F85730 		strb	r3, [r7, #87]
 1497 006a 97F95730 		ldrsb	r3, [r7, #87]
 1498 006e 002B     		cmp	r3, #0
 1499 0070 12D1     		bne	.L53
 1500 0072 0023     		movs	r3, #0
 1501 0074 3B74     		strb	r3, [r7, #16]
 1502 0076 0023     		movs	r3, #0
 1503 0078 7B74     		strb	r3, [r7, #17]
 1504 007a 7B68     		ldr	r3, [r7, #4]
 1505 007c 03F11004 		add	r4, r3, #16
 1506 0080 07F11005 		add	r5, r7, #16
 1507 0084 0FCD     		ldmia	r5!, {r0, r1, r2, r3}
 1508 0086 0FC4     		stmia	r4!, {r0, r1, r2, r3}
 1509 0088 0FCD     		ldmia	r5!, {r0, r1, r2, r3}
 1510 008a 0FC4     		stmia	r4!, {r0, r1, r2, r3}
 1511 008c 0FCD     		ldmia	r5!, {r0, r1, r2, r3}
 1512 008e 0FC4     		stmia	r4!, {r0, r1, r2, r3}
 1513 0090 95E80F00 		ldm	r5, {r0, r1, r2, r3}
 1514 0094 84E80F00 		stm	r4, {r0, r1, r2, r3}
 1515              	.L53:
 1516 0098 7B68     		ldr	r3, [r7, #4]
 1517 009a 6422     		movs	r2, #100
 1518 009c A3F83421 		strh	r2, [r3, #308]	@ movhi
 1519 00a0 7B68     		ldr	r3, [r7, #4]
 1520 00a2 4FF46172 		mov	r2, #900
 1521 00a6 A3F83621 		strh	r2, [r3, #310]	@ movhi
 1522 00aa 7B68     		ldr	r3, [r7, #4]
 1523 00ac 4FF4FA72 		mov	r2, #500
 1524 00b0 A3F83821 		strh	r2, [r3, #312]	@ movhi
 1525 00b4 7B68     		ldr	r3, [r7, #4]
 1526 00b6 4FF42062 		mov	r2, #2560
 1527 00ba A3F83C21 		strh	r2, [r3, #316]	@ movhi
 1528 00be 7B68     		ldr	r3, [r7, #4]
 1529 00c0 0122     		movs	r2, #1
 1530 00c2 83F85021 		strb	r2, [r3, #336]
 1531 00c6 0122     		movs	r2, #1
 1532 00c8 8021     		movs	r1, #128
 1533 00ca 7868     		ldr	r0, [r7, #4]
 1534 00cc FFF7FEFF 		bl	VL53L0X_WrByte
 1535 00d0 0346     		mov	r3, r0
 1536 00d2 1A46     		mov	r2, r3
 1537 00d4 97F85730 		ldrb	r3, [r7, #87]
 1538 00d8 1343     		orrs	r3, r3, r2
 1539 00da 87F85730 		strb	r3, [r7, #87]
ARM GAS  /var/folders/d2/nstgp4h54kz7g1l847x_b8wc0000gn/T//cc7cS1Ev.s 			page 28


 1540 00de 0122     		movs	r2, #1
 1541 00e0 FF21     		movs	r1, #255
 1542 00e2 7868     		ldr	r0, [r7, #4]
 1543 00e4 FFF7FEFF 		bl	VL53L0X_WrByte
 1544 00e8 0346     		mov	r3, r0
 1545 00ea 1A46     		mov	r2, r3
 1546 00ec 97F85730 		ldrb	r3, [r7, #87]
 1547 00f0 1343     		orrs	r3, r3, r2
 1548 00f2 87F85730 		strb	r3, [r7, #87]
 1549 00f6 0022     		movs	r2, #0
 1550 00f8 0021     		movs	r1, #0
 1551 00fa 7868     		ldr	r0, [r7, #4]
 1552 00fc FFF7FEFF 		bl	VL53L0X_WrByte
 1553 0100 0346     		mov	r3, r0
 1554 0102 1A46     		mov	r2, r3
 1555 0104 97F85730 		ldrb	r3, [r7, #87]
 1556 0108 1343     		orrs	r3, r3, r2
 1557 010a 87F85730 		strb	r3, [r7, #87]
 1558 010e 07F10F03 		add	r3, r7, #15
 1559 0112 1A46     		mov	r2, r3
 1560 0114 9121     		movs	r1, #145
 1561 0116 7868     		ldr	r0, [r7, #4]
 1562 0118 FFF7FEFF 		bl	VL53L0X_RdByte
 1563 011c 0346     		mov	r3, r0
 1564 011e 1A46     		mov	r2, r3
 1565 0120 97F85730 		ldrb	r3, [r7, #87]
 1566 0124 1343     		orrs	r3, r3, r2
 1567 0126 87F85730 		strb	r3, [r7, #87]
 1568 012a FA7B     		ldrb	r2, [r7, #15]	@ zero_extendqisi2
 1569 012c 7B68     		ldr	r3, [r7, #4]
 1570 012e 83F83A21 		strb	r2, [r3, #314]
 1571 0132 0122     		movs	r2, #1
 1572 0134 0021     		movs	r1, #0
 1573 0136 7868     		ldr	r0, [r7, #4]
 1574 0138 FFF7FEFF 		bl	VL53L0X_WrByte
 1575 013c 0346     		mov	r3, r0
 1576 013e 1A46     		mov	r2, r3
 1577 0140 97F85730 		ldrb	r3, [r7, #87]
 1578 0144 1343     		orrs	r3, r3, r2
 1579 0146 87F85730 		strb	r3, [r7, #87]
 1580 014a 0022     		movs	r2, #0
 1581 014c FF21     		movs	r1, #255
 1582 014e 7868     		ldr	r0, [r7, #4]
 1583 0150 FFF7FEFF 		bl	VL53L0X_WrByte
 1584 0154 0346     		mov	r3, r0
 1585 0156 1A46     		mov	r2, r3
 1586 0158 97F85730 		ldrb	r3, [r7, #87]
 1587 015c 1343     		orrs	r3, r3, r2
 1588 015e 87F85730 		strb	r3, [r7, #87]
 1589 0162 0022     		movs	r2, #0
 1590 0164 8021     		movs	r1, #128
 1591 0166 7868     		ldr	r0, [r7, #4]
 1592 0168 FFF7FEFF 		bl	VL53L0X_WrByte
 1593 016c 0346     		mov	r3, r0
 1594 016e 1A46     		mov	r2, r3
 1595 0170 97F85730 		ldrb	r3, [r7, #87]
 1596 0174 1343     		orrs	r3, r3, r2
ARM GAS  /var/folders/d2/nstgp4h54kz7g1l847x_b8wc0000gn/T//cc7cS1Ev.s 			page 29


 1597 0176 87F85730 		strb	r3, [r7, #87]
 1598 017a 0023     		movs	r3, #0
 1599 017c 3B65     		str	r3, [r7, #80]
 1600 017e 14E0     		b	.L54
 1601              	.L58:
 1602 0180 97F95730 		ldrsb	r3, [r7, #87]
 1603 0184 002B     		cmp	r3, #0
 1604 0186 14D1     		bne	.L70
 1605 0188 3B6D     		ldr	r3, [r7, #80]
 1606 018a 9BB2     		uxth	r3, r3
 1607 018c 0122     		movs	r2, #1
 1608 018e 1946     		mov	r1, r3
 1609 0190 7868     		ldr	r0, [r7, #4]
 1610 0192 FFF7FEFF 		bl	VL53L0X_SetLimitCheckEnable
 1611 0196 0346     		mov	r3, r0
 1612 0198 1A46     		mov	r2, r3
 1613 019a 97F85730 		ldrb	r3, [r7, #87]
 1614 019e 1343     		orrs	r3, r3, r2
 1615 01a0 87F85730 		strb	r3, [r7, #87]
 1616 01a4 3B6D     		ldr	r3, [r7, #80]
 1617 01a6 0133     		adds	r3, r3, #1
 1618 01a8 3B65     		str	r3, [r7, #80]
 1619              	.L54:
 1620 01aa 3B6D     		ldr	r3, [r7, #80]
 1621 01ac 052B     		cmp	r3, #5
 1622 01ae E7DD     		ble	.L58
 1623 01b0 00E0     		b	.L57
 1624              	.L70:
 1625 01b2 00BF     		nop
 1626              	.L57:
 1627 01b4 97F95730 		ldrsb	r3, [r7, #87]
 1628 01b8 002B     		cmp	r3, #0
 1629 01ba 07D1     		bne	.L59
 1630 01bc 0022     		movs	r2, #0
 1631 01be 0221     		movs	r1, #2
 1632 01c0 7868     		ldr	r0, [r7, #4]
 1633 01c2 FFF7FEFF 		bl	VL53L0X_SetLimitCheckEnable
 1634 01c6 0346     		mov	r3, r0
 1635 01c8 87F85730 		strb	r3, [r7, #87]
 1636              	.L59:
 1637 01cc 97F95730 		ldrsb	r3, [r7, #87]
 1638 01d0 002B     		cmp	r3, #0
 1639 01d2 07D1     		bne	.L60
 1640 01d4 0022     		movs	r2, #0
 1641 01d6 0321     		movs	r1, #3
 1642 01d8 7868     		ldr	r0, [r7, #4]
 1643 01da FFF7FEFF 		bl	VL53L0X_SetLimitCheckEnable
 1644 01de 0346     		mov	r3, r0
 1645 01e0 87F85730 		strb	r3, [r7, #87]
 1646              	.L60:
 1647 01e4 97F95730 		ldrsb	r3, [r7, #87]
 1648 01e8 002B     		cmp	r3, #0
 1649 01ea 07D1     		bne	.L61
 1650 01ec 0022     		movs	r2, #0
 1651 01ee 0421     		movs	r1, #4
 1652 01f0 7868     		ldr	r0, [r7, #4]
 1653 01f2 FFF7FEFF 		bl	VL53L0X_SetLimitCheckEnable
ARM GAS  /var/folders/d2/nstgp4h54kz7g1l847x_b8wc0000gn/T//cc7cS1Ev.s 			page 30


 1654 01f6 0346     		mov	r3, r0
 1655 01f8 87F85730 		strb	r3, [r7, #87]
 1656              	.L61:
 1657 01fc 97F95730 		ldrsb	r3, [r7, #87]
 1658 0200 002B     		cmp	r3, #0
 1659 0202 07D1     		bne	.L62
 1660 0204 0022     		movs	r2, #0
 1661 0206 0521     		movs	r1, #5
 1662 0208 7868     		ldr	r0, [r7, #4]
 1663 020a FFF7FEFF 		bl	VL53L0X_SetLimitCheckEnable
 1664 020e 0346     		mov	r3, r0
 1665 0210 87F85730 		strb	r3, [r7, #87]
 1666              	.L62:
 1667 0214 97F95730 		ldrsb	r3, [r7, #87]
 1668 0218 002B     		cmp	r3, #0
 1669 021a 08D1     		bne	.L63
 1670 021c 4FF49012 		mov	r2, #1179648
 1671 0220 0021     		movs	r1, #0
 1672 0222 7868     		ldr	r0, [r7, #4]
 1673 0224 FFF7FEFF 		bl	VL53L0X_SetLimitCheckValue
 1674 0228 0346     		mov	r3, r0
 1675 022a 87F85730 		strb	r3, [r7, #87]
 1676              	.L63:
 1677 022e 97F95730 		ldrsb	r3, [r7, #87]
 1678 0232 002B     		cmp	r3, #0
 1679 0234 08D1     		bne	.L64
 1680 0236 4FF48042 		mov	r2, #16384
 1681 023a 0121     		movs	r1, #1
 1682 023c 7868     		ldr	r0, [r7, #4]
 1683 023e FFF7FEFF 		bl	VL53L0X_SetLimitCheckValue
 1684 0242 0346     		mov	r3, r0
 1685 0244 87F85730 		strb	r3, [r7, #87]
 1686              	.L64:
 1687 0248 97F95730 		ldrsb	r3, [r7, #87]
 1688 024c 002B     		cmp	r3, #0
 1689 024e 08D1     		bne	.L65
 1690 0250 4FF40C12 		mov	r2, #2293760
 1691 0254 0221     		movs	r1, #2
 1692 0256 7868     		ldr	r0, [r7, #4]
 1693 0258 FFF7FEFF 		bl	VL53L0X_SetLimitCheckValue
 1694 025c 0346     		mov	r3, r0
 1695 025e 87F85730 		strb	r3, [r7, #87]
 1696              	.L65:
 1697 0262 97F95730 		ldrsb	r3, [r7, #87]
 1698 0266 002B     		cmp	r3, #0
 1699 0268 07D1     		bne	.L66
 1700 026a 0022     		movs	r2, #0
 1701 026c 0321     		movs	r1, #3
 1702 026e 7868     		ldr	r0, [r7, #4]
 1703 0270 FFF7FEFF 		bl	VL53L0X_SetLimitCheckValue
 1704 0274 0346     		mov	r3, r0
 1705 0276 87F85730 		strb	r3, [r7, #87]
 1706              	.L66:
 1707 027a 97F95730 		ldrsb	r3, [r7, #87]
 1708 027e 002B     		cmp	r3, #0
 1709 0280 0FD1     		bne	.L67
 1710 0282 7B68     		ldr	r3, [r7, #4]
ARM GAS  /var/folders/d2/nstgp4h54kz7g1l847x_b8wc0000gn/T//cc7cS1Ev.s 			page 31


 1711 0284 FF22     		movs	r2, #255
 1712 0286 83F83021 		strb	r2, [r3, #304]
 1713 028a FF22     		movs	r2, #255
 1714 028c 0121     		movs	r1, #1
 1715 028e 7868     		ldr	r0, [r7, #4]
 1716 0290 FFF7FEFF 		bl	VL53L0X_WrByte
 1717 0294 0346     		mov	r3, r0
 1718 0296 87F85730 		strb	r3, [r7, #87]
 1719 029a 7B68     		ldr	r3, [r7, #4]
 1720 029c 0122     		movs	r2, #1
 1721 029e 83F83221 		strb	r2, [r3, #306]
 1722              	.L67:
 1723 02a2 97F95730 		ldrsb	r3, [r7, #87]
 1724 02a6 002B     		cmp	r3, #0
 1725 02a8 03D1     		bne	.L68
 1726 02aa 7B68     		ldr	r3, [r7, #4]
 1727 02ac 0022     		movs	r2, #0
 1728 02ae 83F81521 		strb	r2, [r3, #277]
 1729              	.L68:
 1730 02b2 97F95730 		ldrsb	r3, [r7, #87]
 1731 02b6 1846     		mov	r0, r3
 1732 02b8 5837     		adds	r7, r7, #88
 1733 02ba BD46     		mov	sp, r7
 1734              		@ sp needed
 1735 02bc B0BD     		pop	{r4, r5, r7, pc}
 1736              	.L72:
 1737 02be 00BF     		.align	2
 1738              	.L71:
 1739 02c0 856B0100 		.word	93061
 1740 02c4 A4700900 		.word	618660
 1741              		.size	VL53L0X_DataInit, .-VL53L0X_DataInit
 1742              		.section	.text.VL53L0X_SetTuningSettingBuffer,"ax",%progbits
 1743              		.align	1
 1744              		.global	VL53L0X_SetTuningSettingBuffer
 1745              		.syntax unified
 1746              		.thumb
 1747              		.thumb_func
 1748              		.fpu fpv4-sp-d16
 1749              		.type	VL53L0X_SetTuningSettingBuffer, %function
 1750              	VL53L0X_SetTuningSettingBuffer:
 1751              		@ args = 0, pretend = 0, frame = 24
 1752              		@ frame_needed = 1, uses_anonymous_args = 0
 1753              		@ link register save eliminated.
 1754 0000 80B4     		push	{r7}
 1755 0002 87B0     		sub	sp, sp, #28
 1756 0004 00AF     		add	r7, sp, #0
 1757 0006 F860     		str	r0, [r7, #12]
 1758 0008 B960     		str	r1, [r7, #8]
 1759 000a 1346     		mov	r3, r2
 1760 000c FB71     		strb	r3, [r7, #7]
 1761 000e 0023     		movs	r3, #0
 1762 0010 FB75     		strb	r3, [r7, #23]
 1763 0012 FB79     		ldrb	r3, [r7, #7]	@ zero_extendqisi2
 1764 0014 012B     		cmp	r3, #1
 1765 0016 04D1     		bne	.L74
 1766 0018 FB68     		ldr	r3, [r7, #12]
 1767 001a 0122     		movs	r2, #1
ARM GAS  /var/folders/d2/nstgp4h54kz7g1l847x_b8wc0000gn/T//cc7cS1Ev.s 			page 32


 1768 001c 83F85021 		strb	r2, [r3, #336]
 1769 0020 0EE0     		b	.L75
 1770              	.L74:
 1771 0022 BB68     		ldr	r3, [r7, #8]
 1772 0024 1B78     		ldrb	r3, [r3]	@ zero_extendqisi2
 1773 0026 002B     		cmp	r3, #0
 1774 0028 08D0     		beq	.L76
 1775 002a FB68     		ldr	r3, [r7, #12]
 1776 002c BA68     		ldr	r2, [r7, #8]
 1777 002e C3F84C21 		str	r2, [r3, #332]
 1778 0032 FB68     		ldr	r3, [r7, #12]
 1779 0034 0022     		movs	r2, #0
 1780 0036 83F85021 		strb	r2, [r3, #336]
 1781 003a 01E0     		b	.L75
 1782              	.L76:
 1783 003c FC23     		movs	r3, #252
 1784 003e FB75     		strb	r3, [r7, #23]
 1785              	.L75:
 1786 0040 97F91730 		ldrsb	r3, [r7, #23]
 1787 0044 1846     		mov	r0, r3
 1788 0046 1C37     		adds	r7, r7, #28
 1789 0048 BD46     		mov	sp, r7
 1790              		@ sp needed
 1791 004a 5DF8047B 		ldr	r7, [sp], #4
 1792 004e 7047     		bx	lr
 1793              		.size	VL53L0X_SetTuningSettingBuffer, .-VL53L0X_SetTuningSettingBuffer
 1794              		.section	.text.VL53L0X_GetTuningSettingBuffer,"ax",%progbits
 1795              		.align	1
 1796              		.global	VL53L0X_GetTuningSettingBuffer
 1797              		.syntax unified
 1798              		.thumb
 1799              		.thumb_func
 1800              		.fpu fpv4-sp-d16
 1801              		.type	VL53L0X_GetTuningSettingBuffer, %function
 1802              	VL53L0X_GetTuningSettingBuffer:
 1803              		@ args = 0, pretend = 0, frame = 24
 1804              		@ frame_needed = 1, uses_anonymous_args = 0
 1805              		@ link register save eliminated.
 1806 0000 80B4     		push	{r7}
 1807 0002 87B0     		sub	sp, sp, #28
 1808 0004 00AF     		add	r7, sp, #0
 1809 0006 F860     		str	r0, [r7, #12]
 1810 0008 B960     		str	r1, [r7, #8]
 1811 000a 7A60     		str	r2, [r7, #4]
 1812 000c 0023     		movs	r3, #0
 1813 000e FB75     		strb	r3, [r7, #23]
 1814 0010 FB68     		ldr	r3, [r7, #12]
 1815 0012 D3F84C21 		ldr	r2, [r3, #332]
 1816 0016 BB68     		ldr	r3, [r7, #8]
 1817 0018 1A60     		str	r2, [r3]
 1818 001a FB68     		ldr	r3, [r7, #12]
 1819 001c 93F85021 		ldrb	r2, [r3, #336]	@ zero_extendqisi2
 1820 0020 7B68     		ldr	r3, [r7, #4]
 1821 0022 1A70     		strb	r2, [r3]
 1822 0024 97F91730 		ldrsb	r3, [r7, #23]
 1823 0028 1846     		mov	r0, r3
 1824 002a 1C37     		adds	r7, r7, #28
ARM GAS  /var/folders/d2/nstgp4h54kz7g1l847x_b8wc0000gn/T//cc7cS1Ev.s 			page 33


 1825 002c BD46     		mov	sp, r7
 1826              		@ sp needed
 1827 002e 5DF8047B 		ldr	r7, [sp], #4
 1828 0032 7047     		bx	lr
 1829              		.size	VL53L0X_GetTuningSettingBuffer, .-VL53L0X_GetTuningSettingBuffer
 1830              		.section	.text.VL53L0X_StaticInit,"ax",%progbits
 1831              		.align	1
 1832              		.global	VL53L0X_StaticInit
 1833              		.syntax unified
 1834              		.thumb
 1835              		.thumb_func
 1836              		.fpu fpv4-sp-d16
 1837              		.type	VL53L0X_StaticInit, %function
 1838              	VL53L0X_StaticInit:
 1839              		@ args = 0, pretend = 0, frame = 112
 1840              		@ frame_needed = 1, uses_anonymous_args = 0
 1841 0000 B0B5     		push	{r4, r5, r7, lr}
 1842 0002 9EB0     		sub	sp, sp, #120
 1843 0004 02AF     		add	r7, sp, #8
 1844 0006 7860     		str	r0, [r7, #4]
 1845 0008 0023     		movs	r3, #0
 1846 000a 87F86F30 		strb	r3, [r7, #111]
 1847 000e 07F11C03 		add	r3, r7, #28
 1848 0012 4022     		movs	r2, #64
 1849 0014 0021     		movs	r1, #0
 1850 0016 1846     		mov	r0, r3
 1851 0018 FFF7FEFF 		bl	memset
 1852 001c 0023     		movs	r3, #0
 1853 001e 7B83     		strh	r3, [r7, #26]	@ movhi
 1854 0020 0023     		movs	r3, #0
 1855 0022 7B76     		strb	r3, [r7, #25]
 1856 0024 0023     		movs	r3, #0
 1857 0026 87F86730 		strb	r3, [r7, #103]
 1858 002a 0023     		movs	r3, #0
 1859 002c 3B66     		str	r3, [r7, #96]
 1860 002e 0023     		movs	r3, #0
 1861 0030 3B76     		strb	r3, [r7, #24]
 1862 0032 0023     		movs	r3, #0
 1863 0034 7B61     		str	r3, [r7, #20]
 1864 0036 0023     		movs	r3, #0
 1865 0038 87F85F30 		strb	r3, [r7, #95]
 1866 003c 0121     		movs	r1, #1
 1867 003e 7868     		ldr	r0, [r7, #4]
 1868 0040 FFF7FEFF 		bl	VL53L0X_get_info_from_device
 1869 0044 0346     		mov	r3, r0
 1870 0046 87F86F30 		strb	r3, [r7, #111]
 1871 004a 7B68     		ldr	r3, [r7, #4]
 1872 004c 93F81331 		ldrb	r3, [r3, #275]	@ zero_extendqisi2
 1873 0050 3B66     		str	r3, [r7, #96]
 1874 0052 7B68     		ldr	r3, [r7, #4]
 1875 0054 93F81431 		ldrb	r3, [r3, #276]
 1876 0058 87F85F30 		strb	r3, [r7, #95]
 1877 005c 97F85F30 		ldrb	r3, [r7, #95]	@ zero_extendqisi2
 1878 0060 012B     		cmp	r3, #1
 1879 0062 0DD8     		bhi	.L81
 1880 0064 97F85F30 		ldrb	r3, [r7, #95]	@ zero_extendqisi2
 1881 0068 012B     		cmp	r3, #1
ARM GAS  /var/folders/d2/nstgp4h54kz7g1l847x_b8wc0000gn/T//cc7cS1Ev.s 			page 34


 1882 006a 02D1     		bne	.L82
 1883 006c 3B6E     		ldr	r3, [r7, #96]
 1884 006e 202B     		cmp	r3, #32
 1885 0070 06D8     		bhi	.L81
 1886              	.L82:
 1887 0072 97F85F30 		ldrb	r3, [r7, #95]	@ zero_extendqisi2
 1888 0076 002B     		cmp	r3, #0
 1889 0078 0ED1     		bne	.L83
 1890 007a 3B6E     		ldr	r3, [r7, #96]
 1891 007c 0C2B     		cmp	r3, #12
 1892 007e 0BD9     		bls	.L83
 1893              	.L81:
 1894 0080 07F11802 		add	r2, r7, #24
 1895 0084 07F11403 		add	r3, r7, #20
 1896 0088 1946     		mov	r1, r3
 1897 008a 7868     		ldr	r0, [r7, #4]
 1898 008c FFF7FEFF 		bl	VL53L0X_perform_ref_spad_management
 1899 0090 0346     		mov	r3, r0
 1900 0092 87F86F30 		strb	r3, [r7, #111]
 1901 0096 09E0     		b	.L84
 1902              	.L83:
 1903 0098 97F85F30 		ldrb	r3, [r7, #95]	@ zero_extendqisi2
 1904 009c 1A46     		mov	r2, r3
 1905 009e 396E     		ldr	r1, [r7, #96]
 1906 00a0 7868     		ldr	r0, [r7, #4]
 1907 00a2 FFF7FEFF 		bl	VL53L0X_set_reference_spads
 1908 00a6 0346     		mov	r3, r0
 1909 00a8 87F86F30 		strb	r3, [r7, #111]
 1910              	.L84:
 1911 00ac 944B     		ldr	r3, .L107
 1912 00ae BB66     		str	r3, [r7, #104]
 1913 00b0 97F96F30 		ldrsb	r3, [r7, #111]
 1914 00b4 002B     		cmp	r3, #0
 1915 00b6 0FD1     		bne	.L85
 1916 00b8 7B68     		ldr	r3, [r7, #4]
 1917 00ba 93F85031 		ldrb	r3, [r3, #336]
 1918 00be 87F86730 		strb	r3, [r7, #103]
 1919 00c2 97F86730 		ldrb	r3, [r7, #103]	@ zero_extendqisi2
 1920 00c6 002B     		cmp	r3, #0
 1921 00c8 04D1     		bne	.L86
 1922 00ca 7B68     		ldr	r3, [r7, #4]
 1923 00cc D3F84C31 		ldr	r3, [r3, #332]
 1924 00d0 BB66     		str	r3, [r7, #104]
 1925 00d2 01E0     		b	.L85
 1926              	.L86:
 1927 00d4 8A4B     		ldr	r3, .L107
 1928 00d6 BB66     		str	r3, [r7, #104]
 1929              	.L85:
 1930 00d8 97F96F30 		ldrsb	r3, [r7, #111]
 1931 00dc 002B     		cmp	r3, #0
 1932 00de 06D1     		bne	.L87
 1933 00e0 B96E     		ldr	r1, [r7, #104]
 1934 00e2 7868     		ldr	r0, [r7, #4]
 1935 00e4 FFF7FEFF 		bl	VL53L0X_load_tuning_settings
 1936 00e8 0346     		mov	r3, r0
 1937 00ea 87F86F30 		strb	r3, [r7, #111]
 1938              	.L87:
ARM GAS  /var/folders/d2/nstgp4h54kz7g1l847x_b8wc0000gn/T//cc7cS1Ev.s 			page 35


 1939 00ee 97F96F30 		ldrsb	r3, [r7, #111]
 1940 00f2 002B     		cmp	r3, #0
 1941 00f4 0AD1     		bne	.L88
 1942 00f6 0023     		movs	r3, #0
 1943 00f8 0093     		str	r3, [sp]
 1944 00fa 0423     		movs	r3, #4
 1945 00fc 0022     		movs	r2, #0
 1946 00fe 0021     		movs	r1, #0
 1947 0100 7868     		ldr	r0, [r7, #4]
 1948 0102 FFF7FEFF 		bl	VL53L0X_SetGpioConfig
 1949 0106 0346     		mov	r3, r0
 1950 0108 87F86F30 		strb	r3, [r7, #111]
 1951              	.L88:
 1952 010c 97F96F30 		ldrsb	r3, [r7, #111]
 1953 0110 002B     		cmp	r3, #0
 1954 0112 21D1     		bne	.L89
 1955 0114 0122     		movs	r2, #1
 1956 0116 FF21     		movs	r1, #255
 1957 0118 7868     		ldr	r0, [r7, #4]
 1958 011a FFF7FEFF 		bl	VL53L0X_WrByte
 1959 011e 0346     		mov	r3, r0
 1960 0120 87F86F30 		strb	r3, [r7, #111]
 1961 0124 07F11A03 		add	r3, r7, #26
 1962 0128 1A46     		mov	r2, r3
 1963 012a 8421     		movs	r1, #132
 1964 012c 7868     		ldr	r0, [r7, #4]
 1965 012e FFF7FEFF 		bl	VL53L0X_RdWord
 1966 0132 0346     		mov	r3, r0
 1967 0134 1A46     		mov	r2, r3
 1968 0136 97F86F30 		ldrb	r3, [r7, #111]
 1969 013a 1343     		orrs	r3, r3, r2
 1970 013c 87F86F30 		strb	r3, [r7, #111]
 1971 0140 0022     		movs	r2, #0
 1972 0142 FF21     		movs	r1, #255
 1973 0144 7868     		ldr	r0, [r7, #4]
 1974 0146 FFF7FEFF 		bl	VL53L0X_WrByte
 1975 014a 0346     		mov	r3, r0
 1976 014c 1A46     		mov	r2, r3
 1977 014e 97F86F30 		ldrb	r3, [r7, #111]
 1978 0152 1343     		orrs	r3, r3, r2
 1979 0154 87F86F30 		strb	r3, [r7, #111]
 1980              	.L89:
 1981 0158 97F96F30 		ldrsb	r3, [r7, #111]
 1982 015c 002B     		cmp	r3, #0
 1983 015e 05D1     		bne	.L90
 1984 0160 7B8B     		ldrh	r3, [r7, #26]
 1985 0162 1B01     		lsls	r3, r3, #4
 1986 0164 1A46     		mov	r2, r3
 1987 0166 7B68     		ldr	r3, [r7, #4]
 1988 0168 C3F8D420 		str	r2, [r3, #212]
 1989              	.L90:
 1990 016c 97F96F30 		ldrsb	r3, [r7, #111]
 1991 0170 002B     		cmp	r3, #0
 1992 0172 08D1     		bne	.L91
 1993 0174 07F11C03 		add	r3, r7, #28
 1994 0178 1946     		mov	r1, r3
 1995 017a 7868     		ldr	r0, [r7, #4]
ARM GAS  /var/folders/d2/nstgp4h54kz7g1l847x_b8wc0000gn/T//cc7cS1Ev.s 			page 36


 1996 017c FFF7FEFF 		bl	VL53L0X_GetDeviceParameters
 1997 0180 0346     		mov	r3, r0
 1998 0182 87F86F30 		strb	r3, [r7, #111]
 1999              	.L91:
 2000 0186 97F96F30 		ldrsb	r3, [r7, #111]
 2001 018a 002B     		cmp	r3, #0
 2002 018c 10D1     		bne	.L92
 2003 018e 07F11903 		add	r3, r7, #25
 2004 0192 1946     		mov	r1, r3
 2005 0194 7868     		ldr	r0, [r7, #4]
 2006 0196 FFF7FEFF 		bl	VL53L0X_GetFractionEnable
 2007 019a 0346     		mov	r3, r0
 2008 019c 87F86F30 		strb	r3, [r7, #111]
 2009 01a0 97F96F30 		ldrsb	r3, [r7, #111]
 2010 01a4 002B     		cmp	r3, #0
 2011 01a6 03D1     		bne	.L92
 2012 01a8 7A7E     		ldrb	r2, [r7, #25]	@ zero_extendqisi2
 2013 01aa 7B68     		ldr	r3, [r7, #4]
 2014 01ac 83F83121 		strb	r2, [r3, #305]
 2015              	.L92:
 2016 01b0 97F96F30 		ldrsb	r3, [r7, #111]
 2017 01b4 002B     		cmp	r3, #0
 2018 01b6 0ED1     		bne	.L93
 2019 01b8 7B68     		ldr	r3, [r7, #4]
 2020 01ba 03F11004 		add	r4, r3, #16
 2021 01be 07F11C05 		add	r5, r7, #28
 2022 01c2 0FCD     		ldmia	r5!, {r0, r1, r2, r3}
 2023 01c4 0FC4     		stmia	r4!, {r0, r1, r2, r3}
 2024 01c6 0FCD     		ldmia	r5!, {r0, r1, r2, r3}
 2025 01c8 0FC4     		stmia	r4!, {r0, r1, r2, r3}
 2026 01ca 0FCD     		ldmia	r5!, {r0, r1, r2, r3}
 2027 01cc 0FC4     		stmia	r4!, {r0, r1, r2, r3}
 2028 01ce 95E80F00 		ldm	r5, {r0, r1, r2, r3}
 2029 01d2 84E80F00 		stm	r4, {r0, r1, r2, r3}
 2030              	.L93:
 2031 01d6 97F96F30 		ldrsb	r3, [r7, #111]
 2032 01da 002B     		cmp	r3, #0
 2033 01dc 11D1     		bne	.L94
 2034 01de 07F11903 		add	r3, r7, #25
 2035 01e2 1A46     		mov	r2, r3
 2036 01e4 0121     		movs	r1, #1
 2037 01e6 7868     		ldr	r0, [r7, #4]
 2038 01e8 FFF7FEFF 		bl	VL53L0X_RdByte
 2039 01ec 0346     		mov	r3, r0
 2040 01ee 87F86F30 		strb	r3, [r7, #111]
 2041 01f2 97F96F30 		ldrsb	r3, [r7, #111]
 2042 01f6 002B     		cmp	r3, #0
 2043 01f8 03D1     		bne	.L94
 2044 01fa 7A7E     		ldrb	r2, [r7, #25]	@ zero_extendqisi2
 2045 01fc 7B68     		ldr	r3, [r7, #4]
 2046 01fe 83F83021 		strb	r2, [r3, #304]
 2047              	.L94:
 2048 0202 97F96F30 		ldrsb	r3, [r7, #111]
 2049 0206 002B     		cmp	r3, #0
 2050 0208 07D1     		bne	.L95
 2051 020a 0022     		movs	r2, #0
 2052 020c 0021     		movs	r1, #0
ARM GAS  /var/folders/d2/nstgp4h54kz7g1l847x_b8wc0000gn/T//cc7cS1Ev.s 			page 37


 2053 020e 7868     		ldr	r0, [r7, #4]
 2054 0210 FFF7FEFF 		bl	VL53L0X_SetSequenceStepEnable
 2055 0214 0346     		mov	r3, r0
 2056 0216 87F86F30 		strb	r3, [r7, #111]
 2057              	.L95:
 2058 021a 97F96F30 		ldrsb	r3, [r7, #111]
 2059 021e 002B     		cmp	r3, #0
 2060 0220 07D1     		bne	.L96
 2061 0222 0022     		movs	r2, #0
 2062 0224 0221     		movs	r1, #2
 2063 0226 7868     		ldr	r0, [r7, #4]
 2064 0228 FFF7FEFF 		bl	VL53L0X_SetSequenceStepEnable
 2065 022c 0346     		mov	r3, r0
 2066 022e 87F86F30 		strb	r3, [r7, #111]
 2067              	.L96:
 2068 0232 97F96F30 		ldrsb	r3, [r7, #111]
 2069 0236 002B     		cmp	r3, #0
 2070 0238 03D1     		bne	.L97
 2071 023a 7B68     		ldr	r3, [r7, #4]
 2072 023c 0322     		movs	r2, #3
 2073 023e 83F83221 		strb	r2, [r3, #306]
 2074              	.L97:
 2075 0242 97F96F30 		ldrsb	r3, [r7, #111]
 2076 0246 002B     		cmp	r3, #0
 2077 0248 09D1     		bne	.L98
 2078 024a 07F11303 		add	r3, r7, #19
 2079 024e 1A46     		mov	r2, r3
 2080 0250 0021     		movs	r1, #0
 2081 0252 7868     		ldr	r0, [r7, #4]
 2082 0254 FFF7FEFF 		bl	VL53L0X_GetVcselPulsePeriod
 2083 0258 0346     		mov	r3, r0
 2084 025a 87F86F30 		strb	r3, [r7, #111]
 2085              	.L98:
 2086 025e 97F96F30 		ldrsb	r3, [r7, #111]
 2087 0262 002B     		cmp	r3, #0
 2088 0264 03D1     		bne	.L99
 2089 0266 FA7C     		ldrb	r2, [r7, #19]	@ zero_extendqisi2
 2090 0268 7B68     		ldr	r3, [r7, #4]
 2091 026a 83F8E820 		strb	r2, [r3, #232]
 2092              	.L99:
 2093 026e 97F96F30 		ldrsb	r3, [r7, #111]
 2094 0272 002B     		cmp	r3, #0
 2095 0274 09D1     		bne	.L100
 2096 0276 07F11303 		add	r3, r7, #19
 2097 027a 1A46     		mov	r2, r3
 2098 027c 0121     		movs	r1, #1
 2099 027e 7868     		ldr	r0, [r7, #4]
 2100 0280 FFF7FEFF 		bl	VL53L0X_GetVcselPulsePeriod
 2101 0284 0346     		mov	r3, r0
 2102 0286 87F86F30 		strb	r3, [r7, #111]
 2103              	.L100:
 2104 028a 97F96F30 		ldrsb	r3, [r7, #111]
 2105 028e 002B     		cmp	r3, #0
 2106 0290 03D1     		bne	.L101
 2107 0292 FA7C     		ldrb	r2, [r7, #19]	@ zero_extendqisi2
 2108 0294 7B68     		ldr	r3, [r7, #4]
 2109 0296 83F8E020 		strb	r2, [r3, #224]
ARM GAS  /var/folders/d2/nstgp4h54kz7g1l847x_b8wc0000gn/T//cc7cS1Ev.s 			page 38


 2110              	.L101:
 2111 029a 97F96F30 		ldrsb	r3, [r7, #111]
 2112 029e 002B     		cmp	r3, #0
 2113 02a0 09D1     		bne	.L102
 2114 02a2 07F10C03 		add	r3, r7, #12
 2115 02a6 1A46     		mov	r2, r3
 2116 02a8 0321     		movs	r1, #3
 2117 02aa 7868     		ldr	r0, [r7, #4]
 2118 02ac FFF7FEFF 		bl	get_sequence_step_timeout
 2119 02b0 0346     		mov	r3, r0
 2120 02b2 87F86F30 		strb	r3, [r7, #111]
 2121              	.L102:
 2122 02b6 97F96F30 		ldrsb	r3, [r7, #111]
 2123 02ba 002B     		cmp	r3, #0
 2124 02bc 03D1     		bne	.L103
 2125 02be FA68     		ldr	r2, [r7, #12]
 2126 02c0 7B68     		ldr	r3, [r7, #4]
 2127 02c2 C3F8E420 		str	r2, [r3, #228]
 2128              	.L103:
 2129 02c6 97F96F30 		ldrsb	r3, [r7, #111]
 2130 02ca 002B     		cmp	r3, #0
 2131 02cc 09D1     		bne	.L104
 2132 02ce 07F10C03 		add	r3, r7, #12
 2133 02d2 1A46     		mov	r2, r3
 2134 02d4 0421     		movs	r1, #4
 2135 02d6 7868     		ldr	r0, [r7, #4]
 2136 02d8 FFF7FEFF 		bl	get_sequence_step_timeout
 2137 02dc 0346     		mov	r3, r0
 2138 02de 87F86F30 		strb	r3, [r7, #111]
 2139              	.L104:
 2140 02e2 97F96F30 		ldrsb	r3, [r7, #111]
 2141 02e6 002B     		cmp	r3, #0
 2142 02e8 03D1     		bne	.L105
 2143 02ea FA68     		ldr	r2, [r7, #12]
 2144 02ec 7B68     		ldr	r3, [r7, #4]
 2145 02ee C3F8DC20 		str	r2, [r3, #220]
 2146              	.L105:
 2147 02f2 97F96F30 		ldrsb	r3, [r7, #111]
 2148 02f6 1846     		mov	r0, r3
 2149 02f8 7037     		adds	r7, r7, #112
 2150 02fa BD46     		mov	sp, r7
 2151              		@ sp needed
 2152 02fc B0BD     		pop	{r4, r5, r7, pc}
 2153              	.L108:
 2154 02fe 00BF     		.align	2
 2155              	.L107:
 2156 0300 00000000 		.word	DefaultTuningSettings
 2157              		.size	VL53L0X_StaticInit, .-VL53L0X_StaticInit
 2158              		.section	.text.VL53L0X_WaitDeviceBooted,"ax",%progbits
 2159              		.align	1
 2160              		.global	VL53L0X_WaitDeviceBooted
 2161              		.syntax unified
 2162              		.thumb
 2163              		.thumb_func
 2164              		.fpu fpv4-sp-d16
 2165              		.type	VL53L0X_WaitDeviceBooted, %function
 2166              	VL53L0X_WaitDeviceBooted:
ARM GAS  /var/folders/d2/nstgp4h54kz7g1l847x_b8wc0000gn/T//cc7cS1Ev.s 			page 39


 2167              		@ args = 0, pretend = 0, frame = 16
 2168              		@ frame_needed = 1, uses_anonymous_args = 0
 2169              		@ link register save eliminated.
 2170 0000 80B4     		push	{r7}
 2171 0002 85B0     		sub	sp, sp, #20
 2172 0004 00AF     		add	r7, sp, #0
 2173 0006 7860     		str	r0, [r7, #4]
 2174 0008 9D23     		movs	r3, #157
 2175 000a FB73     		strb	r3, [r7, #15]
 2176 000c 97F90F30 		ldrsb	r3, [r7, #15]
 2177 0010 1846     		mov	r0, r3
 2178 0012 1437     		adds	r7, r7, #20
 2179 0014 BD46     		mov	sp, r7
 2180              		@ sp needed
 2181 0016 5DF8047B 		ldr	r7, [sp], #4
 2182 001a 7047     		bx	lr
 2183              		.size	VL53L0X_WaitDeviceBooted, .-VL53L0X_WaitDeviceBooted
 2184              		.section	.text.VL53L0X_ResetDevice,"ax",%progbits
 2185              		.align	1
 2186              		.global	VL53L0X_ResetDevice
 2187              		.syntax unified
 2188              		.thumb
 2189              		.thumb_func
 2190              		.fpu fpv4-sp-d16
 2191              		.type	VL53L0X_ResetDevice, %function
 2192              	VL53L0X_ResetDevice:
 2193              		@ args = 0, pretend = 0, frame = 16
 2194              		@ frame_needed = 1, uses_anonymous_args = 0
 2195 0000 80B5     		push	{r7, lr}
 2196 0002 84B0     		sub	sp, sp, #16
 2197 0004 00AF     		add	r7, sp, #0
 2198 0006 7860     		str	r0, [r7, #4]
 2199 0008 0023     		movs	r3, #0
 2200 000a FB73     		strb	r3, [r7, #15]
 2201 000c 0022     		movs	r2, #0
 2202 000e BF21     		movs	r1, #191
 2203 0010 7868     		ldr	r0, [r7, #4]
 2204 0012 FFF7FEFF 		bl	VL53L0X_WrByte
 2205 0016 0346     		mov	r3, r0
 2206 0018 FB73     		strb	r3, [r7, #15]
 2207 001a 97F90F30 		ldrsb	r3, [r7, #15]
 2208 001e 002B     		cmp	r3, #0
 2209 0020 0BD1     		bne	.L112
 2210              	.L113:
 2211 0022 07F10E03 		add	r3, r7, #14
 2212 0026 1A46     		mov	r2, r3
 2213 0028 C021     		movs	r1, #192
 2214 002a 7868     		ldr	r0, [r7, #4]
 2215 002c FFF7FEFF 		bl	VL53L0X_RdByte
 2216 0030 0346     		mov	r3, r0
 2217 0032 FB73     		strb	r3, [r7, #15]
 2218 0034 BB7B     		ldrb	r3, [r7, #14]	@ zero_extendqisi2
 2219 0036 002B     		cmp	r3, #0
 2220 0038 F3D1     		bne	.L113
 2221              	.L112:
 2222 003a 7868     		ldr	r0, [r7, #4]
 2223 003c FFF7FEFF 		bl	VL53L0X_PollingDelay
ARM GAS  /var/folders/d2/nstgp4h54kz7g1l847x_b8wc0000gn/T//cc7cS1Ev.s 			page 40


 2224 0040 0122     		movs	r2, #1
 2225 0042 BF21     		movs	r1, #191
 2226 0044 7868     		ldr	r0, [r7, #4]
 2227 0046 FFF7FEFF 		bl	VL53L0X_WrByte
 2228 004a 0346     		mov	r3, r0
 2229 004c FB73     		strb	r3, [r7, #15]
 2230 004e 97F90F30 		ldrsb	r3, [r7, #15]
 2231 0052 002B     		cmp	r3, #0
 2232 0054 0BD1     		bne	.L114
 2233              	.L115:
 2234 0056 07F10E03 		add	r3, r7, #14
 2235 005a 1A46     		mov	r2, r3
 2236 005c C021     		movs	r1, #192
 2237 005e 7868     		ldr	r0, [r7, #4]
 2238 0060 FFF7FEFF 		bl	VL53L0X_RdByte
 2239 0064 0346     		mov	r3, r0
 2240 0066 FB73     		strb	r3, [r7, #15]
 2241 0068 BB7B     		ldrb	r3, [r7, #14]	@ zero_extendqisi2
 2242 006a 002B     		cmp	r3, #0
 2243 006c F3D0     		beq	.L115
 2244              	.L114:
 2245 006e 7868     		ldr	r0, [r7, #4]
 2246 0070 FFF7FEFF 		bl	VL53L0X_PollingDelay
 2247 0074 97F90F30 		ldrsb	r3, [r7, #15]
 2248 0078 002B     		cmp	r3, #0
 2249 007a 03D1     		bne	.L116
 2250 007c 7B68     		ldr	r3, [r7, #4]
 2251 007e 0022     		movs	r2, #0
 2252 0080 83F83221 		strb	r2, [r3, #306]
 2253              	.L116:
 2254 0084 97F90F30 		ldrsb	r3, [r7, #15]
 2255 0088 1846     		mov	r0, r3
 2256 008a 1037     		adds	r7, r7, #16
 2257 008c BD46     		mov	sp, r7
 2258              		@ sp needed
 2259 008e 80BD     		pop	{r7, pc}
 2260              		.size	VL53L0X_ResetDevice, .-VL53L0X_ResetDevice
 2261              		.section	.text.VL53L0X_SetDeviceParameters,"ax",%progbits
 2262              		.align	1
 2263              		.global	VL53L0X_SetDeviceParameters
 2264              		.syntax unified
 2265              		.thumb
 2266              		.thumb_func
 2267              		.fpu fpv4-sp-d16
 2268              		.type	VL53L0X_SetDeviceParameters, %function
 2269              	VL53L0X_SetDeviceParameters:
 2270              		@ args = 0, pretend = 0, frame = 16
 2271              		@ frame_needed = 1, uses_anonymous_args = 0
 2272 0000 80B5     		push	{r7, lr}
 2273 0002 84B0     		sub	sp, sp, #16
 2274 0004 00AF     		add	r7, sp, #0
 2275 0006 7860     		str	r0, [r7, #4]
 2276 0008 3960     		str	r1, [r7]
 2277 000a 0023     		movs	r3, #0
 2278 000c FB73     		strb	r3, [r7, #15]
 2279 000e 3B68     		ldr	r3, [r7]
 2280 0010 1B78     		ldrb	r3, [r3]	@ zero_extendqisi2
ARM GAS  /var/folders/d2/nstgp4h54kz7g1l847x_b8wc0000gn/T//cc7cS1Ev.s 			page 41


 2281 0012 1946     		mov	r1, r3
 2282 0014 7868     		ldr	r0, [r7, #4]
 2283 0016 FFF7FEFF 		bl	VL53L0X_SetDeviceMode
 2284 001a 0346     		mov	r3, r0
 2285 001c FB73     		strb	r3, [r7, #15]
 2286 001e 97F90F30 		ldrsb	r3, [r7, #15]
 2287 0022 002B     		cmp	r3, #0
 2288 0024 07D1     		bne	.L119
 2289 0026 3B68     		ldr	r3, [r7]
 2290 0028 9B68     		ldr	r3, [r3, #8]
 2291 002a 1946     		mov	r1, r3
 2292 002c 7868     		ldr	r0, [r7, #4]
 2293 002e FFF7FEFF 		bl	VL53L0X_SetInterMeasurementPeriodMilliSeconds
 2294 0032 0346     		mov	r3, r0
 2295 0034 FB73     		strb	r3, [r7, #15]
 2296              	.L119:
 2297 0036 97F90F30 		ldrsb	r3, [r7, #15]
 2298 003a 002B     		cmp	r3, #0
 2299 003c 07D1     		bne	.L120
 2300 003e 3B68     		ldr	r3, [r7]
 2301 0040 1B69     		ldr	r3, [r3, #16]
 2302 0042 1946     		mov	r1, r3
 2303 0044 7868     		ldr	r0, [r7, #4]
 2304 0046 FFF7FEFF 		bl	VL53L0X_SetXTalkCompensationRateMegaCps
 2305 004a 0346     		mov	r3, r0
 2306 004c FB73     		strb	r3, [r7, #15]
 2307              	.L120:
 2308 004e 97F90F30 		ldrsb	r3, [r7, #15]
 2309 0052 002B     		cmp	r3, #0
 2310 0054 07D1     		bne	.L121
 2311 0056 3B68     		ldr	r3, [r7]
 2312 0058 5B69     		ldr	r3, [r3, #20]
 2313 005a 1946     		mov	r1, r3
 2314 005c 7868     		ldr	r0, [r7, #4]
 2315 005e FFF7FEFF 		bl	VL53L0X_SetOffsetCalibrationDataMicroMeter
 2316 0062 0346     		mov	r3, r0
 2317 0064 FB73     		strb	r3, [r7, #15]
 2318              	.L121:
 2319 0066 0023     		movs	r3, #0
 2320 0068 BB60     		str	r3, [r7, #8]
 2321 006a 2BE0     		b	.L122
 2322              	.L128:
 2323 006c 97F90F30 		ldrsb	r3, [r7, #15]
 2324 0070 002B     		cmp	r3, #0
 2325 0072 2BD1     		bne	.L132
 2326 0074 BB68     		ldr	r3, [r7, #8]
 2327 0076 99B2     		uxth	r1, r3
 2328 0078 3A68     		ldr	r2, [r7]
 2329 007a BB68     		ldr	r3, [r7, #8]
 2330 007c 1344     		add	r3, r3, r2
 2331 007e 1833     		adds	r3, r3, #24
 2332 0080 1B78     		ldrb	r3, [r3]	@ zero_extendqisi2
 2333 0082 1A46     		mov	r2, r3
 2334 0084 7868     		ldr	r0, [r7, #4]
 2335 0086 FFF7FEFF 		bl	VL53L0X_SetLimitCheckEnable
 2336 008a 0346     		mov	r3, r0
 2337 008c 1A46     		mov	r2, r3
ARM GAS  /var/folders/d2/nstgp4h54kz7g1l847x_b8wc0000gn/T//cc7cS1Ev.s 			page 42


 2338 008e FB7B     		ldrb	r3, [r7, #15]
 2339 0090 1343     		orrs	r3, r3, r2
 2340 0092 FB73     		strb	r3, [r7, #15]
 2341 0094 97F90F30 		ldrsb	r3, [r7, #15]
 2342 0098 002B     		cmp	r3, #0
 2343 009a 19D1     		bne	.L133
 2344 009c BB68     		ldr	r3, [r7, #8]
 2345 009e 99B2     		uxth	r1, r3
 2346 00a0 3A68     		ldr	r2, [r7]
 2347 00a2 BB68     		ldr	r3, [r7, #8]
 2348 00a4 0833     		adds	r3, r3, #8
 2349 00a6 9B00     		lsls	r3, r3, #2
 2350 00a8 1344     		add	r3, r3, r2
 2351 00aa 5B68     		ldr	r3, [r3, #4]
 2352 00ac 1A46     		mov	r2, r3
 2353 00ae 7868     		ldr	r0, [r7, #4]
 2354 00b0 FFF7FEFF 		bl	VL53L0X_SetLimitCheckValue
 2355 00b4 0346     		mov	r3, r0
 2356 00b6 1A46     		mov	r2, r3
 2357 00b8 FB7B     		ldrb	r3, [r7, #15]
 2358 00ba 1343     		orrs	r3, r3, r2
 2359 00bc FB73     		strb	r3, [r7, #15]
 2360 00be BB68     		ldr	r3, [r7, #8]
 2361 00c0 0133     		adds	r3, r3, #1
 2362 00c2 BB60     		str	r3, [r7, #8]
 2363              	.L122:
 2364 00c4 BB68     		ldr	r3, [r7, #8]
 2365 00c6 052B     		cmp	r3, #5
 2366 00c8 D0DD     		ble	.L128
 2367 00ca 02E0     		b	.L125
 2368              	.L132:
 2369 00cc 00BF     		nop
 2370 00ce 00E0     		b	.L125
 2371              	.L133:
 2372 00d0 00BF     		nop
 2373              	.L125:
 2374 00d2 97F90F30 		ldrsb	r3, [r7, #15]
 2375 00d6 002B     		cmp	r3, #0
 2376 00d8 08D1     		bne	.L129
 2377 00da 3B68     		ldr	r3, [r7]
 2378 00dc 93F83C30 		ldrb	r3, [r3, #60]	@ zero_extendqisi2
 2379 00e0 1946     		mov	r1, r3
 2380 00e2 7868     		ldr	r0, [r7, #4]
 2381 00e4 FFF7FEFF 		bl	VL53L0X_SetWrapAroundCheckEnable
 2382 00e8 0346     		mov	r3, r0
 2383 00ea FB73     		strb	r3, [r7, #15]
 2384              	.L129:
 2385 00ec 97F90F30 		ldrsb	r3, [r7, #15]
 2386 00f0 002B     		cmp	r3, #0
 2387 00f2 07D1     		bne	.L130
 2388 00f4 3B68     		ldr	r3, [r7]
 2389 00f6 5B68     		ldr	r3, [r3, #4]
 2390 00f8 1946     		mov	r1, r3
 2391 00fa 7868     		ldr	r0, [r7, #4]
 2392 00fc FFF7FEFF 		bl	VL53L0X_SetMeasurementTimingBudgetMicroSeconds
 2393 0100 0346     		mov	r3, r0
 2394 0102 FB73     		strb	r3, [r7, #15]
ARM GAS  /var/folders/d2/nstgp4h54kz7g1l847x_b8wc0000gn/T//cc7cS1Ev.s 			page 43


 2395              	.L130:
 2396 0104 97F90F30 		ldrsb	r3, [r7, #15]
 2397 0108 1846     		mov	r0, r3
 2398 010a 1037     		adds	r7, r7, #16
 2399 010c BD46     		mov	sp, r7
 2400              		@ sp needed
 2401 010e 80BD     		pop	{r7, pc}
 2402              		.size	VL53L0X_SetDeviceParameters, .-VL53L0X_SetDeviceParameters
 2403              		.section	.text.VL53L0X_GetDeviceParameters,"ax",%progbits
 2404              		.align	1
 2405              		.global	VL53L0X_GetDeviceParameters
 2406              		.syntax unified
 2407              		.thumb
 2408              		.thumb_func
 2409              		.fpu fpv4-sp-d16
 2410              		.type	VL53L0X_GetDeviceParameters, %function
 2411              	VL53L0X_GetDeviceParameters:
 2412              		@ args = 0, pretend = 0, frame = 16
 2413              		@ frame_needed = 1, uses_anonymous_args = 0
 2414 0000 80B5     		push	{r7, lr}
 2415 0002 84B0     		sub	sp, sp, #16
 2416 0004 00AF     		add	r7, sp, #0
 2417 0006 7860     		str	r0, [r7, #4]
 2418 0008 3960     		str	r1, [r7]
 2419 000a 0023     		movs	r3, #0
 2420 000c FB73     		strb	r3, [r7, #15]
 2421 000e 3B68     		ldr	r3, [r7]
 2422 0010 1946     		mov	r1, r3
 2423 0012 7868     		ldr	r0, [r7, #4]
 2424 0014 FFF7FEFF 		bl	VL53L0X_GetDeviceMode
 2425 0018 0346     		mov	r3, r0
 2426 001a FB73     		strb	r3, [r7, #15]
 2427 001c 97F90F30 		ldrsb	r3, [r7, #15]
 2428 0020 002B     		cmp	r3, #0
 2429 0022 07D1     		bne	.L135
 2430 0024 3B68     		ldr	r3, [r7]
 2431 0026 0833     		adds	r3, r3, #8
 2432 0028 1946     		mov	r1, r3
 2433 002a 7868     		ldr	r0, [r7, #4]
 2434 002c FFF7FEFF 		bl	VL53L0X_GetInterMeasurementPeriodMilliSeconds
 2435 0030 0346     		mov	r3, r0
 2436 0032 FB73     		strb	r3, [r7, #15]
 2437              	.L135:
 2438 0034 97F90F30 		ldrsb	r3, [r7, #15]
 2439 0038 002B     		cmp	r3, #0
 2440 003a 02D1     		bne	.L136
 2441 003c 3B68     		ldr	r3, [r7]
 2442 003e 0022     		movs	r2, #0
 2443 0040 1A73     		strb	r2, [r3, #12]
 2444              	.L136:
 2445 0042 97F90F30 		ldrsb	r3, [r7, #15]
 2446 0046 002B     		cmp	r3, #0
 2447 0048 07D1     		bne	.L137
 2448 004a 3B68     		ldr	r3, [r7]
 2449 004c 1033     		adds	r3, r3, #16
 2450 004e 1946     		mov	r1, r3
 2451 0050 7868     		ldr	r0, [r7, #4]
ARM GAS  /var/folders/d2/nstgp4h54kz7g1l847x_b8wc0000gn/T//cc7cS1Ev.s 			page 44


 2452 0052 FFF7FEFF 		bl	VL53L0X_GetXTalkCompensationRateMegaCps
 2453 0056 0346     		mov	r3, r0
 2454 0058 FB73     		strb	r3, [r7, #15]
 2455              	.L137:
 2456 005a 97F90F30 		ldrsb	r3, [r7, #15]
 2457 005e 002B     		cmp	r3, #0
 2458 0060 07D1     		bne	.L138
 2459 0062 3B68     		ldr	r3, [r7]
 2460 0064 1433     		adds	r3, r3, #20
 2461 0066 1946     		mov	r1, r3
 2462 0068 7868     		ldr	r0, [r7, #4]
 2463 006a FFF7FEFF 		bl	VL53L0X_GetOffsetCalibrationDataMicroMeter
 2464 006e 0346     		mov	r3, r0
 2465 0070 FB73     		strb	r3, [r7, #15]
 2466              	.L138:
 2467 0072 97F90F30 		ldrsb	r3, [r7, #15]
 2468 0076 002B     		cmp	r3, #0
 2469 0078 34D1     		bne	.L139
 2470 007a 0023     		movs	r3, #0
 2471 007c BB60     		str	r3, [r7, #8]
 2472 007e 2AE0     		b	.L140
 2473              	.L145:
 2474 0080 97F90F30 		ldrsb	r3, [r7, #15]
 2475 0084 002B     		cmp	r3, #0
 2476 0086 2AD1     		bne	.L149
 2477 0088 BB68     		ldr	r3, [r7, #8]
 2478 008a 99B2     		uxth	r1, r3
 2479 008c BB68     		ldr	r3, [r7, #8]
 2480 008e 0833     		adds	r3, r3, #8
 2481 0090 9B00     		lsls	r3, r3, #2
 2482 0092 3A68     		ldr	r2, [r7]
 2483 0094 1344     		add	r3, r3, r2
 2484 0096 0433     		adds	r3, r3, #4
 2485 0098 1A46     		mov	r2, r3
 2486 009a 7868     		ldr	r0, [r7, #4]
 2487 009c FFF7FEFF 		bl	VL53L0X_GetLimitCheckValue
 2488 00a0 0346     		mov	r3, r0
 2489 00a2 1A46     		mov	r2, r3
 2490 00a4 FB7B     		ldrb	r3, [r7, #15]
 2491 00a6 1343     		orrs	r3, r3, r2
 2492 00a8 FB73     		strb	r3, [r7, #15]
 2493 00aa 97F90F30 		ldrsb	r3, [r7, #15]
 2494 00ae 002B     		cmp	r3, #0
 2495 00b0 17D1     		bne	.L150
 2496 00b2 BB68     		ldr	r3, [r7, #8]
 2497 00b4 99B2     		uxth	r1, r3
 2498 00b6 BB68     		ldr	r3, [r7, #8]
 2499 00b8 1833     		adds	r3, r3, #24
 2500 00ba 3A68     		ldr	r2, [r7]
 2501 00bc 1344     		add	r3, r3, r2
 2502 00be 1A46     		mov	r2, r3
 2503 00c0 7868     		ldr	r0, [r7, #4]
 2504 00c2 FFF7FEFF 		bl	VL53L0X_GetLimitCheckEnable
 2505 00c6 0346     		mov	r3, r0
 2506 00c8 1A46     		mov	r2, r3
 2507 00ca FB7B     		ldrb	r3, [r7, #15]
 2508 00cc 1343     		orrs	r3, r3, r2
ARM GAS  /var/folders/d2/nstgp4h54kz7g1l847x_b8wc0000gn/T//cc7cS1Ev.s 			page 45


 2509 00ce FB73     		strb	r3, [r7, #15]
 2510 00d0 BB68     		ldr	r3, [r7, #8]
 2511 00d2 0133     		adds	r3, r3, #1
 2512 00d4 BB60     		str	r3, [r7, #8]
 2513              	.L140:
 2514 00d6 BB68     		ldr	r3, [r7, #8]
 2515 00d8 052B     		cmp	r3, #5
 2516 00da D1DD     		ble	.L145
 2517 00dc 02E0     		b	.L139
 2518              	.L149:
 2519 00de 00BF     		nop
 2520 00e0 00E0     		b	.L139
 2521              	.L150:
 2522 00e2 00BF     		nop
 2523              	.L139:
 2524 00e4 97F90F30 		ldrsb	r3, [r7, #15]
 2525 00e8 002B     		cmp	r3, #0
 2526 00ea 07D1     		bne	.L146
 2527 00ec 3B68     		ldr	r3, [r7]
 2528 00ee 3C33     		adds	r3, r3, #60
 2529 00f0 1946     		mov	r1, r3
 2530 00f2 7868     		ldr	r0, [r7, #4]
 2531 00f4 FFF7FEFF 		bl	VL53L0X_GetWrapAroundCheckEnable
 2532 00f8 0346     		mov	r3, r0
 2533 00fa FB73     		strb	r3, [r7, #15]
 2534              	.L146:
 2535 00fc 97F90F30 		ldrsb	r3, [r7, #15]
 2536 0100 002B     		cmp	r3, #0
 2537 0102 07D1     		bne	.L147
 2538 0104 3B68     		ldr	r3, [r7]
 2539 0106 0433     		adds	r3, r3, #4
 2540 0108 1946     		mov	r1, r3
 2541 010a 7868     		ldr	r0, [r7, #4]
 2542 010c FFF7FEFF 		bl	VL53L0X_GetMeasurementTimingBudgetMicroSeconds
 2543 0110 0346     		mov	r3, r0
 2544 0112 FB73     		strb	r3, [r7, #15]
 2545              	.L147:
 2546 0114 97F90F30 		ldrsb	r3, [r7, #15]
 2547 0118 1846     		mov	r0, r3
 2548 011a 1037     		adds	r7, r7, #16
 2549 011c BD46     		mov	sp, r7
 2550              		@ sp needed
 2551 011e 80BD     		pop	{r7, pc}
 2552              		.size	VL53L0X_GetDeviceParameters, .-VL53L0X_GetDeviceParameters
 2553              		.section	.text.VL53L0X_SetDeviceMode,"ax",%progbits
 2554              		.align	1
 2555              		.global	VL53L0X_SetDeviceMode
 2556              		.syntax unified
 2557              		.thumb
 2558              		.thumb_func
 2559              		.fpu fpv4-sp-d16
 2560              		.type	VL53L0X_SetDeviceMode, %function
 2561              	VL53L0X_SetDeviceMode:
 2562              		@ args = 0, pretend = 0, frame = 16
 2563              		@ frame_needed = 1, uses_anonymous_args = 0
 2564              		@ link register save eliminated.
 2565 0000 80B4     		push	{r7}
ARM GAS  /var/folders/d2/nstgp4h54kz7g1l847x_b8wc0000gn/T//cc7cS1Ev.s 			page 46


 2566 0002 85B0     		sub	sp, sp, #20
 2567 0004 00AF     		add	r7, sp, #0
 2568 0006 7860     		str	r0, [r7, #4]
 2569 0008 0B46     		mov	r3, r1
 2570 000a FB70     		strb	r3, [r7, #3]
 2571 000c 0023     		movs	r3, #0
 2572 000e FB73     		strb	r3, [r7, #15]
 2573 0010 FB78     		ldrb	r3, [r7, #3]	@ zero_extendqisi2
 2574 0012 152B     		cmp	r3, #21
 2575 0014 32D8     		bhi	.L152
 2576 0016 01A2     		adr	r2, .L154
 2577 0018 52F823F0 		ldr	pc, [r2, r3, lsl #2]
 2578              		.p2align 2
 2579              	.L154:
 2580 001c 75000000 		.word	.L153+1
 2581 0020 75000000 		.word	.L153+1
 2582 0024 7D000000 		.word	.L152+1
 2583 0028 75000000 		.word	.L153+1
 2584 002c 7D000000 		.word	.L152+1
 2585 0030 7D000000 		.word	.L152+1
 2586 0034 7D000000 		.word	.L152+1
 2587 0038 7D000000 		.word	.L152+1
 2588 003c 7D000000 		.word	.L152+1
 2589 0040 7D000000 		.word	.L152+1
 2590 0044 7D000000 		.word	.L152+1
 2591 0048 7D000000 		.word	.L152+1
 2592 004c 7D000000 		.word	.L152+1
 2593 0050 7D000000 		.word	.L152+1
 2594 0054 7D000000 		.word	.L152+1
 2595 0058 7D000000 		.word	.L152+1
 2596 005c 7D000000 		.word	.L152+1
 2597 0060 7D000000 		.word	.L152+1
 2598 0064 7D000000 		.word	.L152+1
 2599 0068 7D000000 		.word	.L152+1
 2600 006c 75000000 		.word	.L153+1
 2601 0070 75000000 		.word	.L153+1
 2602              		.p2align 1
 2603              	.L153:
 2604 0074 7B68     		ldr	r3, [r7, #4]
 2605 0076 FA78     		ldrb	r2, [r7, #3]
 2606 0078 1A74     		strb	r2, [r3, #16]
 2607 007a 01E0     		b	.L155
 2608              	.L152:
 2609 007c F823     		movs	r3, #248
 2610 007e FB73     		strb	r3, [r7, #15]
 2611              	.L155:
 2612 0080 97F90F30 		ldrsb	r3, [r7, #15]
 2613 0084 1846     		mov	r0, r3
 2614 0086 1437     		adds	r7, r7, #20
 2615 0088 BD46     		mov	sp, r7
 2616              		@ sp needed
 2617 008a 5DF8047B 		ldr	r7, [sp], #4
 2618 008e 7047     		bx	lr
 2619              		.size	VL53L0X_SetDeviceMode, .-VL53L0X_SetDeviceMode
 2620              		.section	.text.VL53L0X_GetDeviceMode,"ax",%progbits
 2621              		.align	1
 2622              		.global	VL53L0X_GetDeviceMode
ARM GAS  /var/folders/d2/nstgp4h54kz7g1l847x_b8wc0000gn/T//cc7cS1Ev.s 			page 47


 2623              		.syntax unified
 2624              		.thumb
 2625              		.thumb_func
 2626              		.fpu fpv4-sp-d16
 2627              		.type	VL53L0X_GetDeviceMode, %function
 2628              	VL53L0X_GetDeviceMode:
 2629              		@ args = 0, pretend = 0, frame = 16
 2630              		@ frame_needed = 1, uses_anonymous_args = 0
 2631              		@ link register save eliminated.
 2632 0000 80B4     		push	{r7}
 2633 0002 85B0     		sub	sp, sp, #20
 2634 0004 00AF     		add	r7, sp, #0
 2635 0006 7860     		str	r0, [r7, #4]
 2636 0008 3960     		str	r1, [r7]
 2637 000a 0023     		movs	r3, #0
 2638 000c FB73     		strb	r3, [r7, #15]
 2639 000e 7B68     		ldr	r3, [r7, #4]
 2640 0010 1A7C     		ldrb	r2, [r3, #16]	@ zero_extendqisi2
 2641 0012 3B68     		ldr	r3, [r7]
 2642 0014 1A70     		strb	r2, [r3]
 2643 0016 97F90F30 		ldrsb	r3, [r7, #15]
 2644 001a 1846     		mov	r0, r3
 2645 001c 1437     		adds	r7, r7, #20
 2646 001e BD46     		mov	sp, r7
 2647              		@ sp needed
 2648 0020 5DF8047B 		ldr	r7, [sp], #4
 2649 0024 7047     		bx	lr
 2650              		.size	VL53L0X_GetDeviceMode, .-VL53L0X_GetDeviceMode
 2651              		.section	.text.VL53L0X_SetRangeFractionEnable,"ax",%progbits
 2652              		.align	1
 2653              		.global	VL53L0X_SetRangeFractionEnable
 2654              		.syntax unified
 2655              		.thumb
 2656              		.thumb_func
 2657              		.fpu fpv4-sp-d16
 2658              		.type	VL53L0X_SetRangeFractionEnable, %function
 2659              	VL53L0X_SetRangeFractionEnable:
 2660              		@ args = 0, pretend = 0, frame = 16
 2661              		@ frame_needed = 1, uses_anonymous_args = 0
 2662 0000 80B5     		push	{r7, lr}
 2663 0002 84B0     		sub	sp, sp, #16
 2664 0004 00AF     		add	r7, sp, #0
 2665 0006 7860     		str	r0, [r7, #4]
 2666 0008 0B46     		mov	r3, r1
 2667 000a FB70     		strb	r3, [r7, #3]
 2668 000c 0023     		movs	r3, #0
 2669 000e FB73     		strb	r3, [r7, #15]
 2670 0010 FB78     		ldrb	r3, [r7, #3]	@ zero_extendqisi2
 2671 0012 1A46     		mov	r2, r3
 2672 0014 0921     		movs	r1, #9
 2673 0016 7868     		ldr	r0, [r7, #4]
 2674 0018 FFF7FEFF 		bl	VL53L0X_WrByte
 2675 001c 0346     		mov	r3, r0
 2676 001e FB73     		strb	r3, [r7, #15]
 2677 0020 97F90F30 		ldrsb	r3, [r7, #15]
 2678 0024 002B     		cmp	r3, #0
 2679 0026 03D1     		bne	.L160
ARM GAS  /var/folders/d2/nstgp4h54kz7g1l847x_b8wc0000gn/T//cc7cS1Ev.s 			page 48


 2680 0028 7B68     		ldr	r3, [r7, #4]
 2681 002a FA78     		ldrb	r2, [r7, #3]
 2682 002c 83F83121 		strb	r2, [r3, #305]
 2683              	.L160:
 2684 0030 97F90F30 		ldrsb	r3, [r7, #15]
 2685 0034 1846     		mov	r0, r3
 2686 0036 1037     		adds	r7, r7, #16
 2687 0038 BD46     		mov	sp, r7
 2688              		@ sp needed
 2689 003a 80BD     		pop	{r7, pc}
 2690              		.size	VL53L0X_SetRangeFractionEnable, .-VL53L0X_SetRangeFractionEnable
 2691              		.section	.text.VL53L0X_GetFractionEnable,"ax",%progbits
 2692              		.align	1
 2693              		.global	VL53L0X_GetFractionEnable
 2694              		.syntax unified
 2695              		.thumb
 2696              		.thumb_func
 2697              		.fpu fpv4-sp-d16
 2698              		.type	VL53L0X_GetFractionEnable, %function
 2699              	VL53L0X_GetFractionEnable:
 2700              		@ args = 0, pretend = 0, frame = 16
 2701              		@ frame_needed = 1, uses_anonymous_args = 0
 2702 0000 80B5     		push	{r7, lr}
 2703 0002 84B0     		sub	sp, sp, #16
 2704 0004 00AF     		add	r7, sp, #0
 2705 0006 7860     		str	r0, [r7, #4]
 2706 0008 3960     		str	r1, [r7]
 2707 000a 0023     		movs	r3, #0
 2708 000c FB73     		strb	r3, [r7, #15]
 2709 000e 3A68     		ldr	r2, [r7]
 2710 0010 0921     		movs	r1, #9
 2711 0012 7868     		ldr	r0, [r7, #4]
 2712 0014 FFF7FEFF 		bl	VL53L0X_RdByte
 2713 0018 0346     		mov	r3, r0
 2714 001a FB73     		strb	r3, [r7, #15]
 2715 001c 97F90F30 		ldrsb	r3, [r7, #15]
 2716 0020 002B     		cmp	r3, #0
 2717 0022 06D1     		bne	.L163
 2718 0024 3B68     		ldr	r3, [r7]
 2719 0026 1B78     		ldrb	r3, [r3]	@ zero_extendqisi2
 2720 0028 03F00103 		and	r3, r3, #1
 2721 002c DAB2     		uxtb	r2, r3
 2722 002e 3B68     		ldr	r3, [r7]
 2723 0030 1A70     		strb	r2, [r3]
 2724              	.L163:
 2725 0032 97F90F30 		ldrsb	r3, [r7, #15]
 2726 0036 1846     		mov	r0, r3
 2727 0038 1037     		adds	r7, r7, #16
 2728 003a BD46     		mov	sp, r7
 2729              		@ sp needed
 2730 003c 80BD     		pop	{r7, pc}
 2731              		.size	VL53L0X_GetFractionEnable, .-VL53L0X_GetFractionEnable
 2732              		.section	.text.VL53L0X_SetHistogramMode,"ax",%progbits
 2733              		.align	1
 2734              		.global	VL53L0X_SetHistogramMode
 2735              		.syntax unified
 2736              		.thumb
ARM GAS  /var/folders/d2/nstgp4h54kz7g1l847x_b8wc0000gn/T//cc7cS1Ev.s 			page 49


 2737              		.thumb_func
 2738              		.fpu fpv4-sp-d16
 2739              		.type	VL53L0X_SetHistogramMode, %function
 2740              	VL53L0X_SetHistogramMode:
 2741              		@ args = 0, pretend = 0, frame = 16
 2742              		@ frame_needed = 1, uses_anonymous_args = 0
 2743              		@ link register save eliminated.
 2744 0000 80B4     		push	{r7}
 2745 0002 85B0     		sub	sp, sp, #20
 2746 0004 00AF     		add	r7, sp, #0
 2747 0006 7860     		str	r0, [r7, #4]
 2748 0008 0B46     		mov	r3, r1
 2749 000a FB70     		strb	r3, [r7, #3]
 2750 000c 9D23     		movs	r3, #157
 2751 000e FB73     		strb	r3, [r7, #15]
 2752 0010 97F90F30 		ldrsb	r3, [r7, #15]
 2753 0014 1846     		mov	r0, r3
 2754 0016 1437     		adds	r7, r7, #20
 2755 0018 BD46     		mov	sp, r7
 2756              		@ sp needed
 2757 001a 5DF8047B 		ldr	r7, [sp], #4
 2758 001e 7047     		bx	lr
 2759              		.size	VL53L0X_SetHistogramMode, .-VL53L0X_SetHistogramMode
 2760              		.section	.text.VL53L0X_GetHistogramMode,"ax",%progbits
 2761              		.align	1
 2762              		.global	VL53L0X_GetHistogramMode
 2763              		.syntax unified
 2764              		.thumb
 2765              		.thumb_func
 2766              		.fpu fpv4-sp-d16
 2767              		.type	VL53L0X_GetHistogramMode, %function
 2768              	VL53L0X_GetHistogramMode:
 2769              		@ args = 0, pretend = 0, frame = 16
 2770              		@ frame_needed = 1, uses_anonymous_args = 0
 2771              		@ link register save eliminated.
 2772 0000 80B4     		push	{r7}
 2773 0002 85B0     		sub	sp, sp, #20
 2774 0004 00AF     		add	r7, sp, #0
 2775 0006 7860     		str	r0, [r7, #4]
 2776 0008 3960     		str	r1, [r7]
 2777 000a 9D23     		movs	r3, #157
 2778 000c FB73     		strb	r3, [r7, #15]
 2779 000e 97F90F30 		ldrsb	r3, [r7, #15]
 2780 0012 1846     		mov	r0, r3
 2781 0014 1437     		adds	r7, r7, #20
 2782 0016 BD46     		mov	sp, r7
 2783              		@ sp needed
 2784 0018 5DF8047B 		ldr	r7, [sp], #4
 2785 001c 7047     		bx	lr
 2786              		.size	VL53L0X_GetHistogramMode, .-VL53L0X_GetHistogramMode
 2787              		.section	.text.VL53L0X_SetMeasurementTimingBudgetMicroSeconds,"ax",%progbits
 2788              		.align	1
 2789              		.global	VL53L0X_SetMeasurementTimingBudgetMicroSeconds
 2790              		.syntax unified
 2791              		.thumb
 2792              		.thumb_func
 2793              		.fpu fpv4-sp-d16
ARM GAS  /var/folders/d2/nstgp4h54kz7g1l847x_b8wc0000gn/T//cc7cS1Ev.s 			page 50


 2794              		.type	VL53L0X_SetMeasurementTimingBudgetMicroSeconds, %function
 2795              	VL53L0X_SetMeasurementTimingBudgetMicroSeconds:
 2796              		@ args = 0, pretend = 0, frame = 16
 2797              		@ frame_needed = 1, uses_anonymous_args = 0
 2798 0000 80B5     		push	{r7, lr}
 2799 0002 84B0     		sub	sp, sp, #16
 2800 0004 00AF     		add	r7, sp, #0
 2801 0006 7860     		str	r0, [r7, #4]
 2802 0008 3960     		str	r1, [r7]
 2803 000a 0023     		movs	r3, #0
 2804 000c FB73     		strb	r3, [r7, #15]
 2805 000e 3968     		ldr	r1, [r7]
 2806 0010 7868     		ldr	r0, [r7, #4]
 2807 0012 FFF7FEFF 		bl	VL53L0X_set_measurement_timing_budget_micro_seconds
 2808 0016 0346     		mov	r3, r0
 2809 0018 FB73     		strb	r3, [r7, #15]
 2810 001a 97F90F30 		ldrsb	r3, [r7, #15]
 2811 001e 1846     		mov	r0, r3
 2812 0020 1037     		adds	r7, r7, #16
 2813 0022 BD46     		mov	sp, r7
 2814              		@ sp needed
 2815 0024 80BD     		pop	{r7, pc}
 2816              		.size	VL53L0X_SetMeasurementTimingBudgetMicroSeconds, .-VL53L0X_SetMeasurementTimingBudgetMicroSec
 2817              		.section	.text.VL53L0X_GetMeasurementTimingBudgetMicroSeconds,"ax",%progbits
 2818              		.align	1
 2819              		.global	VL53L0X_GetMeasurementTimingBudgetMicroSeconds
 2820              		.syntax unified
 2821              		.thumb
 2822              		.thumb_func
 2823              		.fpu fpv4-sp-d16
 2824              		.type	VL53L0X_GetMeasurementTimingBudgetMicroSeconds, %function
 2825              	VL53L0X_GetMeasurementTimingBudgetMicroSeconds:
 2826              		@ args = 0, pretend = 0, frame = 16
 2827              		@ frame_needed = 1, uses_anonymous_args = 0
 2828 0000 80B5     		push	{r7, lr}
 2829 0002 84B0     		sub	sp, sp, #16
 2830 0004 00AF     		add	r7, sp, #0
 2831 0006 7860     		str	r0, [r7, #4]
 2832 0008 3960     		str	r1, [r7]
 2833 000a 0023     		movs	r3, #0
 2834 000c FB73     		strb	r3, [r7, #15]
 2835 000e 3968     		ldr	r1, [r7]
 2836 0010 7868     		ldr	r0, [r7, #4]
 2837 0012 FFF7FEFF 		bl	VL53L0X_get_measurement_timing_budget_micro_seconds
 2838 0016 0346     		mov	r3, r0
 2839 0018 FB73     		strb	r3, [r7, #15]
 2840 001a 97F90F30 		ldrsb	r3, [r7, #15]
 2841 001e 1846     		mov	r0, r3
 2842 0020 1037     		adds	r7, r7, #16
 2843 0022 BD46     		mov	sp, r7
 2844              		@ sp needed
 2845 0024 80BD     		pop	{r7, pc}
 2846              		.size	VL53L0X_GetMeasurementTimingBudgetMicroSeconds, .-VL53L0X_GetMeasurementTimingBudgetMicroSec
 2847              		.section	.text.VL53L0X_SetVcselPulsePeriod,"ax",%progbits
 2848              		.align	1
 2849              		.global	VL53L0X_SetVcselPulsePeriod
 2850              		.syntax unified
ARM GAS  /var/folders/d2/nstgp4h54kz7g1l847x_b8wc0000gn/T//cc7cS1Ev.s 			page 51


 2851              		.thumb
 2852              		.thumb_func
 2853              		.fpu fpv4-sp-d16
 2854              		.type	VL53L0X_SetVcselPulsePeriod, %function
 2855              	VL53L0X_SetVcselPulsePeriod:
 2856              		@ args = 0, pretend = 0, frame = 16
 2857              		@ frame_needed = 1, uses_anonymous_args = 0
 2858 0000 80B5     		push	{r7, lr}
 2859 0002 84B0     		sub	sp, sp, #16
 2860 0004 00AF     		add	r7, sp, #0
 2861 0006 7860     		str	r0, [r7, #4]
 2862 0008 0B46     		mov	r3, r1
 2863 000a FB70     		strb	r3, [r7, #3]
 2864 000c 1346     		mov	r3, r2
 2865 000e BB70     		strb	r3, [r7, #2]
 2866 0010 0023     		movs	r3, #0
 2867 0012 FB73     		strb	r3, [r7, #15]
 2868 0014 BA78     		ldrb	r2, [r7, #2]	@ zero_extendqisi2
 2869 0016 FB78     		ldrb	r3, [r7, #3]	@ zero_extendqisi2
 2870 0018 1946     		mov	r1, r3
 2871 001a 7868     		ldr	r0, [r7, #4]
 2872 001c FFF7FEFF 		bl	VL53L0X_set_vcsel_pulse_period
 2873 0020 0346     		mov	r3, r0
 2874 0022 FB73     		strb	r3, [r7, #15]
 2875 0024 97F90F30 		ldrsb	r3, [r7, #15]
 2876 0028 1846     		mov	r0, r3
 2877 002a 1037     		adds	r7, r7, #16
 2878 002c BD46     		mov	sp, r7
 2879              		@ sp needed
 2880 002e 80BD     		pop	{r7, pc}
 2881              		.size	VL53L0X_SetVcselPulsePeriod, .-VL53L0X_SetVcselPulsePeriod
 2882              		.section	.text.VL53L0X_GetVcselPulsePeriod,"ax",%progbits
 2883              		.align	1
 2884              		.global	VL53L0X_GetVcselPulsePeriod
 2885              		.syntax unified
 2886              		.thumb
 2887              		.thumb_func
 2888              		.fpu fpv4-sp-d16
 2889              		.type	VL53L0X_GetVcselPulsePeriod, %function
 2890              	VL53L0X_GetVcselPulsePeriod:
 2891              		@ args = 0, pretend = 0, frame = 24
 2892              		@ frame_needed = 1, uses_anonymous_args = 0
 2893 0000 80B5     		push	{r7, lr}
 2894 0002 86B0     		sub	sp, sp, #24
 2895 0004 00AF     		add	r7, sp, #0
 2896 0006 F860     		str	r0, [r7, #12]
 2897 0008 0B46     		mov	r3, r1
 2898 000a 7A60     		str	r2, [r7, #4]
 2899 000c FB72     		strb	r3, [r7, #11]
 2900 000e 0023     		movs	r3, #0
 2901 0010 FB75     		strb	r3, [r7, #23]
 2902 0012 FB7A     		ldrb	r3, [r7, #11]	@ zero_extendqisi2
 2903 0014 7A68     		ldr	r2, [r7, #4]
 2904 0016 1946     		mov	r1, r3
 2905 0018 F868     		ldr	r0, [r7, #12]
 2906 001a FFF7FEFF 		bl	VL53L0X_get_vcsel_pulse_period
 2907 001e 0346     		mov	r3, r0
ARM GAS  /var/folders/d2/nstgp4h54kz7g1l847x_b8wc0000gn/T//cc7cS1Ev.s 			page 52


 2908 0020 FB75     		strb	r3, [r7, #23]
 2909 0022 97F91730 		ldrsb	r3, [r7, #23]
 2910 0026 1846     		mov	r0, r3
 2911 0028 1837     		adds	r7, r7, #24
 2912 002a BD46     		mov	sp, r7
 2913              		@ sp needed
 2914 002c 80BD     		pop	{r7, pc}
 2915              		.size	VL53L0X_GetVcselPulsePeriod, .-VL53L0X_GetVcselPulsePeriod
 2916              		.section	.text.VL53L0X_SetSequenceStepEnable,"ax",%progbits
 2917              		.align	1
 2918              		.global	VL53L0X_SetSequenceStepEnable
 2919              		.syntax unified
 2920              		.thumb
 2921              		.thumb_func
 2922              		.fpu fpv4-sp-d16
 2923              		.type	VL53L0X_SetSequenceStepEnable, %function
 2924              	VL53L0X_SetSequenceStepEnable:
 2925              		@ args = 0, pretend = 0, frame = 24
 2926              		@ frame_needed = 1, uses_anonymous_args = 0
 2927 0000 80B5     		push	{r7, lr}
 2928 0002 86B0     		sub	sp, sp, #24
 2929 0004 00AF     		add	r7, sp, #0
 2930 0006 7860     		str	r0, [r7, #4]
 2931 0008 0B46     		mov	r3, r1
 2932 000a FB70     		strb	r3, [r7, #3]
 2933 000c 1346     		mov	r3, r2
 2934 000e BB70     		strb	r3, [r7, #2]
 2935 0010 0023     		movs	r3, #0
 2936 0012 FB75     		strb	r3, [r7, #23]
 2937 0014 0023     		movs	r3, #0
 2938 0016 FB73     		strb	r3, [r7, #15]
 2939 0018 0023     		movs	r3, #0
 2940 001a BB75     		strb	r3, [r7, #22]
 2941 001c 07F10F03 		add	r3, r7, #15
 2942 0020 1A46     		mov	r2, r3
 2943 0022 0121     		movs	r1, #1
 2944 0024 7868     		ldr	r0, [r7, #4]
 2945 0026 FFF7FEFF 		bl	VL53L0X_RdByte
 2946 002a 0346     		mov	r3, r0
 2947 002c FB75     		strb	r3, [r7, #23]
 2948 002e FB7B     		ldrb	r3, [r7, #15]
 2949 0030 BB75     		strb	r3, [r7, #22]
 2950 0032 97F91730 		ldrsb	r3, [r7, #23]
 2951 0036 002B     		cmp	r3, #0
 2952 0038 5AD1     		bne	.L199
 2953 003a BB78     		ldrb	r3, [r7, #2]	@ zero_extendqisi2
 2954 003c 012B     		cmp	r3, #1
 2955 003e 2BD1     		bne	.L179
 2956 0040 FB78     		ldrb	r3, [r7, #3]	@ zero_extendqisi2
 2957 0042 042B     		cmp	r3, #4
 2958 0044 25D8     		bhi	.L180
 2959 0046 01A2     		adr	r2, .L182
 2960 0048 52F823F0 		ldr	pc, [r2, r3, lsl #2]
 2961              		.p2align 2
 2962              	.L182:
 2963 004c 61000000 		.word	.L181+1
 2964 0050 6B000000 		.word	.L183+1
ARM GAS  /var/folders/d2/nstgp4h54kz7g1l847x_b8wc0000gn/T//cc7cS1Ev.s 			page 53


 2965 0054 75000000 		.word	.L184+1
 2966 0058 7F000000 		.word	.L185+1
 2967 005c 89000000 		.word	.L186+1
 2968              		.p2align 1
 2969              	.L181:
 2970 0060 BB7D     		ldrb	r3, [r7, #22]
 2971 0062 43F01003 		orr	r3, r3, #16
 2972 0066 BB75     		strb	r3, [r7, #22]
 2973 0068 43E0     		b	.L178
 2974              	.L183:
 2975 006a BB7D     		ldrb	r3, [r7, #22]
 2976 006c 43F02803 		orr	r3, r3, #40
 2977 0070 BB75     		strb	r3, [r7, #22]
 2978 0072 3EE0     		b	.L178
 2979              	.L184:
 2980 0074 BB7D     		ldrb	r3, [r7, #22]
 2981 0076 43F00403 		orr	r3, r3, #4
 2982 007a BB75     		strb	r3, [r7, #22]
 2983 007c 39E0     		b	.L178
 2984              	.L185:
 2985 007e BB7D     		ldrb	r3, [r7, #22]
 2986 0080 43F04003 		orr	r3, r3, #64
 2987 0084 BB75     		strb	r3, [r7, #22]
 2988 0086 34E0     		b	.L178
 2989              	.L186:
 2990 0088 BB7D     		ldrb	r3, [r7, #22]
 2991 008a 63F07F03 		orn	r3, r3, #127
 2992 008e BB75     		strb	r3, [r7, #22]
 2993 0090 2FE0     		b	.L178
 2994              	.L180:
 2995 0092 FC23     		movs	r3, #252
 2996 0094 FB75     		strb	r3, [r7, #23]
 2997 0096 2CE0     		b	.L178
 2998              	.L179:
 2999 0098 FB78     		ldrb	r3, [r7, #3]	@ zero_extendqisi2
 3000 009a 042B     		cmp	r3, #4
 3001 009c 25D8     		bhi	.L188
 3002 009e 01A2     		adr	r2, .L190
 3003 00a0 52F823F0 		ldr	pc, [r2, r3, lsl #2]
 3004              		.p2align 2
 3005              	.L190:
 3006 00a4 B9000000 		.word	.L189+1
 3007 00a8 C3000000 		.word	.L191+1
 3008 00ac CD000000 		.word	.L192+1
 3009 00b0 D7000000 		.word	.L193+1
 3010 00b4 E1000000 		.word	.L194+1
 3011              		.p2align 1
 3012              	.L189:
 3013 00b8 BB7D     		ldrb	r3, [r7, #22]
 3014 00ba 23F01003 		bic	r3, r3, #16
 3015 00be BB75     		strb	r3, [r7, #22]
 3016 00c0 17E0     		b	.L178
 3017              	.L191:
 3018 00c2 BB7D     		ldrb	r3, [r7, #22]
 3019 00c4 23F02803 		bic	r3, r3, #40
 3020 00c8 BB75     		strb	r3, [r7, #22]
 3021 00ca 12E0     		b	.L178
ARM GAS  /var/folders/d2/nstgp4h54kz7g1l847x_b8wc0000gn/T//cc7cS1Ev.s 			page 54


 3022              	.L192:
 3023 00cc BB7D     		ldrb	r3, [r7, #22]
 3024 00ce 23F00403 		bic	r3, r3, #4
 3025 00d2 BB75     		strb	r3, [r7, #22]
 3026 00d4 0DE0     		b	.L178
 3027              	.L193:
 3028 00d6 BB7D     		ldrb	r3, [r7, #22]
 3029 00d8 23F04003 		bic	r3, r3, #64
 3030 00dc BB75     		strb	r3, [r7, #22]
 3031 00de 08E0     		b	.L178
 3032              	.L194:
 3033 00e0 BB7D     		ldrb	r3, [r7, #22]
 3034 00e2 03F07F03 		and	r3, r3, #127
 3035 00e6 BB75     		strb	r3, [r7, #22]
 3036 00e8 03E0     		b	.L178
 3037              	.L188:
 3038 00ea FC23     		movs	r3, #252
 3039 00ec FB75     		strb	r3, [r7, #23]
 3040 00ee 00E0     		b	.L178
 3041              	.L199:
 3042 00f0 00BF     		nop
 3043              	.L178:
 3044 00f2 FB7B     		ldrb	r3, [r7, #15]	@ zero_extendqisi2
 3045 00f4 BA7D     		ldrb	r2, [r7, #22]	@ zero_extendqisi2
 3046 00f6 9A42     		cmp	r2, r3
 3047 00f8 1ED0     		beq	.L195
 3048 00fa 97F91730 		ldrsb	r3, [r7, #23]
 3049 00fe 002B     		cmp	r3, #0
 3050 0100 07D1     		bne	.L196
 3051 0102 BB7D     		ldrb	r3, [r7, #22]	@ zero_extendqisi2
 3052 0104 1A46     		mov	r2, r3
 3053 0106 0121     		movs	r1, #1
 3054 0108 7868     		ldr	r0, [r7, #4]
 3055 010a FFF7FEFF 		bl	VL53L0X_WrByte
 3056 010e 0346     		mov	r3, r0
 3057 0110 FB75     		strb	r3, [r7, #23]
 3058              	.L196:
 3059 0112 97F91730 		ldrsb	r3, [r7, #23]
 3060 0116 002B     		cmp	r3, #0
 3061 0118 03D1     		bne	.L197
 3062 011a 7B68     		ldr	r3, [r7, #4]
 3063 011c BA7D     		ldrb	r2, [r7, #22]
 3064 011e 83F83021 		strb	r2, [r3, #304]
 3065              	.L197:
 3066 0122 97F91730 		ldrsb	r3, [r7, #23]
 3067 0126 002B     		cmp	r3, #0
 3068 0128 06D1     		bne	.L195
 3069 012a 7B68     		ldr	r3, [r7, #4]
 3070 012c 5B69     		ldr	r3, [r3, #20]
 3071 012e 3B61     		str	r3, [r7, #16]
 3072 0130 3969     		ldr	r1, [r7, #16]
 3073 0132 7868     		ldr	r0, [r7, #4]
 3074 0134 FFF7FEFF 		bl	VL53L0X_SetMeasurementTimingBudgetMicroSeconds
 3075              	.L195:
 3076 0138 97F91730 		ldrsb	r3, [r7, #23]
 3077 013c 1846     		mov	r0, r3
 3078 013e 1837     		adds	r7, r7, #24
ARM GAS  /var/folders/d2/nstgp4h54kz7g1l847x_b8wc0000gn/T//cc7cS1Ev.s 			page 55


 3079 0140 BD46     		mov	sp, r7
 3080              		@ sp needed
 3081 0142 80BD     		pop	{r7, pc}
 3082              		.size	VL53L0X_SetSequenceStepEnable, .-VL53L0X_SetSequenceStepEnable
 3083              		.section	.text.sequence_step_enabled,"ax",%progbits
 3084              		.align	1
 3085              		.global	sequence_step_enabled
 3086              		.syntax unified
 3087              		.thumb
 3088              		.thumb_func
 3089              		.fpu fpv4-sp-d16
 3090              		.type	sequence_step_enabled, %function
 3091              	sequence_step_enabled:
 3092              		@ args = 0, pretend = 0, frame = 24
 3093              		@ frame_needed = 1, uses_anonymous_args = 0
 3094              		@ link register save eliminated.
 3095 0000 80B4     		push	{r7}
 3096 0002 87B0     		sub	sp, sp, #28
 3097 0004 00AF     		add	r7, sp, #0
 3098 0006 F860     		str	r0, [r7, #12]
 3099 0008 7B60     		str	r3, [r7, #4]
 3100 000a 0B46     		mov	r3, r1
 3101 000c FB72     		strb	r3, [r7, #11]
 3102 000e 1346     		mov	r3, r2
 3103 0010 BB72     		strb	r3, [r7, #10]
 3104 0012 0023     		movs	r3, #0
 3105 0014 FB75     		strb	r3, [r7, #23]
 3106 0016 7B68     		ldr	r3, [r7, #4]
 3107 0018 0022     		movs	r2, #0
 3108 001a 1A70     		strb	r2, [r3]
 3109 001c FB7A     		ldrb	r3, [r7, #11]	@ zero_extendqisi2
 3110 001e 042B     		cmp	r3, #4
 3111 0020 36D8     		bhi	.L201
 3112 0022 01A2     		adr	r2, .L203
 3113 0024 52F823F0 		ldr	pc, [r2, r3, lsl #2]
 3114              		.p2align 2
 3115              	.L203:
 3116 0028 3D000000 		.word	.L202+1
 3117 002c 4F000000 		.word	.L204+1
 3118 0030 61000000 		.word	.L205+1
 3119 0034 73000000 		.word	.L206+1
 3120 0038 85000000 		.word	.L207+1
 3121              		.p2align 1
 3122              	.L202:
 3123 003c BB7A     		ldrb	r3, [r7, #10]	@ zero_extendqisi2
 3124 003e 1B11     		asrs	r3, r3, #4
 3125 0040 DBB2     		uxtb	r3, r3
 3126 0042 03F00103 		and	r3, r3, #1
 3127 0046 DAB2     		uxtb	r2, r3
 3128 0048 7B68     		ldr	r3, [r7, #4]
 3129 004a 1A70     		strb	r2, [r3]
 3130 004c 22E0     		b	.L208
 3131              	.L204:
 3132 004e BB7A     		ldrb	r3, [r7, #10]	@ zero_extendqisi2
 3133 0050 DB10     		asrs	r3, r3, #3
 3134 0052 DBB2     		uxtb	r3, r3
 3135 0054 03F00103 		and	r3, r3, #1
ARM GAS  /var/folders/d2/nstgp4h54kz7g1l847x_b8wc0000gn/T//cc7cS1Ev.s 			page 56


 3136 0058 DAB2     		uxtb	r2, r3
 3137 005a 7B68     		ldr	r3, [r7, #4]
 3138 005c 1A70     		strb	r2, [r3]
 3139 005e 19E0     		b	.L208
 3140              	.L205:
 3141 0060 BB7A     		ldrb	r3, [r7, #10]	@ zero_extendqisi2
 3142 0062 9B10     		asrs	r3, r3, #2
 3143 0064 DBB2     		uxtb	r3, r3
 3144 0066 03F00103 		and	r3, r3, #1
 3145 006a DAB2     		uxtb	r2, r3
 3146 006c 7B68     		ldr	r3, [r7, #4]
 3147 006e 1A70     		strb	r2, [r3]
 3148 0070 10E0     		b	.L208
 3149              	.L206:
 3150 0072 BB7A     		ldrb	r3, [r7, #10]	@ zero_extendqisi2
 3151 0074 9B11     		asrs	r3, r3, #6
 3152 0076 DBB2     		uxtb	r3, r3
 3153 0078 03F00103 		and	r3, r3, #1
 3154 007c DAB2     		uxtb	r2, r3
 3155 007e 7B68     		ldr	r3, [r7, #4]
 3156 0080 1A70     		strb	r2, [r3]
 3157 0082 07E0     		b	.L208
 3158              	.L207:
 3159 0084 BB7A     		ldrb	r3, [r7, #10]	@ zero_extendqisi2
 3160 0086 DB09     		lsrs	r3, r3, #7
 3161 0088 DAB2     		uxtb	r2, r3
 3162 008a 7B68     		ldr	r3, [r7, #4]
 3163 008c 1A70     		strb	r2, [r3]
 3164 008e 01E0     		b	.L208
 3165              	.L201:
 3166 0090 FC23     		movs	r3, #252
 3167 0092 FB75     		strb	r3, [r7, #23]
 3168              	.L208:
 3169 0094 97F91730 		ldrsb	r3, [r7, #23]
 3170 0098 1846     		mov	r0, r3
 3171 009a 1C37     		adds	r7, r7, #28
 3172 009c BD46     		mov	sp, r7
 3173              		@ sp needed
 3174 009e 5DF8047B 		ldr	r7, [sp], #4
 3175 00a2 7047     		bx	lr
 3176              		.size	sequence_step_enabled, .-sequence_step_enabled
 3177              		.section	.text.VL53L0X_GetSequenceStepEnable,"ax",%progbits
 3178              		.align	1
 3179              		.global	VL53L0X_GetSequenceStepEnable
 3180              		.syntax unified
 3181              		.thumb
 3182              		.thumb_func
 3183              		.fpu fpv4-sp-d16
 3184              		.type	VL53L0X_GetSequenceStepEnable, %function
 3185              	VL53L0X_GetSequenceStepEnable:
 3186              		@ args = 0, pretend = 0, frame = 24
 3187              		@ frame_needed = 1, uses_anonymous_args = 0
 3188 0000 80B5     		push	{r7, lr}
 3189 0002 86B0     		sub	sp, sp, #24
 3190 0004 00AF     		add	r7, sp, #0
 3191 0006 F860     		str	r0, [r7, #12]
 3192 0008 0B46     		mov	r3, r1
ARM GAS  /var/folders/d2/nstgp4h54kz7g1l847x_b8wc0000gn/T//cc7cS1Ev.s 			page 57


 3193 000a 7A60     		str	r2, [r7, #4]
 3194 000c FB72     		strb	r3, [r7, #11]
 3195 000e 0023     		movs	r3, #0
 3196 0010 FB75     		strb	r3, [r7, #23]
 3197 0012 0023     		movs	r3, #0
 3198 0014 BB75     		strb	r3, [r7, #22]
 3199 0016 07F11603 		add	r3, r7, #22
 3200 001a 1A46     		mov	r2, r3
 3201 001c 0121     		movs	r1, #1
 3202 001e F868     		ldr	r0, [r7, #12]
 3203 0020 FFF7FEFF 		bl	VL53L0X_RdByte
 3204 0024 0346     		mov	r3, r0
 3205 0026 FB75     		strb	r3, [r7, #23]
 3206 0028 97F91730 		ldrsb	r3, [r7, #23]
 3207 002c 002B     		cmp	r3, #0
 3208 002e 07D1     		bne	.L211
 3209 0030 BA7D     		ldrb	r2, [r7, #22]	@ zero_extendqisi2
 3210 0032 F97A     		ldrb	r1, [r7, #11]	@ zero_extendqisi2
 3211 0034 7B68     		ldr	r3, [r7, #4]
 3212 0036 F868     		ldr	r0, [r7, #12]
 3213 0038 FFF7FEFF 		bl	sequence_step_enabled
 3214 003c 0346     		mov	r3, r0
 3215 003e FB75     		strb	r3, [r7, #23]
 3216              	.L211:
 3217 0040 97F91730 		ldrsb	r3, [r7, #23]
 3218 0044 1846     		mov	r0, r3
 3219 0046 1837     		adds	r7, r7, #24
 3220 0048 BD46     		mov	sp, r7
 3221              		@ sp needed
 3222 004a 80BD     		pop	{r7, pc}
 3223              		.size	VL53L0X_GetSequenceStepEnable, .-VL53L0X_GetSequenceStepEnable
 3224              		.section	.text.VL53L0X_GetSequenceStepEnables,"ax",%progbits
 3225              		.align	1
 3226              		.global	VL53L0X_GetSequenceStepEnables
 3227              		.syntax unified
 3228              		.thumb
 3229              		.thumb_func
 3230              		.fpu fpv4-sp-d16
 3231              		.type	VL53L0X_GetSequenceStepEnables, %function
 3232              	VL53L0X_GetSequenceStepEnables:
 3233              		@ args = 0, pretend = 0, frame = 16
 3234              		@ frame_needed = 1, uses_anonymous_args = 0
 3235 0000 80B5     		push	{r7, lr}
 3236 0002 84B0     		sub	sp, sp, #16
 3237 0004 00AF     		add	r7, sp, #0
 3238 0006 7860     		str	r0, [r7, #4]
 3239 0008 3960     		str	r1, [r7]
 3240 000a 0023     		movs	r3, #0
 3241 000c FB73     		strb	r3, [r7, #15]
 3242 000e 0023     		movs	r3, #0
 3243 0010 BB73     		strb	r3, [r7, #14]
 3244 0012 07F10E03 		add	r3, r7, #14
 3245 0016 1A46     		mov	r2, r3
 3246 0018 0121     		movs	r1, #1
 3247 001a 7868     		ldr	r0, [r7, #4]
 3248 001c FFF7FEFF 		bl	VL53L0X_RdByte
 3249 0020 0346     		mov	r3, r0
ARM GAS  /var/folders/d2/nstgp4h54kz7g1l847x_b8wc0000gn/T//cc7cS1Ev.s 			page 58


 3250 0022 FB73     		strb	r3, [r7, #15]
 3251 0024 97F90F30 		ldrsb	r3, [r7, #15]
 3252 0028 002B     		cmp	r3, #0
 3253 002a 07D1     		bne	.L214
 3254 002c BA7B     		ldrb	r2, [r7, #14]	@ zero_extendqisi2
 3255 002e 3B68     		ldr	r3, [r7]
 3256 0030 0021     		movs	r1, #0
 3257 0032 7868     		ldr	r0, [r7, #4]
 3258 0034 FFF7FEFF 		bl	sequence_step_enabled
 3259 0038 0346     		mov	r3, r0
 3260 003a FB73     		strb	r3, [r7, #15]
 3261              	.L214:
 3262 003c 97F90F30 		ldrsb	r3, [r7, #15]
 3263 0040 002B     		cmp	r3, #0
 3264 0042 08D1     		bne	.L215
 3265 0044 BA7B     		ldrb	r2, [r7, #14]	@ zero_extendqisi2
 3266 0046 3B68     		ldr	r3, [r7]
 3267 0048 0233     		adds	r3, r3, #2
 3268 004a 0121     		movs	r1, #1
 3269 004c 7868     		ldr	r0, [r7, #4]
 3270 004e FFF7FEFF 		bl	sequence_step_enabled
 3271 0052 0346     		mov	r3, r0
 3272 0054 FB73     		strb	r3, [r7, #15]
 3273              	.L215:
 3274 0056 97F90F30 		ldrsb	r3, [r7, #15]
 3275 005a 002B     		cmp	r3, #0
 3276 005c 08D1     		bne	.L216
 3277 005e BA7B     		ldrb	r2, [r7, #14]	@ zero_extendqisi2
 3278 0060 3B68     		ldr	r3, [r7]
 3279 0062 0133     		adds	r3, r3, #1
 3280 0064 0221     		movs	r1, #2
 3281 0066 7868     		ldr	r0, [r7, #4]
 3282 0068 FFF7FEFF 		bl	sequence_step_enabled
 3283 006c 0346     		mov	r3, r0
 3284 006e FB73     		strb	r3, [r7, #15]
 3285              	.L216:
 3286 0070 97F90F30 		ldrsb	r3, [r7, #15]
 3287 0074 002B     		cmp	r3, #0
 3288 0076 08D1     		bne	.L217
 3289 0078 BA7B     		ldrb	r2, [r7, #14]	@ zero_extendqisi2
 3290 007a 3B68     		ldr	r3, [r7]
 3291 007c 0333     		adds	r3, r3, #3
 3292 007e 0321     		movs	r1, #3
 3293 0080 7868     		ldr	r0, [r7, #4]
 3294 0082 FFF7FEFF 		bl	sequence_step_enabled
 3295 0086 0346     		mov	r3, r0
 3296 0088 FB73     		strb	r3, [r7, #15]
 3297              	.L217:
 3298 008a 97F90F30 		ldrsb	r3, [r7, #15]
 3299 008e 002B     		cmp	r3, #0
 3300 0090 08D1     		bne	.L218
 3301 0092 BA7B     		ldrb	r2, [r7, #14]	@ zero_extendqisi2
 3302 0094 3B68     		ldr	r3, [r7]
 3303 0096 0433     		adds	r3, r3, #4
 3304 0098 0421     		movs	r1, #4
 3305 009a 7868     		ldr	r0, [r7, #4]
 3306 009c FFF7FEFF 		bl	sequence_step_enabled
ARM GAS  /var/folders/d2/nstgp4h54kz7g1l847x_b8wc0000gn/T//cc7cS1Ev.s 			page 59


 3307 00a0 0346     		mov	r3, r0
 3308 00a2 FB73     		strb	r3, [r7, #15]
 3309              	.L218:
 3310 00a4 97F90F30 		ldrsb	r3, [r7, #15]
 3311 00a8 1846     		mov	r0, r3
 3312 00aa 1037     		adds	r7, r7, #16
 3313 00ac BD46     		mov	sp, r7
 3314              		@ sp needed
 3315 00ae 80BD     		pop	{r7, pc}
 3316              		.size	VL53L0X_GetSequenceStepEnables, .-VL53L0X_GetSequenceStepEnables
 3317              		.section	.text.VL53L0X_GetNumberOfSequenceSteps,"ax",%progbits
 3318              		.align	1
 3319              		.global	VL53L0X_GetNumberOfSequenceSteps
 3320              		.syntax unified
 3321              		.thumb
 3322              		.thumb_func
 3323              		.fpu fpv4-sp-d16
 3324              		.type	VL53L0X_GetNumberOfSequenceSteps, %function
 3325              	VL53L0X_GetNumberOfSequenceSteps:
 3326              		@ args = 0, pretend = 0, frame = 16
 3327              		@ frame_needed = 1, uses_anonymous_args = 0
 3328              		@ link register save eliminated.
 3329 0000 80B4     		push	{r7}
 3330 0002 85B0     		sub	sp, sp, #20
 3331 0004 00AF     		add	r7, sp, #0
 3332 0006 7860     		str	r0, [r7, #4]
 3333 0008 3960     		str	r1, [r7]
 3334 000a 0023     		movs	r3, #0
 3335 000c FB73     		strb	r3, [r7, #15]
 3336 000e 3B68     		ldr	r3, [r7]
 3337 0010 0522     		movs	r2, #5
 3338 0012 1A70     		strb	r2, [r3]
 3339 0014 97F90F30 		ldrsb	r3, [r7, #15]
 3340 0018 1846     		mov	r0, r3
 3341 001a 1437     		adds	r7, r7, #20
 3342 001c BD46     		mov	sp, r7
 3343              		@ sp needed
 3344 001e 5DF8047B 		ldr	r7, [sp], #4
 3345 0022 7047     		bx	lr
 3346              		.size	VL53L0X_GetNumberOfSequenceSteps, .-VL53L0X_GetNumberOfSequenceSteps
 3347              		.section	.text.VL53L0X_GetSequenceStepsInfo,"ax",%progbits
 3348              		.align	1
 3349              		.global	VL53L0X_GetSequenceStepsInfo
 3350              		.syntax unified
 3351              		.thumb
 3352              		.thumb_func
 3353              		.fpu fpv4-sp-d16
 3354              		.type	VL53L0X_GetSequenceStepsInfo, %function
 3355              	VL53L0X_GetSequenceStepsInfo:
 3356              		@ args = 0, pretend = 0, frame = 16
 3357              		@ frame_needed = 1, uses_anonymous_args = 0
 3358 0000 80B5     		push	{r7, lr}
 3359 0002 84B0     		sub	sp, sp, #16
 3360 0004 00AF     		add	r7, sp, #0
 3361 0006 0346     		mov	r3, r0
 3362 0008 3960     		str	r1, [r7]
 3363 000a FB71     		strb	r3, [r7, #7]
ARM GAS  /var/folders/d2/nstgp4h54kz7g1l847x_b8wc0000gn/T//cc7cS1Ev.s 			page 60


 3364 000c 0023     		movs	r3, #0
 3365 000e FB73     		strb	r3, [r7, #15]
 3366 0010 FB79     		ldrb	r3, [r7, #7]	@ zero_extendqisi2
 3367 0012 3968     		ldr	r1, [r7]
 3368 0014 1846     		mov	r0, r3
 3369 0016 FFF7FEFF 		bl	VL53L0X_get_sequence_steps_info
 3370 001a 0346     		mov	r3, r0
 3371 001c FB73     		strb	r3, [r7, #15]
 3372 001e 97F90F30 		ldrsb	r3, [r7, #15]
 3373 0022 1846     		mov	r0, r3
 3374 0024 1037     		adds	r7, r7, #16
 3375 0026 BD46     		mov	sp, r7
 3376              		@ sp needed
 3377 0028 80BD     		pop	{r7, pc}
 3378              		.size	VL53L0X_GetSequenceStepsInfo, .-VL53L0X_GetSequenceStepsInfo
 3379              		.section	.text.VL53L0X_SetSequenceStepTimeout,"ax",%progbits
 3380              		.align	1
 3381              		.global	VL53L0X_SetSequenceStepTimeout
 3382              		.syntax unified
 3383              		.thumb
 3384              		.thumb_func
 3385              		.fpu fpv4-sp-d16
 3386              		.type	VL53L0X_SetSequenceStepTimeout, %function
 3387              	VL53L0X_SetSequenceStepTimeout:
 3388              		@ args = 0, pretend = 0, frame = 32
 3389              		@ frame_needed = 1, uses_anonymous_args = 0
 3390 0000 80B5     		push	{r7, lr}
 3391 0002 88B0     		sub	sp, sp, #32
 3392 0004 00AF     		add	r7, sp, #0
 3393 0006 F860     		str	r0, [r7, #12]
 3394 0008 0B46     		mov	r3, r1
 3395 000a 7A60     		str	r2, [r7, #4]
 3396 000c FB72     		strb	r3, [r7, #11]
 3397 000e 0023     		movs	r3, #0
 3398 0010 FB77     		strb	r3, [r7, #31]
 3399 0012 0023     		movs	r3, #0
 3400 0014 BB77     		strb	r3, [r7, #30]
 3401 0016 7B68     		ldr	r3, [r7, #4]
 3402 0018 4FF47A72 		mov	r2, #1000
 3403 001c 02FB03F3 		mul	r3, r2, r3
 3404 0020 03F50043 		add	r3, r3, #32768
 3405 0024 1B0C     		lsrs	r3, r3, #16
 3406 0026 BB61     		str	r3, [r7, #24]
 3407 0028 07F11002 		add	r2, r7, #16
 3408 002c FB7A     		ldrb	r3, [r7, #11]	@ zero_extendqisi2
 3409 002e 1946     		mov	r1, r3
 3410 0030 F868     		ldr	r0, [r7, #12]
 3411 0032 FFF7FEFF 		bl	get_sequence_step_timeout
 3412 0036 0346     		mov	r3, r0
 3413 0038 FB77     		strb	r3, [r7, #31]
 3414 003a 97F91F30 		ldrsb	r3, [r7, #31]
 3415 003e 002B     		cmp	r3, #0
 3416 0040 07D1     		bne	.L225
 3417 0042 FB7A     		ldrb	r3, [r7, #11]	@ zero_extendqisi2
 3418 0044 BA69     		ldr	r2, [r7, #24]
 3419 0046 1946     		mov	r1, r3
 3420 0048 F868     		ldr	r0, [r7, #12]
ARM GAS  /var/folders/d2/nstgp4h54kz7g1l847x_b8wc0000gn/T//cc7cS1Ev.s 			page 61


 3421 004a FFF7FEFF 		bl	set_sequence_step_timeout
 3422 004e 0346     		mov	r3, r0
 3423 0050 FB77     		strb	r3, [r7, #31]
 3424              	.L225:
 3425 0052 97F91F30 		ldrsb	r3, [r7, #31]
 3426 0056 002B     		cmp	r3, #0
 3427 0058 20D1     		bne	.L226
 3428 005a FB68     		ldr	r3, [r7, #12]
 3429 005c 5B69     		ldr	r3, [r3, #20]
 3430 005e 7B61     		str	r3, [r7, #20]
 3431 0060 7969     		ldr	r1, [r7, #20]
 3432 0062 F868     		ldr	r0, [r7, #12]
 3433 0064 FFF7FEFF 		bl	VL53L0X_SetMeasurementTimingBudgetMicroSeconds
 3434 0068 0346     		mov	r3, r0
 3435 006a FB77     		strb	r3, [r7, #31]
 3436 006c 97F91F30 		ldrsb	r3, [r7, #31]
 3437 0070 002B     		cmp	r3, #0
 3438 0072 13D0     		beq	.L226
 3439 0074 3A69     		ldr	r2, [r7, #16]
 3440 0076 FB7A     		ldrb	r3, [r7, #11]	@ zero_extendqisi2
 3441 0078 1946     		mov	r1, r3
 3442 007a F868     		ldr	r0, [r7, #12]
 3443 007c FFF7FEFF 		bl	set_sequence_step_timeout
 3444 0080 0346     		mov	r3, r0
 3445 0082 BB77     		strb	r3, [r7, #30]
 3446 0084 97F91E30 		ldrsb	r3, [r7, #30]
 3447 0088 002B     		cmp	r3, #0
 3448 008a 05D1     		bne	.L227
 3449 008c 7969     		ldr	r1, [r7, #20]
 3450 008e F868     		ldr	r0, [r7, #12]
 3451 0090 FFF7FEFF 		bl	VL53L0X_SetMeasurementTimingBudgetMicroSeconds
 3452 0094 0346     		mov	r3, r0
 3453 0096 BB77     		strb	r3, [r7, #30]
 3454              	.L227:
 3455 0098 BB7F     		ldrb	r3, [r7, #30]
 3456 009a FB77     		strb	r3, [r7, #31]
 3457              	.L226:
 3458 009c 97F91F30 		ldrsb	r3, [r7, #31]
 3459 00a0 1846     		mov	r0, r3
 3460 00a2 2037     		adds	r7, r7, #32
 3461 00a4 BD46     		mov	sp, r7
 3462              		@ sp needed
 3463 00a6 80BD     		pop	{r7, pc}
 3464              		.size	VL53L0X_SetSequenceStepTimeout, .-VL53L0X_SetSequenceStepTimeout
 3465              		.section	.text.VL53L0X_GetSequenceStepTimeout,"ax",%progbits
 3466              		.align	1
 3467              		.global	VL53L0X_GetSequenceStepTimeout
 3468              		.syntax unified
 3469              		.thumb
 3470              		.thumb_func
 3471              		.fpu fpv4-sp-d16
 3472              		.type	VL53L0X_GetSequenceStepTimeout, %function
 3473              	VL53L0X_GetSequenceStepTimeout:
 3474              		@ args = 0, pretend = 0, frame = 24
 3475              		@ frame_needed = 1, uses_anonymous_args = 0
 3476 0000 80B5     		push	{r7, lr}
 3477 0002 86B0     		sub	sp, sp, #24
ARM GAS  /var/folders/d2/nstgp4h54kz7g1l847x_b8wc0000gn/T//cc7cS1Ev.s 			page 62


 3478 0004 00AF     		add	r7, sp, #0
 3479 0006 F860     		str	r0, [r7, #12]
 3480 0008 0B46     		mov	r3, r1
 3481 000a 7A60     		str	r2, [r7, #4]
 3482 000c FB72     		strb	r3, [r7, #11]
 3483 000e 0023     		movs	r3, #0
 3484 0010 FB75     		strb	r3, [r7, #23]
 3485 0012 07F11002 		add	r2, r7, #16
 3486 0016 FB7A     		ldrb	r3, [r7, #11]	@ zero_extendqisi2
 3487 0018 1946     		mov	r1, r3
 3488 001a F868     		ldr	r0, [r7, #12]
 3489 001c FFF7FEFF 		bl	get_sequence_step_timeout
 3490 0020 0346     		mov	r3, r0
 3491 0022 FB75     		strb	r3, [r7, #23]
 3492 0024 97F91730 		ldrsb	r3, [r7, #23]
 3493 0028 002B     		cmp	r3, #0
 3494 002a 10D1     		bne	.L230
 3495 002c 3B69     		ldr	r3, [r7, #16]
 3496 002e 1B02     		lsls	r3, r3, #8
 3497 0030 3B61     		str	r3, [r7, #16]
 3498 0032 3B69     		ldr	r3, [r7, #16]
 3499 0034 03F5FA73 		add	r3, r3, #500
 3500 0038 084A     		ldr	r2, .L232
 3501 003a A2FB0323 		umull	r2, r3, r2, r3
 3502 003e 9A09     		lsrs	r2, r3, #6
 3503 0040 7B68     		ldr	r3, [r7, #4]
 3504 0042 1A60     		str	r2, [r3]
 3505 0044 7B68     		ldr	r3, [r7, #4]
 3506 0046 1B68     		ldr	r3, [r3]
 3507 0048 1A02     		lsls	r2, r3, #8
 3508 004a 7B68     		ldr	r3, [r7, #4]
 3509 004c 1A60     		str	r2, [r3]
 3510              	.L230:
 3511 004e 97F91730 		ldrsb	r3, [r7, #23]
 3512 0052 1846     		mov	r0, r3
 3513 0054 1837     		adds	r7, r7, #24
 3514 0056 BD46     		mov	sp, r7
 3515              		@ sp needed
 3516 0058 80BD     		pop	{r7, pc}
 3517              	.L233:
 3518 005a 00BF     		.align	2
 3519              	.L232:
 3520 005c D34D6210 		.word	274877907
 3521              		.size	VL53L0X_GetSequenceStepTimeout, .-VL53L0X_GetSequenceStepTimeout
 3522              		.section	.text.VL53L0X_SetInterMeasurementPeriodMilliSeconds,"ax",%progbits
 3523              		.align	1
 3524              		.global	VL53L0X_SetInterMeasurementPeriodMilliSeconds
 3525              		.syntax unified
 3526              		.thumb
 3527              		.thumb_func
 3528              		.fpu fpv4-sp-d16
 3529              		.type	VL53L0X_SetInterMeasurementPeriodMilliSeconds, %function
 3530              	VL53L0X_SetInterMeasurementPeriodMilliSeconds:
 3531              		@ args = 0, pretend = 0, frame = 24
 3532              		@ frame_needed = 1, uses_anonymous_args = 0
 3533 0000 80B5     		push	{r7, lr}
 3534 0002 86B0     		sub	sp, sp, #24
ARM GAS  /var/folders/d2/nstgp4h54kz7g1l847x_b8wc0000gn/T//cc7cS1Ev.s 			page 63


 3535 0004 00AF     		add	r7, sp, #0
 3536 0006 7860     		str	r0, [r7, #4]
 3537 0008 3960     		str	r1, [r7]
 3538 000a 0023     		movs	r3, #0
 3539 000c FB75     		strb	r3, [r7, #23]
 3540 000e 07F10E03 		add	r3, r7, #14
 3541 0012 1A46     		mov	r2, r3
 3542 0014 F821     		movs	r1, #248
 3543 0016 7868     		ldr	r0, [r7, #4]
 3544 0018 FFF7FEFF 		bl	VL53L0X_RdWord
 3545 001c 0346     		mov	r3, r0
 3546 001e FB75     		strb	r3, [r7, #23]
 3547 0020 97F91730 		ldrsb	r3, [r7, #23]
 3548 0024 002B     		cmp	r3, #0
 3549 0026 12D1     		bne	.L235
 3550 0028 FB89     		ldrh	r3, [r7, #14]
 3551 002a 002B     		cmp	r3, #0
 3552 002c 06D0     		beq	.L236
 3553 002e FB89     		ldrh	r3, [r7, #14]
 3554 0030 1A46     		mov	r2, r3
 3555 0032 3B68     		ldr	r3, [r7]
 3556 0034 02FB03F3 		mul	r3, r2, r3
 3557 0038 3B61     		str	r3, [r7, #16]
 3558 003a 01E0     		b	.L237
 3559              	.L236:
 3560 003c 3B68     		ldr	r3, [r7]
 3561 003e 3B61     		str	r3, [r7, #16]
 3562              	.L237:
 3563 0040 3A69     		ldr	r2, [r7, #16]
 3564 0042 0421     		movs	r1, #4
 3565 0044 7868     		ldr	r0, [r7, #4]
 3566 0046 FFF7FEFF 		bl	VL53L0X_WrDWord
 3567 004a 0346     		mov	r3, r0
 3568 004c FB75     		strb	r3, [r7, #23]
 3569              	.L235:
 3570 004e 97F91730 		ldrsb	r3, [r7, #23]
 3571 0052 002B     		cmp	r3, #0
 3572 0054 02D1     		bne	.L238
 3573 0056 7B68     		ldr	r3, [r7, #4]
 3574 0058 3A68     		ldr	r2, [r7]
 3575 005a 9A61     		str	r2, [r3, #24]
 3576              	.L238:
 3577 005c 97F91730 		ldrsb	r3, [r7, #23]
 3578 0060 1846     		mov	r0, r3
 3579 0062 1837     		adds	r7, r7, #24
 3580 0064 BD46     		mov	sp, r7
 3581              		@ sp needed
 3582 0066 80BD     		pop	{r7, pc}
 3583              		.size	VL53L0X_SetInterMeasurementPeriodMilliSeconds, .-VL53L0X_SetInterMeasurementPeriodMilliSecon
 3584              		.section	.text.VL53L0X_GetInterMeasurementPeriodMilliSeconds,"ax",%progbits
 3585              		.align	1
 3586              		.global	VL53L0X_GetInterMeasurementPeriodMilliSeconds
 3587              		.syntax unified
 3588              		.thumb
 3589              		.thumb_func
 3590              		.fpu fpv4-sp-d16
 3591              		.type	VL53L0X_GetInterMeasurementPeriodMilliSeconds, %function
ARM GAS  /var/folders/d2/nstgp4h54kz7g1l847x_b8wc0000gn/T//cc7cS1Ev.s 			page 64


 3592              	VL53L0X_GetInterMeasurementPeriodMilliSeconds:
 3593              		@ args = 0, pretend = 0, frame = 16
 3594              		@ frame_needed = 1, uses_anonymous_args = 0
 3595 0000 80B5     		push	{r7, lr}
 3596 0002 84B0     		sub	sp, sp, #16
 3597 0004 00AF     		add	r7, sp, #0
 3598 0006 7860     		str	r0, [r7, #4]
 3599 0008 3960     		str	r1, [r7]
 3600 000a 0023     		movs	r3, #0
 3601 000c FB73     		strb	r3, [r7, #15]
 3602 000e 07F10C03 		add	r3, r7, #12
 3603 0012 1A46     		mov	r2, r3
 3604 0014 F821     		movs	r1, #248
 3605 0016 7868     		ldr	r0, [r7, #4]
 3606 0018 FFF7FEFF 		bl	VL53L0X_RdWord
 3607 001c 0346     		mov	r3, r0
 3608 001e FB73     		strb	r3, [r7, #15]
 3609 0020 97F90F30 		ldrsb	r3, [r7, #15]
 3610 0024 002B     		cmp	r3, #0
 3611 0026 08D1     		bne	.L241
 3612 0028 07F10803 		add	r3, r7, #8
 3613 002c 1A46     		mov	r2, r3
 3614 002e 0421     		movs	r1, #4
 3615 0030 7868     		ldr	r0, [r7, #4]
 3616 0032 FFF7FEFF 		bl	VL53L0X_RdDWord
 3617 0036 0346     		mov	r3, r0
 3618 0038 FB73     		strb	r3, [r7, #15]
 3619              	.L241:
 3620 003a 97F90F30 		ldrsb	r3, [r7, #15]
 3621 003e 002B     		cmp	r3, #0
 3622 0040 0CD1     		bne	.L242
 3623 0042 BB89     		ldrh	r3, [r7, #12]
 3624 0044 002B     		cmp	r3, #0
 3625 0046 05D0     		beq	.L243
 3626 0048 BB68     		ldr	r3, [r7, #8]
 3627 004a BA89     		ldrh	r2, [r7, #12]
 3628 004c B3FBF2F2 		udiv	r2, r3, r2
 3629 0050 3B68     		ldr	r3, [r7]
 3630 0052 1A60     		str	r2, [r3]
 3631              	.L243:
 3632 0054 3B68     		ldr	r3, [r7]
 3633 0056 1A68     		ldr	r2, [r3]
 3634 0058 7B68     		ldr	r3, [r7, #4]
 3635 005a 9A61     		str	r2, [r3, #24]
 3636              	.L242:
 3637 005c 97F90F30 		ldrsb	r3, [r7, #15]
 3638 0060 1846     		mov	r0, r3
 3639 0062 1037     		adds	r7, r7, #16
 3640 0064 BD46     		mov	sp, r7
 3641              		@ sp needed
 3642 0066 80BD     		pop	{r7, pc}
 3643              		.size	VL53L0X_GetInterMeasurementPeriodMilliSeconds, .-VL53L0X_GetInterMeasurementPeriodMilliSecon
 3644              		.section	.text.VL53L0X_SetXTalkCompensationEnable,"ax",%progbits
 3645              		.align	1
 3646              		.global	VL53L0X_SetXTalkCompensationEnable
 3647              		.syntax unified
 3648              		.thumb
ARM GAS  /var/folders/d2/nstgp4h54kz7g1l847x_b8wc0000gn/T//cc7cS1Ev.s 			page 65


 3649              		.thumb_func
 3650              		.fpu fpv4-sp-d16
 3651              		.type	VL53L0X_SetXTalkCompensationEnable, %function
 3652              	VL53L0X_SetXTalkCompensationEnable:
 3653              		@ args = 0, pretend = 0, frame = 16
 3654              		@ frame_needed = 1, uses_anonymous_args = 0
 3655 0000 80B5     		push	{r7, lr}
 3656 0002 84B0     		sub	sp, sp, #16
 3657 0004 00AF     		add	r7, sp, #0
 3658 0006 7860     		str	r0, [r7, #4]
 3659 0008 0B46     		mov	r3, r1
 3660 000a FB70     		strb	r3, [r7, #3]
 3661 000c 0023     		movs	r3, #0
 3662 000e FB72     		strb	r3, [r7, #11]
 3663 0010 7B68     		ldr	r3, [r7, #4]
 3664 0012 B3F85231 		ldrh	r3, [r3, #338]	@ movhi
 3665 0016 3B81     		strh	r3, [r7, #8]	@ movhi
 3666 0018 FB78     		ldrb	r3, [r7, #3]	@ zero_extendqisi2
 3667 001a 002B     		cmp	r3, #0
 3668 001c 03D0     		beq	.L246
 3669 001e 3B89     		ldrh	r3, [r7, #8]
 3670 0020 B3F57A7F 		cmp	r3, #1000
 3671 0024 02D0     		beq	.L247
 3672              	.L246:
 3673 0026 0023     		movs	r3, #0
 3674 0028 FB60     		str	r3, [r7, #12]
 3675 002a 02E0     		b	.L248
 3676              	.L247:
 3677 002c 7B68     		ldr	r3, [r7, #4]
 3678 002e 1B6A     		ldr	r3, [r3, #32]
 3679 0030 FB60     		str	r3, [r7, #12]
 3680              	.L248:
 3681 0032 FB68     		ldr	r3, [r7, #12]
 3682 0034 DB08     		lsrs	r3, r3, #3
 3683 0036 9BB2     		uxth	r3, r3
 3684 0038 1A46     		mov	r2, r3
 3685 003a 2021     		movs	r1, #32
 3686 003c 7868     		ldr	r0, [r7, #4]
 3687 003e FFF7FEFF 		bl	VL53L0X_WrWord
 3688 0042 0346     		mov	r3, r0
 3689 0044 FB72     		strb	r3, [r7, #11]
 3690 0046 97F90B30 		ldrsb	r3, [r7, #11]
 3691 004a 002B     		cmp	r3, #0
 3692 004c 09D1     		bne	.L249
 3693 004e FB78     		ldrb	r3, [r7, #3]	@ zero_extendqisi2
 3694 0050 002B     		cmp	r3, #0
 3695 0052 03D1     		bne	.L250
 3696 0054 7B68     		ldr	r3, [r7, #4]
 3697 0056 0022     		movs	r2, #0
 3698 0058 1A77     		strb	r2, [r3, #28]
 3699 005a 02E0     		b	.L249
 3700              	.L250:
 3701 005c 7B68     		ldr	r3, [r7, #4]
 3702 005e 0122     		movs	r2, #1
 3703 0060 1A77     		strb	r2, [r3, #28]
 3704              	.L249:
 3705 0062 97F90B30 		ldrsb	r3, [r7, #11]
ARM GAS  /var/folders/d2/nstgp4h54kz7g1l847x_b8wc0000gn/T//cc7cS1Ev.s 			page 66


 3706 0066 1846     		mov	r0, r3
 3707 0068 1037     		adds	r7, r7, #16
 3708 006a BD46     		mov	sp, r7
 3709              		@ sp needed
 3710 006c 80BD     		pop	{r7, pc}
 3711              		.size	VL53L0X_SetXTalkCompensationEnable, .-VL53L0X_SetXTalkCompensationEnable
 3712              		.section	.text.VL53L0X_GetXTalkCompensationEnable,"ax",%progbits
 3713              		.align	1
 3714              		.global	VL53L0X_GetXTalkCompensationEnable
 3715              		.syntax unified
 3716              		.thumb
 3717              		.thumb_func
 3718              		.fpu fpv4-sp-d16
 3719              		.type	VL53L0X_GetXTalkCompensationEnable, %function
 3720              	VL53L0X_GetXTalkCompensationEnable:
 3721              		@ args = 0, pretend = 0, frame = 16
 3722              		@ frame_needed = 1, uses_anonymous_args = 0
 3723              		@ link register save eliminated.
 3724 0000 80B4     		push	{r7}
 3725 0002 85B0     		sub	sp, sp, #20
 3726 0004 00AF     		add	r7, sp, #0
 3727 0006 7860     		str	r0, [r7, #4]
 3728 0008 3960     		str	r1, [r7]
 3729 000a 0023     		movs	r3, #0
 3730 000c FB73     		strb	r3, [r7, #15]
 3731 000e 7B68     		ldr	r3, [r7, #4]
 3732 0010 1B7F     		ldrb	r3, [r3, #28]
 3733 0012 BB73     		strb	r3, [r7, #14]
 3734 0014 3B68     		ldr	r3, [r7]
 3735 0016 BA7B     		ldrb	r2, [r7, #14]
 3736 0018 1A70     		strb	r2, [r3]
 3737 001a 97F90F30 		ldrsb	r3, [r7, #15]
 3738 001e 1846     		mov	r0, r3
 3739 0020 1437     		adds	r7, r7, #20
 3740 0022 BD46     		mov	sp, r7
 3741              		@ sp needed
 3742 0024 5DF8047B 		ldr	r7, [sp], #4
 3743 0028 7047     		bx	lr
 3744              		.size	VL53L0X_GetXTalkCompensationEnable, .-VL53L0X_GetXTalkCompensationEnable
 3745              		.section	.text.VL53L0X_SetXTalkCompensationRateMegaCps,"ax",%progbits
 3746              		.align	1
 3747              		.global	VL53L0X_SetXTalkCompensationRateMegaCps
 3748              		.syntax unified
 3749              		.thumb
 3750              		.thumb_func
 3751              		.fpu fpv4-sp-d16
 3752              		.type	VL53L0X_SetXTalkCompensationRateMegaCps, %function
 3753              	VL53L0X_SetXTalkCompensationRateMegaCps:
 3754              		@ args = 0, pretend = 0, frame = 16
 3755              		@ frame_needed = 1, uses_anonymous_args = 0
 3756 0000 80B5     		push	{r7, lr}
 3757 0002 84B0     		sub	sp, sp, #16
 3758 0004 00AF     		add	r7, sp, #0
 3759 0006 7860     		str	r0, [r7, #4]
 3760 0008 3960     		str	r1, [r7]
 3761 000a 0023     		movs	r3, #0
 3762 000c FB73     		strb	r3, [r7, #15]
ARM GAS  /var/folders/d2/nstgp4h54kz7g1l847x_b8wc0000gn/T//cc7cS1Ev.s 			page 67


 3763 000e 7B68     		ldr	r3, [r7, #4]
 3764 0010 1B7F     		ldrb	r3, [r3, #28]
 3765 0012 FB72     		strb	r3, [r7, #11]
 3766 0014 7B68     		ldr	r3, [r7, #4]
 3767 0016 B3F85231 		ldrh	r3, [r3, #338]	@ movhi
 3768 001a 3B81     		strh	r3, [r7, #8]	@ movhi
 3769 001c FB7A     		ldrb	r3, [r7, #11]	@ zero_extendqisi2
 3770 001e 002B     		cmp	r3, #0
 3771 0020 03D1     		bne	.L255
 3772 0022 7B68     		ldr	r3, [r7, #4]
 3773 0024 3A68     		ldr	r2, [r7]
 3774 0026 1A62     		str	r2, [r3, #32]
 3775 0028 18E0     		b	.L256
 3776              	.L255:
 3777 002a 3B89     		ldrh	r3, [r7, #8]
 3778 002c B3F57A7F 		cmp	r3, #1000
 3779 0030 03D1     		bne	.L257
 3780 0032 3B68     		ldr	r3, [r7]
 3781 0034 DB08     		lsrs	r3, r3, #3
 3782 0036 BB81     		strh	r3, [r7, #12]	@ movhi
 3783 0038 01E0     		b	.L258
 3784              	.L257:
 3785 003a 0023     		movs	r3, #0
 3786 003c BB81     		strh	r3, [r7, #12]	@ movhi
 3787              	.L258:
 3788 003e BB89     		ldrh	r3, [r7, #12]
 3789 0040 1A46     		mov	r2, r3
 3790 0042 2021     		movs	r1, #32
 3791 0044 7868     		ldr	r0, [r7, #4]
 3792 0046 FFF7FEFF 		bl	VL53L0X_WrWord
 3793 004a 0346     		mov	r3, r0
 3794 004c FB73     		strb	r3, [r7, #15]
 3795 004e 97F90F30 		ldrsb	r3, [r7, #15]
 3796 0052 002B     		cmp	r3, #0
 3797 0054 02D1     		bne	.L256
 3798 0056 7B68     		ldr	r3, [r7, #4]
 3799 0058 3A68     		ldr	r2, [r7]
 3800 005a 1A62     		str	r2, [r3, #32]
 3801              	.L256:
 3802 005c 97F90F30 		ldrsb	r3, [r7, #15]
 3803 0060 1846     		mov	r0, r3
 3804 0062 1037     		adds	r7, r7, #16
 3805 0064 BD46     		mov	sp, r7
 3806              		@ sp needed
 3807 0066 80BD     		pop	{r7, pc}
 3808              		.size	VL53L0X_SetXTalkCompensationRateMegaCps, .-VL53L0X_SetXTalkCompensationRateMegaCps
 3809              		.section	.text.VL53L0X_GetXTalkCompensationRateMegaCps,"ax",%progbits
 3810              		.align	1
 3811              		.global	VL53L0X_GetXTalkCompensationRateMegaCps
 3812              		.syntax unified
 3813              		.thumb
 3814              		.thumb_func
 3815              		.fpu fpv4-sp-d16
 3816              		.type	VL53L0X_GetXTalkCompensationRateMegaCps, %function
 3817              	VL53L0X_GetXTalkCompensationRateMegaCps:
 3818              		@ args = 0, pretend = 0, frame = 24
 3819              		@ frame_needed = 1, uses_anonymous_args = 0
ARM GAS  /var/folders/d2/nstgp4h54kz7g1l847x_b8wc0000gn/T//cc7cS1Ev.s 			page 68


 3820 0000 80B5     		push	{r7, lr}
 3821 0002 86B0     		sub	sp, sp, #24
 3822 0004 00AF     		add	r7, sp, #0
 3823 0006 7860     		str	r0, [r7, #4]
 3824 0008 3960     		str	r1, [r7]
 3825 000a 0023     		movs	r3, #0
 3826 000c FB75     		strb	r3, [r7, #23]
 3827 000e 07F10E03 		add	r3, r7, #14
 3828 0012 1A46     		mov	r2, r3
 3829 0014 2021     		movs	r1, #32
 3830 0016 7868     		ldr	r0, [r7, #4]
 3831 0018 FFF7FEFF 		bl	VL53L0X_RdWord
 3832 001c 0346     		mov	r3, r0
 3833 001e FB75     		strb	r3, [r7, #23]
 3834 0020 97F91730 		ldrsb	r3, [r7, #23]
 3835 0024 002B     		cmp	r3, #0
 3836 0026 18D1     		bne	.L261
 3837 0028 FB89     		ldrh	r3, [r7, #14]
 3838 002a 002B     		cmp	r3, #0
 3839 002c 09D1     		bne	.L262
 3840 002e 7B68     		ldr	r3, [r7, #4]
 3841 0030 1B6A     		ldr	r3, [r3, #32]
 3842 0032 3B61     		str	r3, [r7, #16]
 3843 0034 3B68     		ldr	r3, [r7]
 3844 0036 3A69     		ldr	r2, [r7, #16]
 3845 0038 1A60     		str	r2, [r3]
 3846 003a 7B68     		ldr	r3, [r7, #4]
 3847 003c 0022     		movs	r2, #0
 3848 003e 1A77     		strb	r2, [r3, #28]
 3849 0040 0BE0     		b	.L261
 3850              	.L262:
 3851 0042 FB89     		ldrh	r3, [r7, #14]
 3852 0044 DB00     		lsls	r3, r3, #3
 3853 0046 3B61     		str	r3, [r7, #16]
 3854 0048 3B68     		ldr	r3, [r7]
 3855 004a 3A69     		ldr	r2, [r7, #16]
 3856 004c 1A60     		str	r2, [r3]
 3857 004e 7B68     		ldr	r3, [r7, #4]
 3858 0050 3A69     		ldr	r2, [r7, #16]
 3859 0052 1A62     		str	r2, [r3, #32]
 3860 0054 7B68     		ldr	r3, [r7, #4]
 3861 0056 0122     		movs	r2, #1
 3862 0058 1A77     		strb	r2, [r3, #28]
 3863              	.L261:
 3864 005a 97F91730 		ldrsb	r3, [r7, #23]
 3865 005e 1846     		mov	r0, r3
 3866 0060 1837     		adds	r7, r7, #24
 3867 0062 BD46     		mov	sp, r7
 3868              		@ sp needed
 3869 0064 80BD     		pop	{r7, pc}
 3870              		.size	VL53L0X_GetXTalkCompensationRateMegaCps, .-VL53L0X_GetXTalkCompensationRateMegaCps
 3871              		.section	.text.VL53L0X_SetRefCalibration,"ax",%progbits
 3872              		.align	1
 3873              		.global	VL53L0X_SetRefCalibration
 3874              		.syntax unified
 3875              		.thumb
 3876              		.thumb_func
ARM GAS  /var/folders/d2/nstgp4h54kz7g1l847x_b8wc0000gn/T//cc7cS1Ev.s 			page 69


 3877              		.fpu fpv4-sp-d16
 3878              		.type	VL53L0X_SetRefCalibration, %function
 3879              	VL53L0X_SetRefCalibration:
 3880              		@ args = 0, pretend = 0, frame = 16
 3881              		@ frame_needed = 1, uses_anonymous_args = 0
 3882 0000 80B5     		push	{r7, lr}
 3883 0002 84B0     		sub	sp, sp, #16
 3884 0004 00AF     		add	r7, sp, #0
 3885 0006 7860     		str	r0, [r7, #4]
 3886 0008 0B46     		mov	r3, r1
 3887 000a FB70     		strb	r3, [r7, #3]
 3888 000c 1346     		mov	r3, r2
 3889 000e BB70     		strb	r3, [r7, #2]
 3890 0010 0023     		movs	r3, #0
 3891 0012 FB73     		strb	r3, [r7, #15]
 3892 0014 BA78     		ldrb	r2, [r7, #2]	@ zero_extendqisi2
 3893 0016 FB78     		ldrb	r3, [r7, #3]	@ zero_extendqisi2
 3894 0018 1946     		mov	r1, r3
 3895 001a 7868     		ldr	r0, [r7, #4]
 3896 001c FFF7FEFF 		bl	VL53L0X_set_ref_calibration
 3897 0020 0346     		mov	r3, r0
 3898 0022 FB73     		strb	r3, [r7, #15]
 3899 0024 97F90F30 		ldrsb	r3, [r7, #15]
 3900 0028 1846     		mov	r0, r3
 3901 002a 1037     		adds	r7, r7, #16
 3902 002c BD46     		mov	sp, r7
 3903              		@ sp needed
 3904 002e 80BD     		pop	{r7, pc}
 3905              		.size	VL53L0X_SetRefCalibration, .-VL53L0X_SetRefCalibration
 3906              		.section	.text.VL53L0X_GetRefCalibration,"ax",%progbits
 3907              		.align	1
 3908              		.global	VL53L0X_GetRefCalibration
 3909              		.syntax unified
 3910              		.thumb
 3911              		.thumb_func
 3912              		.fpu fpv4-sp-d16
 3913              		.type	VL53L0X_GetRefCalibration, %function
 3914              	VL53L0X_GetRefCalibration:
 3915              		@ args = 0, pretend = 0, frame = 24
 3916              		@ frame_needed = 1, uses_anonymous_args = 0
 3917 0000 80B5     		push	{r7, lr}
 3918 0002 86B0     		sub	sp, sp, #24
 3919 0004 00AF     		add	r7, sp, #0
 3920 0006 F860     		str	r0, [r7, #12]
 3921 0008 B960     		str	r1, [r7, #8]
 3922 000a 7A60     		str	r2, [r7, #4]
 3923 000c 0023     		movs	r3, #0
 3924 000e FB75     		strb	r3, [r7, #23]
 3925 0010 7A68     		ldr	r2, [r7, #4]
 3926 0012 B968     		ldr	r1, [r7, #8]
 3927 0014 F868     		ldr	r0, [r7, #12]
 3928 0016 FFF7FEFF 		bl	VL53L0X_get_ref_calibration
 3929 001a 0346     		mov	r3, r0
 3930 001c FB75     		strb	r3, [r7, #23]
 3931 001e 97F91730 		ldrsb	r3, [r7, #23]
 3932 0022 1846     		mov	r0, r3
 3933 0024 1837     		adds	r7, r7, #24
ARM GAS  /var/folders/d2/nstgp4h54kz7g1l847x_b8wc0000gn/T//cc7cS1Ev.s 			page 70


 3934 0026 BD46     		mov	sp, r7
 3935              		@ sp needed
 3936 0028 80BD     		pop	{r7, pc}
 3937              		.size	VL53L0X_GetRefCalibration, .-VL53L0X_GetRefCalibration
 3938              		.section	.text.VL53L0X_GetNumberOfLimitCheck,"ax",%progbits
 3939              		.align	1
 3940              		.global	VL53L0X_GetNumberOfLimitCheck
 3941              		.syntax unified
 3942              		.thumb
 3943              		.thumb_func
 3944              		.fpu fpv4-sp-d16
 3945              		.type	VL53L0X_GetNumberOfLimitCheck, %function
 3946              	VL53L0X_GetNumberOfLimitCheck:
 3947              		@ args = 0, pretend = 0, frame = 16
 3948              		@ frame_needed = 1, uses_anonymous_args = 0
 3949              		@ link register save eliminated.
 3950 0000 80B4     		push	{r7}
 3951 0002 85B0     		sub	sp, sp, #20
 3952 0004 00AF     		add	r7, sp, #0
 3953 0006 7860     		str	r0, [r7, #4]
 3954 0008 0023     		movs	r3, #0
 3955 000a FB73     		strb	r3, [r7, #15]
 3956 000c 7B68     		ldr	r3, [r7, #4]
 3957 000e 0622     		movs	r2, #6
 3958 0010 1A80     		strh	r2, [r3]	@ movhi
 3959 0012 97F90F30 		ldrsb	r3, [r7, #15]
 3960 0016 1846     		mov	r0, r3
 3961 0018 1437     		adds	r7, r7, #20
 3962 001a BD46     		mov	sp, r7
 3963              		@ sp needed
 3964 001c 5DF8047B 		ldr	r7, [sp], #4
 3965 0020 7047     		bx	lr
 3966              		.size	VL53L0X_GetNumberOfLimitCheck, .-VL53L0X_GetNumberOfLimitCheck
 3967              		.section	.text.VL53L0X_GetLimitCheckInfo,"ax",%progbits
 3968              		.align	1
 3969              		.global	VL53L0X_GetLimitCheckInfo
 3970              		.syntax unified
 3971              		.thumb
 3972              		.thumb_func
 3973              		.fpu fpv4-sp-d16
 3974              		.type	VL53L0X_GetLimitCheckInfo, %function
 3975              	VL53L0X_GetLimitCheckInfo:
 3976              		@ args = 0, pretend = 0, frame = 24
 3977              		@ frame_needed = 1, uses_anonymous_args = 0
 3978 0000 80B5     		push	{r7, lr}
 3979 0002 86B0     		sub	sp, sp, #24
 3980 0004 00AF     		add	r7, sp, #0
 3981 0006 F860     		str	r0, [r7, #12]
 3982 0008 0B46     		mov	r3, r1
 3983 000a 7A60     		str	r2, [r7, #4]
 3984 000c 7B81     		strh	r3, [r7, #10]	@ movhi
 3985 000e 0023     		movs	r3, #0
 3986 0010 FB75     		strb	r3, [r7, #23]
 3987 0012 7B89     		ldrh	r3, [r7, #10]
 3988 0014 7A68     		ldr	r2, [r7, #4]
 3989 0016 1946     		mov	r1, r3
 3990 0018 F868     		ldr	r0, [r7, #12]
ARM GAS  /var/folders/d2/nstgp4h54kz7g1l847x_b8wc0000gn/T//cc7cS1Ev.s 			page 71


 3991 001a FFF7FEFF 		bl	VL53L0X_get_limit_check_info
 3992 001e 0346     		mov	r3, r0
 3993 0020 FB75     		strb	r3, [r7, #23]
 3994 0022 97F91730 		ldrsb	r3, [r7, #23]
 3995 0026 1846     		mov	r0, r3
 3996 0028 1837     		adds	r7, r7, #24
 3997 002a BD46     		mov	sp, r7
 3998              		@ sp needed
 3999 002c 80BD     		pop	{r7, pc}
 4000              		.size	VL53L0X_GetLimitCheckInfo, .-VL53L0X_GetLimitCheckInfo
 4001              		.section	.text.VL53L0X_GetLimitCheckStatus,"ax",%progbits
 4002              		.align	1
 4003              		.global	VL53L0X_GetLimitCheckStatus
 4004              		.syntax unified
 4005              		.thumb
 4006              		.thumb_func
 4007              		.fpu fpv4-sp-d16
 4008              		.type	VL53L0X_GetLimitCheckStatus, %function
 4009              	VL53L0X_GetLimitCheckStatus:
 4010              		@ args = 0, pretend = 0, frame = 24
 4011              		@ frame_needed = 1, uses_anonymous_args = 0
 4012              		@ link register save eliminated.
 4013 0000 80B4     		push	{r7}
 4014 0002 87B0     		sub	sp, sp, #28
 4015 0004 00AF     		add	r7, sp, #0
 4016 0006 F860     		str	r0, [r7, #12]
 4017 0008 0B46     		mov	r3, r1
 4018 000a 7A60     		str	r2, [r7, #4]
 4019 000c 7B81     		strh	r3, [r7, #10]	@ movhi
 4020 000e 0023     		movs	r3, #0
 4021 0010 FB75     		strb	r3, [r7, #23]
 4022 0012 7B89     		ldrh	r3, [r7, #10]
 4023 0014 052B     		cmp	r3, #5
 4024 0016 02D9     		bls	.L273
 4025 0018 FC23     		movs	r3, #252
 4026 001a FB75     		strb	r3, [r7, #23]
 4027 001c 08E0     		b	.L274
 4028              	.L273:
 4029 001e 7B89     		ldrh	r3, [r7, #10]
 4030 0020 FA68     		ldr	r2, [r7, #12]
 4031 0022 1344     		add	r3, r3, r2
 4032 0024 93F82E30 		ldrb	r3, [r3, #46]
 4033 0028 BB75     		strb	r3, [r7, #22]
 4034 002a 7B68     		ldr	r3, [r7, #4]
 4035 002c BA7D     		ldrb	r2, [r7, #22]
 4036 002e 1A70     		strb	r2, [r3]
 4037              	.L274:
 4038 0030 97F91730 		ldrsb	r3, [r7, #23]
 4039 0034 1846     		mov	r0, r3
 4040 0036 1C37     		adds	r7, r7, #28
 4041 0038 BD46     		mov	sp, r7
 4042              		@ sp needed
 4043 003a 5DF8047B 		ldr	r7, [sp], #4
 4044 003e 7047     		bx	lr
 4045              		.size	VL53L0X_GetLimitCheckStatus, .-VL53L0X_GetLimitCheckStatus
 4046              		.section	.text.VL53L0X_SetLimitCheckEnable,"ax",%progbits
 4047              		.align	1
ARM GAS  /var/folders/d2/nstgp4h54kz7g1l847x_b8wc0000gn/T//cc7cS1Ev.s 			page 72


 4048              		.global	VL53L0X_SetLimitCheckEnable
 4049              		.syntax unified
 4050              		.thumb
 4051              		.thumb_func
 4052              		.fpu fpv4-sp-d16
 4053              		.type	VL53L0X_SetLimitCheckEnable, %function
 4054              	VL53L0X_SetLimitCheckEnable:
 4055              		@ args = 0, pretend = 0, frame = 24
 4056              		@ frame_needed = 1, uses_anonymous_args = 0
 4057 0000 80B5     		push	{r7, lr}
 4058 0002 86B0     		sub	sp, sp, #24
 4059 0004 00AF     		add	r7, sp, #0
 4060 0006 7860     		str	r0, [r7, #4]
 4061 0008 0B46     		mov	r3, r1
 4062 000a 7B80     		strh	r3, [r7, #2]	@ movhi
 4063 000c 1346     		mov	r3, r2
 4064 000e 7B70     		strb	r3, [r7, #1]
 4065 0010 0023     		movs	r3, #0
 4066 0012 FB75     		strb	r3, [r7, #23]
 4067 0014 0023     		movs	r3, #0
 4068 0016 3B61     		str	r3, [r7, #16]
 4069 0018 0023     		movs	r3, #0
 4070 001a FB73     		strb	r3, [r7, #15]
 4071 001c 0023     		movs	r3, #0
 4072 001e BB73     		strb	r3, [r7, #14]
 4073 0020 7B88     		ldrh	r3, [r7, #2]
 4074 0022 052B     		cmp	r3, #5
 4075 0024 02D9     		bls	.L277
 4076 0026 FC23     		movs	r3, #252
 4077 0028 FB75     		strb	r3, [r7, #23]
 4078 002a 5BE0     		b	.L278
 4079              	.L277:
 4080 002c 7B78     		ldrb	r3, [r7, #1]	@ zero_extendqisi2
 4081 002e 002B     		cmp	r3, #0
 4082 0030 06D1     		bne	.L279
 4083 0032 0023     		movs	r3, #0
 4084 0034 3B61     		str	r3, [r7, #16]
 4085 0036 0023     		movs	r3, #0
 4086 0038 FB73     		strb	r3, [r7, #15]
 4087 003a 0123     		movs	r3, #1
 4088 003c BB73     		strb	r3, [r7, #14]
 4089 003e 0AE0     		b	.L280
 4090              	.L279:
 4091 0040 7B88     		ldrh	r3, [r7, #2]
 4092 0042 7A68     		ldr	r2, [r7, #4]
 4093 0044 0C33     		adds	r3, r3, #12
 4094 0046 9B00     		lsls	r3, r3, #2
 4095 0048 1344     		add	r3, r3, r2
 4096 004a 5B68     		ldr	r3, [r3, #4]
 4097 004c 3B61     		str	r3, [r7, #16]
 4098 004e 0023     		movs	r3, #0
 4099 0050 BB73     		strb	r3, [r7, #14]
 4100 0052 0123     		movs	r3, #1
 4101 0054 FB73     		strb	r3, [r7, #15]
 4102              	.L280:
 4103 0056 7B88     		ldrh	r3, [r7, #2]
 4104 0058 052B     		cmp	r3, #5
ARM GAS  /var/folders/d2/nstgp4h54kz7g1l847x_b8wc0000gn/T//cc7cS1Ev.s 			page 73


 4105 005a 41D8     		bhi	.L281
 4106 005c 01A2     		adr	r2, .L283
 4107 005e 52F823F0 		ldr	pc, [r2, r3, lsl #2]
 4108 0062 00BF     		.p2align 2
 4109              	.L283:
 4110 0064 7D000000 		.word	.L282+1
 4111 0068 87000000 		.word	.L284+1
 4112 006c 9D000000 		.word	.L285+1
 4113 0070 A7000000 		.word	.L286+1
 4114 0074 B1000000 		.word	.L287+1
 4115 0078 C9000000 		.word	.L288+1
 4116              		.p2align 1
 4117              	.L282:
 4118 007c 7B68     		ldr	r3, [r7, #4]
 4119 007e FA7B     		ldrb	r2, [r7, #15]
 4120 0080 83F82820 		strb	r2, [r3, #40]
 4121 0084 2EE0     		b	.L278
 4122              	.L284:
 4123 0086 3B69     		ldr	r3, [r7, #16]
 4124 0088 5B0A     		lsrs	r3, r3, #9
 4125 008a 9BB2     		uxth	r3, r3
 4126 008c 1A46     		mov	r2, r3
 4127 008e 4421     		movs	r1, #68
 4128 0090 7868     		ldr	r0, [r7, #4]
 4129 0092 FFF7FEFF 		bl	VL53L0X_WrWord
 4130 0096 0346     		mov	r3, r0
 4131 0098 FB75     		strb	r3, [r7, #23]
 4132 009a 23E0     		b	.L278
 4133              	.L285:
 4134 009c 7B68     		ldr	r3, [r7, #4]
 4135 009e FA7B     		ldrb	r2, [r7, #15]
 4136 00a0 83F82A20 		strb	r2, [r3, #42]
 4137 00a4 1EE0     		b	.L278
 4138              	.L286:
 4139 00a6 7B68     		ldr	r3, [r7, #4]
 4140 00a8 FA7B     		ldrb	r2, [r7, #15]
 4141 00aa 83F82B20 		strb	r2, [r3, #43]
 4142 00ae 19E0     		b	.L278
 4143              	.L287:
 4144 00b0 BB7B     		ldrb	r3, [r7, #14]
 4145 00b2 5B00     		lsls	r3, r3, #1
 4146 00b4 7B73     		strb	r3, [r7, #13]
 4147 00b6 7B7B     		ldrb	r3, [r7, #13]	@ zero_extendqisi2
 4148 00b8 FE22     		movs	r2, #254
 4149 00ba 6021     		movs	r1, #96
 4150 00bc 7868     		ldr	r0, [r7, #4]
 4151 00be FFF7FEFF 		bl	VL53L0X_UpdateByte
 4152 00c2 0346     		mov	r3, r0
 4153 00c4 FB75     		strb	r3, [r7, #23]
 4154 00c6 0DE0     		b	.L278
 4155              	.L288:
 4156 00c8 BB7B     		ldrb	r3, [r7, #14]
 4157 00ca 1B01     		lsls	r3, r3, #4
 4158 00cc 7B73     		strb	r3, [r7, #13]
 4159 00ce 7B7B     		ldrb	r3, [r7, #13]	@ zero_extendqisi2
 4160 00d0 EF22     		movs	r2, #239
 4161 00d2 6021     		movs	r1, #96
ARM GAS  /var/folders/d2/nstgp4h54kz7g1l847x_b8wc0000gn/T//cc7cS1Ev.s 			page 74


 4162 00d4 7868     		ldr	r0, [r7, #4]
 4163 00d6 FFF7FEFF 		bl	VL53L0X_UpdateByte
 4164 00da 0346     		mov	r3, r0
 4165 00dc FB75     		strb	r3, [r7, #23]
 4166 00de 01E0     		b	.L278
 4167              	.L281:
 4168 00e0 FC23     		movs	r3, #252
 4169 00e2 FB75     		strb	r3, [r7, #23]
 4170              	.L278:
 4171 00e4 97F91730 		ldrsb	r3, [r7, #23]
 4172 00e8 002B     		cmp	r3, #0
 4173 00ea 0FD1     		bne	.L289
 4174 00ec 7B78     		ldrb	r3, [r7, #1]	@ zero_extendqisi2
 4175 00ee 002B     		cmp	r3, #0
 4176 00f0 06D1     		bne	.L290
 4177 00f2 7B88     		ldrh	r3, [r7, #2]
 4178 00f4 7A68     		ldr	r2, [r7, #4]
 4179 00f6 1344     		add	r3, r3, r2
 4180 00f8 0022     		movs	r2, #0
 4181 00fa 83F82820 		strb	r2, [r3, #40]
 4182 00fe 05E0     		b	.L289
 4183              	.L290:
 4184 0100 7B88     		ldrh	r3, [r7, #2]
 4185 0102 7A68     		ldr	r2, [r7, #4]
 4186 0104 1344     		add	r3, r3, r2
 4187 0106 0122     		movs	r2, #1
 4188 0108 83F82820 		strb	r2, [r3, #40]
 4189              	.L289:
 4190 010c 97F91730 		ldrsb	r3, [r7, #23]
 4191 0110 1846     		mov	r0, r3
 4192 0112 1837     		adds	r7, r7, #24
 4193 0114 BD46     		mov	sp, r7
 4194              		@ sp needed
 4195 0116 80BD     		pop	{r7, pc}
 4196              		.size	VL53L0X_SetLimitCheckEnable, .-VL53L0X_SetLimitCheckEnable
 4197              		.section	.text.VL53L0X_GetLimitCheckEnable,"ax",%progbits
 4198              		.align	1
 4199              		.global	VL53L0X_GetLimitCheckEnable
 4200              		.syntax unified
 4201              		.thumb
 4202              		.thumb_func
 4203              		.fpu fpv4-sp-d16
 4204              		.type	VL53L0X_GetLimitCheckEnable, %function
 4205              	VL53L0X_GetLimitCheckEnable:
 4206              		@ args = 0, pretend = 0, frame = 24
 4207              		@ frame_needed = 1, uses_anonymous_args = 0
 4208              		@ link register save eliminated.
 4209 0000 80B4     		push	{r7}
 4210 0002 87B0     		sub	sp, sp, #28
 4211 0004 00AF     		add	r7, sp, #0
 4212 0006 F860     		str	r0, [r7, #12]
 4213 0008 0B46     		mov	r3, r1
 4214 000a 7A60     		str	r2, [r7, #4]
 4215 000c 7B81     		strh	r3, [r7, #10]	@ movhi
 4216 000e 0023     		movs	r3, #0
 4217 0010 FB75     		strb	r3, [r7, #23]
 4218 0012 7B89     		ldrh	r3, [r7, #10]
ARM GAS  /var/folders/d2/nstgp4h54kz7g1l847x_b8wc0000gn/T//cc7cS1Ev.s 			page 75


 4219 0014 052B     		cmp	r3, #5
 4220 0016 05D9     		bls	.L293
 4221 0018 FC23     		movs	r3, #252
 4222 001a FB75     		strb	r3, [r7, #23]
 4223 001c 7B68     		ldr	r3, [r7, #4]
 4224 001e 0022     		movs	r2, #0
 4225 0020 1A70     		strb	r2, [r3]
 4226 0022 08E0     		b	.L294
 4227              	.L293:
 4228 0024 7B89     		ldrh	r3, [r7, #10]
 4229 0026 FA68     		ldr	r2, [r7, #12]
 4230 0028 1344     		add	r3, r3, r2
 4231 002a 93F82830 		ldrb	r3, [r3, #40]
 4232 002e BB75     		strb	r3, [r7, #22]
 4233 0030 7B68     		ldr	r3, [r7, #4]
 4234 0032 BA7D     		ldrb	r2, [r7, #22]
 4235 0034 1A70     		strb	r2, [r3]
 4236              	.L294:
 4237 0036 97F91730 		ldrsb	r3, [r7, #23]
 4238 003a 1846     		mov	r0, r3
 4239 003c 1C37     		adds	r7, r7, #28
 4240 003e BD46     		mov	sp, r7
 4241              		@ sp needed
 4242 0040 5DF8047B 		ldr	r7, [sp], #4
 4243 0044 7047     		bx	lr
 4244              		.size	VL53L0X_GetLimitCheckEnable, .-VL53L0X_GetLimitCheckEnable
 4245              		.section	.text.VL53L0X_SetLimitCheckValue,"ax",%progbits
 4246              		.align	1
 4247              		.global	VL53L0X_SetLimitCheckValue
 4248              		.syntax unified
 4249              		.thumb
 4250              		.thumb_func
 4251              		.fpu fpv4-sp-d16
 4252              		.type	VL53L0X_SetLimitCheckValue, %function
 4253              	VL53L0X_SetLimitCheckValue:
 4254              		@ args = 0, pretend = 0, frame = 24
 4255              		@ frame_needed = 1, uses_anonymous_args = 0
 4256 0000 80B5     		push	{r7, lr}
 4257 0002 86B0     		sub	sp, sp, #24
 4258 0004 00AF     		add	r7, sp, #0
 4259 0006 F860     		str	r0, [r7, #12]
 4260 0008 0B46     		mov	r3, r1
 4261 000a 7A60     		str	r2, [r7, #4]
 4262 000c 7B81     		strh	r3, [r7, #10]	@ movhi
 4263 000e 0023     		movs	r3, #0
 4264 0010 FB75     		strb	r3, [r7, #23]
 4265 0012 7B89     		ldrh	r3, [r7, #10]
 4266 0014 FA68     		ldr	r2, [r7, #12]
 4267 0016 1344     		add	r3, r3, r2
 4268 0018 93F82830 		ldrb	r3, [r3, #40]
 4269 001c BB75     		strb	r3, [r7, #22]
 4270 001e BB7D     		ldrb	r3, [r7, #22]	@ zero_extendqisi2
 4271 0020 002B     		cmp	r3, #0
 4272 0022 07D1     		bne	.L297
 4273 0024 7B89     		ldrh	r3, [r7, #10]
 4274 0026 FA68     		ldr	r2, [r7, #12]
 4275 0028 0C33     		adds	r3, r3, #12
ARM GAS  /var/folders/d2/nstgp4h54kz7g1l847x_b8wc0000gn/T//cc7cS1Ev.s 			page 76


 4276 002a 9B00     		lsls	r3, r3, #2
 4277 002c 1344     		add	r3, r3, r2
 4278 002e 7A68     		ldr	r2, [r7, #4]
 4279 0030 5A60     		str	r2, [r3, #4]
 4280 0032 40E0     		b	.L298
 4281              	.L297:
 4282 0034 7B89     		ldrh	r3, [r7, #10]
 4283 0036 052B     		cmp	r3, #5
 4284 0038 30D8     		bhi	.L299
 4285 003a 01A2     		adr	r2, .L301
 4286 003c 52F823F0 		ldr	pc, [r2, r3, lsl #2]
 4287              		.p2align 2
 4288              	.L301:
 4289 0040 59000000 		.word	.L300+1
 4290 0044 61000000 		.word	.L302+1
 4291 0048 77000000 		.word	.L303+1
 4292 004c 7F000000 		.word	.L304+1
 4293 0050 87000000 		.word	.L305+1
 4294 0054 87000000 		.word	.L305+1
 4295              		.p2align 1
 4296              	.L300:
 4297 0058 FB68     		ldr	r3, [r7, #12]
 4298 005a 7A68     		ldr	r2, [r7, #4]
 4299 005c 5A63     		str	r2, [r3, #52]
 4300 005e 1FE0     		b	.L306
 4301              	.L302:
 4302 0060 7B68     		ldr	r3, [r7, #4]
 4303 0062 5B0A     		lsrs	r3, r3, #9
 4304 0064 9BB2     		uxth	r3, r3
 4305 0066 1A46     		mov	r2, r3
 4306 0068 4421     		movs	r1, #68
 4307 006a F868     		ldr	r0, [r7, #12]
 4308 006c FFF7FEFF 		bl	VL53L0X_WrWord
 4309 0070 0346     		mov	r3, r0
 4310 0072 FB75     		strb	r3, [r7, #23]
 4311 0074 14E0     		b	.L306
 4312              	.L303:
 4313 0076 FB68     		ldr	r3, [r7, #12]
 4314 0078 7A68     		ldr	r2, [r7, #4]
 4315 007a DA63     		str	r2, [r3, #60]
 4316 007c 10E0     		b	.L306
 4317              	.L304:
 4318 007e FB68     		ldr	r3, [r7, #12]
 4319 0080 7A68     		ldr	r2, [r7, #4]
 4320 0082 1A64     		str	r2, [r3, #64]
 4321 0084 0CE0     		b	.L306
 4322              	.L305:
 4323 0086 7B68     		ldr	r3, [r7, #4]
 4324 0088 5B0A     		lsrs	r3, r3, #9
 4325 008a 9BB2     		uxth	r3, r3
 4326 008c 1A46     		mov	r2, r3
 4327 008e 6421     		movs	r1, #100
 4328 0090 F868     		ldr	r0, [r7, #12]
 4329 0092 FFF7FEFF 		bl	VL53L0X_WrWord
 4330 0096 0346     		mov	r3, r0
 4331 0098 FB75     		strb	r3, [r7, #23]
 4332 009a 01E0     		b	.L306
ARM GAS  /var/folders/d2/nstgp4h54kz7g1l847x_b8wc0000gn/T//cc7cS1Ev.s 			page 77


 4333              	.L299:
 4334 009c FC23     		movs	r3, #252
 4335 009e FB75     		strb	r3, [r7, #23]
 4336              	.L306:
 4337 00a0 97F91730 		ldrsb	r3, [r7, #23]
 4338 00a4 002B     		cmp	r3, #0
 4339 00a6 06D1     		bne	.L298
 4340 00a8 7B89     		ldrh	r3, [r7, #10]
 4341 00aa FA68     		ldr	r2, [r7, #12]
 4342 00ac 0C33     		adds	r3, r3, #12
 4343 00ae 9B00     		lsls	r3, r3, #2
 4344 00b0 1344     		add	r3, r3, r2
 4345 00b2 7A68     		ldr	r2, [r7, #4]
 4346 00b4 5A60     		str	r2, [r3, #4]
 4347              	.L298:
 4348 00b6 97F91730 		ldrsb	r3, [r7, #23]
 4349 00ba 1846     		mov	r0, r3
 4350 00bc 1837     		adds	r7, r7, #24
 4351 00be BD46     		mov	sp, r7
 4352              		@ sp needed
 4353 00c0 80BD     		pop	{r7, pc}
 4354              		.size	VL53L0X_SetLimitCheckValue, .-VL53L0X_SetLimitCheckValue
 4355 00c2 00BF     		.section	.text.VL53L0X_GetLimitCheckValue,"ax",%progbits
 4356              		.align	1
 4357              		.global	VL53L0X_GetLimitCheckValue
 4358              		.syntax unified
 4359              		.thumb
 4360              		.thumb_func
 4361              		.fpu fpv4-sp-d16
 4362              		.type	VL53L0X_GetLimitCheckValue, %function
 4363              	VL53L0X_GetLimitCheckValue:
 4364              		@ args = 0, pretend = 0, frame = 32
 4365              		@ frame_needed = 1, uses_anonymous_args = 0
 4366 0000 80B5     		push	{r7, lr}
 4367 0002 88B0     		sub	sp, sp, #32
 4368 0004 00AF     		add	r7, sp, #0
 4369 0006 F860     		str	r0, [r7, #12]
 4370 0008 0B46     		mov	r3, r1
 4371 000a 7A60     		str	r2, [r7, #4]
 4372 000c 7B81     		strh	r3, [r7, #10]	@ movhi
 4373 000e 0023     		movs	r3, #0
 4374 0010 FB77     		strb	r3, [r7, #31]
 4375 0012 0023     		movs	r3, #0
 4376 0014 BB77     		strb	r3, [r7, #30]
 4377 0016 7B89     		ldrh	r3, [r7, #10]
 4378 0018 052B     		cmp	r3, #5
 4379 001a 47D8     		bhi	.L309
 4380 001c 01A2     		adr	r2, .L311
 4381 001e 52F823F0 		ldr	pc, [r2, r3, lsl #2]
 4382 0022 00BF     		.p2align 2
 4383              	.L311:
 4384 0024 3D000000 		.word	.L310+1
 4385 0028 49000000 		.word	.L312+1
 4386 002c 6F000000 		.word	.L313+1
 4387 0030 7B000000 		.word	.L314+1
 4388 0034 87000000 		.word	.L315+1
 4389 0038 87000000 		.word	.L315+1
ARM GAS  /var/folders/d2/nstgp4h54kz7g1l847x_b8wc0000gn/T//cc7cS1Ev.s 			page 78


 4390              		.p2align 1
 4391              	.L310:
 4392 003c FB68     		ldr	r3, [r7, #12]
 4393 003e 5B6B     		ldr	r3, [r3, #52]
 4394 0040 BB61     		str	r3, [r7, #24]
 4395 0042 0023     		movs	r3, #0
 4396 0044 BB77     		strb	r3, [r7, #30]
 4397 0046 33E0     		b	.L316
 4398              	.L312:
 4399 0048 07F11603 		add	r3, r7, #22
 4400 004c 1A46     		mov	r2, r3
 4401 004e 4421     		movs	r1, #68
 4402 0050 F868     		ldr	r0, [r7, #12]
 4403 0052 FFF7FEFF 		bl	VL53L0X_RdWord
 4404 0056 0346     		mov	r3, r0
 4405 0058 FB77     		strb	r3, [r7, #31]
 4406 005a 97F91F30 		ldrsb	r3, [r7, #31]
 4407 005e 002B     		cmp	r3, #0
 4408 0060 02D1     		bne	.L317
 4409 0062 FB8A     		ldrh	r3, [r7, #22]
 4410 0064 5B02     		lsls	r3, r3, #9
 4411 0066 BB61     		str	r3, [r7, #24]
 4412              	.L317:
 4413 0068 0123     		movs	r3, #1
 4414 006a BB77     		strb	r3, [r7, #30]
 4415 006c 20E0     		b	.L316
 4416              	.L313:
 4417 006e FB68     		ldr	r3, [r7, #12]
 4418 0070 DB6B     		ldr	r3, [r3, #60]
 4419 0072 BB61     		str	r3, [r7, #24]
 4420 0074 0023     		movs	r3, #0
 4421 0076 BB77     		strb	r3, [r7, #30]
 4422 0078 1AE0     		b	.L316
 4423              	.L314:
 4424 007a FB68     		ldr	r3, [r7, #12]
 4425 007c 1B6C     		ldr	r3, [r3, #64]
 4426 007e BB61     		str	r3, [r7, #24]
 4427 0080 0023     		movs	r3, #0
 4428 0082 BB77     		strb	r3, [r7, #30]
 4429 0084 14E0     		b	.L316
 4430              	.L315:
 4431 0086 07F11603 		add	r3, r7, #22
 4432 008a 1A46     		mov	r2, r3
 4433 008c 6421     		movs	r1, #100
 4434 008e F868     		ldr	r0, [r7, #12]
 4435 0090 FFF7FEFF 		bl	VL53L0X_RdWord
 4436 0094 0346     		mov	r3, r0
 4437 0096 FB77     		strb	r3, [r7, #31]
 4438 0098 97F91F30 		ldrsb	r3, [r7, #31]
 4439 009c 002B     		cmp	r3, #0
 4440 009e 02D1     		bne	.L318
 4441 00a0 FB8A     		ldrh	r3, [r7, #22]
 4442 00a2 5B02     		lsls	r3, r3, #9
 4443 00a4 BB61     		str	r3, [r7, #24]
 4444              	.L318:
 4445 00a6 0023     		movs	r3, #0
 4446 00a8 BB77     		strb	r3, [r7, #30]
ARM GAS  /var/folders/d2/nstgp4h54kz7g1l847x_b8wc0000gn/T//cc7cS1Ev.s 			page 79


 4447 00aa 01E0     		b	.L316
 4448              	.L309:
 4449 00ac FC23     		movs	r3, #252
 4450 00ae FB77     		strb	r3, [r7, #31]
 4451              	.L316:
 4452 00b0 97F91F30 		ldrsb	r3, [r7, #31]
 4453 00b4 002B     		cmp	r3, #0
 4454 00b6 2AD1     		bne	.L319
 4455 00b8 BB7F     		ldrb	r3, [r7, #30]	@ zero_extendqisi2
 4456 00ba 012B     		cmp	r3, #1
 4457 00bc 24D1     		bne	.L320
 4458 00be BB69     		ldr	r3, [r7, #24]
 4459 00c0 002B     		cmp	r3, #0
 4460 00c2 10D1     		bne	.L321
 4461 00c4 7B89     		ldrh	r3, [r7, #10]
 4462 00c6 FA68     		ldr	r2, [r7, #12]
 4463 00c8 0C33     		adds	r3, r3, #12
 4464 00ca 9B00     		lsls	r3, r3, #2
 4465 00cc 1344     		add	r3, r3, r2
 4466 00ce 5B68     		ldr	r3, [r3, #4]
 4467 00d0 BB61     		str	r3, [r7, #24]
 4468 00d2 7B68     		ldr	r3, [r7, #4]
 4469 00d4 BA69     		ldr	r2, [r7, #24]
 4470 00d6 1A60     		str	r2, [r3]
 4471 00d8 7B89     		ldrh	r3, [r7, #10]
 4472 00da FA68     		ldr	r2, [r7, #12]
 4473 00dc 1344     		add	r3, r3, r2
 4474 00de 0022     		movs	r2, #0
 4475 00e0 83F82820 		strb	r2, [r3, #40]
 4476 00e4 13E0     		b	.L319
 4477              	.L321:
 4478 00e6 7B68     		ldr	r3, [r7, #4]
 4479 00e8 BA69     		ldr	r2, [r7, #24]
 4480 00ea 1A60     		str	r2, [r3]
 4481 00ec 7B89     		ldrh	r3, [r7, #10]
 4482 00ee FA68     		ldr	r2, [r7, #12]
 4483 00f0 0C33     		adds	r3, r3, #12
 4484 00f2 9B00     		lsls	r3, r3, #2
 4485 00f4 1344     		add	r3, r3, r2
 4486 00f6 BA69     		ldr	r2, [r7, #24]
 4487 00f8 5A60     		str	r2, [r3, #4]
 4488 00fa 7B89     		ldrh	r3, [r7, #10]
 4489 00fc FA68     		ldr	r2, [r7, #12]
 4490 00fe 1344     		add	r3, r3, r2
 4491 0100 0122     		movs	r2, #1
 4492 0102 83F82820 		strb	r2, [r3, #40]
 4493 0106 02E0     		b	.L319
 4494              	.L320:
 4495 0108 7B68     		ldr	r3, [r7, #4]
 4496 010a BA69     		ldr	r2, [r7, #24]
 4497 010c 1A60     		str	r2, [r3]
 4498              	.L319:
 4499 010e 97F91F30 		ldrsb	r3, [r7, #31]
 4500 0112 1846     		mov	r0, r3
 4501 0114 2037     		adds	r7, r7, #32
 4502 0116 BD46     		mov	sp, r7
 4503              		@ sp needed
ARM GAS  /var/folders/d2/nstgp4h54kz7g1l847x_b8wc0000gn/T//cc7cS1Ev.s 			page 80


 4504 0118 80BD     		pop	{r7, pc}
 4505              		.size	VL53L0X_GetLimitCheckValue, .-VL53L0X_GetLimitCheckValue
 4506 011a 00BF     		.section	.text.VL53L0X_GetLimitCheckCurrent,"ax",%progbits
 4507              		.align	1
 4508              		.global	VL53L0X_GetLimitCheckCurrent
 4509              		.syntax unified
 4510              		.thumb
 4511              		.thumb_func
 4512              		.fpu fpv4-sp-d16
 4513              		.type	VL53L0X_GetLimitCheckCurrent, %function
 4514              	VL53L0X_GetLimitCheckCurrent:
 4515              		@ args = 0, pretend = 0, frame = 48
 4516              		@ frame_needed = 1, uses_anonymous_args = 0
 4517              		@ link register save eliminated.
 4518 0000 B0B4     		push	{r4, r5, r7}
 4519 0002 8DB0     		sub	sp, sp, #52
 4520 0004 00AF     		add	r7, sp, #0
 4521 0006 F860     		str	r0, [r7, #12]
 4522 0008 0B46     		mov	r3, r1
 4523 000a 7A60     		str	r2, [r7, #4]
 4524 000c 7B81     		strh	r3, [r7, #10]	@ movhi
 4525 000e 0023     		movs	r3, #0
 4526 0010 87F82F30 		strb	r3, [r7, #47]
 4527 0014 7B89     		ldrh	r3, [r7, #10]
 4528 0016 052B     		cmp	r3, #5
 4529 0018 03D9     		bls	.L325
 4530 001a FC23     		movs	r3, #252
 4531 001c 87F82F30 		strb	r3, [r7, #47]
 4532 0020 5DE0     		b	.L326
 4533              	.L325:
 4534 0022 7B89     		ldrh	r3, [r7, #10]
 4535 0024 052B     		cmp	r3, #5
 4536 0026 57D8     		bhi	.L327
 4537 0028 01A2     		adr	r2, .L329
 4538 002a 52F823F0 		ldr	pc, [r2, r3, lsl #2]
 4539 002e 00BF     		.p2align 2
 4540              	.L329:
 4541 0030 49000000 		.word	.L328+1
 4542 0034 55000000 		.word	.L330+1
 4543 0038 73000000 		.word	.L331+1
 4544 003c 7F000000 		.word	.L332+1
 4545 0040 9D000000 		.word	.L333+1
 4546 0044 BB000000 		.word	.L334+1
 4547              		.p2align 1
 4548              	.L328:
 4549 0048 FB68     		ldr	r3, [r7, #12]
 4550 004a D3F84021 		ldr	r2, [r3, #320]
 4551 004e 7B68     		ldr	r3, [r7, #4]
 4552 0050 1A60     		str	r2, [r3]
 4553 0052 44E0     		b	.L326
 4554              	.L330:
 4555 0054 FB68     		ldr	r3, [r7, #12]
 4556 0056 07F11004 		add	r4, r7, #16
 4557 005a 03F15005 		add	r5, r3, #80
 4558 005e 0FCD     		ldmia	r5!, {r0, r1, r2, r3}
 4559 0060 0FC4     		stmia	r4!, {r0, r1, r2, r3}
 4560 0062 95E80700 		ldm	r5, {r0, r1, r2}
ARM GAS  /var/folders/d2/nstgp4h54kz7g1l847x_b8wc0000gn/T//cc7cS1Ev.s 			page 81


 4561 0066 84E80700 		stm	r4, {r0, r1, r2}
 4562 006a FA69     		ldr	r2, [r7, #28]
 4563 006c 7B68     		ldr	r3, [r7, #4]
 4564 006e 1A60     		str	r2, [r3]
 4565 0070 35E0     		b	.L326
 4566              	.L331:
 4567 0072 FB68     		ldr	r3, [r7, #12]
 4568 0074 D3F84821 		ldr	r2, [r3, #328]
 4569 0078 7B68     		ldr	r3, [r7, #4]
 4570 007a 1A60     		str	r2, [r3]
 4571 007c 2FE0     		b	.L326
 4572              	.L332:
 4573 007e FB68     		ldr	r3, [r7, #12]
 4574 0080 07F11004 		add	r4, r7, #16
 4575 0084 03F15005 		add	r5, r3, #80
 4576 0088 0FCD     		ldmia	r5!, {r0, r1, r2, r3}
 4577 008a 0FC4     		stmia	r4!, {r0, r1, r2, r3}
 4578 008c 95E80700 		ldm	r5, {r0, r1, r2}
 4579 0090 84E80700 		stm	r4, {r0, r1, r2}
 4580 0094 FA69     		ldr	r2, [r7, #28]
 4581 0096 7B68     		ldr	r3, [r7, #4]
 4582 0098 1A60     		str	r2, [r3]
 4583 009a 20E0     		b	.L326
 4584              	.L333:
 4585 009c FB68     		ldr	r3, [r7, #12]
 4586 009e 07F11004 		add	r4, r7, #16
 4587 00a2 03F15005 		add	r5, r3, #80
 4588 00a6 0FCD     		ldmia	r5!, {r0, r1, r2, r3}
 4589 00a8 0FC4     		stmia	r4!, {r0, r1, r2, r3}
 4590 00aa 95E80700 		ldm	r5, {r0, r1, r2}
 4591 00ae 84E80700 		stm	r4, {r0, r1, r2}
 4592 00b2 FA69     		ldr	r2, [r7, #28]
 4593 00b4 7B68     		ldr	r3, [r7, #4]
 4594 00b6 1A60     		str	r2, [r3]
 4595 00b8 11E0     		b	.L326
 4596              	.L334:
 4597 00ba FB68     		ldr	r3, [r7, #12]
 4598 00bc 07F11004 		add	r4, r7, #16
 4599 00c0 03F15005 		add	r5, r3, #80
 4600 00c4 0FCD     		ldmia	r5!, {r0, r1, r2, r3}
 4601 00c6 0FC4     		stmia	r4!, {r0, r1, r2, r3}
 4602 00c8 95E80700 		ldm	r5, {r0, r1, r2}
 4603 00cc 84E80700 		stm	r4, {r0, r1, r2}
 4604 00d0 FA69     		ldr	r2, [r7, #28]
 4605 00d2 7B68     		ldr	r3, [r7, #4]
 4606 00d4 1A60     		str	r2, [r3]
 4607 00d6 02E0     		b	.L326
 4608              	.L327:
 4609 00d8 FC23     		movs	r3, #252
 4610 00da 87F82F30 		strb	r3, [r7, #47]
 4611              	.L326:
 4612 00de 97F92F30 		ldrsb	r3, [r7, #47]
 4613 00e2 1846     		mov	r0, r3
 4614 00e4 3437     		adds	r7, r7, #52
 4615 00e6 BD46     		mov	sp, r7
 4616              		@ sp needed
 4617 00e8 B0BC     		pop	{r4, r5, r7}
ARM GAS  /var/folders/d2/nstgp4h54kz7g1l847x_b8wc0000gn/T//cc7cS1Ev.s 			page 82


 4618 00ea 7047     		bx	lr
 4619              		.size	VL53L0X_GetLimitCheckCurrent, .-VL53L0X_GetLimitCheckCurrent
 4620              		.section	.text.VL53L0X_SetWrapAroundCheckEnable,"ax",%progbits
 4621              		.align	1
 4622              		.global	VL53L0X_SetWrapAroundCheckEnable
 4623              		.syntax unified
 4624              		.thumb
 4625              		.thumb_func
 4626              		.fpu fpv4-sp-d16
 4627              		.type	VL53L0X_SetWrapAroundCheckEnable, %function
 4628              	VL53L0X_SetWrapAroundCheckEnable:
 4629              		@ args = 0, pretend = 0, frame = 16
 4630              		@ frame_needed = 1, uses_anonymous_args = 0
 4631 0000 80B5     		push	{r7, lr}
 4632 0002 84B0     		sub	sp, sp, #16
 4633 0004 00AF     		add	r7, sp, #0
 4634 0006 7860     		str	r0, [r7, #4]
 4635 0008 0B46     		mov	r3, r1
 4636 000a FB70     		strb	r3, [r7, #3]
 4637 000c 0023     		movs	r3, #0
 4638 000e BB73     		strb	r3, [r7, #14]
 4639 0010 07F10D03 		add	r3, r7, #13
 4640 0014 1A46     		mov	r2, r3
 4641 0016 0121     		movs	r1, #1
 4642 0018 7868     		ldr	r0, [r7, #4]
 4643 001a FFF7FEFF 		bl	VL53L0X_RdByte
 4644 001e 0346     		mov	r3, r0
 4645 0020 BB73     		strb	r3, [r7, #14]
 4646 0022 FB78     		ldrb	r3, [r7, #3]	@ zero_extendqisi2
 4647 0024 002B     		cmp	r3, #0
 4648 0026 07D1     		bne	.L337
 4649 0028 7B7B     		ldrb	r3, [r7, #13]	@ zero_extendqisi2
 4650 002a 03F07F03 		and	r3, r3, #127
 4651 002e DBB2     		uxtb	r3, r3
 4652 0030 7B73     		strb	r3, [r7, #13]
 4653 0032 0023     		movs	r3, #0
 4654 0034 FB73     		strb	r3, [r7, #15]
 4655 0036 06E0     		b	.L338
 4656              	.L337:
 4657 0038 7B7B     		ldrb	r3, [r7, #13]	@ zero_extendqisi2
 4658 003a 63F07F03 		orn	r3, r3, #127
 4659 003e DBB2     		uxtb	r3, r3
 4660 0040 7B73     		strb	r3, [r7, #13]
 4661 0042 0123     		movs	r3, #1
 4662 0044 FB73     		strb	r3, [r7, #15]
 4663              	.L338:
 4664 0046 7B7B     		ldrb	r3, [r7, #13]	@ zero_extendqisi2
 4665 0048 1A46     		mov	r2, r3
 4666 004a 0121     		movs	r1, #1
 4667 004c 7868     		ldr	r0, [r7, #4]
 4668 004e FFF7FEFF 		bl	VL53L0X_WrByte
 4669 0052 0346     		mov	r3, r0
 4670 0054 BB73     		strb	r3, [r7, #14]
 4671 0056 97F90E30 		ldrsb	r3, [r7, #14]
 4672 005a 002B     		cmp	r3, #0
 4673 005c 07D1     		bne	.L339
 4674 005e 7A7B     		ldrb	r2, [r7, #13]	@ zero_extendqisi2
ARM GAS  /var/folders/d2/nstgp4h54kz7g1l847x_b8wc0000gn/T//cc7cS1Ev.s 			page 83


 4675 0060 7B68     		ldr	r3, [r7, #4]
 4676 0062 83F83021 		strb	r2, [r3, #304]
 4677 0066 7B68     		ldr	r3, [r7, #4]
 4678 0068 FA7B     		ldrb	r2, [r7, #15]
 4679 006a 83F84C20 		strb	r2, [r3, #76]
 4680              	.L339:
 4681 006e 97F90E30 		ldrsb	r3, [r7, #14]
 4682 0072 1846     		mov	r0, r3
 4683 0074 1037     		adds	r7, r7, #16
 4684 0076 BD46     		mov	sp, r7
 4685              		@ sp needed
 4686 0078 80BD     		pop	{r7, pc}
 4687              		.size	VL53L0X_SetWrapAroundCheckEnable, .-VL53L0X_SetWrapAroundCheckEnable
 4688              		.section	.text.VL53L0X_GetWrapAroundCheckEnable,"ax",%progbits
 4689              		.align	1
 4690              		.global	VL53L0X_GetWrapAroundCheckEnable
 4691              		.syntax unified
 4692              		.thumb
 4693              		.thumb_func
 4694              		.fpu fpv4-sp-d16
 4695              		.type	VL53L0X_GetWrapAroundCheckEnable, %function
 4696              	VL53L0X_GetWrapAroundCheckEnable:
 4697              		@ args = 0, pretend = 0, frame = 16
 4698              		@ frame_needed = 1, uses_anonymous_args = 0
 4699 0000 80B5     		push	{r7, lr}
 4700 0002 84B0     		sub	sp, sp, #16
 4701 0004 00AF     		add	r7, sp, #0
 4702 0006 7860     		str	r0, [r7, #4]
 4703 0008 3960     		str	r1, [r7]
 4704 000a 0023     		movs	r3, #0
 4705 000c FB73     		strb	r3, [r7, #15]
 4706 000e 07F10E03 		add	r3, r7, #14
 4707 0012 1A46     		mov	r2, r3
 4708 0014 0121     		movs	r1, #1
 4709 0016 7868     		ldr	r0, [r7, #4]
 4710 0018 FFF7FEFF 		bl	VL53L0X_RdByte
 4711 001c 0346     		mov	r3, r0
 4712 001e FB73     		strb	r3, [r7, #15]
 4713 0020 97F90F30 		ldrsb	r3, [r7, #15]
 4714 0024 002B     		cmp	r3, #0
 4715 0026 0ED1     		bne	.L342
 4716 0028 BA7B     		ldrb	r2, [r7, #14]	@ zero_extendqisi2
 4717 002a 7B68     		ldr	r3, [r7, #4]
 4718 002c 83F83021 		strb	r2, [r3, #304]
 4719 0030 BB7B     		ldrb	r3, [r7, #14]	@ zero_extendqisi2
 4720 0032 5BB2     		sxtb	r3, r3
 4721 0034 002B     		cmp	r3, #0
 4722 0036 03DA     		bge	.L343
 4723 0038 3B68     		ldr	r3, [r7]
 4724 003a 0122     		movs	r2, #1
 4725 003c 1A70     		strb	r2, [r3]
 4726 003e 02E0     		b	.L342
 4727              	.L343:
 4728 0040 3B68     		ldr	r3, [r7]
 4729 0042 0022     		movs	r2, #0
 4730 0044 1A70     		strb	r2, [r3]
 4731              	.L342:
ARM GAS  /var/folders/d2/nstgp4h54kz7g1l847x_b8wc0000gn/T//cc7cS1Ev.s 			page 84


 4732 0046 97F90F30 		ldrsb	r3, [r7, #15]
 4733 004a 002B     		cmp	r3, #0
 4734 004c 04D1     		bne	.L344
 4735 004e 3B68     		ldr	r3, [r7]
 4736 0050 1A78     		ldrb	r2, [r3]	@ zero_extendqisi2
 4737 0052 7B68     		ldr	r3, [r7, #4]
 4738 0054 83F84C20 		strb	r2, [r3, #76]
 4739              	.L344:
 4740 0058 97F90F30 		ldrsb	r3, [r7, #15]
 4741 005c 1846     		mov	r0, r3
 4742 005e 1037     		adds	r7, r7, #16
 4743 0060 BD46     		mov	sp, r7
 4744              		@ sp needed
 4745 0062 80BD     		pop	{r7, pc}
 4746              		.size	VL53L0X_GetWrapAroundCheckEnable, .-VL53L0X_GetWrapAroundCheckEnable
 4747              		.section	.text.VL53L0X_SetDmaxCalParameters,"ax",%progbits
 4748              		.align	1
 4749              		.global	VL53L0X_SetDmaxCalParameters
 4750              		.syntax unified
 4751              		.thumb
 4752              		.thumb_func
 4753              		.fpu fpv4-sp-d16
 4754              		.type	VL53L0X_SetDmaxCalParameters, %function
 4755              	VL53L0X_SetDmaxCalParameters:
 4756              		@ args = 0, pretend = 0, frame = 24
 4757              		@ frame_needed = 1, uses_anonymous_args = 0
 4758 0000 80B5     		push	{r7, lr}
 4759 0002 86B0     		sub	sp, sp, #24
 4760 0004 00AF     		add	r7, sp, #0
 4761 0006 F860     		str	r0, [r7, #12]
 4762 0008 0B46     		mov	r3, r1
 4763 000a 7A60     		str	r2, [r7, #4]
 4764 000c 7B81     		strh	r3, [r7, #10]	@ movhi
 4765 000e 0023     		movs	r3, #0
 4766 0010 FB75     		strb	r3, [r7, #23]
 4767 0012 0023     		movs	r3, #0
 4768 0014 3B61     		str	r3, [r7, #16]
 4769 0016 7B89     		ldrh	r3, [r7, #10]
 4770 0018 002B     		cmp	r3, #0
 4771 001a 02D0     		beq	.L347
 4772 001c 7B68     		ldr	r3, [r7, #4]
 4773 001e 002B     		cmp	r3, #0
 4774 0020 11D1     		bne	.L348
 4775              	.L347:
 4776 0022 0421     		movs	r1, #4
 4777 0024 F868     		ldr	r0, [r7, #12]
 4778 0026 FFF7FEFF 		bl	VL53L0X_get_info_from_device
 4779 002a FB68     		ldr	r3, [r7, #12]
 4780 002c D3F82031 		ldr	r3, [r3, #288]
 4781 0030 3B61     		str	r3, [r7, #16]
 4782 0032 FB68     		ldr	r3, [r7, #12]
 4783 0034 4FF4C872 		mov	r2, #400
 4784 0038 A3F85421 		strh	r2, [r3, #340]	@ movhi
 4785 003c FB68     		ldr	r3, [r7, #12]
 4786 003e 3A69     		ldr	r2, [r7, #16]
 4787 0040 C3F85821 		str	r2, [r3, #344]
 4788 0044 07E0     		b	.L349
ARM GAS  /var/folders/d2/nstgp4h54kz7g1l847x_b8wc0000gn/T//cc7cS1Ev.s 			page 85


 4789              	.L348:
 4790 0046 FB68     		ldr	r3, [r7, #12]
 4791 0048 7A89     		ldrh	r2, [r7, #10]	@ movhi
 4792 004a A3F85421 		strh	r2, [r3, #340]	@ movhi
 4793 004e FB68     		ldr	r3, [r7, #12]
 4794 0050 7A68     		ldr	r2, [r7, #4]
 4795 0052 C3F85821 		str	r2, [r3, #344]
 4796              	.L349:
 4797 0056 97F91730 		ldrsb	r3, [r7, #23]
 4798 005a 1846     		mov	r0, r3
 4799 005c 1837     		adds	r7, r7, #24
 4800 005e BD46     		mov	sp, r7
 4801              		@ sp needed
 4802 0060 80BD     		pop	{r7, pc}
 4803              		.size	VL53L0X_SetDmaxCalParameters, .-VL53L0X_SetDmaxCalParameters
 4804              		.section	.text.VL53L0X_GetDmaxCalParameters,"ax",%progbits
 4805              		.align	1
 4806              		.global	VL53L0X_GetDmaxCalParameters
 4807              		.syntax unified
 4808              		.thumb
 4809              		.thumb_func
 4810              		.fpu fpv4-sp-d16
 4811              		.type	VL53L0X_GetDmaxCalParameters, %function
 4812              	VL53L0X_GetDmaxCalParameters:
 4813              		@ args = 0, pretend = 0, frame = 24
 4814              		@ frame_needed = 1, uses_anonymous_args = 0
 4815              		@ link register save eliminated.
 4816 0000 80B4     		push	{r7}
 4817 0002 87B0     		sub	sp, sp, #28
 4818 0004 00AF     		add	r7, sp, #0
 4819 0006 F860     		str	r0, [r7, #12]
 4820 0008 B960     		str	r1, [r7, #8]
 4821 000a 7A60     		str	r2, [r7, #4]
 4822 000c 0023     		movs	r3, #0
 4823 000e FB75     		strb	r3, [r7, #23]
 4824 0010 FB68     		ldr	r3, [r7, #12]
 4825 0012 B3F85421 		ldrh	r2, [r3, #340]
 4826 0016 BB68     		ldr	r3, [r7, #8]
 4827 0018 1A80     		strh	r2, [r3]	@ movhi
 4828 001a FB68     		ldr	r3, [r7, #12]
 4829 001c D3F85821 		ldr	r2, [r3, #344]
 4830 0020 7B68     		ldr	r3, [r7, #4]
 4831 0022 1A60     		str	r2, [r3]
 4832 0024 97F91730 		ldrsb	r3, [r7, #23]
 4833 0028 1846     		mov	r0, r3
 4834 002a 1C37     		adds	r7, r7, #28
 4835 002c BD46     		mov	sp, r7
 4836              		@ sp needed
 4837 002e 5DF8047B 		ldr	r7, [sp], #4
 4838 0032 7047     		bx	lr
 4839              		.size	VL53L0X_GetDmaxCalParameters, .-VL53L0X_GetDmaxCalParameters
 4840              		.section	.text.VL53L0X_PerformSingleMeasurement,"ax",%progbits
 4841              		.align	1
 4842              		.global	VL53L0X_PerformSingleMeasurement
 4843              		.syntax unified
 4844              		.thumb
 4845              		.thumb_func
ARM GAS  /var/folders/d2/nstgp4h54kz7g1l847x_b8wc0000gn/T//cc7cS1Ev.s 			page 86


 4846              		.fpu fpv4-sp-d16
 4847              		.type	VL53L0X_PerformSingleMeasurement, %function
 4848              	VL53L0X_PerformSingleMeasurement:
 4849              		@ args = 0, pretend = 0, frame = 16
 4850              		@ frame_needed = 1, uses_anonymous_args = 0
 4851 0000 80B5     		push	{r7, lr}
 4852 0002 84B0     		sub	sp, sp, #16
 4853 0004 00AF     		add	r7, sp, #0
 4854 0006 7860     		str	r0, [r7, #4]
 4855 0008 0023     		movs	r3, #0
 4856 000a FB73     		strb	r3, [r7, #15]
 4857 000c 07F10E03 		add	r3, r7, #14
 4858 0010 1946     		mov	r1, r3
 4859 0012 7868     		ldr	r0, [r7, #4]
 4860 0014 FFF7FEFF 		bl	VL53L0X_GetDeviceMode
 4861 0018 0346     		mov	r3, r0
 4862 001a FB73     		strb	r3, [r7, #15]
 4863 001c 97F90F30 		ldrsb	r3, [r7, #15]
 4864 0020 002B     		cmp	r3, #0
 4865 0022 07D1     		bne	.L354
 4866 0024 BB7B     		ldrb	r3, [r7, #14]	@ zero_extendqisi2
 4867 0026 002B     		cmp	r3, #0
 4868 0028 04D1     		bne	.L354
 4869 002a 7868     		ldr	r0, [r7, #4]
 4870 002c FFF7FEFF 		bl	VL53L0X_StartMeasurement
 4871 0030 0346     		mov	r3, r0
 4872 0032 FB73     		strb	r3, [r7, #15]
 4873              	.L354:
 4874 0034 97F90F30 		ldrsb	r3, [r7, #15]
 4875 0038 002B     		cmp	r3, #0
 4876 003a 04D1     		bne	.L355
 4877 003c 7868     		ldr	r0, [r7, #4]
 4878 003e FFF7FEFF 		bl	VL53L0X_measurement_poll_for_completion
 4879 0042 0346     		mov	r3, r0
 4880 0044 FB73     		strb	r3, [r7, #15]
 4881              	.L355:
 4882 0046 97F90F30 		ldrsb	r3, [r7, #15]
 4883 004a 002B     		cmp	r3, #0
 4884 004c 06D1     		bne	.L356
 4885 004e BB7B     		ldrb	r3, [r7, #14]	@ zero_extendqisi2
 4886 0050 002B     		cmp	r3, #0
 4887 0052 03D1     		bne	.L356
 4888 0054 7B68     		ldr	r3, [r7, #4]
 4889 0056 0322     		movs	r2, #3
 4890 0058 83F83221 		strb	r2, [r3, #306]
 4891              	.L356:
 4892 005c 97F90F30 		ldrsb	r3, [r7, #15]
 4893 0060 1846     		mov	r0, r3
 4894 0062 1037     		adds	r7, r7, #16
 4895 0064 BD46     		mov	sp, r7
 4896              		@ sp needed
 4897 0066 80BD     		pop	{r7, pc}
 4898              		.size	VL53L0X_PerformSingleMeasurement, .-VL53L0X_PerformSingleMeasurement
 4899              		.section	.text.VL53L0X_PerformSingleHistogramMeasurement,"ax",%progbits
 4900              		.align	1
 4901              		.global	VL53L0X_PerformSingleHistogramMeasurement
 4902              		.syntax unified
ARM GAS  /var/folders/d2/nstgp4h54kz7g1l847x_b8wc0000gn/T//cc7cS1Ev.s 			page 87


 4903              		.thumb
 4904              		.thumb_func
 4905              		.fpu fpv4-sp-d16
 4906              		.type	VL53L0X_PerformSingleHistogramMeasurement, %function
 4907              	VL53L0X_PerformSingleHistogramMeasurement:
 4908              		@ args = 0, pretend = 0, frame = 16
 4909              		@ frame_needed = 1, uses_anonymous_args = 0
 4910              		@ link register save eliminated.
 4911 0000 80B4     		push	{r7}
 4912 0002 85B0     		sub	sp, sp, #20
 4913 0004 00AF     		add	r7, sp, #0
 4914 0006 7860     		str	r0, [r7, #4]
 4915 0008 3960     		str	r1, [r7]
 4916 000a 9D23     		movs	r3, #157
 4917 000c FB73     		strb	r3, [r7, #15]
 4918 000e 97F90F30 		ldrsb	r3, [r7, #15]
 4919 0012 1846     		mov	r0, r3
 4920 0014 1437     		adds	r7, r7, #20
 4921 0016 BD46     		mov	sp, r7
 4922              		@ sp needed
 4923 0018 5DF8047B 		ldr	r7, [sp], #4
 4924 001c 7047     		bx	lr
 4925              		.size	VL53L0X_PerformSingleHistogramMeasurement, .-VL53L0X_PerformSingleHistogramMeasurement
 4926              		.section	.text.VL53L0X_PerformRefCalibration,"ax",%progbits
 4927              		.align	1
 4928              		.global	VL53L0X_PerformRefCalibration
 4929              		.syntax unified
 4930              		.thumb
 4931              		.thumb_func
 4932              		.fpu fpv4-sp-d16
 4933              		.type	VL53L0X_PerformRefCalibration, %function
 4934              	VL53L0X_PerformRefCalibration:
 4935              		@ args = 0, pretend = 0, frame = 24
 4936              		@ frame_needed = 1, uses_anonymous_args = 0
 4937 0000 80B5     		push	{r7, lr}
 4938 0002 86B0     		sub	sp, sp, #24
 4939 0004 00AF     		add	r7, sp, #0
 4940 0006 F860     		str	r0, [r7, #12]
 4941 0008 B960     		str	r1, [r7, #8]
 4942 000a 7A60     		str	r2, [r7, #4]
 4943 000c 0023     		movs	r3, #0
 4944 000e FB75     		strb	r3, [r7, #23]
 4945 0010 0123     		movs	r3, #1
 4946 0012 7A68     		ldr	r2, [r7, #4]
 4947 0014 B968     		ldr	r1, [r7, #8]
 4948 0016 F868     		ldr	r0, [r7, #12]
 4949 0018 FFF7FEFF 		bl	VL53L0X_perform_ref_calibration
 4950 001c 0346     		mov	r3, r0
 4951 001e FB75     		strb	r3, [r7, #23]
 4952 0020 97F91730 		ldrsb	r3, [r7, #23]
 4953 0024 1846     		mov	r0, r3
 4954 0026 1837     		adds	r7, r7, #24
 4955 0028 BD46     		mov	sp, r7
 4956              		@ sp needed
 4957 002a 80BD     		pop	{r7, pc}
 4958              		.size	VL53L0X_PerformRefCalibration, .-VL53L0X_PerformRefCalibration
 4959              		.section	.text.VL53L0X_PerformXTalkMeasurement,"ax",%progbits
ARM GAS  /var/folders/d2/nstgp4h54kz7g1l847x_b8wc0000gn/T//cc7cS1Ev.s 			page 88


 4960              		.align	1
 4961              		.global	VL53L0X_PerformXTalkMeasurement
 4962              		.syntax unified
 4963              		.thumb
 4964              		.thumb_func
 4965              		.fpu fpv4-sp-d16
 4966              		.type	VL53L0X_PerformXTalkMeasurement, %function
 4967              	VL53L0X_PerformXTalkMeasurement:
 4968              		@ args = 0, pretend = 0, frame = 24
 4969              		@ frame_needed = 1, uses_anonymous_args = 0
 4970              		@ link register save eliminated.
 4971 0000 80B4     		push	{r7}
 4972 0002 87B0     		sub	sp, sp, #28
 4973 0004 00AF     		add	r7, sp, #0
 4974 0006 F860     		str	r0, [r7, #12]
 4975 0008 B960     		str	r1, [r7, #8]
 4976 000a 7A60     		str	r2, [r7, #4]
 4977 000c 3B60     		str	r3, [r7]
 4978 000e 9D23     		movs	r3, #157
 4979 0010 FB75     		strb	r3, [r7, #23]
 4980 0012 97F91730 		ldrsb	r3, [r7, #23]
 4981 0016 1846     		mov	r0, r3
 4982 0018 1C37     		adds	r7, r7, #28
 4983 001a BD46     		mov	sp, r7
 4984              		@ sp needed
 4985 001c 5DF8047B 		ldr	r7, [sp], #4
 4986 0020 7047     		bx	lr
 4987              		.size	VL53L0X_PerformXTalkMeasurement, .-VL53L0X_PerformXTalkMeasurement
 4988              		.section	.text.VL53L0X_PerformXTalkCalibration,"ax",%progbits
 4989              		.align	1
 4990              		.global	VL53L0X_PerformXTalkCalibration
 4991              		.syntax unified
 4992              		.thumb
 4993              		.thumb_func
 4994              		.fpu fpv4-sp-d16
 4995              		.type	VL53L0X_PerformXTalkCalibration, %function
 4996              	VL53L0X_PerformXTalkCalibration:
 4997              		@ args = 0, pretend = 0, frame = 24
 4998              		@ frame_needed = 1, uses_anonymous_args = 0
 4999 0000 80B5     		push	{r7, lr}
 5000 0002 86B0     		sub	sp, sp, #24
 5001 0004 00AF     		add	r7, sp, #0
 5002 0006 F860     		str	r0, [r7, #12]
 5003 0008 B960     		str	r1, [r7, #8]
 5004 000a 7A60     		str	r2, [r7, #4]
 5005 000c 0023     		movs	r3, #0
 5006 000e FB75     		strb	r3, [r7, #23]
 5007 0010 7A68     		ldr	r2, [r7, #4]
 5008 0012 B968     		ldr	r1, [r7, #8]
 5009 0014 F868     		ldr	r0, [r7, #12]
 5010 0016 FFF7FEFF 		bl	VL53L0X_perform_xtalk_calibration
 5011 001a 0346     		mov	r3, r0
 5012 001c FB75     		strb	r3, [r7, #23]
 5013 001e 97F91730 		ldrsb	r3, [r7, #23]
 5014 0022 1846     		mov	r0, r3
 5015 0024 1837     		adds	r7, r7, #24
 5016 0026 BD46     		mov	sp, r7
ARM GAS  /var/folders/d2/nstgp4h54kz7g1l847x_b8wc0000gn/T//cc7cS1Ev.s 			page 89


 5017              		@ sp needed
 5018 0028 80BD     		pop	{r7, pc}
 5019              		.size	VL53L0X_PerformXTalkCalibration, .-VL53L0X_PerformXTalkCalibration
 5020              		.section	.text.VL53L0X_PerformOffsetCalibration,"ax",%progbits
 5021              		.align	1
 5022              		.global	VL53L0X_PerformOffsetCalibration
 5023              		.syntax unified
 5024              		.thumb
 5025              		.thumb_func
 5026              		.fpu fpv4-sp-d16
 5027              		.type	VL53L0X_PerformOffsetCalibration, %function
 5028              	VL53L0X_PerformOffsetCalibration:
 5029              		@ args = 0, pretend = 0, frame = 24
 5030              		@ frame_needed = 1, uses_anonymous_args = 0
 5031 0000 80B5     		push	{r7, lr}
 5032 0002 86B0     		sub	sp, sp, #24
 5033 0004 00AF     		add	r7, sp, #0
 5034 0006 F860     		str	r0, [r7, #12]
 5035 0008 B960     		str	r1, [r7, #8]
 5036 000a 7A60     		str	r2, [r7, #4]
 5037 000c 0023     		movs	r3, #0
 5038 000e FB75     		strb	r3, [r7, #23]
 5039 0010 7A68     		ldr	r2, [r7, #4]
 5040 0012 B968     		ldr	r1, [r7, #8]
 5041 0014 F868     		ldr	r0, [r7, #12]
 5042 0016 FFF7FEFF 		bl	VL53L0X_perform_offset_calibration
 5043 001a 0346     		mov	r3, r0
 5044 001c FB75     		strb	r3, [r7, #23]
 5045 001e 97F91730 		ldrsb	r3, [r7, #23]
 5046 0022 1846     		mov	r0, r3
 5047 0024 1837     		adds	r7, r7, #24
 5048 0026 BD46     		mov	sp, r7
 5049              		@ sp needed
 5050 0028 80BD     		pop	{r7, pc}
 5051              		.size	VL53L0X_PerformOffsetCalibration, .-VL53L0X_PerformOffsetCalibration
 5052              		.section	.text.VL53L0X_CheckAndLoadInterruptSettings,"ax",%progbits
 5053              		.align	1
 5054              		.global	VL53L0X_CheckAndLoadInterruptSettings
 5055              		.syntax unified
 5056              		.thumb
 5057              		.thumb_func
 5058              		.fpu fpv4-sp-d16
 5059              		.type	VL53L0X_CheckAndLoadInterruptSettings, %function
 5060              	VL53L0X_CheckAndLoadInterruptSettings:
 5061              		@ args = 0, pretend = 0, frame = 24
 5062              		@ frame_needed = 1, uses_anonymous_args = 0
 5063 0000 80B5     		push	{r7, lr}
 5064 0002 86B0     		sub	sp, sp, #24
 5065 0004 00AF     		add	r7, sp, #0
 5066 0006 7860     		str	r0, [r7, #4]
 5067 0008 0B46     		mov	r3, r1
 5068 000a FB70     		strb	r3, [r7, #3]
 5069 000c 0023     		movs	r3, #0
 5070 000e FB75     		strb	r3, [r7, #23]
 5071 0010 7B68     		ldr	r3, [r7, #4]
 5072 0012 93F8DA30 		ldrb	r3, [r3, #218]
 5073 0016 BB75     		strb	r3, [r7, #22]
ARM GAS  /var/folders/d2/nstgp4h54kz7g1l847x_b8wc0000gn/T//cc7cS1Ev.s 			page 90


 5074 0018 BB7D     		ldrb	r3, [r7, #22]	@ zero_extendqisi2
 5075 001a 012B     		cmp	r3, #1
 5076 001c 05D0     		beq	.L369
 5077 001e BB7D     		ldrb	r3, [r7, #22]	@ zero_extendqisi2
 5078 0020 022B     		cmp	r3, #2
 5079 0022 02D0     		beq	.L369
 5080 0024 BB7D     		ldrb	r3, [r7, #22]	@ zero_extendqisi2
 5081 0026 032B     		cmp	r3, #3
 5082 0028 47D1     		bne	.L370
 5083              	.L369:
 5084 002a 07F10C03 		add	r3, r7, #12
 5085 002e 07F11002 		add	r2, r7, #16
 5086 0032 0121     		movs	r1, #1
 5087 0034 7868     		ldr	r0, [r7, #4]
 5088 0036 FFF7FEFF 		bl	VL53L0X_GetInterruptThresholds
 5089 003a 0346     		mov	r3, r0
 5090 003c FB75     		strb	r3, [r7, #23]
 5091 003e 3B69     		ldr	r3, [r7, #16]
 5092 0040 B3F57F0F 		cmp	r3, #16711680
 5093 0044 03D8     		bhi	.L371
 5094 0046 FB68     		ldr	r3, [r7, #12]
 5095 0048 B3F57F0F 		cmp	r3, #16711680
 5096 004c 35D9     		bls	.L370
 5097              	.L371:
 5098 004e 97F91730 		ldrsb	r3, [r7, #23]
 5099 0052 002B     		cmp	r3, #0
 5100 0054 31D1     		bne	.L370
 5101 0056 FB78     		ldrb	r3, [r7, #3]	@ zero_extendqisi2
 5102 0058 002B     		cmp	r3, #0
 5103 005a 06D0     		beq	.L372
 5104 005c 1A49     		ldr	r1, .L374
 5105 005e 7868     		ldr	r0, [r7, #4]
 5106 0060 FFF7FEFF 		bl	VL53L0X_load_tuning_settings
 5107 0064 0346     		mov	r3, r0
 5108 0066 FB75     		strb	r3, [r7, #23]
 5109 0068 27E0     		b	.L370
 5110              	.L372:
 5111 006a 0422     		movs	r2, #4
 5112 006c FF21     		movs	r1, #255
 5113 006e 7868     		ldr	r0, [r7, #4]
 5114 0070 FFF7FEFF 		bl	VL53L0X_WrByte
 5115 0074 0346     		mov	r3, r0
 5116 0076 1A46     		mov	r2, r3
 5117 0078 FB7D     		ldrb	r3, [r7, #23]
 5118 007a 1343     		orrs	r3, r3, r2
 5119 007c FB75     		strb	r3, [r7, #23]
 5120 007e 0022     		movs	r2, #0
 5121 0080 7021     		movs	r1, #112
 5122 0082 7868     		ldr	r0, [r7, #4]
 5123 0084 FFF7FEFF 		bl	VL53L0X_WrByte
 5124 0088 0346     		mov	r3, r0
 5125 008a 1A46     		mov	r2, r3
 5126 008c FB7D     		ldrb	r3, [r7, #23]
 5127 008e 1343     		orrs	r3, r3, r2
 5128 0090 FB75     		strb	r3, [r7, #23]
 5129 0092 0022     		movs	r2, #0
 5130 0094 FF21     		movs	r1, #255
ARM GAS  /var/folders/d2/nstgp4h54kz7g1l847x_b8wc0000gn/T//cc7cS1Ev.s 			page 91


 5131 0096 7868     		ldr	r0, [r7, #4]
 5132 0098 FFF7FEFF 		bl	VL53L0X_WrByte
 5133 009c 0346     		mov	r3, r0
 5134 009e 1A46     		mov	r2, r3
 5135 00a0 FB7D     		ldrb	r3, [r7, #23]
 5136 00a2 1343     		orrs	r3, r3, r2
 5137 00a4 FB75     		strb	r3, [r7, #23]
 5138 00a6 0022     		movs	r2, #0
 5139 00a8 8021     		movs	r1, #128
 5140 00aa 7868     		ldr	r0, [r7, #4]
 5141 00ac FFF7FEFF 		bl	VL53L0X_WrByte
 5142 00b0 0346     		mov	r3, r0
 5143 00b2 1A46     		mov	r2, r3
 5144 00b4 FB7D     		ldrb	r3, [r7, #23]
 5145 00b6 1343     		orrs	r3, r3, r2
 5146 00b8 FB75     		strb	r3, [r7, #23]
 5147              	.L370:
 5148 00ba 97F91730 		ldrsb	r3, [r7, #23]
 5149 00be 1846     		mov	r0, r3
 5150 00c0 1837     		adds	r7, r7, #24
 5151 00c2 BD46     		mov	sp, r7
 5152              		@ sp needed
 5153 00c4 80BD     		pop	{r7, pc}
 5154              	.L375:
 5155 00c6 00BF     		.align	2
 5156              	.L374:
 5157 00c8 00000000 		.word	InterruptThresholdSettings
 5158              		.size	VL53L0X_CheckAndLoadInterruptSettings, .-VL53L0X_CheckAndLoadInterruptSettings
 5159              		.section	.text.VL53L0X_StartMeasurement,"ax",%progbits
 5160              		.align	1
 5161              		.global	VL53L0X_StartMeasurement
 5162              		.syntax unified
 5163              		.thumb
 5164              		.thumb_func
 5165              		.fpu fpv4-sp-d16
 5166              		.type	VL53L0X_StartMeasurement, %function
 5167              	VL53L0X_StartMeasurement:
 5168              		@ args = 0, pretend = 0, frame = 24
 5169              		@ frame_needed = 1, uses_anonymous_args = 0
 5170 0000 80B5     		push	{r7, lr}
 5171 0002 86B0     		sub	sp, sp, #24
 5172 0004 00AF     		add	r7, sp, #0
 5173 0006 7860     		str	r0, [r7, #4]
 5174 0008 0023     		movs	r3, #0
 5175 000a FB75     		strb	r3, [r7, #23]
 5176 000c 0123     		movs	r3, #1
 5177 000e FB73     		strb	r3, [r7, #15]
 5178 0010 07F10E03 		add	r3, r7, #14
 5179 0014 1946     		mov	r1, r3
 5180 0016 7868     		ldr	r0, [r7, #4]
 5181 0018 FFF7FEFF 		bl	VL53L0X_GetDeviceMode
 5182 001c 0122     		movs	r2, #1
 5183 001e 8021     		movs	r1, #128
 5184 0020 7868     		ldr	r0, [r7, #4]
 5185 0022 FFF7FEFF 		bl	VL53L0X_WrByte
 5186 0026 0346     		mov	r3, r0
 5187 0028 FB75     		strb	r3, [r7, #23]
ARM GAS  /var/folders/d2/nstgp4h54kz7g1l847x_b8wc0000gn/T//cc7cS1Ev.s 			page 92


 5188 002a 0122     		movs	r2, #1
 5189 002c FF21     		movs	r1, #255
 5190 002e 7868     		ldr	r0, [r7, #4]
 5191 0030 FFF7FEFF 		bl	VL53L0X_WrByte
 5192 0034 0346     		mov	r3, r0
 5193 0036 FB75     		strb	r3, [r7, #23]
 5194 0038 0022     		movs	r2, #0
 5195 003a 0021     		movs	r1, #0
 5196 003c 7868     		ldr	r0, [r7, #4]
 5197 003e FFF7FEFF 		bl	VL53L0X_WrByte
 5198 0042 0346     		mov	r3, r0
 5199 0044 FB75     		strb	r3, [r7, #23]
 5200 0046 7B68     		ldr	r3, [r7, #4]
 5201 0048 93F83A31 		ldrb	r3, [r3, #314]	@ zero_extendqisi2
 5202 004c 1A46     		mov	r2, r3
 5203 004e 9121     		movs	r1, #145
 5204 0050 7868     		ldr	r0, [r7, #4]
 5205 0052 FFF7FEFF 		bl	VL53L0X_WrByte
 5206 0056 0346     		mov	r3, r0
 5207 0058 FB75     		strb	r3, [r7, #23]
 5208 005a 0122     		movs	r2, #1
 5209 005c 0021     		movs	r1, #0
 5210 005e 7868     		ldr	r0, [r7, #4]
 5211 0060 FFF7FEFF 		bl	VL53L0X_WrByte
 5212 0064 0346     		mov	r3, r0
 5213 0066 FB75     		strb	r3, [r7, #23]
 5214 0068 0022     		movs	r2, #0
 5215 006a FF21     		movs	r1, #255
 5216 006c 7868     		ldr	r0, [r7, #4]
 5217 006e FFF7FEFF 		bl	VL53L0X_WrByte
 5218 0072 0346     		mov	r3, r0
 5219 0074 FB75     		strb	r3, [r7, #23]
 5220 0076 0022     		movs	r2, #0
 5221 0078 8021     		movs	r1, #128
 5222 007a 7868     		ldr	r0, [r7, #4]
 5223 007c FFF7FEFF 		bl	VL53L0X_WrByte
 5224 0080 0346     		mov	r3, r0
 5225 0082 FB75     		strb	r3, [r7, #23]
 5226 0084 BB7B     		ldrb	r3, [r7, #14]	@ zero_extendqisi2
 5227 0086 012B     		cmp	r3, #1
 5228 0088 37D0     		beq	.L378
 5229 008a 032B     		cmp	r3, #3
 5230 008c 4FD0     		beq	.L379
 5231 008e 002B     		cmp	r3, #0
 5232 0090 67D1     		bne	.L391
 5233 0092 0122     		movs	r2, #1
 5234 0094 0021     		movs	r1, #0
 5235 0096 7868     		ldr	r0, [r7, #4]
 5236 0098 FFF7FEFF 		bl	VL53L0X_WrByte
 5237 009c 0346     		mov	r3, r0
 5238 009e FB75     		strb	r3, [r7, #23]
 5239 00a0 FB7B     		ldrb	r3, [r7, #15]
 5240 00a2 7B73     		strb	r3, [r7, #13]
 5241 00a4 97F91730 		ldrsb	r3, [r7, #23]
 5242 00a8 002B     		cmp	r3, #0
 5243 00aa 5DD1     		bne	.L392
 5244 00ac 0023     		movs	r3, #0
ARM GAS  /var/folders/d2/nstgp4h54kz7g1l847x_b8wc0000gn/T//cc7cS1Ev.s 			page 93


 5245 00ae 3B61     		str	r3, [r7, #16]
 5246              	.L384:
 5247 00b0 3B69     		ldr	r3, [r7, #16]
 5248 00b2 002B     		cmp	r3, #0
 5249 00b4 08D0     		beq	.L382
 5250 00b6 07F10D03 		add	r3, r7, #13
 5251 00ba 1A46     		mov	r2, r3
 5252 00bc 0021     		movs	r1, #0
 5253 00be 7868     		ldr	r0, [r7, #4]
 5254 00c0 FFF7FEFF 		bl	VL53L0X_RdByte
 5255 00c4 0346     		mov	r3, r0
 5256 00c6 FB75     		strb	r3, [r7, #23]
 5257              	.L382:
 5258 00c8 3B69     		ldr	r3, [r7, #16]
 5259 00ca 0133     		adds	r3, r3, #1
 5260 00cc 3B61     		str	r3, [r7, #16]
 5261 00ce 7A7B     		ldrb	r2, [r7, #13]	@ zero_extendqisi2
 5262 00d0 FB7B     		ldrb	r3, [r7, #15]
 5263 00d2 1340     		ands	r3, r3, r2
 5264 00d4 DBB2     		uxtb	r3, r3
 5265 00d6 FA7B     		ldrb	r2, [r7, #15]	@ zero_extendqisi2
 5266 00d8 9A42     		cmp	r2, r3
 5267 00da 07D1     		bne	.L383
 5268 00dc 97F91730 		ldrsb	r3, [r7, #23]
 5269 00e0 002B     		cmp	r3, #0
 5270 00e2 03D1     		bne	.L383
 5271 00e4 3B69     		ldr	r3, [r7, #16]
 5272 00e6 B3F5FA6F 		cmp	r3, #2000
 5273 00ea E1D3     		bcc	.L384
 5274              	.L383:
 5275 00ec 3B69     		ldr	r3, [r7, #16]
 5276 00ee B3F5FA6F 		cmp	r3, #2000
 5277 00f2 39D3     		bcc	.L392
 5278 00f4 F923     		movs	r3, #249
 5279 00f6 FB75     		strb	r3, [r7, #23]
 5280 00f8 36E0     		b	.L392
 5281              	.L378:
 5282 00fa 97F91730 		ldrsb	r3, [r7, #23]
 5283 00fe 002B     		cmp	r3, #0
 5284 0100 05D1     		bne	.L386
 5285 0102 0121     		movs	r1, #1
 5286 0104 7868     		ldr	r0, [r7, #4]
 5287 0106 FFF7FEFF 		bl	VL53L0X_CheckAndLoadInterruptSettings
 5288 010a 0346     		mov	r3, r0
 5289 010c FB75     		strb	r3, [r7, #23]
 5290              	.L386:
 5291 010e 0222     		movs	r2, #2
 5292 0110 0021     		movs	r1, #0
 5293 0112 7868     		ldr	r0, [r7, #4]
 5294 0114 FFF7FEFF 		bl	VL53L0X_WrByte
 5295 0118 0346     		mov	r3, r0
 5296 011a FB75     		strb	r3, [r7, #23]
 5297 011c 97F91730 		ldrsb	r3, [r7, #23]
 5298 0120 002B     		cmp	r3, #0
 5299 0122 23D1     		bne	.L393
 5300 0124 7B68     		ldr	r3, [r7, #4]
 5301 0126 0422     		movs	r2, #4
ARM GAS  /var/folders/d2/nstgp4h54kz7g1l847x_b8wc0000gn/T//cc7cS1Ev.s 			page 94


 5302 0128 83F83221 		strb	r2, [r3, #306]
 5303 012c 1EE0     		b	.L393
 5304              	.L379:
 5305 012e 97F91730 		ldrsb	r3, [r7, #23]
 5306 0132 002B     		cmp	r3, #0
 5307 0134 05D1     		bne	.L388
 5308 0136 0121     		movs	r1, #1
 5309 0138 7868     		ldr	r0, [r7, #4]
 5310 013a FFF7FEFF 		bl	VL53L0X_CheckAndLoadInterruptSettings
 5311 013e 0346     		mov	r3, r0
 5312 0140 FB75     		strb	r3, [r7, #23]
 5313              	.L388:
 5314 0142 0422     		movs	r2, #4
 5315 0144 0021     		movs	r1, #0
 5316 0146 7868     		ldr	r0, [r7, #4]
 5317 0148 FFF7FEFF 		bl	VL53L0X_WrByte
 5318 014c 0346     		mov	r3, r0
 5319 014e FB75     		strb	r3, [r7, #23]
 5320 0150 97F91730 		ldrsb	r3, [r7, #23]
 5321 0154 002B     		cmp	r3, #0
 5322 0156 0BD1     		bne	.L394
 5323 0158 7B68     		ldr	r3, [r7, #4]
 5324 015a 0422     		movs	r2, #4
 5325 015c 83F83221 		strb	r2, [r3, #306]
 5326 0160 06E0     		b	.L394
 5327              	.L391:
 5328 0162 F823     		movs	r3, #248
 5329 0164 FB75     		strb	r3, [r7, #23]
 5330 0166 04E0     		b	.L385
 5331              	.L392:
 5332 0168 00BF     		nop
 5333 016a 02E0     		b	.L385
 5334              	.L393:
 5335 016c 00BF     		nop
 5336 016e 00E0     		b	.L385
 5337              	.L394:
 5338 0170 00BF     		nop
 5339              	.L385:
 5340 0172 97F91730 		ldrsb	r3, [r7, #23]
 5341 0176 1846     		mov	r0, r3
 5342 0178 1837     		adds	r7, r7, #24
 5343 017a BD46     		mov	sp, r7
 5344              		@ sp needed
 5345 017c 80BD     		pop	{r7, pc}
 5346              		.size	VL53L0X_StartMeasurement, .-VL53L0X_StartMeasurement
 5347              		.section	.text.VL53L0X_StopMeasurement,"ax",%progbits
 5348              		.align	1
 5349              		.global	VL53L0X_StopMeasurement
 5350              		.syntax unified
 5351              		.thumb
 5352              		.thumb_func
 5353              		.fpu fpv4-sp-d16
 5354              		.type	VL53L0X_StopMeasurement, %function
 5355              	VL53L0X_StopMeasurement:
 5356              		@ args = 0, pretend = 0, frame = 16
 5357              		@ frame_needed = 1, uses_anonymous_args = 0
 5358 0000 80B5     		push	{r7, lr}
ARM GAS  /var/folders/d2/nstgp4h54kz7g1l847x_b8wc0000gn/T//cc7cS1Ev.s 			page 95


 5359 0002 84B0     		sub	sp, sp, #16
 5360 0004 00AF     		add	r7, sp, #0
 5361 0006 7860     		str	r0, [r7, #4]
 5362 0008 0023     		movs	r3, #0
 5363 000a FB73     		strb	r3, [r7, #15]
 5364 000c 0022     		movs	r2, #0
 5365 000e 0021     		movs	r1, #0
 5366 0010 7868     		ldr	r0, [r7, #4]
 5367 0012 FFF7FEFF 		bl	VL53L0X_WrByte
 5368 0016 0346     		mov	r3, r0
 5369 0018 FB73     		strb	r3, [r7, #15]
 5370 001a 0122     		movs	r2, #1
 5371 001c FF21     		movs	r1, #255
 5372 001e 7868     		ldr	r0, [r7, #4]
 5373 0020 FFF7FEFF 		bl	VL53L0X_WrByte
 5374 0024 0346     		mov	r3, r0
 5375 0026 FB73     		strb	r3, [r7, #15]
 5376 0028 0022     		movs	r2, #0
 5377 002a 0021     		movs	r1, #0
 5378 002c 7868     		ldr	r0, [r7, #4]
 5379 002e FFF7FEFF 		bl	VL53L0X_WrByte
 5380 0032 0346     		mov	r3, r0
 5381 0034 FB73     		strb	r3, [r7, #15]
 5382 0036 0022     		movs	r2, #0
 5383 0038 9121     		movs	r1, #145
 5384 003a 7868     		ldr	r0, [r7, #4]
 5385 003c FFF7FEFF 		bl	VL53L0X_WrByte
 5386 0040 0346     		mov	r3, r0
 5387 0042 FB73     		strb	r3, [r7, #15]
 5388 0044 0122     		movs	r2, #1
 5389 0046 0021     		movs	r1, #0
 5390 0048 7868     		ldr	r0, [r7, #4]
 5391 004a FFF7FEFF 		bl	VL53L0X_WrByte
 5392 004e 0346     		mov	r3, r0
 5393 0050 FB73     		strb	r3, [r7, #15]
 5394 0052 0022     		movs	r2, #0
 5395 0054 FF21     		movs	r1, #255
 5396 0056 7868     		ldr	r0, [r7, #4]
 5397 0058 FFF7FEFF 		bl	VL53L0X_WrByte
 5398 005c 0346     		mov	r3, r0
 5399 005e FB73     		strb	r3, [r7, #15]
 5400 0060 97F90F30 		ldrsb	r3, [r7, #15]
 5401 0064 002B     		cmp	r3, #0
 5402 0066 03D1     		bne	.L396
 5403 0068 7B68     		ldr	r3, [r7, #4]
 5404 006a 0322     		movs	r2, #3
 5405 006c 83F83221 		strb	r2, [r3, #306]
 5406              	.L396:
 5407 0070 97F90F30 		ldrsb	r3, [r7, #15]
 5408 0074 002B     		cmp	r3, #0
 5409 0076 05D1     		bne	.L397
 5410 0078 0021     		movs	r1, #0
 5411 007a 7868     		ldr	r0, [r7, #4]
 5412 007c FFF7FEFF 		bl	VL53L0X_CheckAndLoadInterruptSettings
 5413 0080 0346     		mov	r3, r0
 5414 0082 FB73     		strb	r3, [r7, #15]
 5415              	.L397:
ARM GAS  /var/folders/d2/nstgp4h54kz7g1l847x_b8wc0000gn/T//cc7cS1Ev.s 			page 96


 5416 0084 97F90F30 		ldrsb	r3, [r7, #15]
 5417 0088 1846     		mov	r0, r3
 5418 008a 1037     		adds	r7, r7, #16
 5419 008c BD46     		mov	sp, r7
 5420              		@ sp needed
 5421 008e 80BD     		pop	{r7, pc}
 5422              		.size	VL53L0X_StopMeasurement, .-VL53L0X_StopMeasurement
 5423              		.section	.text.VL53L0X_GetMeasurementDataReady,"ax",%progbits
 5424              		.align	1
 5425              		.global	VL53L0X_GetMeasurementDataReady
 5426              		.syntax unified
 5427              		.thumb
 5428              		.thumb_func
 5429              		.fpu fpv4-sp-d16
 5430              		.type	VL53L0X_GetMeasurementDataReady, %function
 5431              	VL53L0X_GetMeasurementDataReady:
 5432              		@ args = 0, pretend = 0, frame = 16
 5433              		@ frame_needed = 1, uses_anonymous_args = 0
 5434 0000 80B5     		push	{r7, lr}
 5435 0002 84B0     		sub	sp, sp, #16
 5436 0004 00AF     		add	r7, sp, #0
 5437 0006 7860     		str	r0, [r7, #4]
 5438 0008 3960     		str	r1, [r7]
 5439 000a 0023     		movs	r3, #0
 5440 000c FB73     		strb	r3, [r7, #15]
 5441 000e 7B68     		ldr	r3, [r7, #4]
 5442 0010 93F8DA30 		ldrb	r3, [r3, #218]
 5443 0014 BB73     		strb	r3, [r7, #14]
 5444 0016 BB7B     		ldrb	r3, [r7, #14]	@ zero_extendqisi2
 5445 0018 042B     		cmp	r3, #4
 5446 001a 12D1     		bne	.L400
 5447 001c 07F10803 		add	r3, r7, #8
 5448 0020 1946     		mov	r1, r3
 5449 0022 7868     		ldr	r0, [r7, #4]
 5450 0024 FFF7FEFF 		bl	VL53L0X_GetInterruptMaskStatus
 5451 0028 0346     		mov	r3, r0
 5452 002a FB73     		strb	r3, [r7, #15]
 5453 002c BB68     		ldr	r3, [r7, #8]
 5454 002e 042B     		cmp	r3, #4
 5455 0030 03D1     		bne	.L401
 5456 0032 3B68     		ldr	r3, [r7]
 5457 0034 0122     		movs	r2, #1
 5458 0036 1A70     		strb	r2, [r3]
 5459 0038 1CE0     		b	.L403
 5460              	.L401:
 5461 003a 3B68     		ldr	r3, [r7]
 5462 003c 0022     		movs	r2, #0
 5463 003e 1A70     		strb	r2, [r3]
 5464 0040 18E0     		b	.L403
 5465              	.L400:
 5466 0042 07F10D03 		add	r3, r7, #13
 5467 0046 1A46     		mov	r2, r3
 5468 0048 1421     		movs	r1, #20
 5469 004a 7868     		ldr	r0, [r7, #4]
 5470 004c FFF7FEFF 		bl	VL53L0X_RdByte
 5471 0050 0346     		mov	r3, r0
 5472 0052 FB73     		strb	r3, [r7, #15]
ARM GAS  /var/folders/d2/nstgp4h54kz7g1l847x_b8wc0000gn/T//cc7cS1Ev.s 			page 97


 5473 0054 97F90F30 		ldrsb	r3, [r7, #15]
 5474 0058 002B     		cmp	r3, #0
 5475 005a 0BD1     		bne	.L403
 5476 005c 7B7B     		ldrb	r3, [r7, #13]	@ zero_extendqisi2
 5477 005e 03F00103 		and	r3, r3, #1
 5478 0062 002B     		cmp	r3, #0
 5479 0064 03D0     		beq	.L404
 5480 0066 3B68     		ldr	r3, [r7]
 5481 0068 0122     		movs	r2, #1
 5482 006a 1A70     		strb	r2, [r3]
 5483 006c 02E0     		b	.L403
 5484              	.L404:
 5485 006e 3B68     		ldr	r3, [r7]
 5486 0070 0022     		movs	r2, #0
 5487 0072 1A70     		strb	r2, [r3]
 5488              	.L403:
 5489 0074 97F90F30 		ldrsb	r3, [r7, #15]
 5490 0078 1846     		mov	r0, r3
 5491 007a 1037     		adds	r7, r7, #16
 5492 007c BD46     		mov	sp, r7
 5493              		@ sp needed
 5494 007e 80BD     		pop	{r7, pc}
 5495              		.size	VL53L0X_GetMeasurementDataReady, .-VL53L0X_GetMeasurementDataReady
 5496              		.section	.text.VL53L0X_WaitDeviceReadyForNewMeasurement,"ax",%progbits
 5497              		.align	1
 5498              		.global	VL53L0X_WaitDeviceReadyForNewMeasurement
 5499              		.syntax unified
 5500              		.thumb
 5501              		.thumb_func
 5502              		.fpu fpv4-sp-d16
 5503              		.type	VL53L0X_WaitDeviceReadyForNewMeasurement, %function
 5504              	VL53L0X_WaitDeviceReadyForNewMeasurement:
 5505              		@ args = 0, pretend = 0, frame = 16
 5506              		@ frame_needed = 1, uses_anonymous_args = 0
 5507              		@ link register save eliminated.
 5508 0000 80B4     		push	{r7}
 5509 0002 85B0     		sub	sp, sp, #20
 5510 0004 00AF     		add	r7, sp, #0
 5511 0006 7860     		str	r0, [r7, #4]
 5512 0008 3960     		str	r1, [r7]
 5513 000a 9D23     		movs	r3, #157
 5514 000c FB73     		strb	r3, [r7, #15]
 5515 000e 97F90F30 		ldrsb	r3, [r7, #15]
 5516 0012 1846     		mov	r0, r3
 5517 0014 1437     		adds	r7, r7, #20
 5518 0016 BD46     		mov	sp, r7
 5519              		@ sp needed
 5520 0018 5DF8047B 		ldr	r7, [sp], #4
 5521 001c 7047     		bx	lr
 5522              		.size	VL53L0X_WaitDeviceReadyForNewMeasurement, .-VL53L0X_WaitDeviceReadyForNewMeasurement
 5523              		.section	.text.VL53L0X_GetRangingMeasurementData,"ax",%progbits
 5524              		.align	1
 5525              		.global	VL53L0X_GetRangingMeasurementData
 5526              		.syntax unified
 5527              		.thumb
 5528              		.thumb_func
 5529              		.fpu fpv4-sp-d16
ARM GAS  /var/folders/d2/nstgp4h54kz7g1l847x_b8wc0000gn/T//cc7cS1Ev.s 			page 98


 5530              		.type	VL53L0X_GetRangingMeasurementData, %function
 5531              	VL53L0X_GetRangingMeasurementData:
 5532              		@ args = 0, pretend = 0, frame = 80
 5533              		@ frame_needed = 1, uses_anonymous_args = 0
 5534 0000 B0B5     		push	{r4, r5, r7, lr}
 5535 0002 96B0     		sub	sp, sp, #88
 5536 0004 02AF     		add	r7, sp, #8
 5537 0006 7860     		str	r0, [r7, #4]
 5538 0008 3960     		str	r1, [r7]
 5539 000a 0023     		movs	r3, #0
 5540 000c 87F84F30 		strb	r3, [r7, #79]
 5541 0010 07F12802 		add	r2, r7, #40
 5542 0014 0C23     		movs	r3, #12
 5543 0016 1421     		movs	r1, #20
 5544 0018 7868     		ldr	r0, [r7, #4]
 5545 001a FFF7FEFF 		bl	VL53L0X_ReadMulti
 5546 001e 0346     		mov	r3, r0
 5547 0020 87F84F30 		strb	r3, [r7, #79]
 5548 0024 97F94F30 		ldrsb	r3, [r7, #79]
 5549 0028 002B     		cmp	r3, #0
 5550 002a 40F0D280 		bne	.L409
 5551 002e 3B68     		ldr	r3, [r7]
 5552 0030 0022     		movs	r2, #0
 5553 0032 9A75     		strb	r2, [r3, #22]
 5554 0034 3B68     		ldr	r3, [r7]
 5555 0036 0022     		movs	r2, #0
 5556 0038 1A60     		str	r2, [r3]
 5557 003a 97F83230 		ldrb	r3, [r7, #50]	@ zero_extendqisi2
 5558 003e 9BB2     		uxth	r3, r3
 5559 0040 1B02     		lsls	r3, r3, #8
 5560 0042 9AB2     		uxth	r2, r3
 5561 0044 97F83330 		ldrb	r3, [r7, #51]	@ zero_extendqisi2
 5562 0048 9BB2     		uxth	r3, r3
 5563 004a 1344     		add	r3, r3, r2
 5564 004c A7F84C30 		strh	r3, [r7, #76]	@ movhi
 5565 0050 3B68     		ldr	r3, [r7]
 5566 0052 0022     		movs	r2, #0
 5567 0054 5A60     		str	r2, [r3, #4]
 5568 0056 97F82E30 		ldrb	r3, [r7, #46]	@ zero_extendqisi2
 5569 005a 9BB2     		uxth	r3, r3
 5570 005c 1B02     		lsls	r3, r3, #8
 5571 005e 9AB2     		uxth	r2, r3
 5572 0060 97F82F30 		ldrb	r3, [r7, #47]	@ zero_extendqisi2
 5573 0064 9BB2     		uxth	r3, r3
 5574 0066 1344     		add	r3, r3, r2
 5575 0068 9BB2     		uxth	r3, r3
 5576 006a 5B02     		lsls	r3, r3, #9
 5577 006c 7B64     		str	r3, [r7, #68]
 5578 006e 3B68     		ldr	r3, [r7]
 5579 0070 7A6C     		ldr	r2, [r7, #68]
 5580 0072 DA60     		str	r2, [r3, #12]
 5581 0074 97F83030 		ldrb	r3, [r7, #48]	@ zero_extendqisi2
 5582 0078 9BB2     		uxth	r3, r3
 5583 007a 1B02     		lsls	r3, r3, #8
 5584 007c 9AB2     		uxth	r2, r3
 5585 007e 97F83130 		ldrb	r3, [r7, #49]	@ zero_extendqisi2
 5586 0082 9BB2     		uxth	r3, r3
ARM GAS  /var/folders/d2/nstgp4h54kz7g1l847x_b8wc0000gn/T//cc7cS1Ev.s 			page 99


 5587 0084 1344     		add	r3, r3, r2
 5588 0086 A7F84230 		strh	r3, [r7, #66]	@ movhi
 5589 008a B7F84230 		ldrh	r3, [r7, #66]
 5590 008e 5B02     		lsls	r3, r3, #9
 5591 0090 1A46     		mov	r2, r3
 5592 0092 3B68     		ldr	r3, [r7]
 5593 0094 1A61     		str	r2, [r3, #16]
 5594 0096 97F82A30 		ldrb	r3, [r7, #42]	@ zero_extendqisi2
 5595 009a 9BB2     		uxth	r3, r3
 5596 009c 1B02     		lsls	r3, r3, #8
 5597 009e 9AB2     		uxth	r2, r3
 5598 00a0 97F82B30 		ldrb	r3, [r7, #43]	@ zero_extendqisi2
 5599 00a4 9BB2     		uxth	r3, r3
 5600 00a6 1344     		add	r3, r3, r2
 5601 00a8 A7F84030 		strh	r3, [r7, #64]	@ movhi
 5602 00ac 3B68     		ldr	r3, [r7]
 5603 00ae B7F84020 		ldrh	r2, [r7, #64]	@ movhi
 5604 00b2 9A82     		strh	r2, [r3, #20]	@ movhi
 5605 00b4 97F82830 		ldrb	r3, [r7, #40]
 5606 00b8 87F83F30 		strb	r3, [r7, #63]
 5607 00bc 7B68     		ldr	r3, [r7, #4]
 5608 00be B3F85231 		ldrh	r3, [r3, #338]	@ movhi
 5609 00c2 BB87     		strh	r3, [r7, #60]	@ movhi
 5610 00c4 7B68     		ldr	r3, [r7, #4]
 5611 00c6 93F83131 		ldrb	r3, [r3, #305]
 5612 00ca 87F83B30 		strb	r3, [r7, #59]
 5613 00ce BB8F     		ldrh	r3, [r7, #60]
 5614 00d0 B3F57A7F 		cmp	r3, #1000
 5615 00d4 47D0     		beq	.L410
 5616 00d6 BB8F     		ldrh	r3, [r7, #60]
 5617 00d8 B7F84C20 		ldrh	r2, [r7, #76]
 5618 00dc 02FB03F3 		mul	r3, r2, r3
 5619 00e0 03F5FA73 		add	r3, r3, #500
 5620 00e4 584A     		ldr	r2, .L419
 5621 00e6 82FB0312 		smull	r1, r2, r2, r3
 5622 00ea 9211     		asrs	r2, r2, #6
 5623 00ec DB17     		asrs	r3, r3, #31
 5624 00ee D31A     		subs	r3, r2, r3
 5625 00f0 A7F84C30 		strh	r3, [r7, #76]	@ movhi
 5626 00f4 7B68     		ldr	r3, [r7, #4]
 5627 00f6 1B6A     		ldr	r3, [r3, #32]
 5628 00f8 3B87     		strh	r3, [r7, #56]	@ movhi
 5629 00fa 7B68     		ldr	r3, [r7, #4]
 5630 00fc 1B7F     		ldrb	r3, [r3, #28]
 5631 00fe 87F83730 		strb	r3, [r7, #55]
 5632 0102 97F83730 		ldrb	r3, [r7, #55]	@ zero_extendqisi2
 5633 0106 002B     		cmp	r3, #0
 5634 0108 2DD0     		beq	.L410
 5635 010a 3B8F     		ldrh	r3, [r7, #56]
 5636 010c B7F84020 		ldrh	r2, [r7, #64]
 5637 0110 02FB03F3 		mul	r3, r2, r3
 5638 0114 1B12     		asrs	r3, r3, #8
 5639 0116 1A46     		mov	r2, r3
 5640 0118 7B6C     		ldr	r3, [r7, #68]
 5641 011a 9342     		cmp	r3, r2
 5642 011c 0DD1     		bne	.L411
 5643 011e 97F83B30 		ldrb	r3, [r7, #59]	@ zero_extendqisi2
ARM GAS  /var/folders/d2/nstgp4h54kz7g1l847x_b8wc0000gn/T//cc7cS1Ev.s 			page 100


 5644 0122 002B     		cmp	r3, #0
 5645 0124 04D0     		beq	.L412
 5646 0126 42F2B823 		movw	r3, #8888
 5647 012a A7F84A30 		strh	r3, [r7, #74]	@ movhi
 5648 012e 16E0     		b	.L414
 5649              	.L412:
 5650 0130 48F6E023 		movw	r3, #35552
 5651 0134 A7F84A30 		strh	r3, [r7, #74]	@ movhi
 5652 0138 11E0     		b	.L414
 5653              	.L411:
 5654 013a B7F84C30 		ldrh	r3, [r7, #76]
 5655 013e 7A6C     		ldr	r2, [r7, #68]
 5656 0140 02FB03F2 		mul	r2, r2, r3
 5657 0144 3B8F     		ldrh	r3, [r7, #56]
 5658 0146 B7F84010 		ldrh	r1, [r7, #64]
 5659 014a 01FB03F3 		mul	r3, r1, r3
 5660 014e 1B12     		asrs	r3, r3, #8
 5661 0150 1946     		mov	r1, r3
 5662 0152 7B6C     		ldr	r3, [r7, #68]
 5663 0154 5B1A     		subs	r3, r3, r1
 5664 0156 B2FBF3F3 		udiv	r3, r2, r3
 5665 015a A7F84A30 		strh	r3, [r7, #74]	@ movhi
 5666              	.L414:
 5667 015e B7F84A30 		ldrh	r3, [r7, #74]	@ movhi
 5668 0162 A7F84C30 		strh	r3, [r7, #76]	@ movhi
 5669              	.L410:
 5670 0166 97F83B30 		ldrb	r3, [r7, #59]	@ zero_extendqisi2
 5671 016a 002B     		cmp	r3, #0
 5672 016c 0DD0     		beq	.L415
 5673 016e B7F84C30 		ldrh	r3, [r7, #76]
 5674 0172 9B08     		lsrs	r3, r3, #2
 5675 0174 9AB2     		uxth	r2, r3
 5676 0176 3B68     		ldr	r3, [r7]
 5677 0178 1A81     		strh	r2, [r3, #8]	@ movhi
 5678 017a B7F84C30 		ldrh	r3, [r7, #76]	@ movhi
 5679 017e DBB2     		uxtb	r3, r3
 5680 0180 9B01     		lsls	r3, r3, #6
 5681 0182 DAB2     		uxtb	r2, r3
 5682 0184 3B68     		ldr	r3, [r7]
 5683 0186 DA75     		strb	r2, [r3, #23]
 5684 0188 06E0     		b	.L416
 5685              	.L415:
 5686 018a 3B68     		ldr	r3, [r7]
 5687 018c B7F84C20 		ldrh	r2, [r7, #76]	@ movhi
 5688 0190 1A81     		strh	r2, [r3, #8]	@ movhi
 5689 0192 3B68     		ldr	r3, [r7]
 5690 0194 0022     		movs	r2, #0
 5691 0196 DA75     		strb	r2, [r3, #23]
 5692              	.L416:
 5693 0198 B7F84020 		ldrh	r2, [r7, #64]
 5694 019c 97F83F10 		ldrb	r1, [r7, #63]	@ zero_extendqisi2
 5695 01a0 07F13603 		add	r3, r7, #54
 5696 01a4 0193     		str	r3, [sp, #4]
 5697 01a6 3B68     		ldr	r3, [r7]
 5698 01a8 0093     		str	r3, [sp]
 5699 01aa 1346     		mov	r3, r2
 5700 01ac 7A6C     		ldr	r2, [r7, #68]
ARM GAS  /var/folders/d2/nstgp4h54kz7g1l847x_b8wc0000gn/T//cc7cS1Ev.s 			page 101


 5701 01ae 7868     		ldr	r0, [r7, #4]
 5702 01b0 FFF7FEFF 		bl	VL53L0X_get_pal_range_status
 5703 01b4 0346     		mov	r3, r0
 5704 01b6 1A46     		mov	r2, r3
 5705 01b8 97F84F30 		ldrb	r3, [r7, #79]
 5706 01bc 1343     		orrs	r3, r3, r2
 5707 01be 87F84F30 		strb	r3, [r7, #79]
 5708 01c2 97F94F30 		ldrsb	r3, [r7, #79]
 5709 01c6 002B     		cmp	r3, #0
 5710 01c8 03D1     		bne	.L409
 5711 01ca 97F83620 		ldrb	r2, [r7, #54]	@ zero_extendqisi2
 5712 01ce 3B68     		ldr	r3, [r7]
 5713 01d0 1A76     		strb	r2, [r3, #24]
 5714              	.L409:
 5715 01d2 97F94F30 		ldrsb	r3, [r7, #79]
 5716 01d6 002B     		cmp	r3, #0
 5717 01d8 2FD1     		bne	.L417
 5718 01da 7B68     		ldr	r3, [r7, #4]
 5719 01dc 07F10C04 		add	r4, r7, #12
 5720 01e0 03F15005 		add	r5, r3, #80
 5721 01e4 0FCD     		ldmia	r5!, {r0, r1, r2, r3}
 5722 01e6 0FC4     		stmia	r4!, {r0, r1, r2, r3}
 5723 01e8 95E80700 		ldm	r5, {r0, r1, r2}
 5724 01ec 84E80700 		stm	r4, {r0, r1, r2}
 5725 01f0 3B68     		ldr	r3, [r7]
 5726 01f2 1B89     		ldrh	r3, [r3, #8]
 5727 01f4 BB82     		strh	r3, [r7, #20]	@ movhi
 5728 01f6 3B68     		ldr	r3, [r7]
 5729 01f8 DB7D     		ldrb	r3, [r3, #23]	@ zero_extendqisi2
 5730 01fa 87F82330 		strb	r3, [r7, #35]
 5731 01fe 3B68     		ldr	r3, [r7]
 5732 0200 5B89     		ldrh	r3, [r3, #10]
 5733 0202 FB82     		strh	r3, [r7, #22]	@ movhi
 5734 0204 3B68     		ldr	r3, [r7]
 5735 0206 5B68     		ldr	r3, [r3, #4]
 5736 0208 3B61     		str	r3, [r7, #16]
 5737 020a 3B68     		ldr	r3, [r7]
 5738 020c DB68     		ldr	r3, [r3, #12]
 5739 020e BB61     		str	r3, [r7, #24]
 5740 0210 3B68     		ldr	r3, [r7]
 5741 0212 1B69     		ldr	r3, [r3, #16]
 5742 0214 FB61     		str	r3, [r7, #28]
 5743 0216 3B68     		ldr	r3, [r7]
 5744 0218 9B8A     		ldrh	r3, [r3, #20]
 5745 021a 3B84     		strh	r3, [r7, #32]	@ movhi
 5746 021c 3B68     		ldr	r3, [r7]
 5747 021e 1B7E     		ldrb	r3, [r3, #24]	@ zero_extendqisi2
 5748 0220 87F82430 		strb	r3, [r7, #36]
 5749 0224 7B68     		ldr	r3, [r7, #4]
 5750 0226 03F15004 		add	r4, r3, #80
 5751 022a 07F10C05 		add	r5, r7, #12
 5752 022e 0FCD     		ldmia	r5!, {r0, r1, r2, r3}
 5753 0230 0FC4     		stmia	r4!, {r0, r1, r2, r3}
 5754 0232 95E80700 		ldm	r5, {r0, r1, r2}
 5755 0236 84E80700 		stm	r4, {r0, r1, r2}
 5756              	.L417:
 5757 023a 97F94F30 		ldrsb	r3, [r7, #79]
ARM GAS  /var/folders/d2/nstgp4h54kz7g1l847x_b8wc0000gn/T//cc7cS1Ev.s 			page 102


 5758 023e 1846     		mov	r0, r3
 5759 0240 5037     		adds	r7, r7, #80
 5760 0242 BD46     		mov	sp, r7
 5761              		@ sp needed
 5762 0244 B0BD     		pop	{r4, r5, r7, pc}
 5763              	.L420:
 5764 0246 00BF     		.align	2
 5765              	.L419:
 5766 0248 D34D6210 		.word	274877907
 5767              		.size	VL53L0X_GetRangingMeasurementData, .-VL53L0X_GetRangingMeasurementData
 5768              		.section	.text.VL53L0X_GetMeasurementRefSignal,"ax",%progbits
 5769              		.align	1
 5770              		.global	VL53L0X_GetMeasurementRefSignal
 5771              		.syntax unified
 5772              		.thumb
 5773              		.thumb_func
 5774              		.fpu fpv4-sp-d16
 5775              		.type	VL53L0X_GetMeasurementRefSignal, %function
 5776              	VL53L0X_GetMeasurementRefSignal:
 5777              		@ args = 0, pretend = 0, frame = 16
 5778              		@ frame_needed = 1, uses_anonymous_args = 0
 5779 0000 80B5     		push	{r7, lr}
 5780 0002 84B0     		sub	sp, sp, #16
 5781 0004 00AF     		add	r7, sp, #0
 5782 0006 7860     		str	r0, [r7, #4]
 5783 0008 3960     		str	r1, [r7]
 5784 000a 0023     		movs	r3, #0
 5785 000c FB73     		strb	r3, [r7, #15]
 5786 000e 0023     		movs	r3, #0
 5787 0010 BB73     		strb	r3, [r7, #14]
 5788 0012 07F10E03 		add	r3, r7, #14
 5789 0016 1A46     		mov	r2, r3
 5790 0018 0221     		movs	r1, #2
 5791 001a 7868     		ldr	r0, [r7, #4]
 5792 001c FFF7FEFF 		bl	VL53L0X_GetLimitCheckEnable
 5793 0020 0346     		mov	r3, r0
 5794 0022 FB73     		strb	r3, [r7, #15]
 5795 0024 BB7B     		ldrb	r3, [r7, #14]	@ zero_extendqisi2
 5796 0026 002B     		cmp	r3, #0
 5797 0028 05D0     		beq	.L422
 5798 002a 7B68     		ldr	r3, [r7, #4]
 5799 002c D3F84821 		ldr	r2, [r3, #328]
 5800 0030 3B68     		ldr	r3, [r7]
 5801 0032 1A60     		str	r2, [r3]
 5802 0034 01E0     		b	.L423
 5803              	.L422:
 5804 0036 E223     		movs	r3, #226
 5805 0038 FB73     		strb	r3, [r7, #15]
 5806              	.L423:
 5807 003a 97F90F30 		ldrsb	r3, [r7, #15]
 5808 003e 1846     		mov	r0, r3
 5809 0040 1037     		adds	r7, r7, #16
 5810 0042 BD46     		mov	sp, r7
 5811              		@ sp needed
 5812 0044 80BD     		pop	{r7, pc}
 5813              		.size	VL53L0X_GetMeasurementRefSignal, .-VL53L0X_GetMeasurementRefSignal
 5814              		.section	.text.VL53L0X_GetHistogramMeasurementData,"ax",%progbits
ARM GAS  /var/folders/d2/nstgp4h54kz7g1l847x_b8wc0000gn/T//cc7cS1Ev.s 			page 103


 5815              		.align	1
 5816              		.global	VL53L0X_GetHistogramMeasurementData
 5817              		.syntax unified
 5818              		.thumb
 5819              		.thumb_func
 5820              		.fpu fpv4-sp-d16
 5821              		.type	VL53L0X_GetHistogramMeasurementData, %function
 5822              	VL53L0X_GetHistogramMeasurementData:
 5823              		@ args = 0, pretend = 0, frame = 16
 5824              		@ frame_needed = 1, uses_anonymous_args = 0
 5825              		@ link register save eliminated.
 5826 0000 80B4     		push	{r7}
 5827 0002 85B0     		sub	sp, sp, #20
 5828 0004 00AF     		add	r7, sp, #0
 5829 0006 7860     		str	r0, [r7, #4]
 5830 0008 3960     		str	r1, [r7]
 5831 000a 9D23     		movs	r3, #157
 5832 000c FB73     		strb	r3, [r7, #15]
 5833 000e 97F90F30 		ldrsb	r3, [r7, #15]
 5834 0012 1846     		mov	r0, r3
 5835 0014 1437     		adds	r7, r7, #20
 5836 0016 BD46     		mov	sp, r7
 5837              		@ sp needed
 5838 0018 5DF8047B 		ldr	r7, [sp], #4
 5839 001c 7047     		bx	lr
 5840              		.size	VL53L0X_GetHistogramMeasurementData, .-VL53L0X_GetHistogramMeasurementData
 5841              		.section	.text.VL53L0X_PerformSingleRangingMeasurement,"ax",%progbits
 5842              		.align	1
 5843              		.global	VL53L0X_PerformSingleRangingMeasurement
 5844              		.syntax unified
 5845              		.thumb
 5846              		.thumb_func
 5847              		.fpu fpv4-sp-d16
 5848              		.type	VL53L0X_PerformSingleRangingMeasurement, %function
 5849              	VL53L0X_PerformSingleRangingMeasurement:
 5850              		@ args = 0, pretend = 0, frame = 16
 5851              		@ frame_needed = 1, uses_anonymous_args = 0
 5852 0000 80B5     		push	{r7, lr}
 5853 0002 84B0     		sub	sp, sp, #16
 5854 0004 00AF     		add	r7, sp, #0
 5855 0006 7860     		str	r0, [r7, #4]
 5856 0008 3960     		str	r1, [r7]
 5857 000a 0023     		movs	r3, #0
 5858 000c FB73     		strb	r3, [r7, #15]
 5859 000e 0021     		movs	r1, #0
 5860 0010 7868     		ldr	r0, [r7, #4]
 5861 0012 FFF7FEFF 		bl	VL53L0X_SetDeviceMode
 5862 0016 0346     		mov	r3, r0
 5863 0018 FB73     		strb	r3, [r7, #15]
 5864 001a 97F90F30 		ldrsb	r3, [r7, #15]
 5865 001e 002B     		cmp	r3, #0
 5866 0020 04D1     		bne	.L428
 5867 0022 7868     		ldr	r0, [r7, #4]
 5868 0024 FFF7FEFF 		bl	VL53L0X_PerformSingleMeasurement
 5869 0028 0346     		mov	r3, r0
 5870 002a FB73     		strb	r3, [r7, #15]
 5871              	.L428:
ARM GAS  /var/folders/d2/nstgp4h54kz7g1l847x_b8wc0000gn/T//cc7cS1Ev.s 			page 104


 5872 002c 97F90F30 		ldrsb	r3, [r7, #15]
 5873 0030 002B     		cmp	r3, #0
 5874 0032 05D1     		bne	.L429
 5875 0034 3968     		ldr	r1, [r7]
 5876 0036 7868     		ldr	r0, [r7, #4]
 5877 0038 FFF7FEFF 		bl	VL53L0X_GetRangingMeasurementData
 5878 003c 0346     		mov	r3, r0
 5879 003e FB73     		strb	r3, [r7, #15]
 5880              	.L429:
 5881 0040 97F90F30 		ldrsb	r3, [r7, #15]
 5882 0044 002B     		cmp	r3, #0
 5883 0046 05D1     		bne	.L430
 5884 0048 0021     		movs	r1, #0
 5885 004a 7868     		ldr	r0, [r7, #4]
 5886 004c FFF7FEFF 		bl	VL53L0X_ClearInterruptMask
 5887 0050 0346     		mov	r3, r0
 5888 0052 FB73     		strb	r3, [r7, #15]
 5889              	.L430:
 5890 0054 97F90F30 		ldrsb	r3, [r7, #15]
 5891 0058 1846     		mov	r0, r3
 5892 005a 1037     		adds	r7, r7, #16
 5893 005c BD46     		mov	sp, r7
 5894              		@ sp needed
 5895 005e 80BD     		pop	{r7, pc}
 5896              		.size	VL53L0X_PerformSingleRangingMeasurement, .-VL53L0X_PerformSingleRangingMeasurement
 5897              		.section	.text.VL53L0X_SetNumberOfROIZones,"ax",%progbits
 5898              		.align	1
 5899              		.global	VL53L0X_SetNumberOfROIZones
 5900              		.syntax unified
 5901              		.thumb
 5902              		.thumb_func
 5903              		.fpu fpv4-sp-d16
 5904              		.type	VL53L0X_SetNumberOfROIZones, %function
 5905              	VL53L0X_SetNumberOfROIZones:
 5906              		@ args = 0, pretend = 0, frame = 16
 5907              		@ frame_needed = 1, uses_anonymous_args = 0
 5908              		@ link register save eliminated.
 5909 0000 80B4     		push	{r7}
 5910 0002 85B0     		sub	sp, sp, #20
 5911 0004 00AF     		add	r7, sp, #0
 5912 0006 7860     		str	r0, [r7, #4]
 5913 0008 0B46     		mov	r3, r1
 5914 000a FB70     		strb	r3, [r7, #3]
 5915 000c 0023     		movs	r3, #0
 5916 000e FB73     		strb	r3, [r7, #15]
 5917 0010 FB78     		ldrb	r3, [r7, #3]	@ zero_extendqisi2
 5918 0012 012B     		cmp	r3, #1
 5919 0014 01D0     		beq	.L433
 5920 0016 FC23     		movs	r3, #252
 5921 0018 FB73     		strb	r3, [r7, #15]
 5922              	.L433:
 5923 001a 97F90F30 		ldrsb	r3, [r7, #15]
 5924 001e 1846     		mov	r0, r3
 5925 0020 1437     		adds	r7, r7, #20
 5926 0022 BD46     		mov	sp, r7
 5927              		@ sp needed
 5928 0024 5DF8047B 		ldr	r7, [sp], #4
ARM GAS  /var/folders/d2/nstgp4h54kz7g1l847x_b8wc0000gn/T//cc7cS1Ev.s 			page 105


 5929 0028 7047     		bx	lr
 5930              		.size	VL53L0X_SetNumberOfROIZones, .-VL53L0X_SetNumberOfROIZones
 5931              		.section	.text.VL53L0X_GetNumberOfROIZones,"ax",%progbits
 5932              		.align	1
 5933              		.global	VL53L0X_GetNumberOfROIZones
 5934              		.syntax unified
 5935              		.thumb
 5936              		.thumb_func
 5937              		.fpu fpv4-sp-d16
 5938              		.type	VL53L0X_GetNumberOfROIZones, %function
 5939              	VL53L0X_GetNumberOfROIZones:
 5940              		@ args = 0, pretend = 0, frame = 16
 5941              		@ frame_needed = 1, uses_anonymous_args = 0
 5942              		@ link register save eliminated.
 5943 0000 80B4     		push	{r7}
 5944 0002 85B0     		sub	sp, sp, #20
 5945 0004 00AF     		add	r7, sp, #0
 5946 0006 7860     		str	r0, [r7, #4]
 5947 0008 3960     		str	r1, [r7]
 5948 000a 0023     		movs	r3, #0
 5949 000c FB73     		strb	r3, [r7, #15]
 5950 000e 3B68     		ldr	r3, [r7]
 5951 0010 0122     		movs	r2, #1
 5952 0012 1A70     		strb	r2, [r3]
 5953 0014 97F90F30 		ldrsb	r3, [r7, #15]
 5954 0018 1846     		mov	r0, r3
 5955 001a 1437     		adds	r7, r7, #20
 5956 001c BD46     		mov	sp, r7
 5957              		@ sp needed
 5958 001e 5DF8047B 		ldr	r7, [sp], #4
 5959 0022 7047     		bx	lr
 5960              		.size	VL53L0X_GetNumberOfROIZones, .-VL53L0X_GetNumberOfROIZones
 5961              		.section	.text.VL53L0X_GetMaxNumberOfROIZones,"ax",%progbits
 5962              		.align	1
 5963              		.global	VL53L0X_GetMaxNumberOfROIZones
 5964              		.syntax unified
 5965              		.thumb
 5966              		.thumb_func
 5967              		.fpu fpv4-sp-d16
 5968              		.type	VL53L0X_GetMaxNumberOfROIZones, %function
 5969              	VL53L0X_GetMaxNumberOfROIZones:
 5970              		@ args = 0, pretend = 0, frame = 16
 5971              		@ frame_needed = 1, uses_anonymous_args = 0
 5972              		@ link register save eliminated.
 5973 0000 80B4     		push	{r7}
 5974 0002 85B0     		sub	sp, sp, #20
 5975 0004 00AF     		add	r7, sp, #0
 5976 0006 7860     		str	r0, [r7, #4]
 5977 0008 3960     		str	r1, [r7]
 5978 000a 0023     		movs	r3, #0
 5979 000c FB73     		strb	r3, [r7, #15]
 5980 000e 3B68     		ldr	r3, [r7]
 5981 0010 0122     		movs	r2, #1
 5982 0012 1A70     		strb	r2, [r3]
 5983 0014 97F90F30 		ldrsb	r3, [r7, #15]
 5984 0018 1846     		mov	r0, r3
 5985 001a 1437     		adds	r7, r7, #20
ARM GAS  /var/folders/d2/nstgp4h54kz7g1l847x_b8wc0000gn/T//cc7cS1Ev.s 			page 106


 5986 001c BD46     		mov	sp, r7
 5987              		@ sp needed
 5988 001e 5DF8047B 		ldr	r7, [sp], #4
 5989 0022 7047     		bx	lr
 5990              		.size	VL53L0X_GetMaxNumberOfROIZones, .-VL53L0X_GetMaxNumberOfROIZones
 5991              		.section	.text.VL53L0X_SetGpioConfig,"ax",%progbits
 5992              		.align	1
 5993              		.global	VL53L0X_SetGpioConfig
 5994              		.syntax unified
 5995              		.thumb
 5996              		.thumb_func
 5997              		.fpu fpv4-sp-d16
 5998              		.type	VL53L0X_SetGpioConfig, %function
 5999              	VL53L0X_SetGpioConfig:
 6000              		@ args = 4, pretend = 0, frame = 16
 6001              		@ frame_needed = 1, uses_anonymous_args = 0
 6002 0000 80B5     		push	{r7, lr}
 6003 0002 84B0     		sub	sp, sp, #16
 6004 0004 00AF     		add	r7, sp, #0
 6005 0006 7860     		str	r0, [r7, #4]
 6006 0008 0846     		mov	r0, r1
 6007 000a 1146     		mov	r1, r2
 6008 000c 1A46     		mov	r2, r3
 6009 000e 0346     		mov	r3, r0
 6010 0010 FB70     		strb	r3, [r7, #3]
 6011 0012 0B46     		mov	r3, r1
 6012 0014 BB70     		strb	r3, [r7, #2]
 6013 0016 1346     		mov	r3, r2
 6014 0018 7B70     		strb	r3, [r7, #1]
 6015 001a 0023     		movs	r3, #0
 6016 001c FB73     		strb	r3, [r7, #15]
 6017 001e FB78     		ldrb	r3, [r7, #3]	@ zero_extendqisi2
 6018 0020 002B     		cmp	r3, #0
 6019 0022 02D0     		beq	.L440
 6020 0024 F623     		movs	r3, #246
 6021 0026 FB73     		strb	r3, [r7, #15]
 6022 0028 07E1     		b	.L441
 6023              	.L440:
 6024 002a BB78     		ldrb	r3, [r7, #2]	@ zero_extendqisi2
 6025 002c 142B     		cmp	r3, #20
 6026 002e 10D1     		bne	.L442
 6027 0030 3B7E     		ldrb	r3, [r7, #24]	@ zero_extendqisi2
 6028 0032 002B     		cmp	r3, #0
 6029 0034 02D1     		bne	.L443
 6030 0036 1023     		movs	r3, #16
 6031 0038 BB73     		strb	r3, [r7, #14]
 6032 003a 01E0     		b	.L444
 6033              	.L443:
 6034 003c 0123     		movs	r3, #1
 6035 003e BB73     		strb	r3, [r7, #14]
 6036              	.L444:
 6037 0040 BB7B     		ldrb	r3, [r7, #14]	@ zero_extendqisi2
 6038 0042 1A46     		mov	r2, r3
 6039 0044 8421     		movs	r1, #132
 6040 0046 7868     		ldr	r0, [r7, #4]
 6041 0048 FFF7FEFF 		bl	VL53L0X_WrByte
 6042 004c 0346     		mov	r3, r0
ARM GAS  /var/folders/d2/nstgp4h54kz7g1l847x_b8wc0000gn/T//cc7cS1Ev.s 			page 107


 6043 004e FB73     		strb	r3, [r7, #15]
 6044 0050 F3E0     		b	.L441
 6045              	.L442:
 6046 0052 BB78     		ldrb	r3, [r7, #2]	@ zero_extendqisi2
 6047 0054 152B     		cmp	r3, #21
 6048 0056 40F09780 		bne	.L445
 6049 005a 0122     		movs	r2, #1
 6050 005c FF21     		movs	r1, #255
 6051 005e 7868     		ldr	r0, [r7, #4]
 6052 0060 FFF7FEFF 		bl	VL53L0X_WrByte
 6053 0064 0346     		mov	r3, r0
 6054 0066 1A46     		mov	r2, r3
 6055 0068 FB7B     		ldrb	r3, [r7, #15]
 6056 006a 1343     		orrs	r3, r3, r2
 6057 006c FB73     		strb	r3, [r7, #15]
 6058 006e 0022     		movs	r2, #0
 6059 0070 0021     		movs	r1, #0
 6060 0072 7868     		ldr	r0, [r7, #4]
 6061 0074 FFF7FEFF 		bl	VL53L0X_WrByte
 6062 0078 0346     		mov	r3, r0
 6063 007a 1A46     		mov	r2, r3
 6064 007c FB7B     		ldrb	r3, [r7, #15]
 6065 007e 1343     		orrs	r3, r3, r2
 6066 0080 FB73     		strb	r3, [r7, #15]
 6067 0082 0022     		movs	r2, #0
 6068 0084 FF21     		movs	r1, #255
 6069 0086 7868     		ldr	r0, [r7, #4]
 6070 0088 FFF7FEFF 		bl	VL53L0X_WrByte
 6071 008c 0346     		mov	r3, r0
 6072 008e 1A46     		mov	r2, r3
 6073 0090 FB7B     		ldrb	r3, [r7, #15]
 6074 0092 1343     		orrs	r3, r3, r2
 6075 0094 FB73     		strb	r3, [r7, #15]
 6076 0096 0122     		movs	r2, #1
 6077 0098 8021     		movs	r1, #128
 6078 009a 7868     		ldr	r0, [r7, #4]
 6079 009c FFF7FEFF 		bl	VL53L0X_WrByte
 6080 00a0 0346     		mov	r3, r0
 6081 00a2 1A46     		mov	r2, r3
 6082 00a4 FB7B     		ldrb	r3, [r7, #15]
 6083 00a6 1343     		orrs	r3, r3, r2
 6084 00a8 FB73     		strb	r3, [r7, #15]
 6085 00aa 0222     		movs	r2, #2
 6086 00ac 8521     		movs	r1, #133
 6087 00ae 7868     		ldr	r0, [r7, #4]
 6088 00b0 FFF7FEFF 		bl	VL53L0X_WrByte
 6089 00b4 0346     		mov	r3, r0
 6090 00b6 1A46     		mov	r2, r3
 6091 00b8 FB7B     		ldrb	r3, [r7, #15]
 6092 00ba 1343     		orrs	r3, r3, r2
 6093 00bc FB73     		strb	r3, [r7, #15]
 6094 00be 0422     		movs	r2, #4
 6095 00c0 FF21     		movs	r1, #255
 6096 00c2 7868     		ldr	r0, [r7, #4]
 6097 00c4 FFF7FEFF 		bl	VL53L0X_WrByte
 6098 00c8 0346     		mov	r3, r0
 6099 00ca 1A46     		mov	r2, r3
ARM GAS  /var/folders/d2/nstgp4h54kz7g1l847x_b8wc0000gn/T//cc7cS1Ev.s 			page 108


 6100 00cc FB7B     		ldrb	r3, [r7, #15]
 6101 00ce 1343     		orrs	r3, r3, r2
 6102 00d0 FB73     		strb	r3, [r7, #15]
 6103 00d2 0022     		movs	r2, #0
 6104 00d4 CD21     		movs	r1, #205
 6105 00d6 7868     		ldr	r0, [r7, #4]
 6106 00d8 FFF7FEFF 		bl	VL53L0X_WrByte
 6107 00dc 0346     		mov	r3, r0
 6108 00de 1A46     		mov	r2, r3
 6109 00e0 FB7B     		ldrb	r3, [r7, #15]
 6110 00e2 1343     		orrs	r3, r3, r2
 6111 00e4 FB73     		strb	r3, [r7, #15]
 6112 00e6 1122     		movs	r2, #17
 6113 00e8 CC21     		movs	r1, #204
 6114 00ea 7868     		ldr	r0, [r7, #4]
 6115 00ec FFF7FEFF 		bl	VL53L0X_WrByte
 6116 00f0 0346     		mov	r3, r0
 6117 00f2 1A46     		mov	r2, r3
 6118 00f4 FB7B     		ldrb	r3, [r7, #15]
 6119 00f6 1343     		orrs	r3, r3, r2
 6120 00f8 FB73     		strb	r3, [r7, #15]
 6121 00fa 0722     		movs	r2, #7
 6122 00fc FF21     		movs	r1, #255
 6123 00fe 7868     		ldr	r0, [r7, #4]
 6124 0100 FFF7FEFF 		bl	VL53L0X_WrByte
 6125 0104 0346     		mov	r3, r0
 6126 0106 1A46     		mov	r2, r3
 6127 0108 FB7B     		ldrb	r3, [r7, #15]
 6128 010a 1343     		orrs	r3, r3, r2
 6129 010c FB73     		strb	r3, [r7, #15]
 6130 010e 0022     		movs	r2, #0
 6131 0110 BE21     		movs	r1, #190
 6132 0112 7868     		ldr	r0, [r7, #4]
 6133 0114 FFF7FEFF 		bl	VL53L0X_WrByte
 6134 0118 0346     		mov	r3, r0
 6135 011a 1A46     		mov	r2, r3
 6136 011c FB7B     		ldrb	r3, [r7, #15]
 6137 011e 1343     		orrs	r3, r3, r2
 6138 0120 FB73     		strb	r3, [r7, #15]
 6139 0122 0622     		movs	r2, #6
 6140 0124 FF21     		movs	r1, #255
 6141 0126 7868     		ldr	r0, [r7, #4]
 6142 0128 FFF7FEFF 		bl	VL53L0X_WrByte
 6143 012c 0346     		mov	r3, r0
 6144 012e 1A46     		mov	r2, r3
 6145 0130 FB7B     		ldrb	r3, [r7, #15]
 6146 0132 1343     		orrs	r3, r3, r2
 6147 0134 FB73     		strb	r3, [r7, #15]
 6148 0136 0922     		movs	r2, #9
 6149 0138 CC21     		movs	r1, #204
 6150 013a 7868     		ldr	r0, [r7, #4]
 6151 013c FFF7FEFF 		bl	VL53L0X_WrByte
 6152 0140 0346     		mov	r3, r0
 6153 0142 1A46     		mov	r2, r3
 6154 0144 FB7B     		ldrb	r3, [r7, #15]
 6155 0146 1343     		orrs	r3, r3, r2
 6156 0148 FB73     		strb	r3, [r7, #15]
ARM GAS  /var/folders/d2/nstgp4h54kz7g1l847x_b8wc0000gn/T//cc7cS1Ev.s 			page 109


 6157 014a 0022     		movs	r2, #0
 6158 014c FF21     		movs	r1, #255
 6159 014e 7868     		ldr	r0, [r7, #4]
 6160 0150 FFF7FEFF 		bl	VL53L0X_WrByte
 6161 0154 0346     		mov	r3, r0
 6162 0156 1A46     		mov	r2, r3
 6163 0158 FB7B     		ldrb	r3, [r7, #15]
 6164 015a 1343     		orrs	r3, r3, r2
 6165 015c FB73     		strb	r3, [r7, #15]
 6166 015e 0122     		movs	r2, #1
 6167 0160 FF21     		movs	r1, #255
 6168 0162 7868     		ldr	r0, [r7, #4]
 6169 0164 FFF7FEFF 		bl	VL53L0X_WrByte
 6170 0168 0346     		mov	r3, r0
 6171 016a 1A46     		mov	r2, r3
 6172 016c FB7B     		ldrb	r3, [r7, #15]
 6173 016e 1343     		orrs	r3, r3, r2
 6174 0170 FB73     		strb	r3, [r7, #15]
 6175 0172 0022     		movs	r2, #0
 6176 0174 0021     		movs	r1, #0
 6177 0176 7868     		ldr	r0, [r7, #4]
 6178 0178 FFF7FEFF 		bl	VL53L0X_WrByte
 6179 017c 0346     		mov	r3, r0
 6180 017e 1A46     		mov	r2, r3
 6181 0180 FB7B     		ldrb	r3, [r7, #15]
 6182 0182 1343     		orrs	r3, r3, r2
 6183 0184 FB73     		strb	r3, [r7, #15]
 6184 0186 58E0     		b	.L441
 6185              	.L445:
 6186 0188 97F90F30 		ldrsb	r3, [r7, #15]
 6187 018c 002B     		cmp	r3, #0
 6188 018e 21D1     		bne	.L460
 6189 0190 7B78     		ldrb	r3, [r7, #1]	@ zero_extendqisi2
 6190 0192 042B     		cmp	r3, #4
 6191 0194 1BD8     		bhi	.L447
 6192 0196 01A2     		adr	r2, .L449
 6193 0198 52F823F0 		ldr	pc, [r2, r3, lsl #2]
 6194              		.p2align 2
 6195              	.L449:
 6196 019c B1010000 		.word	.L448+1
 6197 01a0 B7010000 		.word	.L450+1
 6198 01a4 BD010000 		.word	.L451+1
 6199 01a8 C3010000 		.word	.L452+1
 6200 01ac C9010000 		.word	.L453+1
 6201              		.p2align 1
 6202              	.L448:
 6203 01b0 0023     		movs	r3, #0
 6204 01b2 BB73     		strb	r3, [r7, #14]
 6205 01b4 0FE0     		b	.L446
 6206              	.L450:
 6207 01b6 0123     		movs	r3, #1
 6208 01b8 BB73     		strb	r3, [r7, #14]
 6209 01ba 0CE0     		b	.L446
 6210              	.L451:
 6211 01bc 0223     		movs	r3, #2
 6212 01be BB73     		strb	r3, [r7, #14]
 6213 01c0 09E0     		b	.L446
ARM GAS  /var/folders/d2/nstgp4h54kz7g1l847x_b8wc0000gn/T//cc7cS1Ev.s 			page 110


 6214              	.L452:
 6215 01c2 0323     		movs	r3, #3
 6216 01c4 BB73     		strb	r3, [r7, #14]
 6217 01c6 06E0     		b	.L446
 6218              	.L453:
 6219 01c8 0423     		movs	r3, #4
 6220 01ca BB73     		strb	r3, [r7, #14]
 6221 01cc 03E0     		b	.L446
 6222              	.L447:
 6223 01ce F523     		movs	r3, #245
 6224 01d0 FB73     		strb	r3, [r7, #15]
 6225 01d2 00E0     		b	.L446
 6226              	.L460:
 6227 01d4 00BF     		nop
 6228              	.L446:
 6229 01d6 97F90F30 		ldrsb	r3, [r7, #15]
 6230 01da 002B     		cmp	r3, #0
 6231 01dc 07D1     		bne	.L454
 6232 01de BB7B     		ldrb	r3, [r7, #14]	@ zero_extendqisi2
 6233 01e0 1A46     		mov	r2, r3
 6234 01e2 0A21     		movs	r1, #10
 6235 01e4 7868     		ldr	r0, [r7, #4]
 6236 01e6 FFF7FEFF 		bl	VL53L0X_WrByte
 6237 01ea 0346     		mov	r3, r0
 6238 01ec FB73     		strb	r3, [r7, #15]
 6239              	.L454:
 6240 01ee 97F90F30 		ldrsb	r3, [r7, #15]
 6241 01f2 002B     		cmp	r3, #0
 6242 01f4 0FD1     		bne	.L455
 6243 01f6 3B7E     		ldrb	r3, [r7, #24]	@ zero_extendqisi2
 6244 01f8 002B     		cmp	r3, #0
 6245 01fa 02D1     		bne	.L456
 6246 01fc 0023     		movs	r3, #0
 6247 01fe BB73     		strb	r3, [r7, #14]
 6248 0200 01E0     		b	.L457
 6249              	.L456:
 6250 0202 1023     		movs	r3, #16
 6251 0204 BB73     		strb	r3, [r7, #14]
 6252              	.L457:
 6253 0206 BB7B     		ldrb	r3, [r7, #14]	@ zero_extendqisi2
 6254 0208 EF22     		movs	r2, #239
 6255 020a 8421     		movs	r1, #132
 6256 020c 7868     		ldr	r0, [r7, #4]
 6257 020e FFF7FEFF 		bl	VL53L0X_UpdateByte
 6258 0212 0346     		mov	r3, r0
 6259 0214 FB73     		strb	r3, [r7, #15]
 6260              	.L455:
 6261 0216 97F90F30 		ldrsb	r3, [r7, #15]
 6262 021a 002B     		cmp	r3, #0
 6263 021c 03D1     		bne	.L458
 6264 021e 7B68     		ldr	r3, [r7, #4]
 6265 0220 7A78     		ldrb	r2, [r7, #1]
 6266 0222 83F8DA20 		strb	r2, [r3, #218]
 6267              	.L458:
 6268 0226 97F90F30 		ldrsb	r3, [r7, #15]
 6269 022a 002B     		cmp	r3, #0
 6270 022c 05D1     		bne	.L441
ARM GAS  /var/folders/d2/nstgp4h54kz7g1l847x_b8wc0000gn/T//cc7cS1Ev.s 			page 111


 6271 022e 0021     		movs	r1, #0
 6272 0230 7868     		ldr	r0, [r7, #4]
 6273 0232 FFF7FEFF 		bl	VL53L0X_ClearInterruptMask
 6274 0236 0346     		mov	r3, r0
 6275 0238 FB73     		strb	r3, [r7, #15]
 6276              	.L441:
 6277 023a 97F90F30 		ldrsb	r3, [r7, #15]
 6278 023e 1846     		mov	r0, r3
 6279 0240 1037     		adds	r7, r7, #16
 6280 0242 BD46     		mov	sp, r7
 6281              		@ sp needed
 6282 0244 80BD     		pop	{r7, pc}
 6283              		.size	VL53L0X_SetGpioConfig, .-VL53L0X_SetGpioConfig
 6284 0246 00BF     		.section	.text.VL53L0X_GetGpioConfig,"ax",%progbits
 6285              		.align	1
 6286              		.global	VL53L0X_GetGpioConfig
 6287              		.syntax unified
 6288              		.thumb
 6289              		.thumb_func
 6290              		.fpu fpv4-sp-d16
 6291              		.type	VL53L0X_GetGpioConfig, %function
 6292              	VL53L0X_GetGpioConfig:
 6293              		@ args = 4, pretend = 0, frame = 24
 6294              		@ frame_needed = 1, uses_anonymous_args = 0
 6295 0000 80B5     		push	{r7, lr}
 6296 0002 86B0     		sub	sp, sp, #24
 6297 0004 00AF     		add	r7, sp, #0
 6298 0006 F860     		str	r0, [r7, #12]
 6299 0008 7A60     		str	r2, [r7, #4]
 6300 000a 3B60     		str	r3, [r7]
 6301 000c 0B46     		mov	r3, r1
 6302 000e FB72     		strb	r3, [r7, #11]
 6303 0010 0023     		movs	r3, #0
 6304 0012 FB75     		strb	r3, [r7, #23]
 6305 0014 7968     		ldr	r1, [r7, #4]
 6306 0016 F868     		ldr	r0, [r7, #12]
 6307 0018 FFF7FEFF 		bl	VL53L0X_GetDeviceMode
 6308 001c 0346     		mov	r3, r0
 6309 001e FB75     		strb	r3, [r7, #23]
 6310 0020 97F91730 		ldrsb	r3, [r7, #23]
 6311 0024 002B     		cmp	r3, #0
 6312 0026 0ED1     		bne	.L462
 6313 0028 FB7A     		ldrb	r3, [r7, #11]	@ zero_extendqisi2
 6314 002a 002B     		cmp	r3, #0
 6315 002c 02D0     		beq	.L463
 6316 002e F623     		movs	r3, #246
 6317 0030 FB75     		strb	r3, [r7, #23]
 6318 0032 08E0     		b	.L462
 6319              	.L463:
 6320 0034 07F11503 		add	r3, r7, #21
 6321 0038 1A46     		mov	r2, r3
 6322 003a 0A21     		movs	r1, #10
 6323 003c F868     		ldr	r0, [r7, #12]
 6324 003e FFF7FEFF 		bl	VL53L0X_RdByte
 6325 0042 0346     		mov	r3, r0
 6326 0044 FB75     		strb	r3, [r7, #23]
 6327              	.L462:
ARM GAS  /var/folders/d2/nstgp4h54kz7g1l847x_b8wc0000gn/T//cc7cS1Ev.s 			page 112


 6328 0046 97F91730 		ldrsb	r3, [r7, #23]
 6329 004a 002B     		cmp	r3, #0
 6330 004c 24D1     		bne	.L477
 6331 004e 7B7D     		ldrb	r3, [r7, #21]	@ zero_extendqisi2
 6332 0050 03F00703 		and	r3, r3, #7
 6333 0054 042B     		cmp	r3, #4
 6334 0056 1CD8     		bhi	.L465
 6335 0058 01A2     		adr	r2, .L467
 6336 005a 52F823F0 		ldr	pc, [r2, r3, lsl #2]
 6337 005e 00BF     		.p2align 2
 6338              	.L467:
 6339 0060 75000000 		.word	.L466+1
 6340 0064 7B000000 		.word	.L468+1
 6341 0068 81000000 		.word	.L469+1
 6342 006c 87000000 		.word	.L470+1
 6343 0070 8D000000 		.word	.L471+1
 6344              		.p2align 1
 6345              	.L466:
 6346 0074 0023     		movs	r3, #0
 6347 0076 BB75     		strb	r3, [r7, #22]
 6348 0078 0FE0     		b	.L464
 6349              	.L468:
 6350 007a 0123     		movs	r3, #1
 6351 007c BB75     		strb	r3, [r7, #22]
 6352 007e 0CE0     		b	.L464
 6353              	.L469:
 6354 0080 0223     		movs	r3, #2
 6355 0082 BB75     		strb	r3, [r7, #22]
 6356 0084 09E0     		b	.L464
 6357              	.L470:
 6358 0086 0323     		movs	r3, #3
 6359 0088 BB75     		strb	r3, [r7, #22]
 6360 008a 06E0     		b	.L464
 6361              	.L471:
 6362 008c 0423     		movs	r3, #4
 6363 008e BB75     		strb	r3, [r7, #22]
 6364 0090 03E0     		b	.L464
 6365              	.L465:
 6366 0092 F523     		movs	r3, #245
 6367 0094 FB75     		strb	r3, [r7, #23]
 6368 0096 00E0     		b	.L464
 6369              	.L477:
 6370 0098 00BF     		nop
 6371              	.L464:
 6372 009a 97F91730 		ldrsb	r3, [r7, #23]
 6373 009e 002B     		cmp	r3, #0
 6374 00a0 08D1     		bne	.L472
 6375 00a2 07F11503 		add	r3, r7, #21
 6376 00a6 1A46     		mov	r2, r3
 6377 00a8 8421     		movs	r1, #132
 6378 00aa F868     		ldr	r0, [r7, #12]
 6379 00ac FFF7FEFF 		bl	VL53L0X_RdByte
 6380 00b0 0346     		mov	r3, r0
 6381 00b2 FB75     		strb	r3, [r7, #23]
 6382              	.L472:
 6383 00b4 97F91730 		ldrsb	r3, [r7, #23]
 6384 00b8 002B     		cmp	r3, #0
ARM GAS  /var/folders/d2/nstgp4h54kz7g1l847x_b8wc0000gn/T//cc7cS1Ev.s 			page 113


 6385 00ba 0BD1     		bne	.L473
 6386 00bc 7B7D     		ldrb	r3, [r7, #21]	@ zero_extendqisi2
 6387 00be 03F01003 		and	r3, r3, #16
 6388 00c2 002B     		cmp	r3, #0
 6389 00c4 03D1     		bne	.L474
 6390 00c6 3B6A     		ldr	r3, [r7, #32]
 6391 00c8 0022     		movs	r2, #0
 6392 00ca 1A70     		strb	r2, [r3]
 6393 00cc 02E0     		b	.L473
 6394              	.L474:
 6395 00ce 3B6A     		ldr	r3, [r7, #32]
 6396 00d0 0122     		movs	r2, #1
 6397 00d2 1A70     		strb	r2, [r3]
 6398              	.L473:
 6399 00d4 97F91730 		ldrsb	r3, [r7, #23]
 6400 00d8 002B     		cmp	r3, #0
 6401 00da 06D1     		bne	.L475
 6402 00dc 3B68     		ldr	r3, [r7]
 6403 00de BA7D     		ldrb	r2, [r7, #22]
 6404 00e0 1A70     		strb	r2, [r3]
 6405 00e2 FB68     		ldr	r3, [r7, #12]
 6406 00e4 BA7D     		ldrb	r2, [r7, #22]
 6407 00e6 83F8DA20 		strb	r2, [r3, #218]
 6408              	.L475:
 6409 00ea 97F91730 		ldrsb	r3, [r7, #23]
 6410 00ee 1846     		mov	r0, r3
 6411 00f0 1837     		adds	r7, r7, #24
 6412 00f2 BD46     		mov	sp, r7
 6413              		@ sp needed
 6414 00f4 80BD     		pop	{r7, pc}
 6415              		.size	VL53L0X_GetGpioConfig, .-VL53L0X_GetGpioConfig
 6416 00f6 00BF     		.section	.text.VL53L0X_SetInterruptThresholds,"ax",%progbits
 6417              		.align	1
 6418              		.global	VL53L0X_SetInterruptThresholds
 6419              		.syntax unified
 6420              		.thumb
 6421              		.thumb_func
 6422              		.fpu fpv4-sp-d16
 6423              		.type	VL53L0X_SetInterruptThresholds, %function
 6424              	VL53L0X_SetInterruptThresholds:
 6425              		@ args = 0, pretend = 0, frame = 24
 6426              		@ frame_needed = 1, uses_anonymous_args = 0
 6427 0000 80B5     		push	{r7, lr}
 6428 0002 86B0     		sub	sp, sp, #24
 6429 0004 00AF     		add	r7, sp, #0
 6430 0006 F860     		str	r0, [r7, #12]
 6431 0008 7A60     		str	r2, [r7, #4]
 6432 000a 3B60     		str	r3, [r7]
 6433 000c 0B46     		mov	r3, r1
 6434 000e FB72     		strb	r3, [r7, #11]
 6435 0010 0023     		movs	r3, #0
 6436 0012 FB75     		strb	r3, [r7, #23]
 6437 0014 7B68     		ldr	r3, [r7, #4]
 6438 0016 5B0C     		lsrs	r3, r3, #17
 6439 0018 9BB2     		uxth	r3, r3
 6440 001a C3F30B03 		ubfx	r3, r3, #0, #12
 6441 001e BB82     		strh	r3, [r7, #20]	@ movhi
ARM GAS  /var/folders/d2/nstgp4h54kz7g1l847x_b8wc0000gn/T//cc7cS1Ev.s 			page 114


 6442 0020 BB8A     		ldrh	r3, [r7, #20]
 6443 0022 1A46     		mov	r2, r3
 6444 0024 0E21     		movs	r1, #14
 6445 0026 F868     		ldr	r0, [r7, #12]
 6446 0028 FFF7FEFF 		bl	VL53L0X_WrWord
 6447 002c 0346     		mov	r3, r0
 6448 002e FB75     		strb	r3, [r7, #23]
 6449 0030 97F91730 		ldrsb	r3, [r7, #23]
 6450 0034 002B     		cmp	r3, #0
 6451 0036 0DD1     		bne	.L479
 6452 0038 3B68     		ldr	r3, [r7]
 6453 003a 5B0C     		lsrs	r3, r3, #17
 6454 003c 9BB2     		uxth	r3, r3
 6455 003e C3F30B03 		ubfx	r3, r3, #0, #12
 6456 0042 BB82     		strh	r3, [r7, #20]	@ movhi
 6457 0044 BB8A     		ldrh	r3, [r7, #20]
 6458 0046 1A46     		mov	r2, r3
 6459 0048 0C21     		movs	r1, #12
 6460 004a F868     		ldr	r0, [r7, #12]
 6461 004c FFF7FEFF 		bl	VL53L0X_WrWord
 6462 0050 0346     		mov	r3, r0
 6463 0052 FB75     		strb	r3, [r7, #23]
 6464              	.L479:
 6465 0054 97F91730 		ldrsb	r3, [r7, #23]
 6466 0058 1846     		mov	r0, r3
 6467 005a 1837     		adds	r7, r7, #24
 6468 005c BD46     		mov	sp, r7
 6469              		@ sp needed
 6470 005e 80BD     		pop	{r7, pc}
 6471              		.size	VL53L0X_SetInterruptThresholds, .-VL53L0X_SetInterruptThresholds
 6472              		.section	.text.VL53L0X_GetInterruptThresholds,"ax",%progbits
 6473              		.align	1
 6474              		.global	VL53L0X_GetInterruptThresholds
 6475              		.syntax unified
 6476              		.thumb
 6477              		.thumb_func
 6478              		.fpu fpv4-sp-d16
 6479              		.type	VL53L0X_GetInterruptThresholds, %function
 6480              	VL53L0X_GetInterruptThresholds:
 6481              		@ args = 0, pretend = 0, frame = 24
 6482              		@ frame_needed = 1, uses_anonymous_args = 0
 6483 0000 80B5     		push	{r7, lr}
 6484 0002 86B0     		sub	sp, sp, #24
 6485 0004 00AF     		add	r7, sp, #0
 6486 0006 F860     		str	r0, [r7, #12]
 6487 0008 7A60     		str	r2, [r7, #4]
 6488 000a 3B60     		str	r3, [r7]
 6489 000c 0B46     		mov	r3, r1
 6490 000e FB72     		strb	r3, [r7, #11]
 6491 0010 0023     		movs	r3, #0
 6492 0012 FB75     		strb	r3, [r7, #23]
 6493 0014 07F11403 		add	r3, r7, #20
 6494 0018 1A46     		mov	r2, r3
 6495 001a 0E21     		movs	r1, #14
 6496 001c F868     		ldr	r0, [r7, #12]
 6497 001e FFF7FEFF 		bl	VL53L0X_RdWord
 6498 0022 0346     		mov	r3, r0
ARM GAS  /var/folders/d2/nstgp4h54kz7g1l847x_b8wc0000gn/T//cc7cS1Ev.s 			page 115


 6499 0024 FB75     		strb	r3, [r7, #23]
 6500 0026 BB8A     		ldrh	r3, [r7, #20]
 6501 0028 5B04     		lsls	r3, r3, #17
 6502 002a 1A46     		mov	r2, r3
 6503 002c 0E4B     		ldr	r3, .L484
 6504 002e 1340     		ands	r3, r3, r2
 6505 0030 7A68     		ldr	r2, [r7, #4]
 6506 0032 1360     		str	r3, [r2]
 6507 0034 97F91730 		ldrsb	r3, [r7, #23]
 6508 0038 002B     		cmp	r3, #0
 6509 003a 0FD1     		bne	.L482
 6510 003c 07F11403 		add	r3, r7, #20
 6511 0040 1A46     		mov	r2, r3
 6512 0042 0C21     		movs	r1, #12
 6513 0044 F868     		ldr	r0, [r7, #12]
 6514 0046 FFF7FEFF 		bl	VL53L0X_RdWord
 6515 004a 0346     		mov	r3, r0
 6516 004c FB75     		strb	r3, [r7, #23]
 6517 004e BB8A     		ldrh	r3, [r7, #20]
 6518 0050 5B04     		lsls	r3, r3, #17
 6519 0052 1A46     		mov	r2, r3
 6520 0054 044B     		ldr	r3, .L484
 6521 0056 1340     		ands	r3, r3, r2
 6522 0058 3A68     		ldr	r2, [r7]
 6523 005a 1360     		str	r3, [r2]
 6524              	.L482:
 6525 005c 97F91730 		ldrsb	r3, [r7, #23]
 6526 0060 1846     		mov	r0, r3
 6527 0062 1837     		adds	r7, r7, #24
 6528 0064 BD46     		mov	sp, r7
 6529              		@ sp needed
 6530 0066 80BD     		pop	{r7, pc}
 6531              	.L485:
 6532              		.align	2
 6533              	.L484:
 6534 0068 0000FE1F 		.word	536739840
 6535              		.size	VL53L0X_GetInterruptThresholds, .-VL53L0X_GetInterruptThresholds
 6536              		.section	.text.VL53L0X_GetStopCompletedStatus,"ax",%progbits
 6537              		.align	1
 6538              		.global	VL53L0X_GetStopCompletedStatus
 6539              		.syntax unified
 6540              		.thumb
 6541              		.thumb_func
 6542              		.fpu fpv4-sp-d16
 6543              		.type	VL53L0X_GetStopCompletedStatus, %function
 6544              	VL53L0X_GetStopCompletedStatus:
 6545              		@ args = 0, pretend = 0, frame = 16
 6546              		@ frame_needed = 1, uses_anonymous_args = 0
 6547 0000 80B5     		push	{r7, lr}
 6548 0002 84B0     		sub	sp, sp, #16
 6549 0004 00AF     		add	r7, sp, #0
 6550 0006 7860     		str	r0, [r7, #4]
 6551 0008 3960     		str	r1, [r7]
 6552 000a 0023     		movs	r3, #0
 6553 000c FB73     		strb	r3, [r7, #15]
 6554 000e 0023     		movs	r3, #0
 6555 0010 BB73     		strb	r3, [r7, #14]
ARM GAS  /var/folders/d2/nstgp4h54kz7g1l847x_b8wc0000gn/T//cc7cS1Ev.s 			page 116


 6556 0012 0122     		movs	r2, #1
 6557 0014 FF21     		movs	r1, #255
 6558 0016 7868     		ldr	r0, [r7, #4]
 6559 0018 FFF7FEFF 		bl	VL53L0X_WrByte
 6560 001c 0346     		mov	r3, r0
 6561 001e FB73     		strb	r3, [r7, #15]
 6562 0020 97F90F30 		ldrsb	r3, [r7, #15]
 6563 0024 002B     		cmp	r3, #0
 6564 0026 08D1     		bne	.L487
 6565 0028 07F10E03 		add	r3, r7, #14
 6566 002c 1A46     		mov	r2, r3
 6567 002e 0421     		movs	r1, #4
 6568 0030 7868     		ldr	r0, [r7, #4]
 6569 0032 FFF7FEFF 		bl	VL53L0X_RdByte
 6570 0036 0346     		mov	r3, r0
 6571 0038 FB73     		strb	r3, [r7, #15]
 6572              	.L487:
 6573 003a 97F90F30 		ldrsb	r3, [r7, #15]
 6574 003e 002B     		cmp	r3, #0
 6575 0040 06D1     		bne	.L488
 6576 0042 0022     		movs	r2, #0
 6577 0044 FF21     		movs	r1, #255
 6578 0046 7868     		ldr	r0, [r7, #4]
 6579 0048 FFF7FEFF 		bl	VL53L0X_WrByte
 6580 004c 0346     		mov	r3, r0
 6581 004e FB73     		strb	r3, [r7, #15]
 6582              	.L488:
 6583 0050 BB7B     		ldrb	r3, [r7, #14]	@ zero_extendqisi2
 6584 0052 1A46     		mov	r2, r3
 6585 0054 3B68     		ldr	r3, [r7]
 6586 0056 1A60     		str	r2, [r3]
 6587 0058 BB7B     		ldrb	r3, [r7, #14]	@ zero_extendqisi2
 6588 005a 002B     		cmp	r3, #0
 6589 005c 33D1     		bne	.L489
 6590 005e 0122     		movs	r2, #1
 6591 0060 8021     		movs	r1, #128
 6592 0062 7868     		ldr	r0, [r7, #4]
 6593 0064 FFF7FEFF 		bl	VL53L0X_WrByte
 6594 0068 0346     		mov	r3, r0
 6595 006a FB73     		strb	r3, [r7, #15]
 6596 006c 0122     		movs	r2, #1
 6597 006e FF21     		movs	r1, #255
 6598 0070 7868     		ldr	r0, [r7, #4]
 6599 0072 FFF7FEFF 		bl	VL53L0X_WrByte
 6600 0076 0346     		mov	r3, r0
 6601 0078 FB73     		strb	r3, [r7, #15]
 6602 007a 0022     		movs	r2, #0
 6603 007c 0021     		movs	r1, #0
 6604 007e 7868     		ldr	r0, [r7, #4]
 6605 0080 FFF7FEFF 		bl	VL53L0X_WrByte
 6606 0084 0346     		mov	r3, r0
 6607 0086 FB73     		strb	r3, [r7, #15]
 6608 0088 7B68     		ldr	r3, [r7, #4]
 6609 008a 93F83A31 		ldrb	r3, [r3, #314]	@ zero_extendqisi2
 6610 008e 1A46     		mov	r2, r3
 6611 0090 9121     		movs	r1, #145
 6612 0092 7868     		ldr	r0, [r7, #4]
ARM GAS  /var/folders/d2/nstgp4h54kz7g1l847x_b8wc0000gn/T//cc7cS1Ev.s 			page 117


 6613 0094 FFF7FEFF 		bl	VL53L0X_WrByte
 6614 0098 0346     		mov	r3, r0
 6615 009a FB73     		strb	r3, [r7, #15]
 6616 009c 0122     		movs	r2, #1
 6617 009e 0021     		movs	r1, #0
 6618 00a0 7868     		ldr	r0, [r7, #4]
 6619 00a2 FFF7FEFF 		bl	VL53L0X_WrByte
 6620 00a6 0346     		mov	r3, r0
 6621 00a8 FB73     		strb	r3, [r7, #15]
 6622 00aa 0022     		movs	r2, #0
 6623 00ac FF21     		movs	r1, #255
 6624 00ae 7868     		ldr	r0, [r7, #4]
 6625 00b0 FFF7FEFF 		bl	VL53L0X_WrByte
 6626 00b4 0346     		mov	r3, r0
 6627 00b6 FB73     		strb	r3, [r7, #15]
 6628 00b8 0022     		movs	r2, #0
 6629 00ba 8021     		movs	r1, #128
 6630 00bc 7868     		ldr	r0, [r7, #4]
 6631 00be FFF7FEFF 		bl	VL53L0X_WrByte
 6632 00c2 0346     		mov	r3, r0
 6633 00c4 FB73     		strb	r3, [r7, #15]
 6634              	.L489:
 6635 00c6 97F90F30 		ldrsb	r3, [r7, #15]
 6636 00ca 1846     		mov	r0, r3
 6637 00cc 1037     		adds	r7, r7, #16
 6638 00ce BD46     		mov	sp, r7
 6639              		@ sp needed
 6640 00d0 80BD     		pop	{r7, pc}
 6641              		.size	VL53L0X_GetStopCompletedStatus, .-VL53L0X_GetStopCompletedStatus
 6642              		.section	.text.VL53L0X_ClearInterruptMask,"ax",%progbits
 6643              		.align	1
 6644              		.global	VL53L0X_ClearInterruptMask
 6645              		.syntax unified
 6646              		.thumb
 6647              		.thumb_func
 6648              		.fpu fpv4-sp-d16
 6649              		.type	VL53L0X_ClearInterruptMask, %function
 6650              	VL53L0X_ClearInterruptMask:
 6651              		@ args = 0, pretend = 0, frame = 16
 6652              		@ frame_needed = 1, uses_anonymous_args = 0
 6653 0000 80B5     		push	{r7, lr}
 6654 0002 84B0     		sub	sp, sp, #16
 6655 0004 00AF     		add	r7, sp, #0
 6656 0006 7860     		str	r0, [r7, #4]
 6657 0008 3960     		str	r1, [r7]
 6658 000a 0023     		movs	r3, #0
 6659 000c FB73     		strb	r3, [r7, #15]
 6660 000e 0023     		movs	r3, #0
 6661 0010 BB73     		strb	r3, [r7, #14]
 6662              	.L493:
 6663 0012 0122     		movs	r2, #1
 6664 0014 0B21     		movs	r1, #11
 6665 0016 7868     		ldr	r0, [r7, #4]
 6666 0018 FFF7FEFF 		bl	VL53L0X_WrByte
 6667 001c 0346     		mov	r3, r0
 6668 001e FB73     		strb	r3, [r7, #15]
 6669 0020 0022     		movs	r2, #0
ARM GAS  /var/folders/d2/nstgp4h54kz7g1l847x_b8wc0000gn/T//cc7cS1Ev.s 			page 118


 6670 0022 0B21     		movs	r1, #11
 6671 0024 7868     		ldr	r0, [r7, #4]
 6672 0026 FFF7FEFF 		bl	VL53L0X_WrByte
 6673 002a 0346     		mov	r3, r0
 6674 002c 1A46     		mov	r2, r3
 6675 002e FB7B     		ldrb	r3, [r7, #15]
 6676 0030 1343     		orrs	r3, r3, r2
 6677 0032 FB73     		strb	r3, [r7, #15]
 6678 0034 07F10D03 		add	r3, r7, #13
 6679 0038 1A46     		mov	r2, r3
 6680 003a 1321     		movs	r1, #19
 6681 003c 7868     		ldr	r0, [r7, #4]
 6682 003e FFF7FEFF 		bl	VL53L0X_RdByte
 6683 0042 0346     		mov	r3, r0
 6684 0044 1A46     		mov	r2, r3
 6685 0046 FB7B     		ldrb	r3, [r7, #15]
 6686 0048 1343     		orrs	r3, r3, r2
 6687 004a FB73     		strb	r3, [r7, #15]
 6688 004c BB7B     		ldrb	r3, [r7, #14]	@ zero_extendqisi2
 6689 004e 0133     		adds	r3, r3, #1
 6690 0050 BB73     		strb	r3, [r7, #14]
 6691 0052 7B7B     		ldrb	r3, [r7, #13]	@ zero_extendqisi2
 6692 0054 03F00703 		and	r3, r3, #7
 6693 0058 002B     		cmp	r3, #0
 6694 005a 06D0     		beq	.L492
 6695 005c BB7B     		ldrb	r3, [r7, #14]	@ zero_extendqisi2
 6696 005e 022B     		cmp	r3, #2
 6697 0060 03D8     		bhi	.L492
 6698 0062 97F90F30 		ldrsb	r3, [r7, #15]
 6699 0066 002B     		cmp	r3, #0
 6700 0068 D3D0     		beq	.L493
 6701              	.L492:
 6702 006a BB7B     		ldrb	r3, [r7, #14]	@ zero_extendqisi2
 6703 006c 022B     		cmp	r3, #2
 6704 006e 01D9     		bls	.L494
 6705 0070 F423     		movs	r3, #244
 6706 0072 FB73     		strb	r3, [r7, #15]
 6707              	.L494:
 6708 0074 97F90F30 		ldrsb	r3, [r7, #15]
 6709 0078 1846     		mov	r0, r3
 6710 007a 1037     		adds	r7, r7, #16
 6711 007c BD46     		mov	sp, r7
 6712              		@ sp needed
 6713 007e 80BD     		pop	{r7, pc}
 6714              		.size	VL53L0X_ClearInterruptMask, .-VL53L0X_ClearInterruptMask
 6715              		.section	.text.VL53L0X_GetInterruptMaskStatus,"ax",%progbits
 6716              		.align	1
 6717              		.global	VL53L0X_GetInterruptMaskStatus
 6718              		.syntax unified
 6719              		.thumb
 6720              		.thumb_func
 6721              		.fpu fpv4-sp-d16
 6722              		.type	VL53L0X_GetInterruptMaskStatus, %function
 6723              	VL53L0X_GetInterruptMaskStatus:
 6724              		@ args = 0, pretend = 0, frame = 16
 6725              		@ frame_needed = 1, uses_anonymous_args = 0
 6726 0000 80B5     		push	{r7, lr}
ARM GAS  /var/folders/d2/nstgp4h54kz7g1l847x_b8wc0000gn/T//cc7cS1Ev.s 			page 119


 6727 0002 84B0     		sub	sp, sp, #16
 6728 0004 00AF     		add	r7, sp, #0
 6729 0006 7860     		str	r0, [r7, #4]
 6730 0008 3960     		str	r1, [r7]
 6731 000a 0023     		movs	r3, #0
 6732 000c FB73     		strb	r3, [r7, #15]
 6733 000e 07F10E03 		add	r3, r7, #14
 6734 0012 1A46     		mov	r2, r3
 6735 0014 1321     		movs	r1, #19
 6736 0016 7868     		ldr	r0, [r7, #4]
 6737 0018 FFF7FEFF 		bl	VL53L0X_RdByte
 6738 001c 0346     		mov	r3, r0
 6739 001e FB73     		strb	r3, [r7, #15]
 6740 0020 BB7B     		ldrb	r3, [r7, #14]	@ zero_extendqisi2
 6741 0022 03F00702 		and	r2, r3, #7
 6742 0026 3B68     		ldr	r3, [r7]
 6743 0028 1A60     		str	r2, [r3]
 6744 002a BB7B     		ldrb	r3, [r7, #14]	@ zero_extendqisi2
 6745 002c 03F01803 		and	r3, r3, #24
 6746 0030 002B     		cmp	r3, #0
 6747 0032 01D0     		beq	.L497
 6748 0034 FA23     		movs	r3, #250
 6749 0036 FB73     		strb	r3, [r7, #15]
 6750              	.L497:
 6751 0038 97F90F30 		ldrsb	r3, [r7, #15]
 6752 003c 1846     		mov	r0, r3
 6753 003e 1037     		adds	r7, r7, #16
 6754 0040 BD46     		mov	sp, r7
 6755              		@ sp needed
 6756 0042 80BD     		pop	{r7, pc}
 6757              		.size	VL53L0X_GetInterruptMaskStatus, .-VL53L0X_GetInterruptMaskStatus
 6758              		.section	.text.VL53L0X_EnableInterruptMask,"ax",%progbits
 6759              		.align	1
 6760              		.global	VL53L0X_EnableInterruptMask
 6761              		.syntax unified
 6762              		.thumb
 6763              		.thumb_func
 6764              		.fpu fpv4-sp-d16
 6765              		.type	VL53L0X_EnableInterruptMask, %function
 6766              	VL53L0X_EnableInterruptMask:
 6767              		@ args = 0, pretend = 0, frame = 16
 6768              		@ frame_needed = 1, uses_anonymous_args = 0
 6769              		@ link register save eliminated.
 6770 0000 80B4     		push	{r7}
 6771 0002 85B0     		sub	sp, sp, #20
 6772 0004 00AF     		add	r7, sp, #0
 6773 0006 7860     		str	r0, [r7, #4]
 6774 0008 3960     		str	r1, [r7]
 6775 000a 9D23     		movs	r3, #157
 6776 000c FB73     		strb	r3, [r7, #15]
 6777 000e 97F90F30 		ldrsb	r3, [r7, #15]
 6778 0012 1846     		mov	r0, r3
 6779 0014 1437     		adds	r7, r7, #20
 6780 0016 BD46     		mov	sp, r7
 6781              		@ sp needed
 6782 0018 5DF8047B 		ldr	r7, [sp], #4
 6783 001c 7047     		bx	lr
ARM GAS  /var/folders/d2/nstgp4h54kz7g1l847x_b8wc0000gn/T//cc7cS1Ev.s 			page 120


 6784              		.size	VL53L0X_EnableInterruptMask, .-VL53L0X_EnableInterruptMask
 6785              		.section	.text.VL53L0X_SetSpadAmbientDamperThreshold,"ax",%progbits
 6786              		.align	1
 6787              		.global	VL53L0X_SetSpadAmbientDamperThreshold
 6788              		.syntax unified
 6789              		.thumb
 6790              		.thumb_func
 6791              		.fpu fpv4-sp-d16
 6792              		.type	VL53L0X_SetSpadAmbientDamperThreshold, %function
 6793              	VL53L0X_SetSpadAmbientDamperThreshold:
 6794              		@ args = 0, pretend = 0, frame = 16
 6795              		@ frame_needed = 1, uses_anonymous_args = 0
 6796 0000 80B5     		push	{r7, lr}
 6797 0002 84B0     		sub	sp, sp, #16
 6798 0004 00AF     		add	r7, sp, #0
 6799 0006 7860     		str	r0, [r7, #4]
 6800 0008 0B46     		mov	r3, r1
 6801 000a 7B80     		strh	r3, [r7, #2]	@ movhi
 6802 000c 0023     		movs	r3, #0
 6803 000e FB73     		strb	r3, [r7, #15]
 6804 0010 0122     		movs	r2, #1
 6805 0012 FF21     		movs	r1, #255
 6806 0014 7868     		ldr	r0, [r7, #4]
 6807 0016 FFF7FEFF 		bl	VL53L0X_WrByte
 6808 001a 0346     		mov	r3, r0
 6809 001c FB73     		strb	r3, [r7, #15]
 6810 001e 7B88     		ldrh	r3, [r7, #2]
 6811 0020 1A46     		mov	r2, r3
 6812 0022 4021     		movs	r1, #64
 6813 0024 7868     		ldr	r0, [r7, #4]
 6814 0026 FFF7FEFF 		bl	VL53L0X_WrWord
 6815 002a 0346     		mov	r3, r0
 6816 002c 1A46     		mov	r2, r3
 6817 002e FB7B     		ldrb	r3, [r7, #15]
 6818 0030 1343     		orrs	r3, r3, r2
 6819 0032 FB73     		strb	r3, [r7, #15]
 6820 0034 0022     		movs	r2, #0
 6821 0036 FF21     		movs	r1, #255
 6822 0038 7868     		ldr	r0, [r7, #4]
 6823 003a FFF7FEFF 		bl	VL53L0X_WrByte
 6824 003e 0346     		mov	r3, r0
 6825 0040 1A46     		mov	r2, r3
 6826 0042 FB7B     		ldrb	r3, [r7, #15]
 6827 0044 1343     		orrs	r3, r3, r2
 6828 0046 FB73     		strb	r3, [r7, #15]
 6829 0048 97F90F30 		ldrsb	r3, [r7, #15]
 6830 004c 1846     		mov	r0, r3
 6831 004e 1037     		adds	r7, r7, #16
 6832 0050 BD46     		mov	sp, r7
 6833              		@ sp needed
 6834 0052 80BD     		pop	{r7, pc}
 6835              		.size	VL53L0X_SetSpadAmbientDamperThreshold, .-VL53L0X_SetSpadAmbientDamperThreshold
 6836              		.section	.text.VL53L0X_GetSpadAmbientDamperThreshold,"ax",%progbits
 6837              		.align	1
 6838              		.global	VL53L0X_GetSpadAmbientDamperThreshold
 6839              		.syntax unified
 6840              		.thumb
ARM GAS  /var/folders/d2/nstgp4h54kz7g1l847x_b8wc0000gn/T//cc7cS1Ev.s 			page 121


 6841              		.thumb_func
 6842              		.fpu fpv4-sp-d16
 6843              		.type	VL53L0X_GetSpadAmbientDamperThreshold, %function
 6844              	VL53L0X_GetSpadAmbientDamperThreshold:
 6845              		@ args = 0, pretend = 0, frame = 16
 6846              		@ frame_needed = 1, uses_anonymous_args = 0
 6847 0000 80B5     		push	{r7, lr}
 6848 0002 84B0     		sub	sp, sp, #16
 6849 0004 00AF     		add	r7, sp, #0
 6850 0006 7860     		str	r0, [r7, #4]
 6851 0008 3960     		str	r1, [r7]
 6852 000a 0023     		movs	r3, #0
 6853 000c FB73     		strb	r3, [r7, #15]
 6854 000e 0122     		movs	r2, #1
 6855 0010 FF21     		movs	r1, #255
 6856 0012 7868     		ldr	r0, [r7, #4]
 6857 0014 FFF7FEFF 		bl	VL53L0X_WrByte
 6858 0018 0346     		mov	r3, r0
 6859 001a FB73     		strb	r3, [r7, #15]
 6860 001c 3A68     		ldr	r2, [r7]
 6861 001e 4021     		movs	r1, #64
 6862 0020 7868     		ldr	r0, [r7, #4]
 6863 0022 FFF7FEFF 		bl	VL53L0X_RdWord
 6864 0026 0346     		mov	r3, r0
 6865 0028 1A46     		mov	r2, r3
 6866 002a FB7B     		ldrb	r3, [r7, #15]
 6867 002c 1343     		orrs	r3, r3, r2
 6868 002e FB73     		strb	r3, [r7, #15]
 6869 0030 0022     		movs	r2, #0
 6870 0032 FF21     		movs	r1, #255
 6871 0034 7868     		ldr	r0, [r7, #4]
 6872 0036 FFF7FEFF 		bl	VL53L0X_WrByte
 6873 003a 0346     		mov	r3, r0
 6874 003c 1A46     		mov	r2, r3
 6875 003e FB7B     		ldrb	r3, [r7, #15]
 6876 0040 1343     		orrs	r3, r3, r2
 6877 0042 FB73     		strb	r3, [r7, #15]
 6878 0044 97F90F30 		ldrsb	r3, [r7, #15]
 6879 0048 1846     		mov	r0, r3
 6880 004a 1037     		adds	r7, r7, #16
 6881 004c BD46     		mov	sp, r7
 6882              		@ sp needed
 6883 004e 80BD     		pop	{r7, pc}
 6884              		.size	VL53L0X_GetSpadAmbientDamperThreshold, .-VL53L0X_GetSpadAmbientDamperThreshold
 6885              		.section	.text.VL53L0X_SetSpadAmbientDamperFactor,"ax",%progbits
 6886              		.align	1
 6887              		.global	VL53L0X_SetSpadAmbientDamperFactor
 6888              		.syntax unified
 6889              		.thumb
 6890              		.thumb_func
 6891              		.fpu fpv4-sp-d16
 6892              		.type	VL53L0X_SetSpadAmbientDamperFactor, %function
 6893              	VL53L0X_SetSpadAmbientDamperFactor:
 6894              		@ args = 0, pretend = 0, frame = 16
 6895              		@ frame_needed = 1, uses_anonymous_args = 0
 6896 0000 80B5     		push	{r7, lr}
 6897 0002 84B0     		sub	sp, sp, #16
ARM GAS  /var/folders/d2/nstgp4h54kz7g1l847x_b8wc0000gn/T//cc7cS1Ev.s 			page 122


 6898 0004 00AF     		add	r7, sp, #0
 6899 0006 7860     		str	r0, [r7, #4]
 6900 0008 0B46     		mov	r3, r1
 6901 000a 7B80     		strh	r3, [r7, #2]	@ movhi
 6902 000c 0023     		movs	r3, #0
 6903 000e FB73     		strb	r3, [r7, #15]
 6904 0010 7B88     		ldrh	r3, [r7, #2]	@ movhi
 6905 0012 BB73     		strb	r3, [r7, #14]
 6906 0014 0122     		movs	r2, #1
 6907 0016 FF21     		movs	r1, #255
 6908 0018 7868     		ldr	r0, [r7, #4]
 6909 001a FFF7FEFF 		bl	VL53L0X_WrByte
 6910 001e 0346     		mov	r3, r0
 6911 0020 FB73     		strb	r3, [r7, #15]
 6912 0022 BB7B     		ldrb	r3, [r7, #14]	@ zero_extendqisi2
 6913 0024 1A46     		mov	r2, r3
 6914 0026 4221     		movs	r1, #66
 6915 0028 7868     		ldr	r0, [r7, #4]
 6916 002a FFF7FEFF 		bl	VL53L0X_WrByte
 6917 002e 0346     		mov	r3, r0
 6918 0030 1A46     		mov	r2, r3
 6919 0032 FB7B     		ldrb	r3, [r7, #15]
 6920 0034 1343     		orrs	r3, r3, r2
 6921 0036 FB73     		strb	r3, [r7, #15]
 6922 0038 0022     		movs	r2, #0
 6923 003a FF21     		movs	r1, #255
 6924 003c 7868     		ldr	r0, [r7, #4]
 6925 003e FFF7FEFF 		bl	VL53L0X_WrByte
 6926 0042 0346     		mov	r3, r0
 6927 0044 1A46     		mov	r2, r3
 6928 0046 FB7B     		ldrb	r3, [r7, #15]
 6929 0048 1343     		orrs	r3, r3, r2
 6930 004a FB73     		strb	r3, [r7, #15]
 6931 004c 97F90F30 		ldrsb	r3, [r7, #15]
 6932 0050 1846     		mov	r0, r3
 6933 0052 1037     		adds	r7, r7, #16
 6934 0054 BD46     		mov	sp, r7
 6935              		@ sp needed
 6936 0056 80BD     		pop	{r7, pc}
 6937              		.size	VL53L0X_SetSpadAmbientDamperFactor, .-VL53L0X_SetSpadAmbientDamperFactor
 6938              		.section	.text.VL53L0X_GetSpadAmbientDamperFactor,"ax",%progbits
 6939              		.align	1
 6940              		.global	VL53L0X_GetSpadAmbientDamperFactor
 6941              		.syntax unified
 6942              		.thumb
 6943              		.thumb_func
 6944              		.fpu fpv4-sp-d16
 6945              		.type	VL53L0X_GetSpadAmbientDamperFactor, %function
 6946              	VL53L0X_GetSpadAmbientDamperFactor:
 6947              		@ args = 0, pretend = 0, frame = 16
 6948              		@ frame_needed = 1, uses_anonymous_args = 0
 6949 0000 80B5     		push	{r7, lr}
 6950 0002 84B0     		sub	sp, sp, #16
 6951 0004 00AF     		add	r7, sp, #0
 6952 0006 7860     		str	r0, [r7, #4]
 6953 0008 3960     		str	r1, [r7]
 6954 000a 0023     		movs	r3, #0
ARM GAS  /var/folders/d2/nstgp4h54kz7g1l847x_b8wc0000gn/T//cc7cS1Ev.s 			page 123


 6955 000c FB73     		strb	r3, [r7, #15]
 6956 000e 0122     		movs	r2, #1
 6957 0010 FF21     		movs	r1, #255
 6958 0012 7868     		ldr	r0, [r7, #4]
 6959 0014 FFF7FEFF 		bl	VL53L0X_WrByte
 6960 0018 0346     		mov	r3, r0
 6961 001a FB73     		strb	r3, [r7, #15]
 6962 001c 07F10E03 		add	r3, r7, #14
 6963 0020 1A46     		mov	r2, r3
 6964 0022 4221     		movs	r1, #66
 6965 0024 7868     		ldr	r0, [r7, #4]
 6966 0026 FFF7FEFF 		bl	VL53L0X_RdByte
 6967 002a 0346     		mov	r3, r0
 6968 002c 1A46     		mov	r2, r3
 6969 002e FB7B     		ldrb	r3, [r7, #15]
 6970 0030 1343     		orrs	r3, r3, r2
 6971 0032 FB73     		strb	r3, [r7, #15]
 6972 0034 0022     		movs	r2, #0
 6973 0036 FF21     		movs	r1, #255
 6974 0038 7868     		ldr	r0, [r7, #4]
 6975 003a FFF7FEFF 		bl	VL53L0X_WrByte
 6976 003e 0346     		mov	r3, r0
 6977 0040 1A46     		mov	r2, r3
 6978 0042 FB7B     		ldrb	r3, [r7, #15]
 6979 0044 1343     		orrs	r3, r3, r2
 6980 0046 FB73     		strb	r3, [r7, #15]
 6981 0048 BB7B     		ldrb	r3, [r7, #14]	@ zero_extendqisi2
 6982 004a 9AB2     		uxth	r2, r3
 6983 004c 3B68     		ldr	r3, [r7]
 6984 004e 1A80     		strh	r2, [r3]	@ movhi
 6985 0050 97F90F30 		ldrsb	r3, [r7, #15]
 6986 0054 1846     		mov	r0, r3
 6987 0056 1037     		adds	r7, r7, #16
 6988 0058 BD46     		mov	sp, r7
 6989              		@ sp needed
 6990 005a 80BD     		pop	{r7, pc}
 6991              		.size	VL53L0X_GetSpadAmbientDamperFactor, .-VL53L0X_GetSpadAmbientDamperFactor
 6992              		.section	.text.VL53L0X_SetReferenceSpads,"ax",%progbits
 6993              		.align	1
 6994              		.global	VL53L0X_SetReferenceSpads
 6995              		.syntax unified
 6996              		.thumb
 6997              		.thumb_func
 6998              		.fpu fpv4-sp-d16
 6999              		.type	VL53L0X_SetReferenceSpads, %function
 7000              	VL53L0X_SetReferenceSpads:
 7001              		@ args = 0, pretend = 0, frame = 24
 7002              		@ frame_needed = 1, uses_anonymous_args = 0
 7003 0000 80B5     		push	{r7, lr}
 7004 0002 86B0     		sub	sp, sp, #24
 7005 0004 00AF     		add	r7, sp, #0
 7006 0006 F860     		str	r0, [r7, #12]
 7007 0008 B960     		str	r1, [r7, #8]
 7008 000a 1346     		mov	r3, r2
 7009 000c FB71     		strb	r3, [r7, #7]
 7010 000e 0023     		movs	r3, #0
 7011 0010 FB75     		strb	r3, [r7, #23]
ARM GAS  /var/folders/d2/nstgp4h54kz7g1l847x_b8wc0000gn/T//cc7cS1Ev.s 			page 124


 7012 0012 FB79     		ldrb	r3, [r7, #7]	@ zero_extendqisi2
 7013 0014 1A46     		mov	r2, r3
 7014 0016 B968     		ldr	r1, [r7, #8]
 7015 0018 F868     		ldr	r0, [r7, #12]
 7016 001a FFF7FEFF 		bl	VL53L0X_set_reference_spads
 7017 001e 0346     		mov	r3, r0
 7018 0020 FB75     		strb	r3, [r7, #23]
 7019 0022 97F91730 		ldrsb	r3, [r7, #23]
 7020 0026 1846     		mov	r0, r3
 7021 0028 1837     		adds	r7, r7, #24
 7022 002a BD46     		mov	sp, r7
 7023              		@ sp needed
 7024 002c 80BD     		pop	{r7, pc}
 7025              		.size	VL53L0X_SetReferenceSpads, .-VL53L0X_SetReferenceSpads
 7026              		.section	.text.VL53L0X_GetReferenceSpads,"ax",%progbits
 7027              		.align	1
 7028              		.global	VL53L0X_GetReferenceSpads
 7029              		.syntax unified
 7030              		.thumb
 7031              		.thumb_func
 7032              		.fpu fpv4-sp-d16
 7033              		.type	VL53L0X_GetReferenceSpads, %function
 7034              	VL53L0X_GetReferenceSpads:
 7035              		@ args = 0, pretend = 0, frame = 24
 7036              		@ frame_needed = 1, uses_anonymous_args = 0
 7037 0000 80B5     		push	{r7, lr}
 7038 0002 86B0     		sub	sp, sp, #24
 7039 0004 00AF     		add	r7, sp, #0
 7040 0006 F860     		str	r0, [r7, #12]
 7041 0008 B960     		str	r1, [r7, #8]
 7042 000a 7A60     		str	r2, [r7, #4]
 7043 000c 0023     		movs	r3, #0
 7044 000e FB75     		strb	r3, [r7, #23]
 7045 0010 7A68     		ldr	r2, [r7, #4]
 7046 0012 B968     		ldr	r1, [r7, #8]
 7047 0014 F868     		ldr	r0, [r7, #12]
 7048 0016 FFF7FEFF 		bl	VL53L0X_get_reference_spads
 7049 001a 0346     		mov	r3, r0
 7050 001c FB75     		strb	r3, [r7, #23]
 7051 001e 97F91730 		ldrsb	r3, [r7, #23]
 7052 0022 1846     		mov	r0, r3
 7053 0024 1837     		adds	r7, r7, #24
 7054 0026 BD46     		mov	sp, r7
 7055              		@ sp needed
 7056 0028 80BD     		pop	{r7, pc}
 7057              		.size	VL53L0X_GetReferenceSpads, .-VL53L0X_GetReferenceSpads
 7058              		.section	.text.VL53L0X_PerformRefSpadManagement,"ax",%progbits
 7059              		.align	1
 7060              		.global	VL53L0X_PerformRefSpadManagement
 7061              		.syntax unified
 7062              		.thumb
 7063              		.thumb_func
 7064              		.fpu fpv4-sp-d16
 7065              		.type	VL53L0X_PerformRefSpadManagement, %function
 7066              	VL53L0X_PerformRefSpadManagement:
 7067              		@ args = 0, pretend = 0, frame = 24
 7068              		@ frame_needed = 1, uses_anonymous_args = 0
ARM GAS  /var/folders/d2/nstgp4h54kz7g1l847x_b8wc0000gn/T//cc7cS1Ev.s 			page 125


 7069 0000 80B5     		push	{r7, lr}
 7070 0002 86B0     		sub	sp, sp, #24
 7071 0004 00AF     		add	r7, sp, #0
 7072 0006 F860     		str	r0, [r7, #12]
 7073 0008 B960     		str	r1, [r7, #8]
 7074 000a 7A60     		str	r2, [r7, #4]
 7075 000c 0023     		movs	r3, #0
 7076 000e FB75     		strb	r3, [r7, #23]
 7077 0010 7A68     		ldr	r2, [r7, #4]
 7078 0012 B968     		ldr	r1, [r7, #8]
 7079 0014 F868     		ldr	r0, [r7, #12]
 7080 0016 FFF7FEFF 		bl	VL53L0X_perform_ref_spad_management
 7081 001a 0346     		mov	r3, r0
 7082 001c FB75     		strb	r3, [r7, #23]
 7083 001e 97F91730 		ldrsb	r3, [r7, #23]
 7084 0022 1846     		mov	r0, r3
 7085 0024 1837     		adds	r7, r7, #24
 7086 0026 BD46     		mov	sp, r7
 7087              		@ sp needed
 7088 0028 80BD     		pop	{r7, pc}
 7089              		.size	VL53L0X_PerformRefSpadManagement, .-VL53L0X_PerformRefSpadManagement
 7090              		.ident	"GCC: (GNU Tools for Arm Embedded Processors 7-2017-q4-major) 7.2.1 20170904 (release) [ARM
ARM GAS  /var/folders/d2/nstgp4h54kz7g1l847x_b8wc0000gn/T//cc7cS1Ev.s 			page 126


DEFINED SYMBOLS
                            *ABS*:0000000000000000 vl53l0x_api.c
/var/folders/d2/nstgp4h54kz7g1l847x_b8wc0000gn/T//cc7cS1Ev.s:19     .data.DefaultTuningSettings:0000000000000000 DefaultTuningSettings
/var/folders/d2/nstgp4h54kz7g1l847x_b8wc0000gn/T//cc7cS1Ev.s:16     .data.DefaultTuningSettings:0000000000000000 $d
/var/folders/d2/nstgp4h54kz7g1l847x_b8wc0000gn/T//cc7cS1Ev.s:268    .data.InterruptThresholdSettings:0000000000000000 InterruptThresholdSettings
/var/folders/d2/nstgp4h54kz7g1l847x_b8wc0000gn/T//cc7cS1Ev.s:265    .data.InterruptThresholdSettings:0000000000000000 $d
/var/folders/d2/nstgp4h54kz7g1l847x_b8wc0000gn/T//cc7cS1Ev.s:708    .text.VL53L0X_GetVersion:0000000000000000 $t
/var/folders/d2/nstgp4h54kz7g1l847x_b8wc0000gn/T//cc7cS1Ev.s:715    .text.VL53L0X_GetVersion:0000000000000000 VL53L0X_GetVersion
/var/folders/d2/nstgp4h54kz7g1l847x_b8wc0000gn/T//cc7cS1Ev.s:746    .text.VL53L0X_GetPalSpecVersion:0000000000000000 $t
/var/folders/d2/nstgp4h54kz7g1l847x_b8wc0000gn/T//cc7cS1Ev.s:753    .text.VL53L0X_GetPalSpecVersion:0000000000000000 VL53L0X_GetPalSpecVersion
/var/folders/d2/nstgp4h54kz7g1l847x_b8wc0000gn/T//cc7cS1Ev.s:784    .text.VL53L0X_GetProductRevision:0000000000000000 $t
/var/folders/d2/nstgp4h54kz7g1l847x_b8wc0000gn/T//cc7cS1Ev.s:791    .text.VL53L0X_GetProductRevision:0000000000000000 VL53L0X_GetProductRevision
/var/folders/d2/nstgp4h54kz7g1l847x_b8wc0000gn/T//cc7cS1Ev.s:825    .text.VL53L0X_GetDeviceInfo:0000000000000000 $t
/var/folders/d2/nstgp4h54kz7g1l847x_b8wc0000gn/T//cc7cS1Ev.s:832    .text.VL53L0X_GetDeviceInfo:0000000000000000 VL53L0X_GetDeviceInfo
/var/folders/d2/nstgp4h54kz7g1l847x_b8wc0000gn/T//cc7cS1Ev.s:855    .text.VL53L0X_GetDeviceErrorStatus:0000000000000000 $t
/var/folders/d2/nstgp4h54kz7g1l847x_b8wc0000gn/T//cc7cS1Ev.s:862    .text.VL53L0X_GetDeviceErrorStatus:0000000000000000 VL53L0X_GetDeviceErrorStatus
/var/folders/d2/nstgp4h54kz7g1l847x_b8wc0000gn/T//cc7cS1Ev.s:894    .text.VL53L0X_GetDeviceErrorString:0000000000000000 $t
/var/folders/d2/nstgp4h54kz7g1l847x_b8wc0000gn/T//cc7cS1Ev.s:901    .text.VL53L0X_GetDeviceErrorString:0000000000000000 VL53L0X_GetDeviceErrorString
/var/folders/d2/nstgp4h54kz7g1l847x_b8wc0000gn/T//cc7cS1Ev.s:926    .text.VL53L0X_GetRangeStatusString:0000000000000000 $t
/var/folders/d2/nstgp4h54kz7g1l847x_b8wc0000gn/T//cc7cS1Ev.s:933    .text.VL53L0X_GetRangeStatusString:0000000000000000 VL53L0X_GetRangeStatusString
/var/folders/d2/nstgp4h54kz7g1l847x_b8wc0000gn/T//cc7cS1Ev.s:958    .text.VL53L0X_GetPalErrorString:0000000000000000 $t
/var/folders/d2/nstgp4h54kz7g1l847x_b8wc0000gn/T//cc7cS1Ev.s:965    .text.VL53L0X_GetPalErrorString:0000000000000000 VL53L0X_GetPalErrorString
/var/folders/d2/nstgp4h54kz7g1l847x_b8wc0000gn/T//cc7cS1Ev.s:990    .text.VL53L0X_GetPalStateString:0000000000000000 $t
/var/folders/d2/nstgp4h54kz7g1l847x_b8wc0000gn/T//cc7cS1Ev.s:997    .text.VL53L0X_GetPalStateString:0000000000000000 VL53L0X_GetPalStateString
/var/folders/d2/nstgp4h54kz7g1l847x_b8wc0000gn/T//cc7cS1Ev.s:1022   .text.VL53L0X_GetPalState:0000000000000000 $t
/var/folders/d2/nstgp4h54kz7g1l847x_b8wc0000gn/T//cc7cS1Ev.s:1029   .text.VL53L0X_GetPalState:0000000000000000 VL53L0X_GetPalState
/var/folders/d2/nstgp4h54kz7g1l847x_b8wc0000gn/T//cc7cS1Ev.s:1053   .text.VL53L0X_SetPowerMode:0000000000000000 $t
/var/folders/d2/nstgp4h54kz7g1l847x_b8wc0000gn/T//cc7cS1Ev.s:1060   .text.VL53L0X_SetPowerMode:0000000000000000 VL53L0X_SetPowerMode
/var/folders/d2/nstgp4h54kz7g1l847x_b8wc0000gn/T//cc7cS1Ev.s:1838   .text.VL53L0X_StaticInit:0000000000000000 VL53L0X_StaticInit
/var/folders/d2/nstgp4h54kz7g1l847x_b8wc0000gn/T//cc7cS1Ev.s:1130   .text.VL53L0X_GetPowerMode:0000000000000000 $t
/var/folders/d2/nstgp4h54kz7g1l847x_b8wc0000gn/T//cc7cS1Ev.s:1137   .text.VL53L0X_GetPowerMode:0000000000000000 VL53L0X_GetPowerMode
/var/folders/d2/nstgp4h54kz7g1l847x_b8wc0000gn/T//cc7cS1Ev.s:1177   .text.VL53L0X_SetOffsetCalibrationDataMicroMeter:0000000000000000 $t
/var/folders/d2/nstgp4h54kz7g1l847x_b8wc0000gn/T//cc7cS1Ev.s:1184   .text.VL53L0X_SetOffsetCalibrationDataMicroMeter:0000000000000000 VL53L0X_SetOffsetCalibrationDataMicroMeter
/var/folders/d2/nstgp4h54kz7g1l847x_b8wc0000gn/T//cc7cS1Ev.s:1207   .text.VL53L0X_GetOffsetCalibrationDataMicroMeter:0000000000000000 $t
/var/folders/d2/nstgp4h54kz7g1l847x_b8wc0000gn/T//cc7cS1Ev.s:1214   .text.VL53L0X_GetOffsetCalibrationDataMicroMeter:0000000000000000 VL53L0X_GetOffsetCalibrationDataMicroMeter
/var/folders/d2/nstgp4h54kz7g1l847x_b8wc0000gn/T//cc7cS1Ev.s:1237   .text.VL53L0X_SetLinearityCorrectiveGain:0000000000000000 $t
/var/folders/d2/nstgp4h54kz7g1l847x_b8wc0000gn/T//cc7cS1Ev.s:1244   .text.VL53L0X_SetLinearityCorrectiveGain:0000000000000000 VL53L0X_SetLinearityCorrectiveGain
/var/folders/d2/nstgp4h54kz7g1l847x_b8wc0000gn/T//cc7cS1Ev.s:1287   .text.VL53L0X_GetLinearityCorrectiveGain:0000000000000000 $t
/var/folders/d2/nstgp4h54kz7g1l847x_b8wc0000gn/T//cc7cS1Ev.s:1294   .text.VL53L0X_GetLinearityCorrectiveGain:0000000000000000 VL53L0X_GetLinearityCorrectiveGain
/var/folders/d2/nstgp4h54kz7g1l847x_b8wc0000gn/T//cc7cS1Ev.s:1318   .text.VL53L0X_SetGroupParamHold:0000000000000000 $t
/var/folders/d2/nstgp4h54kz7g1l847x_b8wc0000gn/T//cc7cS1Ev.s:1325   .text.VL53L0X_SetGroupParamHold:0000000000000000 VL53L0X_SetGroupParamHold
/var/folders/d2/nstgp4h54kz7g1l847x_b8wc0000gn/T//cc7cS1Ev.s:1346   .text.VL53L0X_GetUpperLimitMilliMeter:0000000000000000 $t
/var/folders/d2/nstgp4h54kz7g1l847x_b8wc0000gn/T//cc7cS1Ev.s:1353   .text.VL53L0X_GetUpperLimitMilliMeter:0000000000000000 VL53L0X_GetUpperLimitMilliMeter
/var/folders/d2/nstgp4h54kz7g1l847x_b8wc0000gn/T//cc7cS1Ev.s:1373   .text.VL53L0X_GetTotalSignalRate:0000000000000000 $t
/var/folders/d2/nstgp4h54kz7g1l847x_b8wc0000gn/T//cc7cS1Ev.s:1380   .text.VL53L0X_GetTotalSignalRate:0000000000000000 VL53L0X_GetTotalSignalRate
/var/folders/d2/nstgp4h54kz7g1l847x_b8wc0000gn/T//cc7cS1Ev.s:1412   .text.VL53L0X_SetDeviceAddress:0000000000000000 $t
/var/folders/d2/nstgp4h54kz7g1l847x_b8wc0000gn/T//cc7cS1Ev.s:1419   .text.VL53L0X_SetDeviceAddress:0000000000000000 VL53L0X_SetDeviceAddress
/var/folders/d2/nstgp4h54kz7g1l847x_b8wc0000gn/T//cc7cS1Ev.s:1447   .text.VL53L0X_DataInit:0000000000000000 $t
/var/folders/d2/nstgp4h54kz7g1l847x_b8wc0000gn/T//cc7cS1Ev.s:1454   .text.VL53L0X_DataInit:0000000000000000 VL53L0X_DataInit
/var/folders/d2/nstgp4h54kz7g1l847x_b8wc0000gn/T//cc7cS1Ev.s:2411   .text.VL53L0X_GetDeviceParameters:0000000000000000 VL53L0X_GetDeviceParameters
/var/folders/d2/nstgp4h54kz7g1l847x_b8wc0000gn/T//cc7cS1Ev.s:4054   .text.VL53L0X_SetLimitCheckEnable:0000000000000000 VL53L0X_SetLimitCheckEnable
/var/folders/d2/nstgp4h54kz7g1l847x_b8wc0000gn/T//cc7cS1Ev.s:4253   .text.VL53L0X_SetLimitCheckValue:0000000000000000 VL53L0X_SetLimitCheckValue
/var/folders/d2/nstgp4h54kz7g1l847x_b8wc0000gn/T//cc7cS1Ev.s:1739   .text.VL53L0X_DataInit:00000000000002c0 $d
/var/folders/d2/nstgp4h54kz7g1l847x_b8wc0000gn/T//cc7cS1Ev.s:1743   .text.VL53L0X_SetTuningSettingBuffer:0000000000000000 $t
/var/folders/d2/nstgp4h54kz7g1l847x_b8wc0000gn/T//cc7cS1Ev.s:1750   .text.VL53L0X_SetTuningSettingBuffer:0000000000000000 VL53L0X_SetTuningSettingBuffer
/var/folders/d2/nstgp4h54kz7g1l847x_b8wc0000gn/T//cc7cS1Ev.s:1795   .text.VL53L0X_GetTuningSettingBuffer:0000000000000000 $t
/var/folders/d2/nstgp4h54kz7g1l847x_b8wc0000gn/T//cc7cS1Ev.s:1802   .text.VL53L0X_GetTuningSettingBuffer:0000000000000000 VL53L0X_GetTuningSettingBuffer
ARM GAS  /var/folders/d2/nstgp4h54kz7g1l847x_b8wc0000gn/T//cc7cS1Ev.s 			page 127


/var/folders/d2/nstgp4h54kz7g1l847x_b8wc0000gn/T//cc7cS1Ev.s:1831   .text.VL53L0X_StaticInit:0000000000000000 $t
/var/folders/d2/nstgp4h54kz7g1l847x_b8wc0000gn/T//cc7cS1Ev.s:5999   .text.VL53L0X_SetGpioConfig:0000000000000000 VL53L0X_SetGpioConfig
/var/folders/d2/nstgp4h54kz7g1l847x_b8wc0000gn/T//cc7cS1Ev.s:2699   .text.VL53L0X_GetFractionEnable:0000000000000000 VL53L0X_GetFractionEnable
/var/folders/d2/nstgp4h54kz7g1l847x_b8wc0000gn/T//cc7cS1Ev.s:2924   .text.VL53L0X_SetSequenceStepEnable:0000000000000000 VL53L0X_SetSequenceStepEnable
/var/folders/d2/nstgp4h54kz7g1l847x_b8wc0000gn/T//cc7cS1Ev.s:2890   .text.VL53L0X_GetVcselPulsePeriod:0000000000000000 VL53L0X_GetVcselPulsePeriod
/var/folders/d2/nstgp4h54kz7g1l847x_b8wc0000gn/T//cc7cS1Ev.s:2156   .text.VL53L0X_StaticInit:0000000000000300 $d
/var/folders/d2/nstgp4h54kz7g1l847x_b8wc0000gn/T//cc7cS1Ev.s:2159   .text.VL53L0X_WaitDeviceBooted:0000000000000000 $t
/var/folders/d2/nstgp4h54kz7g1l847x_b8wc0000gn/T//cc7cS1Ev.s:2166   .text.VL53L0X_WaitDeviceBooted:0000000000000000 VL53L0X_WaitDeviceBooted
/var/folders/d2/nstgp4h54kz7g1l847x_b8wc0000gn/T//cc7cS1Ev.s:2185   .text.VL53L0X_ResetDevice:0000000000000000 $t
/var/folders/d2/nstgp4h54kz7g1l847x_b8wc0000gn/T//cc7cS1Ev.s:2192   .text.VL53L0X_ResetDevice:0000000000000000 VL53L0X_ResetDevice
/var/folders/d2/nstgp4h54kz7g1l847x_b8wc0000gn/T//cc7cS1Ev.s:2262   .text.VL53L0X_SetDeviceParameters:0000000000000000 $t
/var/folders/d2/nstgp4h54kz7g1l847x_b8wc0000gn/T//cc7cS1Ev.s:2269   .text.VL53L0X_SetDeviceParameters:0000000000000000 VL53L0X_SetDeviceParameters
/var/folders/d2/nstgp4h54kz7g1l847x_b8wc0000gn/T//cc7cS1Ev.s:2561   .text.VL53L0X_SetDeviceMode:0000000000000000 VL53L0X_SetDeviceMode
/var/folders/d2/nstgp4h54kz7g1l847x_b8wc0000gn/T//cc7cS1Ev.s:3530   .text.VL53L0X_SetInterMeasurementPeriodMilliSeconds:0000000000000000 VL53L0X_SetInterMeasurementPeriodMilliSeconds
/var/folders/d2/nstgp4h54kz7g1l847x_b8wc0000gn/T//cc7cS1Ev.s:3753   .text.VL53L0X_SetXTalkCompensationRateMegaCps:0000000000000000 VL53L0X_SetXTalkCompensationRateMegaCps
/var/folders/d2/nstgp4h54kz7g1l847x_b8wc0000gn/T//cc7cS1Ev.s:4628   .text.VL53L0X_SetWrapAroundCheckEnable:0000000000000000 VL53L0X_SetWrapAroundCheckEnable
/var/folders/d2/nstgp4h54kz7g1l847x_b8wc0000gn/T//cc7cS1Ev.s:2795   .text.VL53L0X_SetMeasurementTimingBudgetMicroSeconds:0000000000000000 VL53L0X_SetMeasurementTimingBudgetMicroSeconds
/var/folders/d2/nstgp4h54kz7g1l847x_b8wc0000gn/T//cc7cS1Ev.s:2404   .text.VL53L0X_GetDeviceParameters:0000000000000000 $t
/var/folders/d2/nstgp4h54kz7g1l847x_b8wc0000gn/T//cc7cS1Ev.s:2628   .text.VL53L0X_GetDeviceMode:0000000000000000 VL53L0X_GetDeviceMode
/var/folders/d2/nstgp4h54kz7g1l847x_b8wc0000gn/T//cc7cS1Ev.s:3592   .text.VL53L0X_GetInterMeasurementPeriodMilliSeconds:0000000000000000 VL53L0X_GetInterMeasurementPeriodMilliSeconds
/var/folders/d2/nstgp4h54kz7g1l847x_b8wc0000gn/T//cc7cS1Ev.s:3817   .text.VL53L0X_GetXTalkCompensationRateMegaCps:0000000000000000 VL53L0X_GetXTalkCompensationRateMegaCps
/var/folders/d2/nstgp4h54kz7g1l847x_b8wc0000gn/T//cc7cS1Ev.s:4363   .text.VL53L0X_GetLimitCheckValue:0000000000000000 VL53L0X_GetLimitCheckValue
/var/folders/d2/nstgp4h54kz7g1l847x_b8wc0000gn/T//cc7cS1Ev.s:4205   .text.VL53L0X_GetLimitCheckEnable:0000000000000000 VL53L0X_GetLimitCheckEnable
/var/folders/d2/nstgp4h54kz7g1l847x_b8wc0000gn/T//cc7cS1Ev.s:4696   .text.VL53L0X_GetWrapAroundCheckEnable:0000000000000000 VL53L0X_GetWrapAroundCheckEnable
/var/folders/d2/nstgp4h54kz7g1l847x_b8wc0000gn/T//cc7cS1Ev.s:2825   .text.VL53L0X_GetMeasurementTimingBudgetMicroSeconds:0000000000000000 VL53L0X_GetMeasurementTimingBudgetMicroSeconds
/var/folders/d2/nstgp4h54kz7g1l847x_b8wc0000gn/T//cc7cS1Ev.s:2554   .text.VL53L0X_SetDeviceMode:0000000000000000 $t
/var/folders/d2/nstgp4h54kz7g1l847x_b8wc0000gn/T//cc7cS1Ev.s:2580   .text.VL53L0X_SetDeviceMode:000000000000001c $d
/var/folders/d2/nstgp4h54kz7g1l847x_b8wc0000gn/T//cc7cS1Ev.s:2602   .text.VL53L0X_SetDeviceMode:0000000000000074 $t
/var/folders/d2/nstgp4h54kz7g1l847x_b8wc0000gn/T//cc7cS1Ev.s:2621   .text.VL53L0X_GetDeviceMode:0000000000000000 $t
/var/folders/d2/nstgp4h54kz7g1l847x_b8wc0000gn/T//cc7cS1Ev.s:2652   .text.VL53L0X_SetRangeFractionEnable:0000000000000000 $t
/var/folders/d2/nstgp4h54kz7g1l847x_b8wc0000gn/T//cc7cS1Ev.s:2659   .text.VL53L0X_SetRangeFractionEnable:0000000000000000 VL53L0X_SetRangeFractionEnable
/var/folders/d2/nstgp4h54kz7g1l847x_b8wc0000gn/T//cc7cS1Ev.s:2692   .text.VL53L0X_GetFractionEnable:0000000000000000 $t
/var/folders/d2/nstgp4h54kz7g1l847x_b8wc0000gn/T//cc7cS1Ev.s:2733   .text.VL53L0X_SetHistogramMode:0000000000000000 $t
/var/folders/d2/nstgp4h54kz7g1l847x_b8wc0000gn/T//cc7cS1Ev.s:2740   .text.VL53L0X_SetHistogramMode:0000000000000000 VL53L0X_SetHistogramMode
/var/folders/d2/nstgp4h54kz7g1l847x_b8wc0000gn/T//cc7cS1Ev.s:2761   .text.VL53L0X_GetHistogramMode:0000000000000000 $t
/var/folders/d2/nstgp4h54kz7g1l847x_b8wc0000gn/T//cc7cS1Ev.s:2768   .text.VL53L0X_GetHistogramMode:0000000000000000 VL53L0X_GetHistogramMode
/var/folders/d2/nstgp4h54kz7g1l847x_b8wc0000gn/T//cc7cS1Ev.s:2788   .text.VL53L0X_SetMeasurementTimingBudgetMicroSeconds:0000000000000000 $t
/var/folders/d2/nstgp4h54kz7g1l847x_b8wc0000gn/T//cc7cS1Ev.s:2818   .text.VL53L0X_GetMeasurementTimingBudgetMicroSeconds:0000000000000000 $t
/var/folders/d2/nstgp4h54kz7g1l847x_b8wc0000gn/T//cc7cS1Ev.s:2848   .text.VL53L0X_SetVcselPulsePeriod:0000000000000000 $t
/var/folders/d2/nstgp4h54kz7g1l847x_b8wc0000gn/T//cc7cS1Ev.s:2855   .text.VL53L0X_SetVcselPulsePeriod:0000000000000000 VL53L0X_SetVcselPulsePeriod
/var/folders/d2/nstgp4h54kz7g1l847x_b8wc0000gn/T//cc7cS1Ev.s:2883   .text.VL53L0X_GetVcselPulsePeriod:0000000000000000 $t
/var/folders/d2/nstgp4h54kz7g1l847x_b8wc0000gn/T//cc7cS1Ev.s:2917   .text.VL53L0X_SetSequenceStepEnable:0000000000000000 $t
/var/folders/d2/nstgp4h54kz7g1l847x_b8wc0000gn/T//cc7cS1Ev.s:2963   .text.VL53L0X_SetSequenceStepEnable:000000000000004c $d
/var/folders/d2/nstgp4h54kz7g1l847x_b8wc0000gn/T//cc7cS1Ev.s:2968   .text.VL53L0X_SetSequenceStepEnable:0000000000000060 $t
/var/folders/d2/nstgp4h54kz7g1l847x_b8wc0000gn/T//cc7cS1Ev.s:3006   .text.VL53L0X_SetSequenceStepEnable:00000000000000a4 $d
/var/folders/d2/nstgp4h54kz7g1l847x_b8wc0000gn/T//cc7cS1Ev.s:3011   .text.VL53L0X_SetSequenceStepEnable:00000000000000b8 $t
/var/folders/d2/nstgp4h54kz7g1l847x_b8wc0000gn/T//cc7cS1Ev.s:3084   .text.sequence_step_enabled:0000000000000000 $t
/var/folders/d2/nstgp4h54kz7g1l847x_b8wc0000gn/T//cc7cS1Ev.s:3091   .text.sequence_step_enabled:0000000000000000 sequence_step_enabled
/var/folders/d2/nstgp4h54kz7g1l847x_b8wc0000gn/T//cc7cS1Ev.s:3116   .text.sequence_step_enabled:0000000000000028 $d
/var/folders/d2/nstgp4h54kz7g1l847x_b8wc0000gn/T//cc7cS1Ev.s:3121   .text.sequence_step_enabled:000000000000003c $t
/var/folders/d2/nstgp4h54kz7g1l847x_b8wc0000gn/T//cc7cS1Ev.s:3178   .text.VL53L0X_GetSequenceStepEnable:0000000000000000 $t
/var/folders/d2/nstgp4h54kz7g1l847x_b8wc0000gn/T//cc7cS1Ev.s:3185   .text.VL53L0X_GetSequenceStepEnable:0000000000000000 VL53L0X_GetSequenceStepEnable
/var/folders/d2/nstgp4h54kz7g1l847x_b8wc0000gn/T//cc7cS1Ev.s:3225   .text.VL53L0X_GetSequenceStepEnables:0000000000000000 $t
/var/folders/d2/nstgp4h54kz7g1l847x_b8wc0000gn/T//cc7cS1Ev.s:3232   .text.VL53L0X_GetSequenceStepEnables:0000000000000000 VL53L0X_GetSequenceStepEnables
/var/folders/d2/nstgp4h54kz7g1l847x_b8wc0000gn/T//cc7cS1Ev.s:3318   .text.VL53L0X_GetNumberOfSequenceSteps:0000000000000000 $t
/var/folders/d2/nstgp4h54kz7g1l847x_b8wc0000gn/T//cc7cS1Ev.s:3325   .text.VL53L0X_GetNumberOfSequenceSteps:0000000000000000 VL53L0X_GetNumberOfSequenceSteps
/var/folders/d2/nstgp4h54kz7g1l847x_b8wc0000gn/T//cc7cS1Ev.s:3348   .text.VL53L0X_GetSequenceStepsInfo:0000000000000000 $t
ARM GAS  /var/folders/d2/nstgp4h54kz7g1l847x_b8wc0000gn/T//cc7cS1Ev.s 			page 128


/var/folders/d2/nstgp4h54kz7g1l847x_b8wc0000gn/T//cc7cS1Ev.s:3355   .text.VL53L0X_GetSequenceStepsInfo:0000000000000000 VL53L0X_GetSequenceStepsInfo
/var/folders/d2/nstgp4h54kz7g1l847x_b8wc0000gn/T//cc7cS1Ev.s:3380   .text.VL53L0X_SetSequenceStepTimeout:0000000000000000 $t
/var/folders/d2/nstgp4h54kz7g1l847x_b8wc0000gn/T//cc7cS1Ev.s:3387   .text.VL53L0X_SetSequenceStepTimeout:0000000000000000 VL53L0X_SetSequenceStepTimeout
/var/folders/d2/nstgp4h54kz7g1l847x_b8wc0000gn/T//cc7cS1Ev.s:3466   .text.VL53L0X_GetSequenceStepTimeout:0000000000000000 $t
/var/folders/d2/nstgp4h54kz7g1l847x_b8wc0000gn/T//cc7cS1Ev.s:3473   .text.VL53L0X_GetSequenceStepTimeout:0000000000000000 VL53L0X_GetSequenceStepTimeout
/var/folders/d2/nstgp4h54kz7g1l847x_b8wc0000gn/T//cc7cS1Ev.s:3520   .text.VL53L0X_GetSequenceStepTimeout:000000000000005c $d
/var/folders/d2/nstgp4h54kz7g1l847x_b8wc0000gn/T//cc7cS1Ev.s:3523   .text.VL53L0X_SetInterMeasurementPeriodMilliSeconds:0000000000000000 $t
/var/folders/d2/nstgp4h54kz7g1l847x_b8wc0000gn/T//cc7cS1Ev.s:3585   .text.VL53L0X_GetInterMeasurementPeriodMilliSeconds:0000000000000000 $t
/var/folders/d2/nstgp4h54kz7g1l847x_b8wc0000gn/T//cc7cS1Ev.s:3645   .text.VL53L0X_SetXTalkCompensationEnable:0000000000000000 $t
/var/folders/d2/nstgp4h54kz7g1l847x_b8wc0000gn/T//cc7cS1Ev.s:3652   .text.VL53L0X_SetXTalkCompensationEnable:0000000000000000 VL53L0X_SetXTalkCompensationEnable
/var/folders/d2/nstgp4h54kz7g1l847x_b8wc0000gn/T//cc7cS1Ev.s:3713   .text.VL53L0X_GetXTalkCompensationEnable:0000000000000000 $t
/var/folders/d2/nstgp4h54kz7g1l847x_b8wc0000gn/T//cc7cS1Ev.s:3720   .text.VL53L0X_GetXTalkCompensationEnable:0000000000000000 VL53L0X_GetXTalkCompensationEnable
/var/folders/d2/nstgp4h54kz7g1l847x_b8wc0000gn/T//cc7cS1Ev.s:3746   .text.VL53L0X_SetXTalkCompensationRateMegaCps:0000000000000000 $t
/var/folders/d2/nstgp4h54kz7g1l847x_b8wc0000gn/T//cc7cS1Ev.s:3810   .text.VL53L0X_GetXTalkCompensationRateMegaCps:0000000000000000 $t
/var/folders/d2/nstgp4h54kz7g1l847x_b8wc0000gn/T//cc7cS1Ev.s:3872   .text.VL53L0X_SetRefCalibration:0000000000000000 $t
/var/folders/d2/nstgp4h54kz7g1l847x_b8wc0000gn/T//cc7cS1Ev.s:3879   .text.VL53L0X_SetRefCalibration:0000000000000000 VL53L0X_SetRefCalibration
/var/folders/d2/nstgp4h54kz7g1l847x_b8wc0000gn/T//cc7cS1Ev.s:3907   .text.VL53L0X_GetRefCalibration:0000000000000000 $t
/var/folders/d2/nstgp4h54kz7g1l847x_b8wc0000gn/T//cc7cS1Ev.s:3914   .text.VL53L0X_GetRefCalibration:0000000000000000 VL53L0X_GetRefCalibration
/var/folders/d2/nstgp4h54kz7g1l847x_b8wc0000gn/T//cc7cS1Ev.s:3939   .text.VL53L0X_GetNumberOfLimitCheck:0000000000000000 $t
/var/folders/d2/nstgp4h54kz7g1l847x_b8wc0000gn/T//cc7cS1Ev.s:3946   .text.VL53L0X_GetNumberOfLimitCheck:0000000000000000 VL53L0X_GetNumberOfLimitCheck
/var/folders/d2/nstgp4h54kz7g1l847x_b8wc0000gn/T//cc7cS1Ev.s:3968   .text.VL53L0X_GetLimitCheckInfo:0000000000000000 $t
/var/folders/d2/nstgp4h54kz7g1l847x_b8wc0000gn/T//cc7cS1Ev.s:3975   .text.VL53L0X_GetLimitCheckInfo:0000000000000000 VL53L0X_GetLimitCheckInfo
/var/folders/d2/nstgp4h54kz7g1l847x_b8wc0000gn/T//cc7cS1Ev.s:4002   .text.VL53L0X_GetLimitCheckStatus:0000000000000000 $t
/var/folders/d2/nstgp4h54kz7g1l847x_b8wc0000gn/T//cc7cS1Ev.s:4009   .text.VL53L0X_GetLimitCheckStatus:0000000000000000 VL53L0X_GetLimitCheckStatus
/var/folders/d2/nstgp4h54kz7g1l847x_b8wc0000gn/T//cc7cS1Ev.s:4047   .text.VL53L0X_SetLimitCheckEnable:0000000000000000 $t
/var/folders/d2/nstgp4h54kz7g1l847x_b8wc0000gn/T//cc7cS1Ev.s:4110   .text.VL53L0X_SetLimitCheckEnable:0000000000000064 $d
/var/folders/d2/nstgp4h54kz7g1l847x_b8wc0000gn/T//cc7cS1Ev.s:4116   .text.VL53L0X_SetLimitCheckEnable:000000000000007c $t
/var/folders/d2/nstgp4h54kz7g1l847x_b8wc0000gn/T//cc7cS1Ev.s:4198   .text.VL53L0X_GetLimitCheckEnable:0000000000000000 $t
/var/folders/d2/nstgp4h54kz7g1l847x_b8wc0000gn/T//cc7cS1Ev.s:4246   .text.VL53L0X_SetLimitCheckValue:0000000000000000 $t
/var/folders/d2/nstgp4h54kz7g1l847x_b8wc0000gn/T//cc7cS1Ev.s:4289   .text.VL53L0X_SetLimitCheckValue:0000000000000040 $d
/var/folders/d2/nstgp4h54kz7g1l847x_b8wc0000gn/T//cc7cS1Ev.s:4295   .text.VL53L0X_SetLimitCheckValue:0000000000000058 $t
/var/folders/d2/nstgp4h54kz7g1l847x_b8wc0000gn/T//cc7cS1Ev.s:4356   .text.VL53L0X_GetLimitCheckValue:0000000000000000 $t
/var/folders/d2/nstgp4h54kz7g1l847x_b8wc0000gn/T//cc7cS1Ev.s:4384   .text.VL53L0X_GetLimitCheckValue:0000000000000024 $d
/var/folders/d2/nstgp4h54kz7g1l847x_b8wc0000gn/T//cc7cS1Ev.s:4390   .text.VL53L0X_GetLimitCheckValue:000000000000003c $t
/var/folders/d2/nstgp4h54kz7g1l847x_b8wc0000gn/T//cc7cS1Ev.s:4507   .text.VL53L0X_GetLimitCheckCurrent:0000000000000000 $t
/var/folders/d2/nstgp4h54kz7g1l847x_b8wc0000gn/T//cc7cS1Ev.s:4514   .text.VL53L0X_GetLimitCheckCurrent:0000000000000000 VL53L0X_GetLimitCheckCurrent
/var/folders/d2/nstgp4h54kz7g1l847x_b8wc0000gn/T//cc7cS1Ev.s:4541   .text.VL53L0X_GetLimitCheckCurrent:0000000000000030 $d
/var/folders/d2/nstgp4h54kz7g1l847x_b8wc0000gn/T//cc7cS1Ev.s:4547   .text.VL53L0X_GetLimitCheckCurrent:0000000000000048 $t
/var/folders/d2/nstgp4h54kz7g1l847x_b8wc0000gn/T//cc7cS1Ev.s:4621   .text.VL53L0X_SetWrapAroundCheckEnable:0000000000000000 $t
/var/folders/d2/nstgp4h54kz7g1l847x_b8wc0000gn/T//cc7cS1Ev.s:4689   .text.VL53L0X_GetWrapAroundCheckEnable:0000000000000000 $t
/var/folders/d2/nstgp4h54kz7g1l847x_b8wc0000gn/T//cc7cS1Ev.s:4748   .text.VL53L0X_SetDmaxCalParameters:0000000000000000 $t
/var/folders/d2/nstgp4h54kz7g1l847x_b8wc0000gn/T//cc7cS1Ev.s:4755   .text.VL53L0X_SetDmaxCalParameters:0000000000000000 VL53L0X_SetDmaxCalParameters
/var/folders/d2/nstgp4h54kz7g1l847x_b8wc0000gn/T//cc7cS1Ev.s:4805   .text.VL53L0X_GetDmaxCalParameters:0000000000000000 $t
/var/folders/d2/nstgp4h54kz7g1l847x_b8wc0000gn/T//cc7cS1Ev.s:4812   .text.VL53L0X_GetDmaxCalParameters:0000000000000000 VL53L0X_GetDmaxCalParameters
/var/folders/d2/nstgp4h54kz7g1l847x_b8wc0000gn/T//cc7cS1Ev.s:4841   .text.VL53L0X_PerformSingleMeasurement:0000000000000000 $t
/var/folders/d2/nstgp4h54kz7g1l847x_b8wc0000gn/T//cc7cS1Ev.s:4848   .text.VL53L0X_PerformSingleMeasurement:0000000000000000 VL53L0X_PerformSingleMeasurement
/var/folders/d2/nstgp4h54kz7g1l847x_b8wc0000gn/T//cc7cS1Ev.s:5167   .text.VL53L0X_StartMeasurement:0000000000000000 VL53L0X_StartMeasurement
/var/folders/d2/nstgp4h54kz7g1l847x_b8wc0000gn/T//cc7cS1Ev.s:4900   .text.VL53L0X_PerformSingleHistogramMeasurement:0000000000000000 $t
/var/folders/d2/nstgp4h54kz7g1l847x_b8wc0000gn/T//cc7cS1Ev.s:4907   .text.VL53L0X_PerformSingleHistogramMeasurement:0000000000000000 VL53L0X_PerformSingleHistogramMeasurement
/var/folders/d2/nstgp4h54kz7g1l847x_b8wc0000gn/T//cc7cS1Ev.s:4927   .text.VL53L0X_PerformRefCalibration:0000000000000000 $t
/var/folders/d2/nstgp4h54kz7g1l847x_b8wc0000gn/T//cc7cS1Ev.s:4934   .text.VL53L0X_PerformRefCalibration:0000000000000000 VL53L0X_PerformRefCalibration
/var/folders/d2/nstgp4h54kz7g1l847x_b8wc0000gn/T//cc7cS1Ev.s:4960   .text.VL53L0X_PerformXTalkMeasurement:0000000000000000 $t
/var/folders/d2/nstgp4h54kz7g1l847x_b8wc0000gn/T//cc7cS1Ev.s:4967   .text.VL53L0X_PerformXTalkMeasurement:0000000000000000 VL53L0X_PerformXTalkMeasurement
/var/folders/d2/nstgp4h54kz7g1l847x_b8wc0000gn/T//cc7cS1Ev.s:4989   .text.VL53L0X_PerformXTalkCalibration:0000000000000000 $t
/var/folders/d2/nstgp4h54kz7g1l847x_b8wc0000gn/T//cc7cS1Ev.s:4996   .text.VL53L0X_PerformXTalkCalibration:0000000000000000 VL53L0X_PerformXTalkCalibration
/var/folders/d2/nstgp4h54kz7g1l847x_b8wc0000gn/T//cc7cS1Ev.s:5021   .text.VL53L0X_PerformOffsetCalibration:0000000000000000 $t
/var/folders/d2/nstgp4h54kz7g1l847x_b8wc0000gn/T//cc7cS1Ev.s:5028   .text.VL53L0X_PerformOffsetCalibration:0000000000000000 VL53L0X_PerformOffsetCalibration
ARM GAS  /var/folders/d2/nstgp4h54kz7g1l847x_b8wc0000gn/T//cc7cS1Ev.s 			page 129


/var/folders/d2/nstgp4h54kz7g1l847x_b8wc0000gn/T//cc7cS1Ev.s:5053   .text.VL53L0X_CheckAndLoadInterruptSettings:0000000000000000 $t
/var/folders/d2/nstgp4h54kz7g1l847x_b8wc0000gn/T//cc7cS1Ev.s:5060   .text.VL53L0X_CheckAndLoadInterruptSettings:0000000000000000 VL53L0X_CheckAndLoadInterruptSettings
/var/folders/d2/nstgp4h54kz7g1l847x_b8wc0000gn/T//cc7cS1Ev.s:6480   .text.VL53L0X_GetInterruptThresholds:0000000000000000 VL53L0X_GetInterruptThresholds
/var/folders/d2/nstgp4h54kz7g1l847x_b8wc0000gn/T//cc7cS1Ev.s:5157   .text.VL53L0X_CheckAndLoadInterruptSettings:00000000000000c8 $d
/var/folders/d2/nstgp4h54kz7g1l847x_b8wc0000gn/T//cc7cS1Ev.s:5160   .text.VL53L0X_StartMeasurement:0000000000000000 $t
/var/folders/d2/nstgp4h54kz7g1l847x_b8wc0000gn/T//cc7cS1Ev.s:5348   .text.VL53L0X_StopMeasurement:0000000000000000 $t
/var/folders/d2/nstgp4h54kz7g1l847x_b8wc0000gn/T//cc7cS1Ev.s:5355   .text.VL53L0X_StopMeasurement:0000000000000000 VL53L0X_StopMeasurement
/var/folders/d2/nstgp4h54kz7g1l847x_b8wc0000gn/T//cc7cS1Ev.s:5424   .text.VL53L0X_GetMeasurementDataReady:0000000000000000 $t
/var/folders/d2/nstgp4h54kz7g1l847x_b8wc0000gn/T//cc7cS1Ev.s:5431   .text.VL53L0X_GetMeasurementDataReady:0000000000000000 VL53L0X_GetMeasurementDataReady
/var/folders/d2/nstgp4h54kz7g1l847x_b8wc0000gn/T//cc7cS1Ev.s:6723   .text.VL53L0X_GetInterruptMaskStatus:0000000000000000 VL53L0X_GetInterruptMaskStatus
/var/folders/d2/nstgp4h54kz7g1l847x_b8wc0000gn/T//cc7cS1Ev.s:5497   .text.VL53L0X_WaitDeviceReadyForNewMeasurement:0000000000000000 $t
/var/folders/d2/nstgp4h54kz7g1l847x_b8wc0000gn/T//cc7cS1Ev.s:5504   .text.VL53L0X_WaitDeviceReadyForNewMeasurement:0000000000000000 VL53L0X_WaitDeviceReadyForNewMeasurement
/var/folders/d2/nstgp4h54kz7g1l847x_b8wc0000gn/T//cc7cS1Ev.s:5524   .text.VL53L0X_GetRangingMeasurementData:0000000000000000 $t
/var/folders/d2/nstgp4h54kz7g1l847x_b8wc0000gn/T//cc7cS1Ev.s:5531   .text.VL53L0X_GetRangingMeasurementData:0000000000000000 VL53L0X_GetRangingMeasurementData
/var/folders/d2/nstgp4h54kz7g1l847x_b8wc0000gn/T//cc7cS1Ev.s:5766   .text.VL53L0X_GetRangingMeasurementData:0000000000000248 $d
/var/folders/d2/nstgp4h54kz7g1l847x_b8wc0000gn/T//cc7cS1Ev.s:5769   .text.VL53L0X_GetMeasurementRefSignal:0000000000000000 $t
/var/folders/d2/nstgp4h54kz7g1l847x_b8wc0000gn/T//cc7cS1Ev.s:5776   .text.VL53L0X_GetMeasurementRefSignal:0000000000000000 VL53L0X_GetMeasurementRefSignal
/var/folders/d2/nstgp4h54kz7g1l847x_b8wc0000gn/T//cc7cS1Ev.s:5815   .text.VL53L0X_GetHistogramMeasurementData:0000000000000000 $t
/var/folders/d2/nstgp4h54kz7g1l847x_b8wc0000gn/T//cc7cS1Ev.s:5822   .text.VL53L0X_GetHistogramMeasurementData:0000000000000000 VL53L0X_GetHistogramMeasurementData
/var/folders/d2/nstgp4h54kz7g1l847x_b8wc0000gn/T//cc7cS1Ev.s:5842   .text.VL53L0X_PerformSingleRangingMeasurement:0000000000000000 $t
/var/folders/d2/nstgp4h54kz7g1l847x_b8wc0000gn/T//cc7cS1Ev.s:5849   .text.VL53L0X_PerformSingleRangingMeasurement:0000000000000000 VL53L0X_PerformSingleRangingMeasurement
/var/folders/d2/nstgp4h54kz7g1l847x_b8wc0000gn/T//cc7cS1Ev.s:6650   .text.VL53L0X_ClearInterruptMask:0000000000000000 VL53L0X_ClearInterruptMask
/var/folders/d2/nstgp4h54kz7g1l847x_b8wc0000gn/T//cc7cS1Ev.s:5898   .text.VL53L0X_SetNumberOfROIZones:0000000000000000 $t
/var/folders/d2/nstgp4h54kz7g1l847x_b8wc0000gn/T//cc7cS1Ev.s:5905   .text.VL53L0X_SetNumberOfROIZones:0000000000000000 VL53L0X_SetNumberOfROIZones
/var/folders/d2/nstgp4h54kz7g1l847x_b8wc0000gn/T//cc7cS1Ev.s:5932   .text.VL53L0X_GetNumberOfROIZones:0000000000000000 $t
/var/folders/d2/nstgp4h54kz7g1l847x_b8wc0000gn/T//cc7cS1Ev.s:5939   .text.VL53L0X_GetNumberOfROIZones:0000000000000000 VL53L0X_GetNumberOfROIZones
/var/folders/d2/nstgp4h54kz7g1l847x_b8wc0000gn/T//cc7cS1Ev.s:5962   .text.VL53L0X_GetMaxNumberOfROIZones:0000000000000000 $t
/var/folders/d2/nstgp4h54kz7g1l847x_b8wc0000gn/T//cc7cS1Ev.s:5969   .text.VL53L0X_GetMaxNumberOfROIZones:0000000000000000 VL53L0X_GetMaxNumberOfROIZones
/var/folders/d2/nstgp4h54kz7g1l847x_b8wc0000gn/T//cc7cS1Ev.s:5992   .text.VL53L0X_SetGpioConfig:0000000000000000 $t
/var/folders/d2/nstgp4h54kz7g1l847x_b8wc0000gn/T//cc7cS1Ev.s:6196   .text.VL53L0X_SetGpioConfig:000000000000019c $d
/var/folders/d2/nstgp4h54kz7g1l847x_b8wc0000gn/T//cc7cS1Ev.s:6201   .text.VL53L0X_SetGpioConfig:00000000000001b0 $t
/var/folders/d2/nstgp4h54kz7g1l847x_b8wc0000gn/T//cc7cS1Ev.s:6285   .text.VL53L0X_GetGpioConfig:0000000000000000 $t
/var/folders/d2/nstgp4h54kz7g1l847x_b8wc0000gn/T//cc7cS1Ev.s:6292   .text.VL53L0X_GetGpioConfig:0000000000000000 VL53L0X_GetGpioConfig
/var/folders/d2/nstgp4h54kz7g1l847x_b8wc0000gn/T//cc7cS1Ev.s:6339   .text.VL53L0X_GetGpioConfig:0000000000000060 $d
/var/folders/d2/nstgp4h54kz7g1l847x_b8wc0000gn/T//cc7cS1Ev.s:6344   .text.VL53L0X_GetGpioConfig:0000000000000074 $t
/var/folders/d2/nstgp4h54kz7g1l847x_b8wc0000gn/T//cc7cS1Ev.s:6417   .text.VL53L0X_SetInterruptThresholds:0000000000000000 $t
/var/folders/d2/nstgp4h54kz7g1l847x_b8wc0000gn/T//cc7cS1Ev.s:6424   .text.VL53L0X_SetInterruptThresholds:0000000000000000 VL53L0X_SetInterruptThresholds
/var/folders/d2/nstgp4h54kz7g1l847x_b8wc0000gn/T//cc7cS1Ev.s:6473   .text.VL53L0X_GetInterruptThresholds:0000000000000000 $t
/var/folders/d2/nstgp4h54kz7g1l847x_b8wc0000gn/T//cc7cS1Ev.s:6534   .text.VL53L0X_GetInterruptThresholds:0000000000000068 $d
/var/folders/d2/nstgp4h54kz7g1l847x_b8wc0000gn/T//cc7cS1Ev.s:6537   .text.VL53L0X_GetStopCompletedStatus:0000000000000000 $t
/var/folders/d2/nstgp4h54kz7g1l847x_b8wc0000gn/T//cc7cS1Ev.s:6544   .text.VL53L0X_GetStopCompletedStatus:0000000000000000 VL53L0X_GetStopCompletedStatus
/var/folders/d2/nstgp4h54kz7g1l847x_b8wc0000gn/T//cc7cS1Ev.s:6643   .text.VL53L0X_ClearInterruptMask:0000000000000000 $t
/var/folders/d2/nstgp4h54kz7g1l847x_b8wc0000gn/T//cc7cS1Ev.s:6716   .text.VL53L0X_GetInterruptMaskStatus:0000000000000000 $t
/var/folders/d2/nstgp4h54kz7g1l847x_b8wc0000gn/T//cc7cS1Ev.s:6759   .text.VL53L0X_EnableInterruptMask:0000000000000000 $t
/var/folders/d2/nstgp4h54kz7g1l847x_b8wc0000gn/T//cc7cS1Ev.s:6766   .text.VL53L0X_EnableInterruptMask:0000000000000000 VL53L0X_EnableInterruptMask
/var/folders/d2/nstgp4h54kz7g1l847x_b8wc0000gn/T//cc7cS1Ev.s:6786   .text.VL53L0X_SetSpadAmbientDamperThreshold:0000000000000000 $t
/var/folders/d2/nstgp4h54kz7g1l847x_b8wc0000gn/T//cc7cS1Ev.s:6793   .text.VL53L0X_SetSpadAmbientDamperThreshold:0000000000000000 VL53L0X_SetSpadAmbientDamperThreshold
/var/folders/d2/nstgp4h54kz7g1l847x_b8wc0000gn/T//cc7cS1Ev.s:6837   .text.VL53L0X_GetSpadAmbientDamperThreshold:0000000000000000 $t
/var/folders/d2/nstgp4h54kz7g1l847x_b8wc0000gn/T//cc7cS1Ev.s:6844   .text.VL53L0X_GetSpadAmbientDamperThreshold:0000000000000000 VL53L0X_GetSpadAmbientDamperThreshold
/var/folders/d2/nstgp4h54kz7g1l847x_b8wc0000gn/T//cc7cS1Ev.s:6886   .text.VL53L0X_SetSpadAmbientDamperFactor:0000000000000000 $t
/var/folders/d2/nstgp4h54kz7g1l847x_b8wc0000gn/T//cc7cS1Ev.s:6893   .text.VL53L0X_SetSpadAmbientDamperFactor:0000000000000000 VL53L0X_SetSpadAmbientDamperFactor
/var/folders/d2/nstgp4h54kz7g1l847x_b8wc0000gn/T//cc7cS1Ev.s:6939   .text.VL53L0X_GetSpadAmbientDamperFactor:0000000000000000 $t
/var/folders/d2/nstgp4h54kz7g1l847x_b8wc0000gn/T//cc7cS1Ev.s:6946   .text.VL53L0X_GetSpadAmbientDamperFactor:0000000000000000 VL53L0X_GetSpadAmbientDamperFactor
/var/folders/d2/nstgp4h54kz7g1l847x_b8wc0000gn/T//cc7cS1Ev.s:6993   .text.VL53L0X_SetReferenceSpads:0000000000000000 $t
/var/folders/d2/nstgp4h54kz7g1l847x_b8wc0000gn/T//cc7cS1Ev.s:7000   .text.VL53L0X_SetReferenceSpads:0000000000000000 VL53L0X_SetReferenceSpads
/var/folders/d2/nstgp4h54kz7g1l847x_b8wc0000gn/T//cc7cS1Ev.s:7027   .text.VL53L0X_GetReferenceSpads:0000000000000000 $t
/var/folders/d2/nstgp4h54kz7g1l847x_b8wc0000gn/T//cc7cS1Ev.s:7034   .text.VL53L0X_GetReferenceSpads:0000000000000000 VL53L0X_GetReferenceSpads
ARM GAS  /var/folders/d2/nstgp4h54kz7g1l847x_b8wc0000gn/T//cc7cS1Ev.s 			page 130


/var/folders/d2/nstgp4h54kz7g1l847x_b8wc0000gn/T//cc7cS1Ev.s:7059   .text.VL53L0X_PerformRefSpadManagement:0000000000000000 $t
/var/folders/d2/nstgp4h54kz7g1l847x_b8wc0000gn/T//cc7cS1Ev.s:7066   .text.VL53L0X_PerformRefSpadManagement:0000000000000000 VL53L0X_PerformRefSpadManagement

UNDEFINED SYMBOLS
VL53L0X_RdByte
VL53L0X_get_device_info
VL53L0X_get_device_error_string
VL53L0X_get_range_status_string
VL53L0X_get_pal_error_string
VL53L0X_get_pal_state_string
VL53L0X_WrByte
VL53L0X_set_offset_calibration_data_micro_meter
VL53L0X_get_offset_calibration_data_micro_meter
VL53L0X_WrWord
VL53L0X_get_total_signal_rate
memset
VL53L0X_get_info_from_device
VL53L0X_perform_ref_spad_management
VL53L0X_set_reference_spads
VL53L0X_load_tuning_settings
VL53L0X_RdWord
get_sequence_step_timeout
VL53L0X_PollingDelay
VL53L0X_set_measurement_timing_budget_micro_seconds
VL53L0X_get_measurement_timing_budget_micro_seconds
VL53L0X_set_vcsel_pulse_period
VL53L0X_get_vcsel_pulse_period
VL53L0X_get_sequence_steps_info
set_sequence_step_timeout
VL53L0X_WrDWord
VL53L0X_RdDWord
VL53L0X_set_ref_calibration
VL53L0X_get_ref_calibration
VL53L0X_get_limit_check_info
VL53L0X_UpdateByte
VL53L0X_measurement_poll_for_completion
VL53L0X_perform_ref_calibration
VL53L0X_perform_xtalk_calibration
VL53L0X_perform_offset_calibration
VL53L0X_ReadMulti
VL53L0X_get_pal_range_status
VL53L0X_get_reference_spads
