ARM GAS  /var/folders/d2/nstgp4h54kz7g1l847x_b8wc0000gn/T//ccHw3j0C.s 			page 1


   1              		.cpu cortex-m4
   2              		.eabi_attribute 27, 1
   3              		.eabi_attribute 28, 1
   4              		.eabi_attribute 20, 1
   5              		.eabi_attribute 21, 1
   6              		.eabi_attribute 23, 3
   7              		.eabi_attribute 24, 1
   8              		.eabi_attribute 25, 1
   9              		.eabi_attribute 26, 1
  10              		.eabi_attribute 30, 6
  11              		.eabi_attribute 34, 1
  12              		.eabi_attribute 18, 4
  13              		.file	"vl53l0x_api_calibration.c"
  14              		.global	refArrayQuadrants
  15              		.section	.data.refArrayQuadrants,"aw",%progbits
  16              		.align	2
  17              		.type	refArrayQuadrants, %object
  18              		.size	refArrayQuadrants, 16
  19              	refArrayQuadrants:
  20 0000 0A000000 		.word	10
  21 0004 05000000 		.word	5
  22 0008 00000000 		.word	0
  23 000c 05000000 		.word	5
  24              		.section	.text.VL53L0X_perform_xtalk_calibration,"ax",%progbits
  25              		.align	1
  26              		.global	VL53L0X_perform_xtalk_calibration
  27              		.syntax unified
  28              		.thumb
  29              		.thumb_func
  30              		.fpu fpv4-sp-d16
  31              		.type	VL53L0X_perform_xtalk_calibration, %function
  32              	VL53L0X_perform_xtalk_calibration:
  33              		@ args = 0, pretend = 0, frame = 96
  34              		@ frame_needed = 1, uses_anonymous_args = 0
  35 0000 80B5     		push	{r7, lr}
  36 0002 98B0     		sub	sp, sp, #96
  37 0004 00AF     		add	r7, sp, #0
  38 0006 F860     		str	r0, [r7, #12]
  39 0008 B960     		str	r1, [r7, #8]
  40 000a 7A60     		str	r2, [r7, #4]
  41 000c 0023     		movs	r3, #0
  42 000e 87F85F30 		strb	r3, [r7, #95]
  43 0012 0023     		movs	r3, #0
  44 0014 A7F85C30 		strh	r3, [r7, #92]	@ movhi
  45 0018 0023     		movs	r3, #0
  46 001a A7F85A30 		strh	r3, [r7, #90]	@ movhi
  47 001e 0023     		movs	r3, #0
  48 0020 7B65     		str	r3, [r7, #84]
  49 0022 0023     		movs	r3, #0
  50 0024 3B65     		str	r3, [r7, #80]
  51 0026 0023     		movs	r3, #0
  52 0028 87F84F30 		strb	r3, [r7, #79]
  53 002c BB68     		ldr	r3, [r7, #8]
  54 002e 002B     		cmp	r3, #0
  55 0030 02D1     		bne	.L2
  56 0032 FC23     		movs	r3, #252
  57 0034 87F85F30 		strb	r3, [r7, #95]
ARM GAS  /var/folders/d2/nstgp4h54kz7g1l847x_b8wc0000gn/T//ccHw3j0C.s 			page 2


  58              	.L2:
  59 0038 97F95F30 		ldrsb	r3, [r7, #95]
  60 003c 002B     		cmp	r3, #0
  61 003e 06D1     		bne	.L3
  62 0040 0021     		movs	r1, #0
  63 0042 F868     		ldr	r0, [r7, #12]
  64 0044 FFF7FEFF 		bl	VL53L0X_SetXTalkCompensationEnable
  65 0048 0346     		mov	r3, r0
  66 004a 87F85F30 		strb	r3, [r7, #95]
  67              	.L3:
  68 004e 97F95F30 		ldrsb	r3, [r7, #95]
  69 0052 002B     		cmp	r3, #0
  70 0054 07D1     		bne	.L4
  71 0056 0022     		movs	r2, #0
  72 0058 0321     		movs	r1, #3
  73 005a F868     		ldr	r0, [r7, #12]
  74 005c FFF7FEFF 		bl	VL53L0X_SetLimitCheckEnable
  75 0060 0346     		mov	r3, r0
  76 0062 87F85F30 		strb	r3, [r7, #95]
  77              	.L4:
  78 0066 97F95F30 		ldrsb	r3, [r7, #95]
  79 006a 002B     		cmp	r3, #0
  80 006c 44D1     		bne	.L5
  81 006e 0023     		movs	r3, #0
  82 0070 A7F85C30 		strh	r3, [r7, #92]	@ movhi
  83 0074 0023     		movs	r3, #0
  84 0076 A7F85A30 		strh	r3, [r7, #90]	@ movhi
  85 007a 0023     		movs	r3, #0
  86 007c 7B65     		str	r3, [r7, #84]
  87 007e 0023     		movs	r3, #0
  88 0080 3B65     		str	r3, [r7, #80]
  89 0082 0023     		movs	r3, #0
  90 0084 87F84F30 		strb	r3, [r7, #79]
  91 0088 2AE0     		b	.L6
  92              	.L10:
  93 008a 07F11403 		add	r3, r7, #20
  94 008e 1946     		mov	r1, r3
  95 0090 F868     		ldr	r0, [r7, #12]
  96 0092 FFF7FEFF 		bl	VL53L0X_PerformSingleRangingMeasurement
  97 0096 0346     		mov	r3, r0
  98 0098 87F85F30 		strb	r3, [r7, #95]
  99 009c 97F95F30 		ldrsb	r3, [r7, #95]
 100 00a0 002B     		cmp	r3, #0
 101 00a2 22D1     		bne	.L17
 102 00a4 97F82C30 		ldrb	r3, [r7, #44]	@ zero_extendqisi2
 103 00a8 002B     		cmp	r3, #0
 104 00aa 14D1     		bne	.L9
 105 00ac BA8B     		ldrh	r2, [r7, #28]
 106 00ae B7F85C30 		ldrh	r3, [r7, #92]	@ movhi
 107 00b2 1344     		add	r3, r3, r2
 108 00b4 A7F85C30 		strh	r3, [r7, #92]	@ movhi
 109 00b8 3B6A     		ldr	r3, [r7, #32]
 110 00ba 7A6D     		ldr	r2, [r7, #84]
 111 00bc 1344     		add	r3, r3, r2
 112 00be 7B65     		str	r3, [r7, #84]
 113 00c0 3B8D     		ldrh	r3, [r7, #40]
 114 00c2 1B0A     		lsrs	r3, r3, #8
ARM GAS  /var/folders/d2/nstgp4h54kz7g1l847x_b8wc0000gn/T//ccHw3j0C.s 			page 3


 115 00c4 9AB2     		uxth	r2, r3
 116 00c6 B7F85A30 		ldrh	r3, [r7, #90]	@ movhi
 117 00ca 1344     		add	r3, r3, r2
 118 00cc A7F85A30 		strh	r3, [r7, #90]	@ movhi
 119 00d0 3B6D     		ldr	r3, [r7, #80]
 120 00d2 0133     		adds	r3, r3, #1
 121 00d4 3B65     		str	r3, [r7, #80]
 122              	.L9:
 123 00d6 97F84F30 		ldrb	r3, [r7, #79]	@ zero_extendqisi2
 124 00da 0133     		adds	r3, r3, #1
 125 00dc 87F84F30 		strb	r3, [r7, #79]
 126              	.L6:
 127 00e0 97F84F30 		ldrb	r3, [r7, #79]	@ zero_extendqisi2
 128 00e4 312B     		cmp	r3, #49
 129 00e6 D0D9     		bls	.L10
 130 00e8 00E0     		b	.L8
 131              	.L17:
 132 00ea 00BF     		nop
 133              	.L8:
 134 00ec 3B6D     		ldr	r3, [r7, #80]
 135 00ee 002B     		cmp	r3, #0
 136 00f0 02D1     		bne	.L5
 137 00f2 FA23     		movs	r3, #250
 138 00f4 87F85F30 		strb	r3, [r7, #95]
 139              	.L5:
 140 00f8 97F95F30 		ldrsb	r3, [r7, #95]
 141 00fc 002B     		cmp	r3, #0
 142 00fe 5DD1     		bne	.L11
 143 0100 7A6D     		ldr	r2, [r7, #84]
 144 0102 3B6D     		ldr	r3, [r7, #80]
 145 0104 B2FBF3F3 		udiv	r3, r2, r3
 146 0108 7B64     		str	r3, [r7, #68]
 147 010a B7F85C30 		ldrh	r3, [r7, #92]
 148 010e 1B04     		lsls	r3, r3, #16
 149 0110 1A46     		mov	r2, r3
 150 0112 3B6D     		ldr	r3, [r7, #80]
 151 0114 B2FBF3F3 		udiv	r3, r2, r3
 152 0118 3B64     		str	r3, [r7, #64]
 153 011a B7F85A30 		ldrh	r3, [r7, #90]
 154 011e 1B04     		lsls	r3, r3, #16
 155 0120 1A46     		mov	r2, r3
 156 0122 3B6D     		ldr	r3, [r7, #80]
 157 0124 B2FBF3F3 		udiv	r3, r2, r3
 158 0128 FB63     		str	r3, [r7, #60]
 159 012a FB6B     		ldr	r3, [r7, #60]
 160 012c 03F50043 		add	r3, r3, #32768
 161 0130 1B0C     		lsrs	r3, r3, #16
 162 0132 BB63     		str	r3, [r7, #56]
 163 0134 BB68     		ldr	r3, [r7, #8]
 164 0136 03F50043 		add	r3, r3, #32768
 165 013a 1B0C     		lsrs	r3, r3, #16
 166 013c 7B63     		str	r3, [r7, #52]
 167 013e BB6B     		ldr	r3, [r7, #56]
 168 0140 002B     		cmp	r3, #0
 169 0142 06D0     		beq	.L12
 170 0144 7B6B     		ldr	r3, [r7, #52]
 171 0146 002B     		cmp	r3, #0
ARM GAS  /var/folders/d2/nstgp4h54kz7g1l847x_b8wc0000gn/T//ccHw3j0C.s 			page 4


 172 0148 03D0     		beq	.L12
 173 014a 3A6C     		ldr	r2, [r7, #64]
 174 014c BB68     		ldr	r3, [r7, #8]
 175 014e 9A42     		cmp	r2, r3
 176 0150 02D3     		bcc	.L13
 177              	.L12:
 178 0152 0023     		movs	r3, #0
 179 0154 BB64     		str	r3, [r7, #72]
 180 0156 18E0     		b	.L14
 181              	.L13:
 182 0158 BB68     		ldr	r3, [r7, #8]
 183 015a 03F50043 		add	r3, r3, #32768
 184 015e 1B0C     		lsrs	r3, r3, #16
 185 0160 7B63     		str	r3, [r7, #52]
 186 0162 7A6C     		ldr	r2, [r7, #68]
 187 0164 BB6B     		ldr	r3, [r7, #56]
 188 0166 B2FBF3F3 		udiv	r3, r2, r3
 189 016a 3B63     		str	r3, [r7, #48]
 190 016c 3A6C     		ldr	r2, [r7, #64]
 191 016e 7B6B     		ldr	r3, [r7, #52]
 192 0170 B2FBF3F3 		udiv	r3, r2, r3
 193 0174 C3F58032 		rsb	r2, r3, #65536
 194 0178 3B6B     		ldr	r3, [r7, #48]
 195 017a 02FB03F3 		mul	r3, r2, r3
 196 017e 3B63     		str	r3, [r7, #48]
 197 0180 3B6B     		ldr	r3, [r7, #48]
 198 0182 03F50043 		add	r3, r3, #32768
 199 0186 1B0C     		lsrs	r3, r3, #16
 200 0188 BB64     		str	r3, [r7, #72]
 201              	.L14:
 202 018a 7B68     		ldr	r3, [r7, #4]
 203 018c BA6C     		ldr	r2, [r7, #72]
 204 018e 1A60     		str	r2, [r3]
 205 0190 97F95F30 		ldrsb	r3, [r7, #95]
 206 0194 002B     		cmp	r3, #0
 207 0196 06D1     		bne	.L15
 208 0198 0121     		movs	r1, #1
 209 019a F868     		ldr	r0, [r7, #12]
 210 019c FFF7FEFF 		bl	VL53L0X_SetXTalkCompensationEnable
 211 01a0 0346     		mov	r3, r0
 212 01a2 87F85F30 		strb	r3, [r7, #95]
 213              	.L15:
 214 01a6 97F95F30 		ldrsb	r3, [r7, #95]
 215 01aa 002B     		cmp	r3, #0
 216 01ac 06D1     		bne	.L11
 217 01ae B96C     		ldr	r1, [r7, #72]
 218 01b0 F868     		ldr	r0, [r7, #12]
 219 01b2 FFF7FEFF 		bl	VL53L0X_SetXTalkCompensationRateMegaCps
 220 01b6 0346     		mov	r3, r0
 221 01b8 87F85F30 		strb	r3, [r7, #95]
 222              	.L11:
 223 01bc 97F95F30 		ldrsb	r3, [r7, #95]
 224 01c0 1846     		mov	r0, r3
 225 01c2 6037     		adds	r7, r7, #96
 226 01c4 BD46     		mov	sp, r7
 227              		@ sp needed
 228 01c6 80BD     		pop	{r7, pc}
ARM GAS  /var/folders/d2/nstgp4h54kz7g1l847x_b8wc0000gn/T//ccHw3j0C.s 			page 5


 229              		.size	VL53L0X_perform_xtalk_calibration, .-VL53L0X_perform_xtalk_calibration
 230              		.section	.text.VL53L0X_perform_offset_calibration,"ax",%progbits
 231              		.align	1
 232              		.global	VL53L0X_perform_offset_calibration
 233              		.syntax unified
 234              		.thumb
 235              		.thumb_func
 236              		.fpu fpv4-sp-d16
 237              		.type	VL53L0X_perform_offset_calibration, %function
 238              	VL53L0X_perform_offset_calibration:
 239              		@ args = 0, pretend = 0, frame = 72
 240              		@ frame_needed = 1, uses_anonymous_args = 0
 241 0000 80B5     		push	{r7, lr}
 242 0002 92B0     		sub	sp, sp, #72
 243 0004 00AF     		add	r7, sp, #0
 244 0006 F860     		str	r0, [r7, #12]
 245 0008 B960     		str	r1, [r7, #8]
 246 000a 7A60     		str	r2, [r7, #4]
 247 000c 0023     		movs	r3, #0
 248 000e 87F84730 		strb	r3, [r7, #71]
 249 0012 0023     		movs	r3, #0
 250 0014 A7F84430 		strh	r3, [r7, #68]	@ movhi
 251 0018 0023     		movs	r3, #0
 252 001a 3B64     		str	r3, [r7, #64]
 253 001c 0023     		movs	r3, #0
 254 001e FB63     		str	r3, [r7, #60]
 255 0020 BB68     		ldr	r3, [r7, #8]
 256 0022 002B     		cmp	r3, #0
 257 0024 02D1     		bne	.L19
 258 0026 FC23     		movs	r3, #252
 259 0028 87F84730 		strb	r3, [r7, #71]
 260              	.L19:
 261 002c 97F94730 		ldrsb	r3, [r7, #71]
 262 0030 002B     		cmp	r3, #0
 263 0032 06D1     		bne	.L20
 264 0034 0021     		movs	r1, #0
 265 0036 F868     		ldr	r0, [r7, #12]
 266 0038 FFF7FEFF 		bl	VL53L0X_SetOffsetCalibrationDataMicroMeter
 267 003c 0346     		mov	r3, r0
 268 003e 87F84730 		strb	r3, [r7, #71]
 269              	.L20:
 270 0042 97F94730 		ldrsb	r3, [r7, #71]
 271 0046 002B     		cmp	r3, #0
 272 0048 09D1     		bne	.L21
 273 004a 07F11303 		add	r3, r7, #19
 274 004e 1A46     		mov	r2, r3
 275 0050 0021     		movs	r1, #0
 276 0052 F868     		ldr	r0, [r7, #12]
 277 0054 FFF7FEFF 		bl	VL53L0X_GetSequenceStepEnable
 278 0058 0346     		mov	r3, r0
 279 005a 87F84730 		strb	r3, [r7, #71]
 280              	.L21:
 281 005e 97F94730 		ldrsb	r3, [r7, #71]
 282 0062 002B     		cmp	r3, #0
 283 0064 07D1     		bne	.L22
 284 0066 0022     		movs	r2, #0
 285 0068 0021     		movs	r1, #0
ARM GAS  /var/folders/d2/nstgp4h54kz7g1l847x_b8wc0000gn/T//ccHw3j0C.s 			page 6


 286 006a F868     		ldr	r0, [r7, #12]
 287 006c FFF7FEFF 		bl	VL53L0X_SetSequenceStepEnable
 288 0070 0346     		mov	r3, r0
 289 0072 87F84730 		strb	r3, [r7, #71]
 290              	.L22:
 291 0076 97F94730 		ldrsb	r3, [r7, #71]
 292 007a 002B     		cmp	r3, #0
 293 007c 07D1     		bne	.L23
 294 007e 0022     		movs	r2, #0
 295 0080 0321     		movs	r1, #3
 296 0082 F868     		ldr	r0, [r7, #12]
 297 0084 FFF7FEFF 		bl	VL53L0X_SetLimitCheckEnable
 298 0088 0346     		mov	r3, r0
 299 008a 87F84730 		strb	r3, [r7, #71]
 300              	.L23:
 301 008e 97F94730 		ldrsb	r3, [r7, #71]
 302 0092 002B     		cmp	r3, #0
 303 0094 2FD1     		bne	.L24
 304 0096 0023     		movs	r3, #0
 305 0098 A7F84430 		strh	r3, [r7, #68]	@ movhi
 306 009c 0023     		movs	r3, #0
 307 009e 3B64     		str	r3, [r7, #64]
 308 00a0 0023     		movs	r3, #0
 309 00a2 FB63     		str	r3, [r7, #60]
 310 00a4 1CE0     		b	.L25
 311              	.L29:
 312 00a6 07F11403 		add	r3, r7, #20
 313 00aa 1946     		mov	r1, r3
 314 00ac F868     		ldr	r0, [r7, #12]
 315 00ae FFF7FEFF 		bl	VL53L0X_PerformSingleRangingMeasurement
 316 00b2 0346     		mov	r3, r0
 317 00b4 87F84730 		strb	r3, [r7, #71]
 318 00b8 97F94730 		ldrsb	r3, [r7, #71]
 319 00bc 002B     		cmp	r3, #0
 320 00be 13D1     		bne	.L33
 321 00c0 97F82C30 		ldrb	r3, [r7, #44]	@ zero_extendqisi2
 322 00c4 002B     		cmp	r3, #0
 323 00c6 08D1     		bne	.L28
 324 00c8 BA8B     		ldrh	r2, [r7, #28]
 325 00ca B7F84430 		ldrh	r3, [r7, #68]	@ movhi
 326 00ce 1344     		add	r3, r3, r2
 327 00d0 A7F84430 		strh	r3, [r7, #68]	@ movhi
 328 00d4 3B6C     		ldr	r3, [r7, #64]
 329 00d6 0133     		adds	r3, r3, #1
 330 00d8 3B64     		str	r3, [r7, #64]
 331              	.L28:
 332 00da FB6B     		ldr	r3, [r7, #60]
 333 00dc 0133     		adds	r3, r3, #1
 334 00de FB63     		str	r3, [r7, #60]
 335              	.L25:
 336 00e0 FB6B     		ldr	r3, [r7, #60]
 337 00e2 312B     		cmp	r3, #49
 338 00e4 DFDD     		ble	.L29
 339 00e6 00E0     		b	.L27
 340              	.L33:
 341 00e8 00BF     		nop
 342              	.L27:
ARM GAS  /var/folders/d2/nstgp4h54kz7g1l847x_b8wc0000gn/T//ccHw3j0C.s 			page 7


 343 00ea 3B6C     		ldr	r3, [r7, #64]
 344 00ec 002B     		cmp	r3, #0
 345 00ee 02D1     		bne	.L24
 346 00f0 FA23     		movs	r3, #250
 347 00f2 87F84730 		strb	r3, [r7, #71]
 348              	.L24:
 349 00f6 97F94730 		ldrsb	r3, [r7, #71]
 350 00fa 002B     		cmp	r3, #0
 351 00fc 2CD1     		bne	.L30
 352 00fe B7F84430 		ldrh	r3, [r7, #68]
 353 0102 1B04     		lsls	r3, r3, #16
 354 0104 1A46     		mov	r2, r3
 355 0106 3B6C     		ldr	r3, [r7, #64]
 356 0108 B2FBF3F3 		udiv	r3, r2, r3
 357 010c BB63     		str	r3, [r7, #56]
 358 010e BB6B     		ldr	r3, [r7, #56]
 359 0110 03F50043 		add	r3, r3, #32768
 360 0114 1B0C     		lsrs	r3, r3, #16
 361 0116 7B63     		str	r3, [r7, #52]
 362 0118 BB68     		ldr	r3, [r7, #8]
 363 011a 03F50043 		add	r3, r3, #32768
 364 011e 1B0C     		lsrs	r3, r3, #16
 365 0120 3B63     		str	r3, [r7, #48]
 366 0122 3A6B     		ldr	r2, [r7, #48]
 367 0124 7B6B     		ldr	r3, [r7, #52]
 368 0126 D31A     		subs	r3, r2, r3
 369 0128 4FF47A72 		mov	r2, #1000
 370 012c 02FB03F3 		mul	r3, r2, r3
 371 0130 1A46     		mov	r2, r3
 372 0132 7B68     		ldr	r3, [r7, #4]
 373 0134 1A60     		str	r2, [r3]
 374 0136 97F94730 		ldrsb	r3, [r7, #71]
 375 013a 002B     		cmp	r3, #0
 376 013c 0CD1     		bne	.L30
 377 013e 7B68     		ldr	r3, [r7, #4]
 378 0140 1A68     		ldr	r2, [r3]
 379 0142 FB68     		ldr	r3, [r7, #12]
 380 0144 5A62     		str	r2, [r3, #36]
 381 0146 7B68     		ldr	r3, [r7, #4]
 382 0148 1B68     		ldr	r3, [r3]
 383 014a 1946     		mov	r1, r3
 384 014c F868     		ldr	r0, [r7, #12]
 385 014e FFF7FEFF 		bl	VL53L0X_SetOffsetCalibrationDataMicroMeter
 386 0152 0346     		mov	r3, r0
 387 0154 87F84730 		strb	r3, [r7, #71]
 388              	.L30:
 389 0158 97F94730 		ldrsb	r3, [r7, #71]
 390 015c 002B     		cmp	r3, #0
 391 015e 0AD1     		bne	.L31
 392 0160 FB7C     		ldrb	r3, [r7, #19]	@ zero_extendqisi2
 393 0162 002B     		cmp	r3, #0
 394 0164 07D0     		beq	.L31
 395 0166 0122     		movs	r2, #1
 396 0168 0021     		movs	r1, #0
 397 016a F868     		ldr	r0, [r7, #12]
 398 016c FFF7FEFF 		bl	VL53L0X_SetSequenceStepEnable
 399 0170 0346     		mov	r3, r0
ARM GAS  /var/folders/d2/nstgp4h54kz7g1l847x_b8wc0000gn/T//ccHw3j0C.s 			page 8


 400 0172 87F84730 		strb	r3, [r7, #71]
 401              	.L31:
 402 0176 97F94730 		ldrsb	r3, [r7, #71]
 403 017a 1846     		mov	r0, r3
 404 017c 4837     		adds	r7, r7, #72
 405 017e BD46     		mov	sp, r7
 406              		@ sp needed
 407 0180 80BD     		pop	{r7, pc}
 408              		.size	VL53L0X_perform_offset_calibration, .-VL53L0X_perform_offset_calibration
 409              		.section	.text.VL53L0X_set_offset_calibration_data_micro_meter,"ax",%progbits
 410              		.align	1
 411              		.global	VL53L0X_set_offset_calibration_data_micro_meter
 412              		.syntax unified
 413              		.thumb
 414              		.thumb_func
 415              		.fpu fpv4-sp-d16
 416              		.type	VL53L0X_set_offset_calibration_data_micro_meter, %function
 417              	VL53L0X_set_offset_calibration_data_micro_meter:
 418              		@ args = 0, pretend = 0, frame = 32
 419              		@ frame_needed = 1, uses_anonymous_args = 0
 420 0000 80B5     		push	{r7, lr}
 421 0002 88B0     		sub	sp, sp, #32
 422 0004 00AF     		add	r7, sp, #0
 423 0006 7860     		str	r0, [r7, #4]
 424 0008 3960     		str	r1, [r7]
 425 000a 0023     		movs	r3, #0
 426 000c FB76     		strb	r3, [r7, #27]
 427 000e 1D4B     		ldr	r3, .L40
 428 0010 7B61     		str	r3, [r7, #20]
 429 0012 1D4B     		ldr	r3, .L40+4
 430 0014 3B61     		str	r3, [r7, #16]
 431 0016 4FF48053 		mov	r3, #4096
 432 001a FB81     		strh	r3, [r7, #14]	@ movhi
 433 001c 3A68     		ldr	r2, [r7]
 434 001e 7B69     		ldr	r3, [r7, #20]
 435 0020 9A42     		cmp	r2, r3
 436 0022 02DD     		ble	.L35
 437 0024 7B69     		ldr	r3, [r7, #20]
 438 0026 3B60     		str	r3, [r7]
 439 0028 05E0     		b	.L36
 440              	.L35:
 441 002a 3A68     		ldr	r2, [r7]
 442 002c 3B69     		ldr	r3, [r7, #16]
 443 002e 9A42     		cmp	r2, r3
 444 0030 01DA     		bge	.L36
 445 0032 3B69     		ldr	r3, [r7, #16]
 446 0034 3B60     		str	r3, [r7]
 447              	.L36:
 448 0036 3B68     		ldr	r3, [r7]
 449 0038 002B     		cmp	r3, #0
 450 003a 08DB     		blt	.L37
 451 003c 3B68     		ldr	r3, [r7]
 452 003e 134A     		ldr	r2, .L40+8
 453 0040 82FB0312 		smull	r1, r2, r2, r3
 454 0044 1211     		asrs	r2, r2, #4
 455 0046 DB17     		asrs	r3, r3, #31
 456 0048 D31A     		subs	r3, r2, r3
ARM GAS  /var/folders/d2/nstgp4h54kz7g1l847x_b8wc0000gn/T//ccHw3j0C.s 			page 9


 457 004a FB61     		str	r3, [r7, #28]
 458 004c 0AE0     		b	.L38
 459              	.L37:
 460 004e B7F90E20 		ldrsh	r2, [r7, #14]
 461 0052 3B68     		ldr	r3, [r7]
 462 0054 0D49     		ldr	r1, .L40+8
 463 0056 81FB0301 		smull	r0, r1, r1, r3
 464 005a 0911     		asrs	r1, r1, #4
 465 005c DB17     		asrs	r3, r3, #31
 466 005e CB1A     		subs	r3, r1, r3
 467 0060 1344     		add	r3, r3, r2
 468 0062 FB61     		str	r3, [r7, #28]
 469              	.L38:
 470 0064 FB69     		ldr	r3, [r7, #28]
 471 0066 9BB2     		uxth	r3, r3
 472 0068 1A46     		mov	r2, r3
 473 006a 2821     		movs	r1, #40
 474 006c 7868     		ldr	r0, [r7, #4]
 475 006e FFF7FEFF 		bl	VL53L0X_WrWord
 476 0072 0346     		mov	r3, r0
 477 0074 FB76     		strb	r3, [r7, #27]
 478 0076 97F91B30 		ldrsb	r3, [r7, #27]
 479 007a 1846     		mov	r0, r3
 480 007c 2037     		adds	r7, r7, #32
 481 007e BD46     		mov	sp, r7
 482              		@ sp needed
 483 0080 80BD     		pop	{r7, pc}
 484              	.L41:
 485 0082 00BF     		.align	2
 486              	.L40:
 487 0084 18CC0700 		.word	511000
 488 0088 0030F8FF 		.word	-512000
 489 008c D34D6210 		.word	274877907
 490              		.size	VL53L0X_set_offset_calibration_data_micro_meter, .-VL53L0X_set_offset_calibration_data_micro
 491              		.section	.text.VL53L0X_get_offset_calibration_data_micro_meter,"ax",%progbits
 492              		.align	1
 493              		.global	VL53L0X_get_offset_calibration_data_micro_meter
 494              		.syntax unified
 495              		.thumb
 496              		.thumb_func
 497              		.fpu fpv4-sp-d16
 498              		.type	VL53L0X_get_offset_calibration_data_micro_meter, %function
 499              	VL53L0X_get_offset_calibration_data_micro_meter:
 500              		@ args = 0, pretend = 0, frame = 16
 501              		@ frame_needed = 1, uses_anonymous_args = 0
 502 0000 80B5     		push	{r7, lr}
 503 0002 84B0     		sub	sp, sp, #16
 504 0004 00AF     		add	r7, sp, #0
 505 0006 7860     		str	r0, [r7, #4]
 506 0008 3960     		str	r1, [r7]
 507 000a 0023     		movs	r3, #0
 508 000c FB73     		strb	r3, [r7, #15]
 509 000e 40F2FF73 		movw	r3, #2047
 510 0012 BB81     		strh	r3, [r7, #12]	@ movhi
 511 0014 4FF48053 		mov	r3, #4096
 512 0018 7B81     		strh	r3, [r7, #10]	@ movhi
 513 001a 07F10803 		add	r3, r7, #8
ARM GAS  /var/folders/d2/nstgp4h54kz7g1l847x_b8wc0000gn/T//ccHw3j0C.s 			page 10


 514 001e 1A46     		mov	r2, r3
 515 0020 2821     		movs	r1, #40
 516 0022 7868     		ldr	r0, [r7, #4]
 517 0024 FFF7FEFF 		bl	VL53L0X_RdWord
 518 0028 0346     		mov	r3, r0
 519 002a FB73     		strb	r3, [r7, #15]
 520 002c 97F90F30 		ldrsb	r3, [r7, #15]
 521 0030 002B     		cmp	r3, #0
 522 0032 1ED1     		bne	.L43
 523 0034 3B89     		ldrh	r3, [r7, #8]
 524 0036 C3F30B03 		ubfx	r3, r3, #0, #12
 525 003a 9BB2     		uxth	r3, r3
 526 003c 3B81     		strh	r3, [r7, #8]	@ movhi
 527 003e 3B89     		ldrh	r3, [r7, #8]
 528 0040 1A46     		mov	r2, r3
 529 0042 B7F90C30 		ldrsh	r3, [r7, #12]
 530 0046 9A42     		cmp	r2, r3
 531 0048 0BDD     		ble	.L44
 532 004a 3A89     		ldrh	r2, [r7, #8]
 533 004c 7B89     		ldrh	r3, [r7, #10]
 534 004e D31A     		subs	r3, r2, r3
 535 0050 9BB2     		uxth	r3, r3
 536 0052 1BB2     		sxth	r3, r3
 537 0054 1A46     		mov	r2, r3
 538 0056 FA23     		movs	r3, #250
 539 0058 03FB02F2 		mul	r2, r3, r2
 540 005c 3B68     		ldr	r3, [r7]
 541 005e 1A60     		str	r2, [r3]
 542 0060 07E0     		b	.L43
 543              	.L44:
 544 0062 3B89     		ldrh	r3, [r7, #8]
 545 0064 1BB2     		sxth	r3, r3
 546 0066 1A46     		mov	r2, r3
 547 0068 FA23     		movs	r3, #250
 548 006a 03FB02F2 		mul	r2, r3, r2
 549 006e 3B68     		ldr	r3, [r7]
 550 0070 1A60     		str	r2, [r3]
 551              	.L43:
 552 0072 97F90F30 		ldrsb	r3, [r7, #15]
 553 0076 1846     		mov	r0, r3
 554 0078 1037     		adds	r7, r7, #16
 555 007a BD46     		mov	sp, r7
 556              		@ sp needed
 557 007c 80BD     		pop	{r7, pc}
 558              		.size	VL53L0X_get_offset_calibration_data_micro_meter, .-VL53L0X_get_offset_calibration_data_micro
 559              		.section	.text.VL53L0X_apply_offset_adjustment,"ax",%progbits
 560              		.align	1
 561              		.global	VL53L0X_apply_offset_adjustment
 562              		.syntax unified
 563              		.thumb
 564              		.thumb_func
 565              		.fpu fpv4-sp-d16
 566              		.type	VL53L0X_apply_offset_adjustment, %function
 567              	VL53L0X_apply_offset_adjustment:
 568              		@ args = 0, pretend = 0, frame = 24
 569              		@ frame_needed = 1, uses_anonymous_args = 0
 570 0000 80B5     		push	{r7, lr}
ARM GAS  /var/folders/d2/nstgp4h54kz7g1l847x_b8wc0000gn/T//ccHw3j0C.s 			page 11


 571 0002 86B0     		sub	sp, sp, #24
 572 0004 00AF     		add	r7, sp, #0
 573 0006 7860     		str	r0, [r7, #4]
 574 0008 0023     		movs	r3, #0
 575 000a FB75     		strb	r3, [r7, #23]
 576 000c 0721     		movs	r1, #7
 577 000e 7868     		ldr	r0, [r7, #4]
 578 0010 FFF7FEFF 		bl	VL53L0X_get_info_from_device
 579 0014 0346     		mov	r3, r0
 580 0016 FB75     		strb	r3, [r7, #23]
 581 0018 97F91730 		ldrsb	r3, [r7, #23]
 582 001c 002B     		cmp	r3, #0
 583 001e 07D1     		bne	.L47
 584 0020 07F10C03 		add	r3, r7, #12
 585 0024 1946     		mov	r1, r3
 586 0026 7868     		ldr	r0, [r7, #4]
 587 0028 FFF7FEFF 		bl	VL53L0X_GetOffsetCalibrationDataMicroMeter
 588 002c 0346     		mov	r3, r0
 589 002e FB75     		strb	r3, [r7, #23]
 590              	.L47:
 591 0030 97F91730 		ldrsb	r3, [r7, #23]
 592 0034 002B     		cmp	r3, #0
 593 0036 14D1     		bne	.L48
 594 0038 FA68     		ldr	r2, [r7, #12]
 595 003a 7B68     		ldr	r3, [r7, #4]
 596 003c 9A60     		str	r2, [r3, #8]
 597 003e 7B68     		ldr	r3, [r7, #4]
 598 0040 DA68     		ldr	r2, [r3, #12]
 599 0042 FB68     		ldr	r3, [r7, #12]
 600 0044 1344     		add	r3, r3, r2
 601 0046 3B61     		str	r3, [r7, #16]
 602 0048 3969     		ldr	r1, [r7, #16]
 603 004a 7868     		ldr	r0, [r7, #4]
 604 004c FFF7FEFF 		bl	VL53L0X_SetOffsetCalibrationDataMicroMeter
 605 0050 0346     		mov	r3, r0
 606 0052 FB75     		strb	r3, [r7, #23]
 607 0054 97F91730 		ldrsb	r3, [r7, #23]
 608 0058 002B     		cmp	r3, #0
 609 005a 02D1     		bne	.L48
 610 005c 7B68     		ldr	r3, [r7, #4]
 611 005e 3A69     		ldr	r2, [r7, #16]
 612 0060 5A62     		str	r2, [r3, #36]
 613              	.L48:
 614 0062 97F91730 		ldrsb	r3, [r7, #23]
 615 0066 1846     		mov	r0, r3
 616 0068 1837     		adds	r7, r7, #24
 617 006a BD46     		mov	sp, r7
 618              		@ sp needed
 619 006c 80BD     		pop	{r7, pc}
 620              		.size	VL53L0X_apply_offset_adjustment, .-VL53L0X_apply_offset_adjustment
 621              		.section	.text.get_next_good_spad,"ax",%progbits
 622              		.align	1
 623              		.global	get_next_good_spad
 624              		.syntax unified
 625              		.thumb
 626              		.thumb_func
 627              		.fpu fpv4-sp-d16
ARM GAS  /var/folders/d2/nstgp4h54kz7g1l847x_b8wc0000gn/T//ccHw3j0C.s 			page 12


 628              		.type	get_next_good_spad, %function
 629              	get_next_good_spad:
 630              		@ args = 0, pretend = 0, frame = 40
 631              		@ frame_needed = 1, uses_anonymous_args = 0
 632              		@ link register save eliminated.
 633 0000 80B4     		push	{r7}
 634 0002 8BB0     		sub	sp, sp, #44
 635 0004 00AF     		add	r7, sp, #0
 636 0006 F860     		str	r0, [r7, #12]
 637 0008 B960     		str	r1, [r7, #8]
 638 000a 7A60     		str	r2, [r7, #4]
 639 000c 3B60     		str	r3, [r7]
 640 000e 0823     		movs	r3, #8
 641 0010 BB61     		str	r3, [r7, #24]
 642 0012 0023     		movs	r3, #0
 643 0014 BB77     		strb	r3, [r7, #30]
 644 0016 3B68     		ldr	r3, [r7]
 645 0018 4FF0FF32 		mov	r2, #-1
 646 001c 1A60     		str	r2, [r3]
 647 001e 7A68     		ldr	r2, [r7, #4]
 648 0020 BB69     		ldr	r3, [r7, #24]
 649 0022 B2FBF3F3 		udiv	r3, r2, r3
 650 0026 7B61     		str	r3, [r7, #20]
 651 0028 7B68     		ldr	r3, [r7, #4]
 652 002a BA69     		ldr	r2, [r7, #24]
 653 002c B3FBF2F2 		udiv	r2, r3, r2
 654 0030 B969     		ldr	r1, [r7, #24]
 655 0032 01FB02F2 		mul	r2, r1, r2
 656 0036 9B1A     		subs	r3, r3, r2
 657 0038 3B61     		str	r3, [r7, #16]
 658 003a 7B69     		ldr	r3, [r7, #20]
 659 003c 7B62     		str	r3, [r7, #36]
 660 003e 30E0     		b	.L51
 661              	.L58:
 662 0040 0023     		movs	r3, #0
 663 0042 3B62     		str	r3, [r7, #32]
 664 0044 FA68     		ldr	r2, [r7, #12]
 665 0046 7B6A     		ldr	r3, [r7, #36]
 666 0048 1344     		add	r3, r3, r2
 667 004a 1B78     		ldrb	r3, [r3]
 668 004c FB77     		strb	r3, [r7, #31]
 669 004e 7A6A     		ldr	r2, [r7, #36]
 670 0050 7B69     		ldr	r3, [r7, #20]
 671 0052 9A42     		cmp	r2, r3
 672 0054 1ED1     		bne	.L53
 673 0056 FA7F     		ldrb	r2, [r7, #31]	@ zero_extendqisi2
 674 0058 3B69     		ldr	r3, [r7, #16]
 675 005a 42FA03F3 		asr	r3, r2, r3
 676 005e FB77     		strb	r3, [r7, #31]
 677 0060 3B69     		ldr	r3, [r7, #16]
 678 0062 3B62     		str	r3, [r7, #32]
 679 0064 16E0     		b	.L53
 680              	.L56:
 681 0066 FB7F     		ldrb	r3, [r7, #31]	@ zero_extendqisi2
 682 0068 03F00103 		and	r3, r3, #1
 683 006c 002B     		cmp	r3, #0
 684 006e 0BD0     		beq	.L54
ARM GAS  /var/folders/d2/nstgp4h54kz7g1l847x_b8wc0000gn/T//ccHw3j0C.s 			page 13


 685 0070 0123     		movs	r3, #1
 686 0072 BB77     		strb	r3, [r7, #30]
 687 0074 7B6A     		ldr	r3, [r7, #36]
 688 0076 BA69     		ldr	r2, [r7, #24]
 689 0078 02FB03F2 		mul	r2, r2, r3
 690 007c 3B6A     		ldr	r3, [r7, #32]
 691 007e 1344     		add	r3, r3, r2
 692 0080 1A46     		mov	r2, r3
 693 0082 3B68     		ldr	r3, [r7]
 694 0084 1A60     		str	r2, [r3]
 695 0086 09E0     		b	.L55
 696              	.L54:
 697 0088 FB7F     		ldrb	r3, [r7, #31]	@ zero_extendqisi2
 698 008a 5B08     		lsrs	r3, r3, #1
 699 008c FB77     		strb	r3, [r7, #31]
 700 008e 3B6A     		ldr	r3, [r7, #32]
 701 0090 0133     		adds	r3, r3, #1
 702 0092 3B62     		str	r3, [r7, #32]
 703              	.L53:
 704 0094 3A6A     		ldr	r2, [r7, #32]
 705 0096 BB69     		ldr	r3, [r7, #24]
 706 0098 9A42     		cmp	r2, r3
 707 009a E4D3     		bcc	.L56
 708              	.L55:
 709 009c 7B6A     		ldr	r3, [r7, #36]
 710 009e 0133     		adds	r3, r3, #1
 711 00a0 7B62     		str	r3, [r7, #36]
 712              	.L51:
 713 00a2 7A6A     		ldr	r2, [r7, #36]
 714 00a4 BB68     		ldr	r3, [r7, #8]
 715 00a6 9A42     		cmp	r2, r3
 716 00a8 02D2     		bcs	.L59
 717 00aa BB7F     		ldrb	r3, [r7, #30]	@ zero_extendqisi2
 718 00ac 002B     		cmp	r3, #0
 719 00ae C7D0     		beq	.L58
 720              	.L59:
 721 00b0 00BF     		nop
 722 00b2 2C37     		adds	r7, r7, #44
 723 00b4 BD46     		mov	sp, r7
 724              		@ sp needed
 725 00b6 5DF8047B 		ldr	r7, [sp], #4
 726 00ba 7047     		bx	lr
 727              		.size	get_next_good_spad, .-get_next_good_spad
 728              		.section	.text.is_aperture,"ax",%progbits
 729              		.align	1
 730              		.global	is_aperture
 731              		.syntax unified
 732              		.thumb
 733              		.thumb_func
 734              		.fpu fpv4-sp-d16
 735              		.type	is_aperture, %function
 736              	is_aperture:
 737              		@ args = 0, pretend = 0, frame = 16
 738              		@ frame_needed = 1, uses_anonymous_args = 0
 739              		@ link register save eliminated.
 740 0000 80B4     		push	{r7}
 741 0002 85B0     		sub	sp, sp, #20
ARM GAS  /var/folders/d2/nstgp4h54kz7g1l847x_b8wc0000gn/T//ccHw3j0C.s 			page 14


 742 0004 00AF     		add	r7, sp, #0
 743 0006 7860     		str	r0, [r7, #4]
 744 0008 0123     		movs	r3, #1
 745 000a FB73     		strb	r3, [r7, #15]
 746 000c 7B68     		ldr	r3, [r7, #4]
 747 000e 9B09     		lsrs	r3, r3, #6
 748 0010 BB60     		str	r3, [r7, #8]
 749 0012 074A     		ldr	r2, .L63
 750 0014 BB68     		ldr	r3, [r7, #8]
 751 0016 52F82330 		ldr	r3, [r2, r3, lsl #2]
 752 001a 002B     		cmp	r3, #0
 753 001c 01D1     		bne	.L61
 754 001e 0023     		movs	r3, #0
 755 0020 FB73     		strb	r3, [r7, #15]
 756              	.L61:
 757 0022 FB7B     		ldrb	r3, [r7, #15]	@ zero_extendqisi2
 758 0024 1846     		mov	r0, r3
 759 0026 1437     		adds	r7, r7, #20
 760 0028 BD46     		mov	sp, r7
 761              		@ sp needed
 762 002a 5DF8047B 		ldr	r7, [sp], #4
 763 002e 7047     		bx	lr
 764              	.L64:
 765              		.align	2
 766              	.L63:
 767 0030 00000000 		.word	refArrayQuadrants
 768              		.size	is_aperture, .-is_aperture
 769              		.section	.text.enable_spad_bit,"ax",%progbits
 770              		.align	1
 771              		.global	enable_spad_bit
 772              		.syntax unified
 773              		.thumb
 774              		.thumb_func
 775              		.fpu fpv4-sp-d16
 776              		.type	enable_spad_bit, %function
 777              	enable_spad_bit:
 778              		@ args = 0, pretend = 0, frame = 32
 779              		@ frame_needed = 1, uses_anonymous_args = 0
 780              		@ link register save eliminated.
 781 0000 80B4     		push	{r7}
 782 0002 89B0     		sub	sp, sp, #36
 783 0004 00AF     		add	r7, sp, #0
 784 0006 F860     		str	r0, [r7, #12]
 785 0008 B960     		str	r1, [r7, #8]
 786 000a 7A60     		str	r2, [r7, #4]
 787 000c 0023     		movs	r3, #0
 788 000e FB77     		strb	r3, [r7, #31]
 789 0010 0823     		movs	r3, #8
 790 0012 BB61     		str	r3, [r7, #24]
 791 0014 7A68     		ldr	r2, [r7, #4]
 792 0016 BB69     		ldr	r3, [r7, #24]
 793 0018 B2FBF3F3 		udiv	r3, r2, r3
 794 001c 7B61     		str	r3, [r7, #20]
 795 001e 7B68     		ldr	r3, [r7, #4]
 796 0020 BA69     		ldr	r2, [r7, #24]
 797 0022 B3FBF2F2 		udiv	r2, r3, r2
 798 0026 B969     		ldr	r1, [r7, #24]
ARM GAS  /var/folders/d2/nstgp4h54kz7g1l847x_b8wc0000gn/T//ccHw3j0C.s 			page 15


 799 0028 01FB02F2 		mul	r2, r1, r2
 800 002c 9B1A     		subs	r3, r3, r2
 801 002e 3B61     		str	r3, [r7, #16]
 802 0030 7A69     		ldr	r2, [r7, #20]
 803 0032 BB68     		ldr	r3, [r7, #8]
 804 0034 9A42     		cmp	r2, r3
 805 0036 02D3     		bcc	.L66
 806 0038 CE23     		movs	r3, #206
 807 003a FB77     		strb	r3, [r7, #31]
 808 003c 10E0     		b	.L67
 809              	.L66:
 810 003e FA68     		ldr	r2, [r7, #12]
 811 0040 7B69     		ldr	r3, [r7, #20]
 812 0042 1344     		add	r3, r3, r2
 813 0044 1B78     		ldrb	r3, [r3]	@ zero_extendqisi2
 814 0046 5AB2     		sxtb	r2, r3
 815 0048 0121     		movs	r1, #1
 816 004a 3B69     		ldr	r3, [r7, #16]
 817 004c 01FA03F3 		lsl	r3, r1, r3
 818 0050 5BB2     		sxtb	r3, r3
 819 0052 1343     		orrs	r3, r3, r2
 820 0054 59B2     		sxtb	r1, r3
 821 0056 FA68     		ldr	r2, [r7, #12]
 822 0058 7B69     		ldr	r3, [r7, #20]
 823 005a 1344     		add	r3, r3, r2
 824 005c CAB2     		uxtb	r2, r1
 825 005e 1A70     		strb	r2, [r3]
 826              	.L67:
 827 0060 97F91F30 		ldrsb	r3, [r7, #31]
 828 0064 1846     		mov	r0, r3
 829 0066 2437     		adds	r7, r7, #36
 830 0068 BD46     		mov	sp, r7
 831              		@ sp needed
 832 006a 5DF8047B 		ldr	r7, [sp], #4
 833 006e 7047     		bx	lr
 834              		.size	enable_spad_bit, .-enable_spad_bit
 835              		.section	.text.count_enabled_spads,"ax",%progbits
 836              		.align	1
 837              		.global	count_enabled_spads
 838              		.syntax unified
 839              		.thumb
 840              		.thumb_func
 841              		.fpu fpv4-sp-d16
 842              		.type	count_enabled_spads, %function
 843              	count_enabled_spads:
 844              		@ args = 4, pretend = 0, frame = 48
 845              		@ frame_needed = 1, uses_anonymous_args = 0
 846              		@ link register save eliminated.
 847 0000 80B4     		push	{r7}
 848 0002 8DB0     		sub	sp, sp, #52
 849 0004 00AF     		add	r7, sp, #0
 850 0006 F860     		str	r0, [r7, #12]
 851 0008 B960     		str	r1, [r7, #8]
 852 000a 7A60     		str	r2, [r7, #4]
 853 000c 3B60     		str	r3, [r7]
 854 000e 0023     		movs	r3, #0
 855 0010 87F82F30 		strb	r3, [r7, #47]
ARM GAS  /var/folders/d2/nstgp4h54kz7g1l847x_b8wc0000gn/T//ccHw3j0C.s 			page 16


 856 0014 0823     		movs	r3, #8
 857 0016 FB61     		str	r3, [r7, #28]
 858 0018 0023     		movs	r3, #0
 859 001a BB62     		str	r3, [r7, #40]
 860 001c 0023     		movs	r3, #0
 861 001e 7B62     		str	r3, [r7, #36]
 862 0020 0023     		movs	r3, #0
 863 0022 87F82230 		strb	r3, [r7, #34]
 864 0026 7A68     		ldr	r2, [r7, #4]
 865 0028 FB69     		ldr	r3, [r7, #28]
 866 002a B2FBF3F3 		udiv	r3, r2, r3
 867 002e BB61     		str	r3, [r7, #24]
 868 0030 7B68     		ldr	r3, [r7, #4]
 869 0032 FA69     		ldr	r2, [r7, #28]
 870 0034 B3FBF2F2 		udiv	r2, r3, r2
 871 0038 F969     		ldr	r1, [r7, #28]
 872 003a 01FB02F2 		mul	r2, r1, r2
 873 003e 9B1A     		subs	r3, r3, r2
 874 0040 7B61     		str	r3, [r7, #20]
 875 0042 BA69     		ldr	r2, [r7, #24]
 876 0044 BB68     		ldr	r3, [r7, #8]
 877 0046 9A42     		cmp	r2, r3
 878 0048 02D3     		bcc	.L70
 879 004a CE23     		movs	r3, #206
 880 004c 87F82F30 		strb	r3, [r7, #47]
 881              	.L70:
 882 0050 3B68     		ldr	r3, [r7]
 883 0052 0022     		movs	r2, #0
 884 0054 1A60     		str	r2, [r3]
 885 0056 0023     		movs	r3, #0
 886 0058 BB62     		str	r3, [r7, #40]
 887 005a 35E0     		b	.L71
 888              	.L76:
 889 005c FA68     		ldr	r2, [r7, #12]
 890 005e BB6A     		ldr	r3, [r7, #40]
 891 0060 1344     		add	r3, r3, r2
 892 0062 1B78     		ldrb	r3, [r3]
 893 0064 87F82330 		strb	r3, [r7, #35]
 894 0068 0023     		movs	r3, #0
 895 006a 7B62     		str	r3, [r7, #36]
 896 006c 25E0     		b	.L72
 897              	.L75:
 898 006e 97F82330 		ldrb	r3, [r7, #35]	@ zero_extendqisi2
 899 0072 03F00103 		and	r3, r3, #1
 900 0076 002B     		cmp	r3, #0
 901 0078 17D0     		beq	.L73
 902 007a 3B68     		ldr	r3, [r7]
 903 007c 1B68     		ldr	r3, [r3]
 904 007e 5A1C     		adds	r2, r3, #1
 905 0080 3B68     		ldr	r3, [r7]
 906 0082 1A60     		str	r2, [r3]
 907 0084 97F82230 		ldrb	r3, [r7, #34]	@ zero_extendqisi2
 908 0088 002B     		cmp	r3, #0
 909 008a 0ED1     		bne	.L73
 910 008c BB6B     		ldr	r3, [r7, #56]
 911 008e 0122     		movs	r2, #1
 912 0090 1A70     		strb	r2, [r3]
ARM GAS  /var/folders/d2/nstgp4h54kz7g1l847x_b8wc0000gn/T//ccHw3j0C.s 			page 17


 913 0092 BB6A     		ldr	r3, [r7, #40]
 914 0094 012B     		cmp	r3, #1
 915 0096 05D8     		bhi	.L74
 916 0098 7B6A     		ldr	r3, [r7, #36]
 917 009a 032B     		cmp	r3, #3
 918 009c 02D8     		bhi	.L74
 919 009e BB6B     		ldr	r3, [r7, #56]
 920 00a0 0022     		movs	r2, #0
 921 00a2 1A70     		strb	r2, [r3]
 922              	.L74:
 923 00a4 0123     		movs	r3, #1
 924 00a6 87F82230 		strb	r3, [r7, #34]
 925              	.L73:
 926 00aa 97F82330 		ldrb	r3, [r7, #35]	@ zero_extendqisi2
 927 00ae 5B08     		lsrs	r3, r3, #1
 928 00b0 87F82330 		strb	r3, [r7, #35]
 929 00b4 7B6A     		ldr	r3, [r7, #36]
 930 00b6 0133     		adds	r3, r3, #1
 931 00b8 7B62     		str	r3, [r7, #36]
 932              	.L72:
 933 00ba 7A6A     		ldr	r2, [r7, #36]
 934 00bc FB69     		ldr	r3, [r7, #28]
 935 00be 9A42     		cmp	r2, r3
 936 00c0 D5D9     		bls	.L75
 937 00c2 BB6A     		ldr	r3, [r7, #40]
 938 00c4 0133     		adds	r3, r3, #1
 939 00c6 BB62     		str	r3, [r7, #40]
 940              	.L71:
 941 00c8 BB69     		ldr	r3, [r7, #24]
 942 00ca 013B     		subs	r3, r3, #1
 943 00cc BA6A     		ldr	r2, [r7, #40]
 944 00ce 9A42     		cmp	r2, r3
 945 00d0 C4D9     		bls	.L76
 946 00d2 FA68     		ldr	r2, [r7, #12]
 947 00d4 BB69     		ldr	r3, [r7, #24]
 948 00d6 1344     		add	r3, r3, r2
 949 00d8 1B78     		ldrb	r3, [r3]
 950 00da 87F82330 		strb	r3, [r7, #35]
 951 00de 0023     		movs	r3, #0
 952 00e0 7B62     		str	r3, [r7, #36]
 953 00e2 0DE0     		b	.L77
 954              	.L79:
 955 00e4 97F82330 		ldrb	r3, [r7, #35]	@ zero_extendqisi2
 956 00e8 03F00103 		and	r3, r3, #1
 957 00ec 002B     		cmp	r3, #0
 958 00ee 04D0     		beq	.L78
 959 00f0 3B68     		ldr	r3, [r7]
 960 00f2 1B68     		ldr	r3, [r3]
 961 00f4 5A1C     		adds	r2, r3, #1
 962 00f6 3B68     		ldr	r3, [r7]
 963 00f8 1A60     		str	r2, [r3]
 964              	.L78:
 965 00fa 7B6A     		ldr	r3, [r7, #36]
 966 00fc 0133     		adds	r3, r3, #1
 967 00fe 7B62     		str	r3, [r7, #36]
 968              	.L77:
 969 0100 7A6A     		ldr	r2, [r7, #36]
ARM GAS  /var/folders/d2/nstgp4h54kz7g1l847x_b8wc0000gn/T//ccHw3j0C.s 			page 18


 970 0102 7B69     		ldr	r3, [r7, #20]
 971 0104 9A42     		cmp	r2, r3
 972 0106 EDD9     		bls	.L79
 973 0108 97F92F30 		ldrsb	r3, [r7, #47]
 974 010c 1846     		mov	r0, r3
 975 010e 3437     		adds	r7, r7, #52
 976 0110 BD46     		mov	sp, r7
 977              		@ sp needed
 978 0112 5DF8047B 		ldr	r7, [sp], #4
 979 0116 7047     		bx	lr
 980              		.size	count_enabled_spads, .-count_enabled_spads
 981              		.section	.text.set_ref_spad_map,"ax",%progbits
 982              		.align	1
 983              		.global	set_ref_spad_map
 984              		.syntax unified
 985              		.thumb
 986              		.thumb_func
 987              		.fpu fpv4-sp-d16
 988              		.type	set_ref_spad_map, %function
 989              	set_ref_spad_map:
 990              		@ args = 0, pretend = 0, frame = 16
 991              		@ frame_needed = 1, uses_anonymous_args = 0
 992 0000 80B5     		push	{r7, lr}
 993 0002 84B0     		sub	sp, sp, #16
 994 0004 00AF     		add	r7, sp, #0
 995 0006 7860     		str	r0, [r7, #4]
 996 0008 3960     		str	r1, [r7]
 997 000a 0623     		movs	r3, #6
 998 000c 3A68     		ldr	r2, [r7]
 999 000e B021     		movs	r1, #176
 1000 0010 7868     		ldr	r0, [r7, #4]
 1001 0012 FFF7FEFF 		bl	VL53L0X_WriteMulti
 1002 0016 0346     		mov	r3, r0
 1003 0018 FB73     		strb	r3, [r7, #15]
 1004 001a 97F90F30 		ldrsb	r3, [r7, #15]
 1005 001e 1846     		mov	r0, r3
 1006 0020 1037     		adds	r7, r7, #16
 1007 0022 BD46     		mov	sp, r7
 1008              		@ sp needed
 1009 0024 80BD     		pop	{r7, pc}
 1010              		.size	set_ref_spad_map, .-set_ref_spad_map
 1011              		.section	.text.get_ref_spad_map,"ax",%progbits
 1012              		.align	1
 1013              		.global	get_ref_spad_map
 1014              		.syntax unified
 1015              		.thumb
 1016              		.thumb_func
 1017              		.fpu fpv4-sp-d16
 1018              		.type	get_ref_spad_map, %function
 1019              	get_ref_spad_map:
 1020              		@ args = 0, pretend = 0, frame = 16
 1021              		@ frame_needed = 1, uses_anonymous_args = 0
 1022 0000 80B5     		push	{r7, lr}
 1023 0002 84B0     		sub	sp, sp, #16
 1024 0004 00AF     		add	r7, sp, #0
 1025 0006 7860     		str	r0, [r7, #4]
 1026 0008 3960     		str	r1, [r7]
ARM GAS  /var/folders/d2/nstgp4h54kz7g1l847x_b8wc0000gn/T//ccHw3j0C.s 			page 19


 1027 000a 0623     		movs	r3, #6
 1028 000c 3A68     		ldr	r2, [r7]
 1029 000e B021     		movs	r1, #176
 1030 0010 7868     		ldr	r0, [r7, #4]
 1031 0012 FFF7FEFF 		bl	VL53L0X_ReadMulti
 1032 0016 0346     		mov	r3, r0
 1033 0018 FB73     		strb	r3, [r7, #15]
 1034 001a 97F90F30 		ldrsb	r3, [r7, #15]
 1035 001e 1846     		mov	r0, r3
 1036 0020 1037     		adds	r7, r7, #16
 1037 0022 BD46     		mov	sp, r7
 1038              		@ sp needed
 1039 0024 80BD     		pop	{r7, pc}
 1040              		.size	get_ref_spad_map, .-get_ref_spad_map
 1041              		.section	.text.enable_ref_spads,"ax",%progbits
 1042              		.align	1
 1043              		.global	enable_ref_spads
 1044              		.syntax unified
 1045              		.thumb
 1046              		.thumb_func
 1047              		.fpu fpv4-sp-d16
 1048              		.type	enable_ref_spads, %function
 1049              	enable_ref_spads:
 1050              		@ args = 20, pretend = 0, frame = 48
 1051              		@ frame_needed = 1, uses_anonymous_args = 0
 1052 0000 80B5     		push	{r7, lr}
 1053 0002 8CB0     		sub	sp, sp, #48
 1054 0004 00AF     		add	r7, sp, #0
 1055 0006 F860     		str	r0, [r7, #12]
 1056 0008 7A60     		str	r2, [r7, #4]
 1057 000a 3B60     		str	r3, [r7]
 1058 000c 0B46     		mov	r3, r1
 1059 000e FB72     		strb	r3, [r7, #11]
 1060 0010 0023     		movs	r3, #0
 1061 0012 87F82F30 		strb	r3, [r7, #47]
 1062 0016 3B6C     		ldr	r3, [r7, #64]
 1063 0018 FB61     		str	r3, [r7, #28]
 1064 001a 3B6C     		ldr	r3, [r7, #64]
 1065 001c 3B62     		str	r3, [r7, #32]
 1066 001e 0023     		movs	r3, #0
 1067 0020 BB62     		str	r3, [r7, #40]
 1068 0022 2BE0     		b	.L86
 1069              	.L90:
 1070 0024 07F11C03 		add	r3, r7, #28
 1071 0028 3A6A     		ldr	r2, [r7, #32]
 1072 002a B96B     		ldr	r1, [r7, #56]
 1073 002c 7868     		ldr	r0, [r7, #4]
 1074 002e FFF7FEFF 		bl	get_next_good_spad
 1075 0032 FB69     		ldr	r3, [r7, #28]
 1076 0034 B3F1FF3F 		cmp	r3, #-1
 1077 0038 03D1     		bne	.L87
 1078 003a CE23     		movs	r3, #206
 1079 003c 87F82F30 		strb	r3, [r7, #47]
 1080 0040 20E0     		b	.L88
 1081              	.L87:
 1082 0042 FB69     		ldr	r3, [r7, #28]
 1083 0044 1A46     		mov	r2, r3
ARM GAS  /var/folders/d2/nstgp4h54kz7g1l847x_b8wc0000gn/T//ccHw3j0C.s 			page 20


 1084 0046 FB6B     		ldr	r3, [r7, #60]
 1085 0048 1344     		add	r3, r3, r2
 1086 004a 1846     		mov	r0, r3
 1087 004c FFF7FEFF 		bl	is_aperture
 1088 0050 0346     		mov	r3, r0
 1089 0052 1A46     		mov	r2, r3
 1090 0054 FB7A     		ldrb	r3, [r7, #11]	@ zero_extendqisi2
 1091 0056 9342     		cmp	r3, r2
 1092 0058 03D0     		beq	.L89
 1093 005a CE23     		movs	r3, #206
 1094 005c 87F82F30 		strb	r3, [r7, #47]
 1095 0060 10E0     		b	.L88
 1096              	.L89:
 1097 0062 FB69     		ldr	r3, [r7, #28]
 1098 0064 3B62     		str	r3, [r7, #32]
 1099 0066 3A6A     		ldr	r2, [r7, #32]
 1100 0068 B96B     		ldr	r1, [r7, #56]
 1101 006a 3868     		ldr	r0, [r7]
 1102 006c FFF7FEFF 		bl	enable_spad_bit
 1103 0070 3B6A     		ldr	r3, [r7, #32]
 1104 0072 0133     		adds	r3, r3, #1
 1105 0074 3B62     		str	r3, [r7, #32]
 1106 0076 BB6A     		ldr	r3, [r7, #40]
 1107 0078 0133     		adds	r3, r3, #1
 1108 007a BB62     		str	r3, [r7, #40]
 1109              	.L86:
 1110 007c BA6A     		ldr	r2, [r7, #40]
 1111 007e 7B6C     		ldr	r3, [r7, #68]
 1112 0080 9A42     		cmp	r2, r3
 1113 0082 CFD3     		bcc	.L90
 1114              	.L88:
 1115 0084 BB6C     		ldr	r3, [r7, #72]
 1116 0086 3A6A     		ldr	r2, [r7, #32]
 1117 0088 1A60     		str	r2, [r3]
 1118 008a 97F92F30 		ldrsb	r3, [r7, #47]
 1119 008e 002B     		cmp	r3, #0
 1120 0090 06D1     		bne	.L91
 1121 0092 3968     		ldr	r1, [r7]
 1122 0094 F868     		ldr	r0, [r7, #12]
 1123 0096 FFF7FEFF 		bl	set_ref_spad_map
 1124 009a 0346     		mov	r3, r0
 1125 009c 87F82F30 		strb	r3, [r7, #47]
 1126              	.L91:
 1127 00a0 97F92F30 		ldrsb	r3, [r7, #47]
 1128 00a4 002B     		cmp	r3, #0
 1129 00a6 21D1     		bne	.L92
 1130 00a8 07F11403 		add	r3, r7, #20
 1131 00ac 1946     		mov	r1, r3
 1132 00ae F868     		ldr	r0, [r7, #12]
 1133 00b0 FFF7FEFF 		bl	get_ref_spad_map
 1134 00b4 0346     		mov	r3, r0
 1135 00b6 87F82F30 		strb	r3, [r7, #47]
 1136 00ba 0023     		movs	r3, #0
 1137 00bc 7B62     		str	r3, [r7, #36]
 1138 00be 11E0     		b	.L93
 1139              	.L95:
 1140 00c0 3A68     		ldr	r2, [r7]
ARM GAS  /var/folders/d2/nstgp4h54kz7g1l847x_b8wc0000gn/T//ccHw3j0C.s 			page 21


 1141 00c2 7B6A     		ldr	r3, [r7, #36]
 1142 00c4 1344     		add	r3, r3, r2
 1143 00c6 1A78     		ldrb	r2, [r3]	@ zero_extendqisi2
 1144 00c8 07F11401 		add	r1, r7, #20
 1145 00cc 7B6A     		ldr	r3, [r7, #36]
 1146 00ce 0B44     		add	r3, r3, r1
 1147 00d0 1B78     		ldrb	r3, [r3]	@ zero_extendqisi2
 1148 00d2 9A42     		cmp	r2, r3
 1149 00d4 03D0     		beq	.L94
 1150 00d6 CE23     		movs	r3, #206
 1151 00d8 87F82F30 		strb	r3, [r7, #47]
 1152 00dc 06E0     		b	.L92
 1153              	.L94:
 1154 00de 7B6A     		ldr	r3, [r7, #36]
 1155 00e0 0133     		adds	r3, r3, #1
 1156 00e2 7B62     		str	r3, [r7, #36]
 1157              	.L93:
 1158 00e4 7A6A     		ldr	r2, [r7, #36]
 1159 00e6 BB6B     		ldr	r3, [r7, #56]
 1160 00e8 9A42     		cmp	r2, r3
 1161 00ea E9D3     		bcc	.L95
 1162              	.L92:
 1163 00ec 97F92F30 		ldrsb	r3, [r7, #47]
 1164 00f0 1846     		mov	r0, r3
 1165 00f2 3037     		adds	r7, r7, #48
 1166 00f4 BD46     		mov	sp, r7
 1167              		@ sp needed
 1168 00f6 80BD     		pop	{r7, pc}
 1169              		.size	enable_ref_spads, .-enable_ref_spads
 1170              		.section	.text.perform_ref_signal_measurement,"ax",%progbits
 1171              		.align	1
 1172              		.global	perform_ref_signal_measurement
 1173              		.syntax unified
 1174              		.thumb
 1175              		.thumb_func
 1176              		.fpu fpv4-sp-d16
 1177              		.type	perform_ref_signal_measurement, %function
 1178              	perform_ref_signal_measurement:
 1179              		@ args = 0, pretend = 0, frame = 40
 1180              		@ frame_needed = 1, uses_anonymous_args = 0
 1181 0000 80B5     		push	{r7, lr}
 1182 0002 8AB0     		sub	sp, sp, #40
 1183 0004 00AF     		add	r7, sp, #0
 1184 0006 7860     		str	r0, [r7, #4]
 1185 0008 3960     		str	r1, [r7]
 1186 000a 0023     		movs	r3, #0
 1187 000c 87F82730 		strb	r3, [r7, #39]
 1188 0010 0023     		movs	r3, #0
 1189 0012 87F82630 		strb	r3, [r7, #38]
 1190 0016 7B68     		ldr	r3, [r7, #4]
 1191 0018 93F83031 		ldrb	r3, [r3, #304]
 1192 001c 87F82630 		strb	r3, [r7, #38]
 1193 0020 97F92730 		ldrsb	r3, [r7, #39]
 1194 0024 002B     		cmp	r3, #0
 1195 0026 07D1     		bne	.L98
 1196 0028 C022     		movs	r2, #192
 1197 002a 0121     		movs	r1, #1
ARM GAS  /var/folders/d2/nstgp4h54kz7g1l847x_b8wc0000gn/T//ccHw3j0C.s 			page 22


 1198 002c 7868     		ldr	r0, [r7, #4]
 1199 002e FFF7FEFF 		bl	VL53L0X_WrByte
 1200 0032 0346     		mov	r3, r0
 1201 0034 87F82730 		strb	r3, [r7, #39]
 1202              	.L98:
 1203 0038 97F92730 		ldrsb	r3, [r7, #39]
 1204 003c 002B     		cmp	r3, #0
 1205 003e 08D1     		bne	.L99
 1206 0040 07F10803 		add	r3, r7, #8
 1207 0044 1946     		mov	r1, r3
 1208 0046 7868     		ldr	r0, [r7, #4]
 1209 0048 FFF7FEFF 		bl	VL53L0X_PerformSingleRangingMeasurement
 1210 004c 0346     		mov	r3, r0
 1211 004e 87F82730 		strb	r3, [r7, #39]
 1212              	.L99:
 1213 0052 97F92730 		ldrsb	r3, [r7, #39]
 1214 0056 002B     		cmp	r3, #0
 1215 0058 07D1     		bne	.L100
 1216 005a 0122     		movs	r2, #1
 1217 005c FF21     		movs	r1, #255
 1218 005e 7868     		ldr	r0, [r7, #4]
 1219 0060 FFF7FEFF 		bl	VL53L0X_WrByte
 1220 0064 0346     		mov	r3, r0
 1221 0066 87F82730 		strb	r3, [r7, #39]
 1222              	.L100:
 1223 006a 97F92730 		ldrsb	r3, [r7, #39]
 1224 006e 002B     		cmp	r3, #0
 1225 0070 07D1     		bne	.L101
 1226 0072 3A68     		ldr	r2, [r7]
 1227 0074 B621     		movs	r1, #182
 1228 0076 7868     		ldr	r0, [r7, #4]
 1229 0078 FFF7FEFF 		bl	VL53L0X_RdWord
 1230 007c 0346     		mov	r3, r0
 1231 007e 87F82730 		strb	r3, [r7, #39]
 1232              	.L101:
 1233 0082 97F92730 		ldrsb	r3, [r7, #39]
 1234 0086 002B     		cmp	r3, #0
 1235 0088 07D1     		bne	.L102
 1236 008a 0022     		movs	r2, #0
 1237 008c FF21     		movs	r1, #255
 1238 008e 7868     		ldr	r0, [r7, #4]
 1239 0090 FFF7FEFF 		bl	VL53L0X_WrByte
 1240 0094 0346     		mov	r3, r0
 1241 0096 87F82730 		strb	r3, [r7, #39]
 1242              	.L102:
 1243 009a 97F92730 		ldrsb	r3, [r7, #39]
 1244 009e 002B     		cmp	r3, #0
 1245 00a0 12D1     		bne	.L103
 1246 00a2 97F82630 		ldrb	r3, [r7, #38]	@ zero_extendqisi2
 1247 00a6 1A46     		mov	r2, r3
 1248 00a8 0121     		movs	r1, #1
 1249 00aa 7868     		ldr	r0, [r7, #4]
 1250 00ac FFF7FEFF 		bl	VL53L0X_WrByte
 1251 00b0 0346     		mov	r3, r0
 1252 00b2 87F82730 		strb	r3, [r7, #39]
 1253 00b6 97F92730 		ldrsb	r3, [r7, #39]
 1254 00ba 002B     		cmp	r3, #0
ARM GAS  /var/folders/d2/nstgp4h54kz7g1l847x_b8wc0000gn/T//ccHw3j0C.s 			page 23


 1255 00bc 04D1     		bne	.L103
 1256 00be 7B68     		ldr	r3, [r7, #4]
 1257 00c0 97F82620 		ldrb	r2, [r7, #38]
 1258 00c4 83F83021 		strb	r2, [r3, #304]
 1259              	.L103:
 1260 00c8 97F92730 		ldrsb	r3, [r7, #39]
 1261 00cc 1846     		mov	r0, r3
 1262 00ce 2837     		adds	r7, r7, #40
 1263 00d0 BD46     		mov	sp, r7
 1264              		@ sp needed
 1265 00d2 80BD     		pop	{r7, pc}
 1266              		.size	perform_ref_signal_measurement, .-perform_ref_signal_measurement
 1267              		.section	.text.VL53L0X_perform_ref_spad_management,"ax",%progbits
 1268              		.align	1
 1269              		.global	VL53L0X_perform_ref_spad_management
 1270              		.syntax unified
 1271              		.thumb
 1272              		.thumb_func
 1273              		.fpu fpv4-sp-d16
 1274              		.type	VL53L0X_perform_ref_spad_management, %function
 1275              	VL53L0X_perform_ref_spad_management:
 1276              		@ args = 0, pretend = 0, frame = 88
 1277              		@ frame_needed = 1, uses_anonymous_args = 0
 1278 0000 90B5     		push	{r4, r7, lr}
 1279 0002 9DB0     		sub	sp, sp, #116
 1280 0004 06AF     		add	r7, sp, #24
 1281 0006 F860     		str	r0, [r7, #12]
 1282 0008 B960     		str	r1, [r7, #8]
 1283 000a 7A60     		str	r2, [r7, #4]
 1284 000c 0023     		movs	r3, #0
 1285 000e 87F85730 		strb	r3, [r7, #87]
 1286 0012 B423     		movs	r3, #180
 1287 0014 87F83A30 		strb	r3, [r7, #58]
 1288 0018 0323     		movs	r3, #3
 1289 001a 7B63     		str	r3, [r7, #52]
 1290 001c 2C23     		movs	r3, #44
 1291 001e 3B63     		str	r3, [r7, #48]
 1292 0020 0023     		movs	r3, #0
 1293 0022 3B65     		str	r3, [r7, #80]
 1294 0024 0023     		movs	r3, #0
 1295 0026 BB61     		str	r3, [r7, #24]
 1296 0028 0023     		movs	r3, #0
 1297 002a 7B61     		str	r3, [r7, #20]
 1298 002c 4FF42063 		mov	r3, #2560
 1299 0030 FB85     		strh	r3, [r7, #46]	@ movhi
 1300 0032 0023     		movs	r3, #0
 1301 0034 FB64     		str	r3, [r7, #76]
 1302 0036 0023     		movs	r3, #0
 1303 0038 BB64     		str	r3, [r7, #72]
 1304 003a 0623     		movs	r3, #6
 1305 003c BB62     		str	r3, [r7, #40]
 1306 003e 0023     		movs	r3, #0
 1307 0040 7B62     		str	r3, [r7, #36]
 1308 0042 0023     		movs	r3, #0
 1309 0044 7B64     		str	r3, [r7, #68]
 1310 0046 0023     		movs	r3, #0
 1311 0048 87F84330 		strb	r3, [r7, #67]
ARM GAS  /var/folders/d2/nstgp4h54kz7g1l847x_b8wc0000gn/T//ccHw3j0C.s 			page 24


 1312 004c 0023     		movs	r3, #0
 1313 004e 7B74     		strb	r3, [r7, #17]
 1314 0050 0023     		movs	r3, #0
 1315 0052 3B74     		strb	r3, [r7, #16]
 1316 0054 0023     		movs	r3, #0
 1317 0056 FB63     		str	r3, [r7, #60]
 1318 0058 0023     		movs	r3, #0
 1319 005a 87F83B30 		strb	r3, [r7, #59]
 1320 005e FB68     		ldr	r3, [r7, #12]
 1321 0060 B3F83C31 		ldrh	r3, [r3, #316]	@ movhi
 1322 0064 FB85     		strh	r3, [r7, #46]	@ movhi
 1323 0066 0023     		movs	r3, #0
 1324 0068 BB64     		str	r3, [r7, #72]
 1325 006a 09E0     		b	.L106
 1326              	.L107:
 1327 006c FA68     		ldr	r2, [r7, #12]
 1328 006e BB6C     		ldr	r3, [r7, #72]
 1329 0070 1344     		add	r3, r3, r2
 1330 0072 03F59273 		add	r3, r3, #292
 1331 0076 0022     		movs	r2, #0
 1332 0078 1A70     		strb	r2, [r3]
 1333 007a BB6C     		ldr	r3, [r7, #72]
 1334 007c 0133     		adds	r3, r3, #1
 1335 007e BB64     		str	r3, [r7, #72]
 1336              	.L106:
 1337 0080 BA6C     		ldr	r2, [r7, #72]
 1338 0082 BB6A     		ldr	r3, [r7, #40]
 1339 0084 9A42     		cmp	r2, r3
 1340 0086 F1D3     		bcc	.L107
 1341 0088 0122     		movs	r2, #1
 1342 008a FF21     		movs	r1, #255
 1343 008c F868     		ldr	r0, [r7, #12]
 1344 008e FFF7FEFF 		bl	VL53L0X_WrByte
 1345 0092 0346     		mov	r3, r0
 1346 0094 87F85730 		strb	r3, [r7, #87]
 1347 0098 97F95730 		ldrsb	r3, [r7, #87]
 1348 009c 002B     		cmp	r3, #0
 1349 009e 07D1     		bne	.L108
 1350 00a0 0022     		movs	r2, #0
 1351 00a2 4F21     		movs	r1, #79
 1352 00a4 F868     		ldr	r0, [r7, #12]
 1353 00a6 FFF7FEFF 		bl	VL53L0X_WrByte
 1354 00aa 0346     		mov	r3, r0
 1355 00ac 87F85730 		strb	r3, [r7, #87]
 1356              	.L108:
 1357 00b0 97F95730 		ldrsb	r3, [r7, #87]
 1358 00b4 002B     		cmp	r3, #0
 1359 00b6 07D1     		bne	.L109
 1360 00b8 2C22     		movs	r2, #44
 1361 00ba 4E21     		movs	r1, #78
 1362 00bc F868     		ldr	r0, [r7, #12]
 1363 00be FFF7FEFF 		bl	VL53L0X_WrByte
 1364 00c2 0346     		mov	r3, r0
 1365 00c4 87F85730 		strb	r3, [r7, #87]
 1366              	.L109:
 1367 00c8 97F95730 		ldrsb	r3, [r7, #87]
 1368 00cc 002B     		cmp	r3, #0
ARM GAS  /var/folders/d2/nstgp4h54kz7g1l847x_b8wc0000gn/T//ccHw3j0C.s 			page 25


 1369 00ce 07D1     		bne	.L110
 1370 00d0 0022     		movs	r2, #0
 1371 00d2 FF21     		movs	r1, #255
 1372 00d4 F868     		ldr	r0, [r7, #12]
 1373 00d6 FFF7FEFF 		bl	VL53L0X_WrByte
 1374 00da 0346     		mov	r3, r0
 1375 00dc 87F85730 		strb	r3, [r7, #87]
 1376              	.L110:
 1377 00e0 97F95730 		ldrsb	r3, [r7, #87]
 1378 00e4 002B     		cmp	r3, #0
 1379 00e6 09D1     		bne	.L111
 1380 00e8 97F83A30 		ldrb	r3, [r7, #58]	@ zero_extendqisi2
 1381 00ec 1A46     		mov	r2, r3
 1382 00ee B621     		movs	r1, #182
 1383 00f0 F868     		ldr	r0, [r7, #12]
 1384 00f2 FFF7FEFF 		bl	VL53L0X_WrByte
 1385 00f6 0346     		mov	r3, r0
 1386 00f8 87F85730 		strb	r3, [r7, #87]
 1387              	.L111:
 1388 00fc 97F95730 		ldrsb	r3, [r7, #87]
 1389 0100 002B     		cmp	r3, #0
 1390 0102 07D1     		bne	.L112
 1391 0104 0022     		movs	r2, #0
 1392 0106 8021     		movs	r1, #128
 1393 0108 F868     		ldr	r0, [r7, #12]
 1394 010a FFF7FEFF 		bl	VL53L0X_WrByte
 1395 010e 0346     		mov	r3, r0
 1396 0110 87F85730 		strb	r3, [r7, #87]
 1397              	.L112:
 1398 0114 97F95730 		ldrsb	r3, [r7, #87]
 1399 0118 002B     		cmp	r3, #0
 1400 011a 0AD1     		bne	.L113
 1401 011c 07F11002 		add	r2, r7, #16
 1402 0120 07F11101 		add	r1, r7, #17
 1403 0124 0023     		movs	r3, #0
 1404 0126 F868     		ldr	r0, [r7, #12]
 1405 0128 FFF7FEFF 		bl	VL53L0X_perform_ref_calibration
 1406 012c 0346     		mov	r3, r0
 1407 012e 87F85730 		strb	r3, [r7, #87]
 1408              	.L113:
 1409 0132 97F95730 		ldrsb	r3, [r7, #87]
 1410 0136 002B     		cmp	r3, #0
 1411 0138 21D1     		bne	.L114
 1412 013a 0023     		movs	r3, #0
 1413 013c 3B65     		str	r3, [r7, #80]
 1414 013e 3B6D     		ldr	r3, [r7, #80]
 1415 0140 BB61     		str	r3, [r7, #24]
 1416 0142 0023     		movs	r3, #0
 1417 0144 FB64     		str	r3, [r7, #76]
 1418 0146 FB6C     		ldr	r3, [r7, #76]
 1419 0148 D9B2     		uxtb	r1, r3
 1420 014a FB68     		ldr	r3, [r7, #12]
 1421 014c 03F59570 		add	r0, r3, #298
 1422 0150 FB68     		ldr	r3, [r7, #12]
 1423 0152 03F59274 		add	r4, r3, #292
 1424 0156 97F83A30 		ldrb	r3, [r7, #58]	@ zero_extendqisi2
 1425 015a 07F11802 		add	r2, r7, #24
ARM GAS  /var/folders/d2/nstgp4h54kz7g1l847x_b8wc0000gn/T//ccHw3j0C.s 			page 26


 1426 015e 0492     		str	r2, [sp, #16]
 1427 0160 7A6B     		ldr	r2, [r7, #52]
 1428 0162 0392     		str	r2, [sp, #12]
 1429 0164 3A6D     		ldr	r2, [r7, #80]
 1430 0166 0292     		str	r2, [sp, #8]
 1431 0168 0193     		str	r3, [sp, #4]
 1432 016a BB6A     		ldr	r3, [r7, #40]
 1433 016c 0093     		str	r3, [sp]
 1434 016e 2346     		mov	r3, r4
 1435 0170 0246     		mov	r2, r0
 1436 0172 F868     		ldr	r0, [r7, #12]
 1437 0174 FFF7FEFF 		bl	enable_ref_spads
 1438 0178 0346     		mov	r3, r0
 1439 017a 87F85730 		strb	r3, [r7, #87]
 1440              	.L114:
 1441 017e 97F95730 		ldrsb	r3, [r7, #87]
 1442 0182 002B     		cmp	r3, #0
 1443 0184 74D1     		bne	.L115
 1444 0186 BB69     		ldr	r3, [r7, #24]
 1445 0188 3B65     		str	r3, [r7, #80]
 1446 018a 07F11203 		add	r3, r7, #18
 1447 018e 1946     		mov	r1, r3
 1448 0190 F868     		ldr	r0, [r7, #12]
 1449 0192 FFF7FEFF 		bl	perform_ref_signal_measurement
 1450 0196 0346     		mov	r3, r0
 1451 0198 87F85730 		strb	r3, [r7, #87]
 1452 019c 97F95730 		ldrsb	r3, [r7, #87]
 1453 01a0 002B     		cmp	r3, #0
 1454 01a2 61D1     		bne	.L116
 1455 01a4 7B8A     		ldrh	r3, [r7, #18]
 1456 01a6 FA8D     		ldrh	r2, [r7, #46]
 1457 01a8 9A42     		cmp	r2, r3
 1458 01aa 5DD2     		bcs	.L116
 1459 01ac 0023     		movs	r3, #0
 1460 01ae BB64     		str	r3, [r7, #72]
 1461 01b0 09E0     		b	.L117
 1462              	.L118:
 1463 01b2 FA68     		ldr	r2, [r7, #12]
 1464 01b4 BB6C     		ldr	r3, [r7, #72]
 1465 01b6 1344     		add	r3, r3, r2
 1466 01b8 03F59273 		add	r3, r3, #292
 1467 01bc 0022     		movs	r2, #0
 1468 01be 1A70     		strb	r2, [r3]
 1469 01c0 BB6C     		ldr	r3, [r7, #72]
 1470 01c2 0133     		adds	r3, r3, #1
 1471 01c4 BB64     		str	r3, [r7, #72]
 1472              	.L117:
 1473 01c6 BA6C     		ldr	r2, [r7, #72]
 1474 01c8 BB6A     		ldr	r3, [r7, #40]
 1475 01ca 9A42     		cmp	r2, r3
 1476 01cc F1D3     		bcc	.L118
 1477 01ce 02E0     		b	.L119
 1478              	.L121:
 1479 01d0 3B6D     		ldr	r3, [r7, #80]
 1480 01d2 0133     		adds	r3, r3, #1
 1481 01d4 3B65     		str	r3, [r7, #80]
 1482              	.L119:
ARM GAS  /var/folders/d2/nstgp4h54kz7g1l847x_b8wc0000gn/T//ccHw3j0C.s 			page 27


 1483 01d6 97F83A20 		ldrb	r2, [r7, #58]	@ zero_extendqisi2
 1484 01da 3B6D     		ldr	r3, [r7, #80]
 1485 01dc 1344     		add	r3, r3, r2
 1486 01de 1846     		mov	r0, r3
 1487 01e0 FFF7FEFF 		bl	is_aperture
 1488 01e4 0346     		mov	r3, r0
 1489 01e6 002B     		cmp	r3, #0
 1490 01e8 03D1     		bne	.L120
 1491 01ea 3A6D     		ldr	r2, [r7, #80]
 1492 01ec 3B6B     		ldr	r3, [r7, #48]
 1493 01ee 9A42     		cmp	r2, r3
 1494 01f0 EED3     		bcc	.L121
 1495              	.L120:
 1496 01f2 0123     		movs	r3, #1
 1497 01f4 FB64     		str	r3, [r7, #76]
 1498 01f6 FB6C     		ldr	r3, [r7, #76]
 1499 01f8 D9B2     		uxtb	r1, r3
 1500 01fa FB68     		ldr	r3, [r7, #12]
 1501 01fc 03F59570 		add	r0, r3, #298
 1502 0200 FB68     		ldr	r3, [r7, #12]
 1503 0202 03F59274 		add	r4, r3, #292
 1504 0206 97F83A30 		ldrb	r3, [r7, #58]	@ zero_extendqisi2
 1505 020a 07F11802 		add	r2, r7, #24
 1506 020e 0492     		str	r2, [sp, #16]
 1507 0210 7A6B     		ldr	r2, [r7, #52]
 1508 0212 0392     		str	r2, [sp, #12]
 1509 0214 3A6D     		ldr	r2, [r7, #80]
 1510 0216 0292     		str	r2, [sp, #8]
 1511 0218 0193     		str	r3, [sp, #4]
 1512 021a BB6A     		ldr	r3, [r7, #40]
 1513 021c 0093     		str	r3, [sp]
 1514 021e 2346     		mov	r3, r4
 1515 0220 0246     		mov	r2, r0
 1516 0222 F868     		ldr	r0, [r7, #12]
 1517 0224 FFF7FEFF 		bl	enable_ref_spads
 1518 0228 0346     		mov	r3, r0
 1519 022a 87F85730 		strb	r3, [r7, #87]
 1520 022e 97F95730 		ldrsb	r3, [r7, #87]
 1521 0232 002B     		cmp	r3, #0
 1522 0234 1BD1     		bne	.L135
 1523 0236 BB69     		ldr	r3, [r7, #24]
 1524 0238 3B65     		str	r3, [r7, #80]
 1525 023a 07F11203 		add	r3, r7, #18
 1526 023e 1946     		mov	r1, r3
 1527 0240 F868     		ldr	r0, [r7, #12]
 1528 0242 FFF7FEFF 		bl	perform_ref_signal_measurement
 1529 0246 0346     		mov	r3, r0
 1530 0248 87F85730 		strb	r3, [r7, #87]
 1531 024c 97F95730 		ldrsb	r3, [r7, #87]
 1532 0250 002B     		cmp	r3, #0
 1533 0252 0CD1     		bne	.L135
 1534 0254 7B8A     		ldrh	r3, [r7, #18]
 1535 0256 FA8D     		ldrh	r2, [r7, #46]
 1536 0258 9A42     		cmp	r2, r3
 1537 025a 08D2     		bcs	.L135
 1538 025c 0123     		movs	r3, #1
 1539 025e 87F83B30 		strb	r3, [r7, #59]
ARM GAS  /var/folders/d2/nstgp4h54kz7g1l847x_b8wc0000gn/T//ccHw3j0C.s 			page 28


 1540 0262 7B6B     		ldr	r3, [r7, #52]
 1541 0264 FB63     		str	r3, [r7, #60]
 1542 0266 02E0     		b	.L135
 1543              	.L116:
 1544 0268 0023     		movs	r3, #0
 1545 026a FB64     		str	r3, [r7, #76]
 1546 026c 00E0     		b	.L115
 1547              	.L135:
 1548 026e 00BF     		nop
 1549              	.L115:
 1550 0270 97F95730 		ldrsb	r3, [r7, #87]
 1551 0274 002B     		cmp	r3, #0
 1552 0276 40F0AF80 		bne	.L123
 1553 027a 7B8A     		ldrh	r3, [r7, #18]
 1554 027c FA8D     		ldrh	r2, [r7, #46]
 1555 027e 9A42     		cmp	r2, r3
 1556 0280 40F2AA80 		bls	.L123
 1557 0284 FB6C     		ldr	r3, [r7, #76]
 1558 0286 87F83B30 		strb	r3, [r7, #59]
 1559 028a 7B6B     		ldr	r3, [r7, #52]
 1560 028c FB63     		str	r3, [r7, #60]
 1561 028e FB68     		ldr	r3, [r7, #12]
 1562 0290 03F59271 		add	r1, r3, #292
 1563 0294 07F11C03 		add	r3, r7, #28
 1564 0298 BA6A     		ldr	r2, [r7, #40]
 1565 029a 1846     		mov	r0, r3
 1566 029c FFF7FEFF 		bl	memcpy
 1567 02a0 7B8A     		ldrh	r3, [r7, #18]
 1568 02a2 1A46     		mov	r2, r3
 1569 02a4 FB8D     		ldrh	r3, [r7, #46]
 1570 02a6 D31A     		subs	r3, r2, r3
 1571 02a8 002B     		cmp	r3, #0
 1572 02aa B8BF     		it	lt
 1573 02ac 5B42     		rsblt	r3, r3, #0
 1574 02ae 7B64     		str	r3, [r7, #68]
 1575 02b0 0023     		movs	r3, #0
 1576 02b2 87F84330 		strb	r3, [r7, #67]
 1577 02b6 86E0     		b	.L124
 1578              	.L132:
 1579 02b8 FB68     		ldr	r3, [r7, #12]
 1580 02ba 03F59570 		add	r0, r3, #298
 1581 02be 07F11403 		add	r3, r7, #20
 1582 02c2 3A6D     		ldr	r2, [r7, #80]
 1583 02c4 B96A     		ldr	r1, [r7, #40]
 1584 02c6 FFF7FEFF 		bl	get_next_good_spad
 1585 02ca 7B69     		ldr	r3, [r7, #20]
 1586 02cc B3F1FF3F 		cmp	r3, #-1
 1587 02d0 03D1     		bne	.L125
 1588 02d2 CE23     		movs	r3, #206
 1589 02d4 87F85730 		strb	r3, [r7, #87]
 1590 02d8 7EE0     		b	.L123
 1591              	.L125:
 1592 02da 97F83A30 		ldrb	r3, [r7, #58]	@ zero_extendqisi2
 1593 02de 7A69     		ldr	r2, [r7, #20]
 1594 02e0 1344     		add	r3, r3, r2
 1595 02e2 1846     		mov	r0, r3
 1596 02e4 FFF7FEFF 		bl	is_aperture
ARM GAS  /var/folders/d2/nstgp4h54kz7g1l847x_b8wc0000gn/T//ccHw3j0C.s 			page 29


 1597 02e8 0346     		mov	r3, r0
 1598 02ea 1A46     		mov	r2, r3
 1599 02ec FB6C     		ldr	r3, [r7, #76]
 1600 02ee 9342     		cmp	r3, r2
 1601 02f0 03D0     		beq	.L126
 1602 02f2 0123     		movs	r3, #1
 1603 02f4 87F84330 		strb	r3, [r7, #67]
 1604 02f8 6EE0     		b	.L123
 1605              	.L126:
 1606 02fa FB6B     		ldr	r3, [r7, #60]
 1607 02fc 0133     		adds	r3, r3, #1
 1608 02fe FB63     		str	r3, [r7, #60]
 1609 0300 7B69     		ldr	r3, [r7, #20]
 1610 0302 3B65     		str	r3, [r7, #80]
 1611 0304 FB68     		ldr	r3, [r7, #12]
 1612 0306 03F59273 		add	r3, r3, #292
 1613 030a 3A6D     		ldr	r2, [r7, #80]
 1614 030c B96A     		ldr	r1, [r7, #40]
 1615 030e 1846     		mov	r0, r3
 1616 0310 FFF7FEFF 		bl	enable_spad_bit
 1617 0314 0346     		mov	r3, r0
 1618 0316 87F85730 		strb	r3, [r7, #87]
 1619 031a 97F95730 		ldrsb	r3, [r7, #87]
 1620 031e 002B     		cmp	r3, #0
 1621 0320 0CD1     		bne	.L127
 1622 0322 3B6D     		ldr	r3, [r7, #80]
 1623 0324 0133     		adds	r3, r3, #1
 1624 0326 3B65     		str	r3, [r7, #80]
 1625 0328 FB68     		ldr	r3, [r7, #12]
 1626 032a 03F59273 		add	r3, r3, #292
 1627 032e 1946     		mov	r1, r3
 1628 0330 F868     		ldr	r0, [r7, #12]
 1629 0332 FFF7FEFF 		bl	set_ref_spad_map
 1630 0336 0346     		mov	r3, r0
 1631 0338 87F85730 		strb	r3, [r7, #87]
 1632              	.L127:
 1633 033c 97F95730 		ldrsb	r3, [r7, #87]
 1634 0340 002B     		cmp	r3, #0
 1635 0342 46D1     		bne	.L136
 1636 0344 07F11203 		add	r3, r7, #18
 1637 0348 1946     		mov	r1, r3
 1638 034a F868     		ldr	r0, [r7, #12]
 1639 034c FFF7FEFF 		bl	perform_ref_signal_measurement
 1640 0350 0346     		mov	r3, r0
 1641 0352 87F85730 		strb	r3, [r7, #87]
 1642 0356 97F95730 		ldrsb	r3, [r7, #87]
 1643 035a 002B     		cmp	r3, #0
 1644 035c 3BD1     		bne	.L137
 1645 035e 7B8A     		ldrh	r3, [r7, #18]
 1646 0360 1A46     		mov	r2, r3
 1647 0362 FB8D     		ldrh	r3, [r7, #46]
 1648 0364 D31A     		subs	r3, r2, r3
 1649 0366 002B     		cmp	r3, #0
 1650 0368 B8BF     		it	lt
 1651 036a 5B42     		rsblt	r3, r3, #0
 1652 036c 7B62     		str	r3, [r7, #36]
 1653 036e 7B8A     		ldrh	r3, [r7, #18]
ARM GAS  /var/folders/d2/nstgp4h54kz7g1l847x_b8wc0000gn/T//ccHw3j0C.s 			page 30


 1654 0370 FA8D     		ldrh	r2, [r7, #46]
 1655 0372 9A42     		cmp	r2, r3
 1656 0374 1CD2     		bcs	.L130
 1657 0376 7A6A     		ldr	r2, [r7, #36]
 1658 0378 7B6C     		ldr	r3, [r7, #68]
 1659 037a 9A42     		cmp	r2, r3
 1660 037c 14D9     		bls	.L131
 1661 037e 07F11C03 		add	r3, r7, #28
 1662 0382 1946     		mov	r1, r3
 1663 0384 F868     		ldr	r0, [r7, #12]
 1664 0386 FFF7FEFF 		bl	set_ref_spad_map
 1665 038a 0346     		mov	r3, r0
 1666 038c 87F85730 		strb	r3, [r7, #87]
 1667 0390 FB68     		ldr	r3, [r7, #12]
 1668 0392 03F59273 		add	r3, r3, #292
 1669 0396 07F11C01 		add	r1, r7, #28
 1670 039a BA6A     		ldr	r2, [r7, #40]
 1671 039c 1846     		mov	r0, r3
 1672 039e FFF7FEFF 		bl	memcpy
 1673 03a2 FB6B     		ldr	r3, [r7, #60]
 1674 03a4 013B     		subs	r3, r3, #1
 1675 03a6 FB63     		str	r3, [r7, #60]
 1676              	.L131:
 1677 03a8 0123     		movs	r3, #1
 1678 03aa 87F84330 		strb	r3, [r7, #67]
 1679 03ae 0AE0     		b	.L124
 1680              	.L130:
 1681 03b0 7B6A     		ldr	r3, [r7, #36]
 1682 03b2 7B64     		str	r3, [r7, #68]
 1683 03b4 FB68     		ldr	r3, [r7, #12]
 1684 03b6 03F59271 		add	r1, r3, #292
 1685 03ba 07F11C03 		add	r3, r7, #28
 1686 03be BA6A     		ldr	r2, [r7, #40]
 1687 03c0 1846     		mov	r0, r3
 1688 03c2 FFF7FEFF 		bl	memcpy
 1689              	.L124:
 1690 03c6 97F84330 		ldrb	r3, [r7, #67]	@ zero_extendqisi2
 1691 03ca 002B     		cmp	r3, #0
 1692 03cc 3FF474AF 		beq	.L132
 1693 03d0 02E0     		b	.L123
 1694              	.L136:
 1695 03d2 00BF     		nop
 1696 03d4 00E0     		b	.L123
 1697              	.L137:
 1698 03d6 00BF     		nop
 1699              	.L123:
 1700 03d8 97F95730 		ldrsb	r3, [r7, #87]
 1701 03dc 002B     		cmp	r3, #0
 1702 03de 15D1     		bne	.L133
 1703 03e0 BB68     		ldr	r3, [r7, #8]
 1704 03e2 FA6B     		ldr	r2, [r7, #60]
 1705 03e4 1A60     		str	r2, [r3]
 1706 03e6 7B68     		ldr	r3, [r7, #4]
 1707 03e8 97F83B20 		ldrb	r2, [r7, #59]
 1708 03ec 1A70     		strb	r2, [r3]
 1709 03ee FB68     		ldr	r3, [r7, #12]
 1710 03f0 0122     		movs	r2, #1
ARM GAS  /var/folders/d2/nstgp4h54kz7g1l847x_b8wc0000gn/T//ccHw3j0C.s 			page 31


 1711 03f2 83F81521 		strb	r2, [r3, #277]
 1712 03f6 BB68     		ldr	r3, [r7, #8]
 1713 03f8 1B68     		ldr	r3, [r3]
 1714 03fa DAB2     		uxtb	r2, r3
 1715 03fc FB68     		ldr	r3, [r7, #12]
 1716 03fe 83F81321 		strb	r2, [r3, #275]
 1717 0402 7B68     		ldr	r3, [r7, #4]
 1718 0404 1A78     		ldrb	r2, [r3]	@ zero_extendqisi2
 1719 0406 FB68     		ldr	r3, [r7, #12]
 1720 0408 83F81421 		strb	r2, [r3, #276]
 1721              	.L133:
 1722 040c 97F95730 		ldrsb	r3, [r7, #87]
 1723 0410 1846     		mov	r0, r3
 1724 0412 5C37     		adds	r7, r7, #92
 1725 0414 BD46     		mov	sp, r7
 1726              		@ sp needed
 1727 0416 90BD     		pop	{r4, r7, pc}
 1728              		.size	VL53L0X_perform_ref_spad_management, .-VL53L0X_perform_ref_spad_management
 1729              		.section	.text.VL53L0X_set_reference_spads,"ax",%progbits
 1730              		.align	1
 1731              		.global	VL53L0X_set_reference_spads
 1732              		.syntax unified
 1733              		.thumb
 1734              		.thumb_func
 1735              		.fpu fpv4-sp-d16
 1736              		.type	VL53L0X_set_reference_spads, %function
 1737              	VL53L0X_set_reference_spads:
 1738              		@ args = 0, pretend = 0, frame = 48
 1739              		@ frame_needed = 1, uses_anonymous_args = 0
 1740 0000 90B5     		push	{r4, r7, lr}
 1741 0002 93B0     		sub	sp, sp, #76
 1742 0004 06AF     		add	r7, sp, #24
 1743 0006 F860     		str	r0, [r7, #12]
 1744 0008 B960     		str	r1, [r7, #8]
 1745 000a 1346     		mov	r3, r2
 1746 000c FB71     		strb	r3, [r7, #7]
 1747 000e 0023     		movs	r3, #0
 1748 0010 87F82F30 		strb	r3, [r7, #47]
 1749 0014 0023     		movs	r3, #0
 1750 0016 BB62     		str	r3, [r7, #40]
 1751 0018 B423     		movs	r3, #180
 1752 001a 87F82330 		strb	r3, [r7, #35]
 1753 001e 0623     		movs	r3, #6
 1754 0020 FB61     		str	r3, [r7, #28]
 1755 0022 2C23     		movs	r3, #44
 1756 0024 BB61     		str	r3, [r7, #24]
 1757 0026 0122     		movs	r2, #1
 1758 0028 FF21     		movs	r1, #255
 1759 002a F868     		ldr	r0, [r7, #12]
 1760 002c FFF7FEFF 		bl	VL53L0X_WrByte
 1761 0030 0346     		mov	r3, r0
 1762 0032 87F82F30 		strb	r3, [r7, #47]
 1763 0036 97F92F30 		ldrsb	r3, [r7, #47]
 1764 003a 002B     		cmp	r3, #0
 1765 003c 07D1     		bne	.L139
 1766 003e 0022     		movs	r2, #0
 1767 0040 4F21     		movs	r1, #79
ARM GAS  /var/folders/d2/nstgp4h54kz7g1l847x_b8wc0000gn/T//ccHw3j0C.s 			page 32


 1768 0042 F868     		ldr	r0, [r7, #12]
 1769 0044 FFF7FEFF 		bl	VL53L0X_WrByte
 1770 0048 0346     		mov	r3, r0
 1771 004a 87F82F30 		strb	r3, [r7, #47]
 1772              	.L139:
 1773 004e 97F92F30 		ldrsb	r3, [r7, #47]
 1774 0052 002B     		cmp	r3, #0
 1775 0054 07D1     		bne	.L140
 1776 0056 2C22     		movs	r2, #44
 1777 0058 4E21     		movs	r1, #78
 1778 005a F868     		ldr	r0, [r7, #12]
 1779 005c FFF7FEFF 		bl	VL53L0X_WrByte
 1780 0060 0346     		mov	r3, r0
 1781 0062 87F82F30 		strb	r3, [r7, #47]
 1782              	.L140:
 1783 0066 97F92F30 		ldrsb	r3, [r7, #47]
 1784 006a 002B     		cmp	r3, #0
 1785 006c 07D1     		bne	.L141
 1786 006e 0022     		movs	r2, #0
 1787 0070 FF21     		movs	r1, #255
 1788 0072 F868     		ldr	r0, [r7, #12]
 1789 0074 FFF7FEFF 		bl	VL53L0X_WrByte
 1790 0078 0346     		mov	r3, r0
 1791 007a 87F82F30 		strb	r3, [r7, #47]
 1792              	.L141:
 1793 007e 97F92F30 		ldrsb	r3, [r7, #47]
 1794 0082 002B     		cmp	r3, #0
 1795 0084 09D1     		bne	.L142
 1796 0086 97F82330 		ldrb	r3, [r7, #35]	@ zero_extendqisi2
 1797 008a 1A46     		mov	r2, r3
 1798 008c B621     		movs	r1, #182
 1799 008e F868     		ldr	r0, [r7, #12]
 1800 0090 FFF7FEFF 		bl	VL53L0X_WrByte
 1801 0094 0346     		mov	r3, r0
 1802 0096 87F82F30 		strb	r3, [r7, #47]
 1803              	.L142:
 1804 009a 0023     		movs	r3, #0
 1805 009c 7B62     		str	r3, [r7, #36]
 1806 009e 09E0     		b	.L143
 1807              	.L144:
 1808 00a0 FA68     		ldr	r2, [r7, #12]
 1809 00a2 7B6A     		ldr	r3, [r7, #36]
 1810 00a4 1344     		add	r3, r3, r2
 1811 00a6 03F59273 		add	r3, r3, #292
 1812 00aa 0022     		movs	r2, #0
 1813 00ac 1A70     		strb	r2, [r3]
 1814 00ae 7B6A     		ldr	r3, [r7, #36]
 1815 00b0 0133     		adds	r3, r3, #1
 1816 00b2 7B62     		str	r3, [r7, #36]
 1817              	.L143:
 1818 00b4 7A6A     		ldr	r2, [r7, #36]
 1819 00b6 FB69     		ldr	r3, [r7, #28]
 1820 00b8 9A42     		cmp	r2, r3
 1821 00ba F1D3     		bcc	.L144
 1822 00bc FB79     		ldrb	r3, [r7, #7]	@ zero_extendqisi2
 1823 00be 002B     		cmp	r3, #0
 1824 00c0 11D0     		beq	.L145
ARM GAS  /var/folders/d2/nstgp4h54kz7g1l847x_b8wc0000gn/T//ccHw3j0C.s 			page 33


 1825 00c2 02E0     		b	.L146
 1826              	.L147:
 1827 00c4 BB6A     		ldr	r3, [r7, #40]
 1828 00c6 0133     		adds	r3, r3, #1
 1829 00c8 BB62     		str	r3, [r7, #40]
 1830              	.L146:
 1831 00ca 97F82320 		ldrb	r2, [r7, #35]	@ zero_extendqisi2
 1832 00ce BB6A     		ldr	r3, [r7, #40]
 1833 00d0 1344     		add	r3, r3, r2
 1834 00d2 1846     		mov	r0, r3
 1835 00d4 FFF7FEFF 		bl	is_aperture
 1836 00d8 0346     		mov	r3, r0
 1837 00da 002B     		cmp	r3, #0
 1838 00dc 03D1     		bne	.L145
 1839 00de BA6A     		ldr	r2, [r7, #40]
 1840 00e0 BB69     		ldr	r3, [r7, #24]
 1841 00e2 9A42     		cmp	r2, r3
 1842 00e4 EED3     		bcc	.L147
 1843              	.L145:
 1844 00e6 FB68     		ldr	r3, [r7, #12]
 1845 00e8 03F59570 		add	r0, r3, #298
 1846 00ec FB68     		ldr	r3, [r7, #12]
 1847 00ee 03F59274 		add	r4, r3, #292
 1848 00f2 97F82330 		ldrb	r3, [r7, #35]	@ zero_extendqisi2
 1849 00f6 F979     		ldrb	r1, [r7, #7]	@ zero_extendqisi2
 1850 00f8 07F11402 		add	r2, r7, #20
 1851 00fc 0492     		str	r2, [sp, #16]
 1852 00fe BA68     		ldr	r2, [r7, #8]
 1853 0100 0392     		str	r2, [sp, #12]
 1854 0102 BA6A     		ldr	r2, [r7, #40]
 1855 0104 0292     		str	r2, [sp, #8]
 1856 0106 0193     		str	r3, [sp, #4]
 1857 0108 FB69     		ldr	r3, [r7, #28]
 1858 010a 0093     		str	r3, [sp]
 1859 010c 2346     		mov	r3, r4
 1860 010e 0246     		mov	r2, r0
 1861 0110 F868     		ldr	r0, [r7, #12]
 1862 0112 FFF7FEFF 		bl	enable_ref_spads
 1863 0116 0346     		mov	r3, r0
 1864 0118 87F82F30 		strb	r3, [r7, #47]
 1865 011c 97F92F30 		ldrsb	r3, [r7, #47]
 1866 0120 002B     		cmp	r3, #0
 1867 0122 0CD1     		bne	.L148
 1868 0124 FB68     		ldr	r3, [r7, #12]
 1869 0126 0122     		movs	r2, #1
 1870 0128 83F81521 		strb	r2, [r3, #277]
 1871 012c BB68     		ldr	r3, [r7, #8]
 1872 012e DAB2     		uxtb	r2, r3
 1873 0130 FB68     		ldr	r3, [r7, #12]
 1874 0132 83F81321 		strb	r2, [r3, #275]
 1875 0136 FB68     		ldr	r3, [r7, #12]
 1876 0138 FA79     		ldrb	r2, [r7, #7]
 1877 013a 83F81421 		strb	r2, [r3, #276]
 1878              	.L148:
 1879 013e 97F92F30 		ldrsb	r3, [r7, #47]
 1880 0142 1846     		mov	r0, r3
 1881 0144 3437     		adds	r7, r7, #52
ARM GAS  /var/folders/d2/nstgp4h54kz7g1l847x_b8wc0000gn/T//ccHw3j0C.s 			page 34


 1882 0146 BD46     		mov	sp, r7
 1883              		@ sp needed
 1884 0148 90BD     		pop	{r4, r7, pc}
 1885              		.size	VL53L0X_set_reference_spads, .-VL53L0X_set_reference_spads
 1886              		.section	.text.VL53L0X_get_reference_spads,"ax",%progbits
 1887              		.align	1
 1888              		.global	VL53L0X_get_reference_spads
 1889              		.syntax unified
 1890              		.thumb
 1891              		.thumb_func
 1892              		.fpu fpv4-sp-d16
 1893              		.type	VL53L0X_get_reference_spads, %function
 1894              	VL53L0X_get_reference_spads:
 1895              		@ args = 0, pretend = 0, frame = 48
 1896              		@ frame_needed = 1, uses_anonymous_args = 0
 1897 0000 80B5     		push	{r7, lr}
 1898 0002 8EB0     		sub	sp, sp, #56
 1899 0004 02AF     		add	r7, sp, #8
 1900 0006 F860     		str	r0, [r7, #12]
 1901 0008 B960     		str	r1, [r7, #8]
 1902 000a 7A60     		str	r2, [r7, #4]
 1903 000c 0023     		movs	r3, #0
 1904 000e 87F82F30 		strb	r3, [r7, #47]
 1905 0012 2C23     		movs	r3, #44
 1906 0014 BB62     		str	r3, [r7, #40]
 1907 0016 0623     		movs	r3, #6
 1908 0018 7B62     		str	r3, [r7, #36]
 1909 001a 0023     		movs	r3, #0
 1910 001c FB75     		strb	r3, [r7, #23]
 1911 001e FB68     		ldr	r3, [r7, #12]
 1912 0020 93F81531 		ldrb	r3, [r3, #277]
 1913 0024 87F82330 		strb	r3, [r7, #35]
 1914 0028 97F82330 		ldrb	r3, [r7, #35]	@ zero_extendqisi2
 1915 002c 012B     		cmp	r3, #1
 1916 002e 0BD1     		bne	.L151
 1917 0030 FB68     		ldr	r3, [r7, #12]
 1918 0032 93F81331 		ldrb	r3, [r3, #275]	@ zero_extendqisi2
 1919 0036 1A46     		mov	r2, r3
 1920 0038 BB68     		ldr	r3, [r7, #8]
 1921 003a 1A60     		str	r2, [r3]
 1922 003c FB68     		ldr	r3, [r7, #12]
 1923 003e 93F81421 		ldrb	r2, [r3, #276]	@ zero_extendqisi2
 1924 0042 7B68     		ldr	r3, [r7, #4]
 1925 0044 1A70     		strb	r2, [r3]
 1926 0046 32E0     		b	.L152
 1927              	.L151:
 1928 0048 07F11C03 		add	r3, r7, #28
 1929 004c 1946     		mov	r1, r3
 1930 004e F868     		ldr	r0, [r7, #12]
 1931 0050 FFF7FEFF 		bl	get_ref_spad_map
 1932 0054 0346     		mov	r3, r0
 1933 0056 87F82F30 		strb	r3, [r7, #47]
 1934 005a 97F92F30 		ldrsb	r3, [r7, #47]
 1935 005e 002B     		cmp	r3, #0
 1936 0060 25D1     		bne	.L152
 1937 0062 07F11802 		add	r2, r7, #24
 1938 0066 07F11C00 		add	r0, r7, #28
ARM GAS  /var/folders/d2/nstgp4h54kz7g1l847x_b8wc0000gn/T//ccHw3j0C.s 			page 35


 1939 006a 07F11703 		add	r3, r7, #23
 1940 006e 0093     		str	r3, [sp]
 1941 0070 1346     		mov	r3, r2
 1942 0072 BA6A     		ldr	r2, [r7, #40]
 1943 0074 796A     		ldr	r1, [r7, #36]
 1944 0076 FFF7FEFF 		bl	count_enabled_spads
 1945 007a 0346     		mov	r3, r0
 1946 007c 87F82F30 		strb	r3, [r7, #47]
 1947 0080 97F92F30 		ldrsb	r3, [r7, #47]
 1948 0084 002B     		cmp	r3, #0
 1949 0086 12D1     		bne	.L152
 1950 0088 BA69     		ldr	r2, [r7, #24]
 1951 008a BB68     		ldr	r3, [r7, #8]
 1952 008c 1A60     		str	r2, [r3]
 1953 008e FA7D     		ldrb	r2, [r7, #23]	@ zero_extendqisi2
 1954 0090 7B68     		ldr	r3, [r7, #4]
 1955 0092 1A70     		strb	r2, [r3]
 1956 0094 FB68     		ldr	r3, [r7, #12]
 1957 0096 0122     		movs	r2, #1
 1958 0098 83F81521 		strb	r2, [r3, #277]
 1959 009c BB69     		ldr	r3, [r7, #24]
 1960 009e DAB2     		uxtb	r2, r3
 1961 00a0 FB68     		ldr	r3, [r7, #12]
 1962 00a2 83F81321 		strb	r2, [r3, #275]
 1963 00a6 FA7D     		ldrb	r2, [r7, #23]	@ zero_extendqisi2
 1964 00a8 FB68     		ldr	r3, [r7, #12]
 1965 00aa 83F81421 		strb	r2, [r3, #276]
 1966              	.L152:
 1967 00ae 97F92F30 		ldrsb	r3, [r7, #47]
 1968 00b2 1846     		mov	r0, r3
 1969 00b4 3037     		adds	r7, r7, #48
 1970 00b6 BD46     		mov	sp, r7
 1971              		@ sp needed
 1972 00b8 80BD     		pop	{r7, pc}
 1973              		.size	VL53L0X_get_reference_spads, .-VL53L0X_get_reference_spads
 1974              		.section	.text.VL53L0X_perform_single_ref_calibration,"ax",%progbits
 1975              		.align	1
 1976              		.global	VL53L0X_perform_single_ref_calibration
 1977              		.syntax unified
 1978              		.thumb
 1979              		.thumb_func
 1980              		.fpu fpv4-sp-d16
 1981              		.type	VL53L0X_perform_single_ref_calibration, %function
 1982              	VL53L0X_perform_single_ref_calibration:
 1983              		@ args = 0, pretend = 0, frame = 16
 1984              		@ frame_needed = 1, uses_anonymous_args = 0
 1985 0000 80B5     		push	{r7, lr}
 1986 0002 84B0     		sub	sp, sp, #16
 1987 0004 00AF     		add	r7, sp, #0
 1988 0006 7860     		str	r0, [r7, #4]
 1989 0008 0B46     		mov	r3, r1
 1990 000a FB70     		strb	r3, [r7, #3]
 1991 000c 0023     		movs	r3, #0
 1992 000e FB73     		strb	r3, [r7, #15]
 1993 0010 97F90F30 		ldrsb	r3, [r7, #15]
 1994 0014 002B     		cmp	r3, #0
 1995 0016 0AD1     		bne	.L155
ARM GAS  /var/folders/d2/nstgp4h54kz7g1l847x_b8wc0000gn/T//ccHw3j0C.s 			page 36


 1996 0018 FB78     		ldrb	r3, [r7, #3]
 1997 001a 43F00103 		orr	r3, r3, #1
 1998 001e DBB2     		uxtb	r3, r3
 1999 0020 1A46     		mov	r2, r3
 2000 0022 0021     		movs	r1, #0
 2001 0024 7868     		ldr	r0, [r7, #4]
 2002 0026 FFF7FEFF 		bl	VL53L0X_WrByte
 2003 002a 0346     		mov	r3, r0
 2004 002c FB73     		strb	r3, [r7, #15]
 2005              	.L155:
 2006 002e 97F90F30 		ldrsb	r3, [r7, #15]
 2007 0032 002B     		cmp	r3, #0
 2008 0034 04D1     		bne	.L156
 2009 0036 7868     		ldr	r0, [r7, #4]
 2010 0038 FFF7FEFF 		bl	VL53L0X_measurement_poll_for_completion
 2011 003c 0346     		mov	r3, r0
 2012 003e FB73     		strb	r3, [r7, #15]
 2013              	.L156:
 2014 0040 97F90F30 		ldrsb	r3, [r7, #15]
 2015 0044 002B     		cmp	r3, #0
 2016 0046 05D1     		bne	.L157
 2017 0048 0021     		movs	r1, #0
 2018 004a 7868     		ldr	r0, [r7, #4]
 2019 004c FFF7FEFF 		bl	VL53L0X_ClearInterruptMask
 2020 0050 0346     		mov	r3, r0
 2021 0052 FB73     		strb	r3, [r7, #15]
 2022              	.L157:
 2023 0054 97F90F30 		ldrsb	r3, [r7, #15]
 2024 0058 002B     		cmp	r3, #0
 2025 005a 06D1     		bne	.L158
 2026 005c 0022     		movs	r2, #0
 2027 005e 0021     		movs	r1, #0
 2028 0060 7868     		ldr	r0, [r7, #4]
 2029 0062 FFF7FEFF 		bl	VL53L0X_WrByte
 2030 0066 0346     		mov	r3, r0
 2031 0068 FB73     		strb	r3, [r7, #15]
 2032              	.L158:
 2033 006a 97F90F30 		ldrsb	r3, [r7, #15]
 2034 006e 1846     		mov	r0, r3
 2035 0070 1037     		adds	r7, r7, #16
 2036 0072 BD46     		mov	sp, r7
 2037              		@ sp needed
 2038 0074 80BD     		pop	{r7, pc}
 2039              		.size	VL53L0X_perform_single_ref_calibration, .-VL53L0X_perform_single_ref_calibration
 2040              		.section	.text.VL53L0X_ref_calibration_io,"ax",%progbits
 2041              		.align	1
 2042              		.global	VL53L0X_ref_calibration_io
 2043              		.syntax unified
 2044              		.thumb
 2045              		.thumb_func
 2046              		.fpu fpv4-sp-d16
 2047              		.type	VL53L0X_ref_calibration_io, %function
 2048              	VL53L0X_ref_calibration_io:
 2049              		@ args = 16, pretend = 0, frame = 16
 2050              		@ frame_needed = 1, uses_anonymous_args = 0
 2051 0000 80B5     		push	{r7, lr}
 2052 0002 84B0     		sub	sp, sp, #16
ARM GAS  /var/folders/d2/nstgp4h54kz7g1l847x_b8wc0000gn/T//ccHw3j0C.s 			page 37


 2053 0004 00AF     		add	r7, sp, #0
 2054 0006 7860     		str	r0, [r7, #4]
 2055 0008 0846     		mov	r0, r1
 2056 000a 1146     		mov	r1, r2
 2057 000c 1A46     		mov	r2, r3
 2058 000e 0346     		mov	r3, r0
 2059 0010 FB70     		strb	r3, [r7, #3]
 2060 0012 0B46     		mov	r3, r1
 2061 0014 BB70     		strb	r3, [r7, #2]
 2062 0016 1346     		mov	r3, r2
 2063 0018 7B70     		strb	r3, [r7, #1]
 2064 001a 0023     		movs	r3, #0
 2065 001c FB73     		strb	r3, [r7, #15]
 2066 001e 0023     		movs	r3, #0
 2067 0020 BB73     		strb	r3, [r7, #14]
 2068 0022 0122     		movs	r2, #1
 2069 0024 FF21     		movs	r1, #255
 2070 0026 7868     		ldr	r0, [r7, #4]
 2071 0028 FFF7FEFF 		bl	VL53L0X_WrByte
 2072 002c 0346     		mov	r3, r0
 2073 002e 1A46     		mov	r2, r3
 2074 0030 FB7B     		ldrb	r3, [r7, #15]
 2075 0032 1343     		orrs	r3, r3, r2
 2076 0034 FB73     		strb	r3, [r7, #15]
 2077 0036 0022     		movs	r2, #0
 2078 0038 0021     		movs	r1, #0
 2079 003a 7868     		ldr	r0, [r7, #4]
 2080 003c FFF7FEFF 		bl	VL53L0X_WrByte
 2081 0040 0346     		mov	r3, r0
 2082 0042 1A46     		mov	r2, r3
 2083 0044 FB7B     		ldrb	r3, [r7, #15]
 2084 0046 1343     		orrs	r3, r3, r2
 2085 0048 FB73     		strb	r3, [r7, #15]
 2086 004a 0022     		movs	r2, #0
 2087 004c FF21     		movs	r1, #255
 2088 004e 7868     		ldr	r0, [r7, #4]
 2089 0050 FFF7FEFF 		bl	VL53L0X_WrByte
 2090 0054 0346     		mov	r3, r0
 2091 0056 1A46     		mov	r2, r3
 2092 0058 FB7B     		ldrb	r3, [r7, #15]
 2093 005a 1343     		orrs	r3, r3, r2
 2094 005c FB73     		strb	r3, [r7, #15]
 2095 005e FB78     		ldrb	r3, [r7, #3]	@ zero_extendqisi2
 2096 0060 002B     		cmp	r3, #0
 2097 0062 1ED0     		beq	.L161
 2098 0064 97F82030 		ldrb	r3, [r7, #32]	@ zero_extendqisi2
 2099 0068 002B     		cmp	r3, #0
 2100 006a 09D0     		beq	.L162
 2101 006c BA69     		ldr	r2, [r7, #24]
 2102 006e CB21     		movs	r1, #203
 2103 0070 7868     		ldr	r0, [r7, #4]
 2104 0072 FFF7FEFF 		bl	VL53L0X_RdByte
 2105 0076 0346     		mov	r3, r0
 2106 0078 1A46     		mov	r2, r3
 2107 007a FB7B     		ldrb	r3, [r7, #15]
 2108 007c 1343     		orrs	r3, r3, r2
 2109 007e FB73     		strb	r3, [r7, #15]
ARM GAS  /var/folders/d2/nstgp4h54kz7g1l847x_b8wc0000gn/T//ccHw3j0C.s 			page 38


 2110              	.L162:
 2111 0080 97F82430 		ldrb	r3, [r7, #36]	@ zero_extendqisi2
 2112 0084 002B     		cmp	r3, #0
 2113 0086 2AD0     		beq	.L164
 2114 0088 07F10E03 		add	r3, r7, #14
 2115 008c 1A46     		mov	r2, r3
 2116 008e EE21     		movs	r1, #238
 2117 0090 7868     		ldr	r0, [r7, #4]
 2118 0092 FFF7FEFF 		bl	VL53L0X_RdByte
 2119 0096 0346     		mov	r3, r0
 2120 0098 1A46     		mov	r2, r3
 2121 009a FB7B     		ldrb	r3, [r7, #15]
 2122 009c 1343     		orrs	r3, r3, r2
 2123 009e FB73     		strb	r3, [r7, #15]
 2124 00a0 1DE0     		b	.L164
 2125              	.L161:
 2126 00a2 97F82030 		ldrb	r3, [r7, #32]	@ zero_extendqisi2
 2127 00a6 002B     		cmp	r3, #0
 2128 00a8 0AD0     		beq	.L165
 2129 00aa BB78     		ldrb	r3, [r7, #2]	@ zero_extendqisi2
 2130 00ac 1A46     		mov	r2, r3
 2131 00ae CB21     		movs	r1, #203
 2132 00b0 7868     		ldr	r0, [r7, #4]
 2133 00b2 FFF7FEFF 		bl	VL53L0X_WrByte
 2134 00b6 0346     		mov	r3, r0
 2135 00b8 1A46     		mov	r2, r3
 2136 00ba FB7B     		ldrb	r3, [r7, #15]
 2137 00bc 1343     		orrs	r3, r3, r2
 2138 00be FB73     		strb	r3, [r7, #15]
 2139              	.L165:
 2140 00c0 97F82430 		ldrb	r3, [r7, #36]	@ zero_extendqisi2
 2141 00c4 002B     		cmp	r3, #0
 2142 00c6 0AD0     		beq	.L164
 2143 00c8 7B78     		ldrb	r3, [r7, #1]	@ zero_extendqisi2
 2144 00ca 8022     		movs	r2, #128
 2145 00cc EE21     		movs	r1, #238
 2146 00ce 7868     		ldr	r0, [r7, #4]
 2147 00d0 FFF7FEFF 		bl	VL53L0X_UpdateByte
 2148 00d4 0346     		mov	r3, r0
 2149 00d6 1A46     		mov	r2, r3
 2150 00d8 FB7B     		ldrb	r3, [r7, #15]
 2151 00da 1343     		orrs	r3, r3, r2
 2152 00dc FB73     		strb	r3, [r7, #15]
 2153              	.L164:
 2154 00de 0122     		movs	r2, #1
 2155 00e0 FF21     		movs	r1, #255
 2156 00e2 7868     		ldr	r0, [r7, #4]
 2157 00e4 FFF7FEFF 		bl	VL53L0X_WrByte
 2158 00e8 0346     		mov	r3, r0
 2159 00ea 1A46     		mov	r2, r3
 2160 00ec FB7B     		ldrb	r3, [r7, #15]
 2161 00ee 1343     		orrs	r3, r3, r2
 2162 00f0 FB73     		strb	r3, [r7, #15]
 2163 00f2 0122     		movs	r2, #1
 2164 00f4 0021     		movs	r1, #0
 2165 00f6 7868     		ldr	r0, [r7, #4]
 2166 00f8 FFF7FEFF 		bl	VL53L0X_WrByte
ARM GAS  /var/folders/d2/nstgp4h54kz7g1l847x_b8wc0000gn/T//ccHw3j0C.s 			page 39


 2167 00fc 0346     		mov	r3, r0
 2168 00fe 1A46     		mov	r2, r3
 2169 0100 FB7B     		ldrb	r3, [r7, #15]
 2170 0102 1343     		orrs	r3, r3, r2
 2171 0104 FB73     		strb	r3, [r7, #15]
 2172 0106 0022     		movs	r2, #0
 2173 0108 FF21     		movs	r1, #255
 2174 010a 7868     		ldr	r0, [r7, #4]
 2175 010c FFF7FEFF 		bl	VL53L0X_WrByte
 2176 0110 0346     		mov	r3, r0
 2177 0112 1A46     		mov	r2, r3
 2178 0114 FB7B     		ldrb	r3, [r7, #15]
 2179 0116 1343     		orrs	r3, r3, r2
 2180 0118 FB73     		strb	r3, [r7, #15]
 2181 011a BB7B     		ldrb	r3, [r7, #14]	@ zero_extendqisi2
 2182 011c 23F01003 		bic	r3, r3, #16
 2183 0120 DAB2     		uxtb	r2, r3
 2184 0122 FB69     		ldr	r3, [r7, #28]
 2185 0124 1A70     		strb	r2, [r3]
 2186 0126 97F90F30 		ldrsb	r3, [r7, #15]
 2187 012a 1846     		mov	r0, r3
 2188 012c 1037     		adds	r7, r7, #16
 2189 012e BD46     		mov	sp, r7
 2190              		@ sp needed
 2191 0130 80BD     		pop	{r7, pc}
 2192              		.size	VL53L0X_ref_calibration_io, .-VL53L0X_ref_calibration_io
 2193              		.section	.text.VL53L0X_perform_vhv_calibration,"ax",%progbits
 2194              		.align	1
 2195              		.global	VL53L0X_perform_vhv_calibration
 2196              		.syntax unified
 2197              		.thumb
 2198              		.thumb_func
 2199              		.fpu fpv4-sp-d16
 2200              		.type	VL53L0X_perform_vhv_calibration, %function
 2201              	VL53L0X_perform_vhv_calibration:
 2202              		@ args = 0, pretend = 0, frame = 24
 2203              		@ frame_needed = 1, uses_anonymous_args = 0
 2204 0000 80B5     		push	{r7, lr}
 2205 0002 8AB0     		sub	sp, sp, #40
 2206 0004 04AF     		add	r7, sp, #16
 2207 0006 F860     		str	r0, [r7, #12]
 2208 0008 B960     		str	r1, [r7, #8]
 2209 000a 1146     		mov	r1, r2
 2210 000c 1A46     		mov	r2, r3
 2211 000e 0B46     		mov	r3, r1
 2212 0010 FB71     		strb	r3, [r7, #7]
 2213 0012 1346     		mov	r3, r2
 2214 0014 BB71     		strb	r3, [r7, #6]
 2215 0016 0023     		movs	r3, #0
 2216 0018 FB75     		strb	r3, [r7, #23]
 2217 001a 0023     		movs	r3, #0
 2218 001c BB75     		strb	r3, [r7, #22]
 2219 001e 0023     		movs	r3, #0
 2220 0020 7B75     		strb	r3, [r7, #21]
 2221 0022 0023     		movs	r3, #0
 2222 0024 3B75     		strb	r3, [r7, #20]
 2223 0026 0023     		movs	r3, #0
ARM GAS  /var/folders/d2/nstgp4h54kz7g1l847x_b8wc0000gn/T//ccHw3j0C.s 			page 40


 2224 0028 FB74     		strb	r3, [r7, #19]
 2225 002a BB79     		ldrb	r3, [r7, #6]	@ zero_extendqisi2
 2226 002c 002B     		cmp	r3, #0
 2227 002e 03D0     		beq	.L168
 2228 0030 FB68     		ldr	r3, [r7, #12]
 2229 0032 93F83031 		ldrb	r3, [r3, #304]
 2230 0036 BB75     		strb	r3, [r7, #22]
 2231              	.L168:
 2232 0038 0122     		movs	r2, #1
 2233 003a 0121     		movs	r1, #1
 2234 003c F868     		ldr	r0, [r7, #12]
 2235 003e FFF7FEFF 		bl	VL53L0X_WrByte
 2236 0042 0346     		mov	r3, r0
 2237 0044 FB75     		strb	r3, [r7, #23]
 2238 0046 97F91730 		ldrsb	r3, [r7, #23]
 2239 004a 002B     		cmp	r3, #0
 2240 004c 05D1     		bne	.L169
 2241 004e 4021     		movs	r1, #64
 2242 0050 F868     		ldr	r0, [r7, #12]
 2243 0052 FFF7FEFF 		bl	VL53L0X_perform_single_ref_calibration
 2244 0056 0346     		mov	r3, r0
 2245 0058 FB75     		strb	r3, [r7, #23]
 2246              	.L169:
 2247 005a 97F91730 		ldrsb	r3, [r7, #23]
 2248 005e 002B     		cmp	r3, #0
 2249 0060 15D1     		bne	.L170
 2250 0062 FB79     		ldrb	r3, [r7, #7]	@ zero_extendqisi2
 2251 0064 012B     		cmp	r3, #1
 2252 0066 12D1     		bne	.L170
 2253 0068 397D     		ldrb	r1, [r7, #20]	@ zero_extendqisi2
 2254 006a 7A7D     		ldrb	r2, [r7, #21]	@ zero_extendqisi2
 2255 006c 0023     		movs	r3, #0
 2256 006e 0393     		str	r3, [sp, #12]
 2257 0070 0123     		movs	r3, #1
 2258 0072 0293     		str	r3, [sp, #8]
 2259 0074 07F11303 		add	r3, r7, #19
 2260 0078 0193     		str	r3, [sp, #4]
 2261 007a BB68     		ldr	r3, [r7, #8]
 2262 007c 0093     		str	r3, [sp]
 2263 007e 0B46     		mov	r3, r1
 2264 0080 0121     		movs	r1, #1
 2265 0082 F868     		ldr	r0, [r7, #12]
 2266 0084 FFF7FEFF 		bl	VL53L0X_ref_calibration_io
 2267 0088 0346     		mov	r3, r0
 2268 008a FB75     		strb	r3, [r7, #23]
 2269 008c 02E0     		b	.L171
 2270              	.L170:
 2271 008e BB68     		ldr	r3, [r7, #8]
 2272 0090 0022     		movs	r2, #0
 2273 0092 1A70     		strb	r2, [r3]
 2274              	.L171:
 2275 0094 97F91730 		ldrsb	r3, [r7, #23]
 2276 0098 002B     		cmp	r3, #0
 2277 009a 12D1     		bne	.L172
 2278 009c BB79     		ldrb	r3, [r7, #6]	@ zero_extendqisi2
 2279 009e 002B     		cmp	r3, #0
 2280 00a0 0FD0     		beq	.L172
ARM GAS  /var/folders/d2/nstgp4h54kz7g1l847x_b8wc0000gn/T//ccHw3j0C.s 			page 41


 2281 00a2 BB7D     		ldrb	r3, [r7, #22]	@ zero_extendqisi2
 2282 00a4 1A46     		mov	r2, r3
 2283 00a6 0121     		movs	r1, #1
 2284 00a8 F868     		ldr	r0, [r7, #12]
 2285 00aa FFF7FEFF 		bl	VL53L0X_WrByte
 2286 00ae 0346     		mov	r3, r0
 2287 00b0 FB75     		strb	r3, [r7, #23]
 2288 00b2 97F91730 		ldrsb	r3, [r7, #23]
 2289 00b6 002B     		cmp	r3, #0
 2290 00b8 03D1     		bne	.L172
 2291 00ba FB68     		ldr	r3, [r7, #12]
 2292 00bc BA7D     		ldrb	r2, [r7, #22]
 2293 00be 83F83021 		strb	r2, [r3, #304]
 2294              	.L172:
 2295 00c2 97F91730 		ldrsb	r3, [r7, #23]
 2296 00c6 1846     		mov	r0, r3
 2297 00c8 1837     		adds	r7, r7, #24
 2298 00ca BD46     		mov	sp, r7
 2299              		@ sp needed
 2300 00cc 80BD     		pop	{r7, pc}
 2301              		.size	VL53L0X_perform_vhv_calibration, .-VL53L0X_perform_vhv_calibration
 2302              		.section	.text.VL53L0X_perform_phase_calibration,"ax",%progbits
 2303              		.align	1
 2304              		.global	VL53L0X_perform_phase_calibration
 2305              		.syntax unified
 2306              		.thumb
 2307              		.thumb_func
 2308              		.fpu fpv4-sp-d16
 2309              		.type	VL53L0X_perform_phase_calibration, %function
 2310              	VL53L0X_perform_phase_calibration:
 2311              		@ args = 0, pretend = 0, frame = 24
 2312              		@ frame_needed = 1, uses_anonymous_args = 0
 2313 0000 80B5     		push	{r7, lr}
 2314 0002 8AB0     		sub	sp, sp, #40
 2315 0004 04AF     		add	r7, sp, #16
 2316 0006 F860     		str	r0, [r7, #12]
 2317 0008 B960     		str	r1, [r7, #8]
 2318 000a 1146     		mov	r1, r2
 2319 000c 1A46     		mov	r2, r3
 2320 000e 0B46     		mov	r3, r1
 2321 0010 FB71     		strb	r3, [r7, #7]
 2322 0012 1346     		mov	r3, r2
 2323 0014 BB71     		strb	r3, [r7, #6]
 2324 0016 0023     		movs	r3, #0
 2325 0018 FB75     		strb	r3, [r7, #23]
 2326 001a 0023     		movs	r3, #0
 2327 001c BB75     		strb	r3, [r7, #22]
 2328 001e 0023     		movs	r3, #0
 2329 0020 7B75     		strb	r3, [r7, #21]
 2330 0022 0023     		movs	r3, #0
 2331 0024 3B75     		strb	r3, [r7, #20]
 2332 0026 BB79     		ldrb	r3, [r7, #6]	@ zero_extendqisi2
 2333 0028 002B     		cmp	r3, #0
 2334 002a 03D0     		beq	.L175
 2335 002c FB68     		ldr	r3, [r7, #12]
 2336 002e 93F83031 		ldrb	r3, [r3, #304]
 2337 0032 BB75     		strb	r3, [r7, #22]
ARM GAS  /var/folders/d2/nstgp4h54kz7g1l847x_b8wc0000gn/T//ccHw3j0C.s 			page 42


 2338              	.L175:
 2339 0034 0222     		movs	r2, #2
 2340 0036 0121     		movs	r1, #1
 2341 0038 F868     		ldr	r0, [r7, #12]
 2342 003a FFF7FEFF 		bl	VL53L0X_WrByte
 2343 003e 0346     		mov	r3, r0
 2344 0040 FB75     		strb	r3, [r7, #23]
 2345 0042 97F91730 		ldrsb	r3, [r7, #23]
 2346 0046 002B     		cmp	r3, #0
 2347 0048 05D1     		bne	.L176
 2348 004a 0021     		movs	r1, #0
 2349 004c F868     		ldr	r0, [r7, #12]
 2350 004e FFF7FEFF 		bl	VL53L0X_perform_single_ref_calibration
 2351 0052 0346     		mov	r3, r0
 2352 0054 FB75     		strb	r3, [r7, #23]
 2353              	.L176:
 2354 0056 97F91730 		ldrsb	r3, [r7, #23]
 2355 005a 002B     		cmp	r3, #0
 2356 005c 15D1     		bne	.L177
 2357 005e FB79     		ldrb	r3, [r7, #7]	@ zero_extendqisi2
 2358 0060 012B     		cmp	r3, #1
 2359 0062 12D1     		bne	.L177
 2360 0064 397D     		ldrb	r1, [r7, #20]	@ zero_extendqisi2
 2361 0066 7A7D     		ldrb	r2, [r7, #21]	@ zero_extendqisi2
 2362 0068 0123     		movs	r3, #1
 2363 006a 0393     		str	r3, [sp, #12]
 2364 006c 0023     		movs	r3, #0
 2365 006e 0293     		str	r3, [sp, #8]
 2366 0070 BB68     		ldr	r3, [r7, #8]
 2367 0072 0193     		str	r3, [sp, #4]
 2368 0074 07F11303 		add	r3, r7, #19
 2369 0078 0093     		str	r3, [sp]
 2370 007a 0B46     		mov	r3, r1
 2371 007c 0121     		movs	r1, #1
 2372 007e F868     		ldr	r0, [r7, #12]
 2373 0080 FFF7FEFF 		bl	VL53L0X_ref_calibration_io
 2374 0084 0346     		mov	r3, r0
 2375 0086 FB75     		strb	r3, [r7, #23]
 2376 0088 02E0     		b	.L178
 2377              	.L177:
 2378 008a BB68     		ldr	r3, [r7, #8]
 2379 008c 0022     		movs	r2, #0
 2380 008e 1A70     		strb	r2, [r3]
 2381              	.L178:
 2382 0090 97F91730 		ldrsb	r3, [r7, #23]
 2383 0094 002B     		cmp	r3, #0
 2384 0096 12D1     		bne	.L179
 2385 0098 BB79     		ldrb	r3, [r7, #6]	@ zero_extendqisi2
 2386 009a 002B     		cmp	r3, #0
 2387 009c 0FD0     		beq	.L179
 2388 009e BB7D     		ldrb	r3, [r7, #22]	@ zero_extendqisi2
 2389 00a0 1A46     		mov	r2, r3
 2390 00a2 0121     		movs	r1, #1
 2391 00a4 F868     		ldr	r0, [r7, #12]
 2392 00a6 FFF7FEFF 		bl	VL53L0X_WrByte
 2393 00aa 0346     		mov	r3, r0
 2394 00ac FB75     		strb	r3, [r7, #23]
ARM GAS  /var/folders/d2/nstgp4h54kz7g1l847x_b8wc0000gn/T//ccHw3j0C.s 			page 43


 2395 00ae 97F91730 		ldrsb	r3, [r7, #23]
 2396 00b2 002B     		cmp	r3, #0
 2397 00b4 03D1     		bne	.L179
 2398 00b6 FB68     		ldr	r3, [r7, #12]
 2399 00b8 BA7D     		ldrb	r2, [r7, #22]
 2400 00ba 83F83021 		strb	r2, [r3, #304]
 2401              	.L179:
 2402 00be 97F91730 		ldrsb	r3, [r7, #23]
 2403 00c2 1846     		mov	r0, r3
 2404 00c4 1837     		adds	r7, r7, #24
 2405 00c6 BD46     		mov	sp, r7
 2406              		@ sp needed
 2407 00c8 80BD     		pop	{r7, pc}
 2408              		.size	VL53L0X_perform_phase_calibration, .-VL53L0X_perform_phase_calibration
 2409              		.section	.text.VL53L0X_perform_ref_calibration,"ax",%progbits
 2410              		.align	1
 2411              		.global	VL53L0X_perform_ref_calibration
 2412              		.syntax unified
 2413              		.thumb
 2414              		.thumb_func
 2415              		.fpu fpv4-sp-d16
 2416              		.type	VL53L0X_perform_ref_calibration, %function
 2417              	VL53L0X_perform_ref_calibration:
 2418              		@ args = 0, pretend = 0, frame = 24
 2419              		@ frame_needed = 1, uses_anonymous_args = 0
 2420 0000 80B5     		push	{r7, lr}
 2421 0002 86B0     		sub	sp, sp, #24
 2422 0004 00AF     		add	r7, sp, #0
 2423 0006 F860     		str	r0, [r7, #12]
 2424 0008 B960     		str	r1, [r7, #8]
 2425 000a 7A60     		str	r2, [r7, #4]
 2426 000c FB70     		strb	r3, [r7, #3]
 2427 000e 0023     		movs	r3, #0
 2428 0010 FB75     		strb	r3, [r7, #23]
 2429 0012 0023     		movs	r3, #0
 2430 0014 BB75     		strb	r3, [r7, #22]
 2431 0016 FB68     		ldr	r3, [r7, #12]
 2432 0018 93F83031 		ldrb	r3, [r3, #304]
 2433 001c BB75     		strb	r3, [r7, #22]
 2434 001e FA78     		ldrb	r2, [r7, #3]	@ zero_extendqisi2
 2435 0020 0023     		movs	r3, #0
 2436 0022 B968     		ldr	r1, [r7, #8]
 2437 0024 F868     		ldr	r0, [r7, #12]
 2438 0026 FFF7FEFF 		bl	VL53L0X_perform_vhv_calibration
 2439 002a 0346     		mov	r3, r0
 2440 002c FB75     		strb	r3, [r7, #23]
 2441 002e 97F91730 		ldrsb	r3, [r7, #23]
 2442 0032 002B     		cmp	r3, #0
 2443 0034 07D1     		bne	.L182
 2444 0036 FA78     		ldrb	r2, [r7, #3]	@ zero_extendqisi2
 2445 0038 0023     		movs	r3, #0
 2446 003a 7968     		ldr	r1, [r7, #4]
 2447 003c F868     		ldr	r0, [r7, #12]
 2448 003e FFF7FEFF 		bl	VL53L0X_perform_phase_calibration
 2449 0042 0346     		mov	r3, r0
 2450 0044 FB75     		strb	r3, [r7, #23]
 2451              	.L182:
ARM GAS  /var/folders/d2/nstgp4h54kz7g1l847x_b8wc0000gn/T//ccHw3j0C.s 			page 44


 2452 0046 97F91730 		ldrsb	r3, [r7, #23]
 2453 004a 002B     		cmp	r3, #0
 2454 004c 0FD1     		bne	.L183
 2455 004e BB7D     		ldrb	r3, [r7, #22]	@ zero_extendqisi2
 2456 0050 1A46     		mov	r2, r3
 2457 0052 0121     		movs	r1, #1
 2458 0054 F868     		ldr	r0, [r7, #12]
 2459 0056 FFF7FEFF 		bl	VL53L0X_WrByte
 2460 005a 0346     		mov	r3, r0
 2461 005c FB75     		strb	r3, [r7, #23]
 2462 005e 97F91730 		ldrsb	r3, [r7, #23]
 2463 0062 002B     		cmp	r3, #0
 2464 0064 03D1     		bne	.L183
 2465 0066 FB68     		ldr	r3, [r7, #12]
 2466 0068 BA7D     		ldrb	r2, [r7, #22]
 2467 006a 83F83021 		strb	r2, [r3, #304]
 2468              	.L183:
 2469 006e 97F91730 		ldrsb	r3, [r7, #23]
 2470 0072 1846     		mov	r0, r3
 2471 0074 1837     		adds	r7, r7, #24
 2472 0076 BD46     		mov	sp, r7
 2473              		@ sp needed
 2474 0078 80BD     		pop	{r7, pc}
 2475              		.size	VL53L0X_perform_ref_calibration, .-VL53L0X_perform_ref_calibration
 2476              		.section	.text.VL53L0X_set_ref_calibration,"ax",%progbits
 2477              		.align	1
 2478              		.global	VL53L0X_set_ref_calibration
 2479              		.syntax unified
 2480              		.thumb
 2481              		.thumb_func
 2482              		.fpu fpv4-sp-d16
 2483              		.type	VL53L0X_set_ref_calibration, %function
 2484              	VL53L0X_set_ref_calibration:
 2485              		@ args = 0, pretend = 0, frame = 16
 2486              		@ frame_needed = 1, uses_anonymous_args = 0
 2487 0000 80B5     		push	{r7, lr}
 2488 0002 88B0     		sub	sp, sp, #32
 2489 0004 04AF     		add	r7, sp, #16
 2490 0006 7860     		str	r0, [r7, #4]
 2491 0008 0B46     		mov	r3, r1
 2492 000a FB70     		strb	r3, [r7, #3]
 2493 000c 1346     		mov	r3, r2
 2494 000e BB70     		strb	r3, [r7, #2]
 2495 0010 0023     		movs	r3, #0
 2496 0012 FB73     		strb	r3, [r7, #15]
 2497 0014 B978     		ldrb	r1, [r7, #2]	@ zero_extendqisi2
 2498 0016 FA78     		ldrb	r2, [r7, #3]	@ zero_extendqisi2
 2499 0018 0123     		movs	r3, #1
 2500 001a 0393     		str	r3, [sp, #12]
 2501 001c 0123     		movs	r3, #1
 2502 001e 0293     		str	r3, [sp, #8]
 2503 0020 07F10D03 		add	r3, r7, #13
 2504 0024 0193     		str	r3, [sp, #4]
 2505 0026 07F10E03 		add	r3, r7, #14
 2506 002a 0093     		str	r3, [sp]
 2507 002c 0B46     		mov	r3, r1
 2508 002e 0021     		movs	r1, #0
ARM GAS  /var/folders/d2/nstgp4h54kz7g1l847x_b8wc0000gn/T//ccHw3j0C.s 			page 45


 2509 0030 7868     		ldr	r0, [r7, #4]
 2510 0032 FFF7FEFF 		bl	VL53L0X_ref_calibration_io
 2511 0036 0346     		mov	r3, r0
 2512 0038 FB73     		strb	r3, [r7, #15]
 2513 003a 97F90F30 		ldrsb	r3, [r7, #15]
 2514 003e 1846     		mov	r0, r3
 2515 0040 1037     		adds	r7, r7, #16
 2516 0042 BD46     		mov	sp, r7
 2517              		@ sp needed
 2518 0044 80BD     		pop	{r7, pc}
 2519              		.size	VL53L0X_set_ref_calibration, .-VL53L0X_set_ref_calibration
 2520              		.section	.text.VL53L0X_get_ref_calibration,"ax",%progbits
 2521              		.align	1
 2522              		.global	VL53L0X_get_ref_calibration
 2523              		.syntax unified
 2524              		.thumb
 2525              		.thumb_func
 2526              		.fpu fpv4-sp-d16
 2527              		.type	VL53L0X_get_ref_calibration, %function
 2528              	VL53L0X_get_ref_calibration:
 2529              		@ args = 0, pretend = 0, frame = 24
 2530              		@ frame_needed = 1, uses_anonymous_args = 0
 2531 0000 80B5     		push	{r7, lr}
 2532 0002 8AB0     		sub	sp, sp, #40
 2533 0004 04AF     		add	r7, sp, #16
 2534 0006 F860     		str	r0, [r7, #12]
 2535 0008 B960     		str	r1, [r7, #8]
 2536 000a 7A60     		str	r2, [r7, #4]
 2537 000c 0023     		movs	r3, #0
 2538 000e FB75     		strb	r3, [r7, #23]
 2539 0010 0023     		movs	r3, #0
 2540 0012 BB75     		strb	r3, [r7, #22]
 2541 0014 0023     		movs	r3, #0
 2542 0016 7B75     		strb	r3, [r7, #21]
 2543 0018 797D     		ldrb	r1, [r7, #21]	@ zero_extendqisi2
 2544 001a BA7D     		ldrb	r2, [r7, #22]	@ zero_extendqisi2
 2545 001c 0123     		movs	r3, #1
 2546 001e 0393     		str	r3, [sp, #12]
 2547 0020 0123     		movs	r3, #1
 2548 0022 0293     		str	r3, [sp, #8]
 2549 0024 7B68     		ldr	r3, [r7, #4]
 2550 0026 0193     		str	r3, [sp, #4]
 2551 0028 BB68     		ldr	r3, [r7, #8]
 2552 002a 0093     		str	r3, [sp]
 2553 002c 0B46     		mov	r3, r1
 2554 002e 0121     		movs	r1, #1
 2555 0030 F868     		ldr	r0, [r7, #12]
 2556 0032 FFF7FEFF 		bl	VL53L0X_ref_calibration_io
 2557 0036 0346     		mov	r3, r0
 2558 0038 FB75     		strb	r3, [r7, #23]
 2559 003a 97F91730 		ldrsb	r3, [r7, #23]
 2560 003e 1846     		mov	r0, r3
 2561 0040 1837     		adds	r7, r7, #24
 2562 0042 BD46     		mov	sp, r7
 2563              		@ sp needed
 2564 0044 80BD     		pop	{r7, pc}
 2565              		.size	VL53L0X_get_ref_calibration, .-VL53L0X_get_ref_calibration
ARM GAS  /var/folders/d2/nstgp4h54kz7g1l847x_b8wc0000gn/T//ccHw3j0C.s 			page 46


 2566              		.ident	"GCC: (GNU Tools for Arm Embedded Processors 7-2017-q4-major) 7.2.1 20170904 (release) [ARM
ARM GAS  /var/folders/d2/nstgp4h54kz7g1l847x_b8wc0000gn/T//ccHw3j0C.s 			page 47

