ARM GAS  /var/folders/d2/nstgp4h54kz7g1l847x_b8wc0000gn/T//cczgylse.s 			page 1


   1              		.cpu cortex-m4
   2              		.eabi_attribute 27, 1
   3              		.eabi_attribute 28, 1
   4              		.eabi_attribute 20, 1
   5              		.eabi_attribute 21, 1
   6              		.eabi_attribute 23, 3
   7              		.eabi_attribute 24, 1
   8              		.eabi_attribute 25, 1
   9              		.eabi_attribute 26, 1
  10              		.eabi_attribute 30, 6
  11              		.eabi_attribute 34, 1
  12              		.eabi_attribute 18, 4
  13              		.file	"vl53l0x_api_core.c"
  14              		.section	.text.VL53L0X_reverse_bytes,"ax",%progbits
  15              		.align	1
  16              		.global	VL53L0X_reverse_bytes
  17              		.syntax unified
  18              		.thumb
  19              		.thumb_func
  20              		.fpu fpv4-sp-d16
  21              		.type	VL53L0X_reverse_bytes, %function
  22              	VL53L0X_reverse_bytes:
  23              		@ args = 0, pretend = 0, frame = 32
  24              		@ frame_needed = 1, uses_anonymous_args = 0
  25              		@ link register save eliminated.
  26 0000 80B4     		push	{r7}
  27 0002 89B0     		sub	sp, sp, #36
  28 0004 00AF     		add	r7, sp, #0
  29 0006 7860     		str	r0, [r7, #4]
  30 0008 3960     		str	r1, [r7]
  31 000a 0023     		movs	r3, #0
  32 000c FB76     		strb	r3, [r7, #27]
  33 000e 3B68     		ldr	r3, [r7]
  34 0010 5B08     		lsrs	r3, r3, #1
  35 0012 7B61     		str	r3, [r7, #20]
  36 0014 0023     		movs	r3, #0
  37 0016 FB61     		str	r3, [r7, #28]
  38 0018 19E0     		b	.L2
  39              	.L3:
  40 001a 3A68     		ldr	r2, [r7]
  41 001c FB69     		ldr	r3, [r7, #28]
  42 001e D31A     		subs	r3, r2, r3
  43 0020 013B     		subs	r3, r3, #1
  44 0022 3B61     		str	r3, [r7, #16]
  45 0024 7A68     		ldr	r2, [r7, #4]
  46 0026 FB69     		ldr	r3, [r7, #28]
  47 0028 1344     		add	r3, r3, r2
  48 002a 1B78     		ldrb	r3, [r3]
  49 002c FB73     		strb	r3, [r7, #15]
  50 002e 7A68     		ldr	r2, [r7, #4]
  51 0030 3B69     		ldr	r3, [r7, #16]
  52 0032 1A44     		add	r2, r2, r3
  53 0034 7968     		ldr	r1, [r7, #4]
  54 0036 FB69     		ldr	r3, [r7, #28]
  55 0038 0B44     		add	r3, r3, r1
  56 003a 1278     		ldrb	r2, [r2]	@ zero_extendqisi2
  57 003c 1A70     		strb	r2, [r3]
ARM GAS  /var/folders/d2/nstgp4h54kz7g1l847x_b8wc0000gn/T//cczgylse.s 			page 2


  58 003e 7A68     		ldr	r2, [r7, #4]
  59 0040 3B69     		ldr	r3, [r7, #16]
  60 0042 1344     		add	r3, r3, r2
  61 0044 FA7B     		ldrb	r2, [r7, #15]
  62 0046 1A70     		strb	r2, [r3]
  63 0048 FB69     		ldr	r3, [r7, #28]
  64 004a 0133     		adds	r3, r3, #1
  65 004c FB61     		str	r3, [r7, #28]
  66              	.L2:
  67 004e FA69     		ldr	r2, [r7, #28]
  68 0050 7B69     		ldr	r3, [r7, #20]
  69 0052 9A42     		cmp	r2, r3
  70 0054 E1D3     		bcc	.L3
  71 0056 97F91B30 		ldrsb	r3, [r7, #27]
  72 005a 1846     		mov	r0, r3
  73 005c 2437     		adds	r7, r7, #36
  74 005e BD46     		mov	sp, r7
  75              		@ sp needed
  76 0060 5DF8047B 		ldr	r7, [sp], #4
  77 0064 7047     		bx	lr
  78              		.size	VL53L0X_reverse_bytes, .-VL53L0X_reverse_bytes
  79              		.section	.text.VL53L0X_measurement_poll_for_completion,"ax",%progbits
  80              		.align	1
  81              		.global	VL53L0X_measurement_poll_for_completion
  82              		.syntax unified
  83              		.thumb
  84              		.thumb_func
  85              		.fpu fpv4-sp-d16
  86              		.type	VL53L0X_measurement_poll_for_completion, %function
  87              	VL53L0X_measurement_poll_for_completion:
  88              		@ args = 0, pretend = 0, frame = 24
  89              		@ frame_needed = 1, uses_anonymous_args = 0
  90 0000 80B5     		push	{r7, lr}
  91 0002 86B0     		sub	sp, sp, #24
  92 0004 00AF     		add	r7, sp, #0
  93 0006 7860     		str	r0, [r7, #4]
  94 0008 0023     		movs	r3, #0
  95 000a FB75     		strb	r3, [r7, #23]
  96 000c 0023     		movs	r3, #0
  97 000e FB73     		strb	r3, [r7, #15]
  98 0010 0023     		movs	r3, #0
  99 0012 3B61     		str	r3, [r7, #16]
 100              	.L10:
 101 0014 07F10F03 		add	r3, r7, #15
 102 0018 1946     		mov	r1, r3
 103 001a 7868     		ldr	r0, [r7, #4]
 104 001c FFF7FEFF 		bl	VL53L0X_GetMeasurementDataReady
 105 0020 0346     		mov	r3, r0
 106 0022 FB75     		strb	r3, [r7, #23]
 107 0024 97F91730 		ldrsb	r3, [r7, #23]
 108 0028 002B     		cmp	r3, #0
 109 002a 10D1     		bne	.L12
 110 002c FB7B     		ldrb	r3, [r7, #15]	@ zero_extendqisi2
 111 002e 012B     		cmp	r3, #1
 112 0030 0FD0     		beq	.L13
 113 0032 3B69     		ldr	r3, [r7, #16]
 114 0034 0133     		adds	r3, r3, #1
ARM GAS  /var/folders/d2/nstgp4h54kz7g1l847x_b8wc0000gn/T//cczgylse.s 			page 3


 115 0036 3B61     		str	r3, [r7, #16]
 116 0038 3B69     		ldr	r3, [r7, #16]
 117 003a B3F5FA6F 		cmp	r3, #2000
 118 003e 02D3     		bcc	.L9
 119 0040 F923     		movs	r3, #249
 120 0042 FB75     		strb	r3, [r7, #23]
 121 0044 06E0     		b	.L7
 122              	.L9:
 123 0046 7868     		ldr	r0, [r7, #4]
 124 0048 FFF7FEFF 		bl	VL53L0X_PollingDelay
 125 004c E2E7     		b	.L10
 126              	.L12:
 127 004e 00BF     		nop
 128 0050 00E0     		b	.L7
 129              	.L13:
 130 0052 00BF     		nop
 131              	.L7:
 132 0054 97F91730 		ldrsb	r3, [r7, #23]
 133 0058 1846     		mov	r0, r3
 134 005a 1837     		adds	r7, r7, #24
 135 005c BD46     		mov	sp, r7
 136              		@ sp needed
 137 005e 80BD     		pop	{r7, pc}
 138              		.size	VL53L0X_measurement_poll_for_completion, .-VL53L0X_measurement_poll_for_completion
 139              		.section	.text.VL53L0X_decode_vcsel_period,"ax",%progbits
 140              		.align	1
 141              		.global	VL53L0X_decode_vcsel_period
 142              		.syntax unified
 143              		.thumb
 144              		.thumb_func
 145              		.fpu fpv4-sp-d16
 146              		.type	VL53L0X_decode_vcsel_period, %function
 147              	VL53L0X_decode_vcsel_period:
 148              		@ args = 0, pretend = 0, frame = 16
 149              		@ frame_needed = 1, uses_anonymous_args = 0
 150              		@ link register save eliminated.
 151 0000 80B4     		push	{r7}
 152 0002 85B0     		sub	sp, sp, #20
 153 0004 00AF     		add	r7, sp, #0
 154 0006 0346     		mov	r3, r0
 155 0008 FB71     		strb	r3, [r7, #7]
 156 000a 0023     		movs	r3, #0
 157 000c FB73     		strb	r3, [r7, #15]
 158 000e FB79     		ldrb	r3, [r7, #7]
 159 0010 0133     		adds	r3, r3, #1
 160 0012 DBB2     		uxtb	r3, r3
 161 0014 5B00     		lsls	r3, r3, #1
 162 0016 FB73     		strb	r3, [r7, #15]
 163 0018 FB7B     		ldrb	r3, [r7, #15]	@ zero_extendqisi2
 164 001a 1846     		mov	r0, r3
 165 001c 1437     		adds	r7, r7, #20
 166 001e BD46     		mov	sp, r7
 167              		@ sp needed
 168 0020 5DF8047B 		ldr	r7, [sp], #4
 169 0024 7047     		bx	lr
 170              		.size	VL53L0X_decode_vcsel_period, .-VL53L0X_decode_vcsel_period
 171              		.section	.text.VL53L0X_encode_vcsel_period,"ax",%progbits
ARM GAS  /var/folders/d2/nstgp4h54kz7g1l847x_b8wc0000gn/T//cczgylse.s 			page 4


 172              		.align	1
 173              		.global	VL53L0X_encode_vcsel_period
 174              		.syntax unified
 175              		.thumb
 176              		.thumb_func
 177              		.fpu fpv4-sp-d16
 178              		.type	VL53L0X_encode_vcsel_period, %function
 179              	VL53L0X_encode_vcsel_period:
 180              		@ args = 0, pretend = 0, frame = 16
 181              		@ frame_needed = 1, uses_anonymous_args = 0
 182              		@ link register save eliminated.
 183 0000 80B4     		push	{r7}
 184 0002 85B0     		sub	sp, sp, #20
 185 0004 00AF     		add	r7, sp, #0
 186 0006 0346     		mov	r3, r0
 187 0008 FB71     		strb	r3, [r7, #7]
 188 000a 0023     		movs	r3, #0
 189 000c FB73     		strb	r3, [r7, #15]
 190 000e FB79     		ldrb	r3, [r7, #7]	@ zero_extendqisi2
 191 0010 5B08     		lsrs	r3, r3, #1
 192 0012 DBB2     		uxtb	r3, r3
 193 0014 013B     		subs	r3, r3, #1
 194 0016 FB73     		strb	r3, [r7, #15]
 195 0018 FB7B     		ldrb	r3, [r7, #15]	@ zero_extendqisi2
 196 001a 1846     		mov	r0, r3
 197 001c 1437     		adds	r7, r7, #20
 198 001e BD46     		mov	sp, r7
 199              		@ sp needed
 200 0020 5DF8047B 		ldr	r7, [sp], #4
 201 0024 7047     		bx	lr
 202              		.size	VL53L0X_encode_vcsel_period, .-VL53L0X_encode_vcsel_period
 203              		.section	.text.VL53L0X_isqrt,"ax",%progbits
 204              		.align	1
 205              		.global	VL53L0X_isqrt
 206              		.syntax unified
 207              		.thumb
 208              		.thumb_func
 209              		.fpu fpv4-sp-d16
 210              		.type	VL53L0X_isqrt, %function
 211              	VL53L0X_isqrt:
 212              		@ args = 0, pretend = 0, frame = 16
 213              		@ frame_needed = 1, uses_anonymous_args = 0
 214              		@ link register save eliminated.
 215 0000 80B4     		push	{r7}
 216 0002 85B0     		sub	sp, sp, #20
 217 0004 00AF     		add	r7, sp, #0
 218 0006 7860     		str	r0, [r7, #4]
 219 0008 0023     		movs	r3, #0
 220 000a FB60     		str	r3, [r7, #12]
 221 000c 4FF08043 		mov	r3, #1073741824
 222 0010 BB60     		str	r3, [r7, #8]
 223 0012 02E0     		b	.L19
 224              	.L20:
 225 0014 BB68     		ldr	r3, [r7, #8]
 226 0016 9B08     		lsrs	r3, r3, #2
 227 0018 BB60     		str	r3, [r7, #8]
 228              	.L19:
ARM GAS  /var/folders/d2/nstgp4h54kz7g1l847x_b8wc0000gn/T//cczgylse.s 			page 5


 229 001a BA68     		ldr	r2, [r7, #8]
 230 001c 7B68     		ldr	r3, [r7, #4]
 231 001e 9A42     		cmp	r2, r3
 232 0020 F8D8     		bhi	.L20
 233 0022 17E0     		b	.L21
 234              	.L24:
 235 0024 FA68     		ldr	r2, [r7, #12]
 236 0026 BB68     		ldr	r3, [r7, #8]
 237 0028 1344     		add	r3, r3, r2
 238 002a 7A68     		ldr	r2, [r7, #4]
 239 002c 9A42     		cmp	r2, r3
 240 002e 0BD3     		bcc	.L22
 241 0030 FA68     		ldr	r2, [r7, #12]
 242 0032 BB68     		ldr	r3, [r7, #8]
 243 0034 1344     		add	r3, r3, r2
 244 0036 7A68     		ldr	r2, [r7, #4]
 245 0038 D31A     		subs	r3, r2, r3
 246 003a 7B60     		str	r3, [r7, #4]
 247 003c FB68     		ldr	r3, [r7, #12]
 248 003e 5B08     		lsrs	r3, r3, #1
 249 0040 BA68     		ldr	r2, [r7, #8]
 250 0042 1344     		add	r3, r3, r2
 251 0044 FB60     		str	r3, [r7, #12]
 252 0046 02E0     		b	.L23
 253              	.L22:
 254 0048 FB68     		ldr	r3, [r7, #12]
 255 004a 5B08     		lsrs	r3, r3, #1
 256 004c FB60     		str	r3, [r7, #12]
 257              	.L23:
 258 004e BB68     		ldr	r3, [r7, #8]
 259 0050 9B08     		lsrs	r3, r3, #2
 260 0052 BB60     		str	r3, [r7, #8]
 261              	.L21:
 262 0054 BB68     		ldr	r3, [r7, #8]
 263 0056 002B     		cmp	r3, #0
 264 0058 E4D1     		bne	.L24
 265 005a FB68     		ldr	r3, [r7, #12]
 266 005c 1846     		mov	r0, r3
 267 005e 1437     		adds	r7, r7, #20
 268 0060 BD46     		mov	sp, r7
 269              		@ sp needed
 270 0062 5DF8047B 		ldr	r7, [sp], #4
 271 0066 7047     		bx	lr
 272              		.size	VL53L0X_isqrt, .-VL53L0X_isqrt
 273              		.section	.text.VL53L0X_quadrature_sum,"ax",%progbits
 274              		.align	1
 275              		.global	VL53L0X_quadrature_sum
 276              		.syntax unified
 277              		.thumb
 278              		.thumb_func
 279              		.fpu fpv4-sp-d16
 280              		.type	VL53L0X_quadrature_sum, %function
 281              	VL53L0X_quadrature_sum:
 282              		@ args = 0, pretend = 0, frame = 16
 283              		@ frame_needed = 1, uses_anonymous_args = 0
 284 0000 80B5     		push	{r7, lr}
 285 0002 84B0     		sub	sp, sp, #16
ARM GAS  /var/folders/d2/nstgp4h54kz7g1l847x_b8wc0000gn/T//cczgylse.s 			page 6


 286 0004 00AF     		add	r7, sp, #0
 287 0006 7860     		str	r0, [r7, #4]
 288 0008 3960     		str	r1, [r7]
 289 000a 0023     		movs	r3, #0
 290 000c FB60     		str	r3, [r7, #12]
 291 000e 7B68     		ldr	r3, [r7, #4]
 292 0010 B3F5803F 		cmp	r3, #65536
 293 0014 03D2     		bcs	.L27
 294 0016 3B68     		ldr	r3, [r7]
 295 0018 B3F5803F 		cmp	r3, #65536
 296 001c 03D3     		bcc	.L28
 297              	.L27:
 298 001e 4FF6FF73 		movw	r3, #65535
 299 0022 FB60     		str	r3, [r7, #12]
 300 0024 0CE0     		b	.L29
 301              	.L28:
 302 0026 7B68     		ldr	r3, [r7, #4]
 303 0028 7A68     		ldr	r2, [r7, #4]
 304 002a 02FB03F2 		mul	r2, r2, r3
 305 002e 3B68     		ldr	r3, [r7]
 306 0030 3968     		ldr	r1, [r7]
 307 0032 01FB03F3 		mul	r3, r1, r3
 308 0036 1344     		add	r3, r3, r2
 309 0038 1846     		mov	r0, r3
 310 003a FFF7FEFF 		bl	VL53L0X_isqrt
 311 003e F860     		str	r0, [r7, #12]
 312              	.L29:
 313 0040 FB68     		ldr	r3, [r7, #12]
 314 0042 1846     		mov	r0, r3
 315 0044 1037     		adds	r7, r7, #16
 316 0046 BD46     		mov	sp, r7
 317              		@ sp needed
 318 0048 80BD     		pop	{r7, pc}
 319              		.size	VL53L0X_quadrature_sum, .-VL53L0X_quadrature_sum
 320              		.section	.text.VL53L0X_device_read_strobe,"ax",%progbits
 321              		.align	1
 322              		.global	VL53L0X_device_read_strobe
 323              		.syntax unified
 324              		.thumb
 325              		.thumb_func
 326              		.fpu fpv4-sp-d16
 327              		.type	VL53L0X_device_read_strobe, %function
 328              	VL53L0X_device_read_strobe:
 329              		@ args = 0, pretend = 0, frame = 24
 330              		@ frame_needed = 1, uses_anonymous_args = 0
 331 0000 80B5     		push	{r7, lr}
 332 0002 86B0     		sub	sp, sp, #24
 333 0004 00AF     		add	r7, sp, #0
 334 0006 7860     		str	r0, [r7, #4]
 335 0008 0023     		movs	r3, #0
 336 000a FB75     		strb	r3, [r7, #23]
 337 000c 0022     		movs	r2, #0
 338 000e 8321     		movs	r1, #131
 339 0010 7868     		ldr	r0, [r7, #4]
 340 0012 FFF7FEFF 		bl	VL53L0X_WrByte
 341 0016 0346     		mov	r3, r0
 342 0018 1A46     		mov	r2, r3
ARM GAS  /var/folders/d2/nstgp4h54kz7g1l847x_b8wc0000gn/T//cczgylse.s 			page 7


 343 001a FB7D     		ldrb	r3, [r7, #23]
 344 001c 1343     		orrs	r3, r3, r2
 345 001e FB75     		strb	r3, [r7, #23]
 346 0020 97F91730 		ldrsb	r3, [r7, #23]
 347 0024 002B     		cmp	r3, #0
 348 0026 1ED1     		bne	.L32
 349 0028 0023     		movs	r3, #0
 350 002a 3B61     		str	r3, [r7, #16]
 351              	.L34:
 352 002c 07F10F03 		add	r3, r7, #15
 353 0030 1A46     		mov	r2, r3
 354 0032 8321     		movs	r1, #131
 355 0034 7868     		ldr	r0, [r7, #4]
 356 0036 FFF7FEFF 		bl	VL53L0X_RdByte
 357 003a 0346     		mov	r3, r0
 358 003c FB75     		strb	r3, [r7, #23]
 359 003e FB7B     		ldrb	r3, [r7, #15]	@ zero_extendqisi2
 360 0040 002B     		cmp	r3, #0
 361 0042 0AD1     		bne	.L33
 362 0044 97F91730 		ldrsb	r3, [r7, #23]
 363 0048 002B     		cmp	r3, #0
 364 004a 06D1     		bne	.L33
 365 004c 3B69     		ldr	r3, [r7, #16]
 366 004e 0133     		adds	r3, r3, #1
 367 0050 3B61     		str	r3, [r7, #16]
 368 0052 3B69     		ldr	r3, [r7, #16]
 369 0054 B3F5FA6F 		cmp	r3, #2000
 370 0058 E8D3     		bcc	.L34
 371              	.L33:
 372 005a 3B69     		ldr	r3, [r7, #16]
 373 005c B3F5FA6F 		cmp	r3, #2000
 374 0060 01D3     		bcc	.L32
 375 0062 F923     		movs	r3, #249
 376 0064 FB75     		strb	r3, [r7, #23]
 377              	.L32:
 378 0066 0122     		movs	r2, #1
 379 0068 8321     		movs	r1, #131
 380 006a 7868     		ldr	r0, [r7, #4]
 381 006c FFF7FEFF 		bl	VL53L0X_WrByte
 382 0070 0346     		mov	r3, r0
 383 0072 1A46     		mov	r2, r3
 384 0074 FB7D     		ldrb	r3, [r7, #23]
 385 0076 1343     		orrs	r3, r3, r2
 386 0078 FB75     		strb	r3, [r7, #23]
 387 007a 97F91730 		ldrsb	r3, [r7, #23]
 388 007e 1846     		mov	r0, r3
 389 0080 1837     		adds	r7, r7, #24
 390 0082 BD46     		mov	sp, r7
 391              		@ sp needed
 392 0084 80BD     		pop	{r7, pc}
 393              		.size	VL53L0X_device_read_strobe, .-VL53L0X_device_read_strobe
 394              		.section	.text.VL53L0X_get_info_from_device,"ax",%progbits
 395              		.align	1
 396              		.global	VL53L0X_get_info_from_device
 397              		.syntax unified
 398              		.thumb
 399              		.thumb_func
ARM GAS  /var/folders/d2/nstgp4h54kz7g1l847x_b8wc0000gn/T//cczgylse.s 			page 8


 400              		.fpu fpv4-sp-d16
 401              		.type	VL53L0X_get_info_from_device, %function
 402              	VL53L0X_get_info_from_device:
 403              		@ args = 0, pretend = 0, frame = 96
 404              		@ frame_needed = 1, uses_anonymous_args = 0
 405 0000 80B5     		push	{r7, lr}
 406 0002 98B0     		sub	sp, sp, #96
 407 0004 00AF     		add	r7, sp, #0
 408 0006 7860     		str	r0, [r7, #4]
 409 0008 0B46     		mov	r3, r1
 410 000a FB70     		strb	r3, [r7, #3]
 411 000c 0023     		movs	r3, #0
 412 000e 87F85F30 		strb	r3, [r7, #95]
 413 0012 0023     		movs	r3, #0
 414 0014 87F85E30 		strb	r3, [r7, #94]
 415 0018 0023     		movs	r3, #0
 416 001a 87F85D30 		strb	r3, [r7, #93]
 417 001e 0023     		movs	r3, #0
 418 0020 BB62     		str	r3, [r7, #40]
 419 0022 0023     		movs	r3, #0
 420 0024 7B62     		str	r3, [r7, #36]
 421 0026 0023     		movs	r3, #0
 422 0028 BB64     		str	r3, [r7, #72]
 423 002a 0023     		movs	r3, #0
 424 002c A7F85A30 		strh	r3, [r7, #90]	@ movhi
 425 0030 4FF4C853 		mov	r3, #6400
 426 0034 7B64     		str	r3, [r7, #68]
 427 0036 0023     		movs	r3, #0
 428 0038 7B65     		str	r3, [r7, #84]
 429 003a 0023     		movs	r3, #0
 430 003c 3B65     		str	r3, [r7, #80]
 431 003e 0023     		movs	r3, #0
 432 0040 3B64     		str	r3, [r7, #64]
 433 0042 7B68     		ldr	r3, [r7, #4]
 434 0044 93F8F030 		ldrb	r3, [r3, #240]
 435 0048 87F83F30 		strb	r3, [r7, #63]
 436 004c 97F83F30 		ldrb	r3, [r7, #63]	@ zero_extendqisi2
 437 0050 072B     		cmp	r3, #7
 438 0052 00F00884 		beq	.L37
 439 0056 0122     		movs	r2, #1
 440 0058 8021     		movs	r1, #128
 441 005a 7868     		ldr	r0, [r7, #4]
 442 005c FFF7FEFF 		bl	VL53L0X_WrByte
 443 0060 0346     		mov	r3, r0
 444 0062 1A46     		mov	r2, r3
 445 0064 97F85F30 		ldrb	r3, [r7, #95]
 446 0068 1343     		orrs	r3, r3, r2
 447 006a 87F85F30 		strb	r3, [r7, #95]
 448 006e 0122     		movs	r2, #1
 449 0070 FF21     		movs	r1, #255
 450 0072 7868     		ldr	r0, [r7, #4]
 451 0074 FFF7FEFF 		bl	VL53L0X_WrByte
 452 0078 0346     		mov	r3, r0
 453 007a 1A46     		mov	r2, r3
 454 007c 97F85F30 		ldrb	r3, [r7, #95]
 455 0080 1343     		orrs	r3, r3, r2
 456 0082 87F85F30 		strb	r3, [r7, #95]
ARM GAS  /var/folders/d2/nstgp4h54kz7g1l847x_b8wc0000gn/T//cczgylse.s 			page 9


 457 0086 0022     		movs	r2, #0
 458 0088 0021     		movs	r1, #0
 459 008a 7868     		ldr	r0, [r7, #4]
 460 008c FFF7FEFF 		bl	VL53L0X_WrByte
 461 0090 0346     		mov	r3, r0
 462 0092 1A46     		mov	r2, r3
 463 0094 97F85F30 		ldrb	r3, [r7, #95]
 464 0098 1343     		orrs	r3, r3, r2
 465 009a 87F85F30 		strb	r3, [r7, #95]
 466 009e 0622     		movs	r2, #6
 467 00a0 FF21     		movs	r1, #255
 468 00a2 7868     		ldr	r0, [r7, #4]
 469 00a4 FFF7FEFF 		bl	VL53L0X_WrByte
 470 00a8 0346     		mov	r3, r0
 471 00aa 1A46     		mov	r2, r3
 472 00ac 97F85F30 		ldrb	r3, [r7, #95]
 473 00b0 1343     		orrs	r3, r3, r2
 474 00b2 87F85F30 		strb	r3, [r7, #95]
 475 00b6 07F13703 		add	r3, r7, #55
 476 00ba 1A46     		mov	r2, r3
 477 00bc 8321     		movs	r1, #131
 478 00be 7868     		ldr	r0, [r7, #4]
 479 00c0 FFF7FEFF 		bl	VL53L0X_RdByte
 480 00c4 0346     		mov	r3, r0
 481 00c6 1A46     		mov	r2, r3
 482 00c8 97F85F30 		ldrb	r3, [r7, #95]
 483 00cc 1343     		orrs	r3, r3, r2
 484 00ce 87F85F30 		strb	r3, [r7, #95]
 485 00d2 97F83730 		ldrb	r3, [r7, #55]	@ zero_extendqisi2
 486 00d6 43F00403 		orr	r3, r3, #4
 487 00da DBB2     		uxtb	r3, r3
 488 00dc 1A46     		mov	r2, r3
 489 00de 8321     		movs	r1, #131
 490 00e0 7868     		ldr	r0, [r7, #4]
 491 00e2 FFF7FEFF 		bl	VL53L0X_WrByte
 492 00e6 0346     		mov	r3, r0
 493 00e8 1A46     		mov	r2, r3
 494 00ea 97F85F30 		ldrb	r3, [r7, #95]
 495 00ee 1343     		orrs	r3, r3, r2
 496 00f0 87F85F30 		strb	r3, [r7, #95]
 497 00f4 0722     		movs	r2, #7
 498 00f6 FF21     		movs	r1, #255
 499 00f8 7868     		ldr	r0, [r7, #4]
 500 00fa FFF7FEFF 		bl	VL53L0X_WrByte
 501 00fe 0346     		mov	r3, r0
 502 0100 1A46     		mov	r2, r3
 503 0102 97F85F30 		ldrb	r3, [r7, #95]
 504 0106 1343     		orrs	r3, r3, r2
 505 0108 87F85F30 		strb	r3, [r7, #95]
 506 010c 0122     		movs	r2, #1
 507 010e 8121     		movs	r1, #129
 508 0110 7868     		ldr	r0, [r7, #4]
 509 0112 FFF7FEFF 		bl	VL53L0X_WrByte
 510 0116 0346     		mov	r3, r0
 511 0118 1A46     		mov	r2, r3
 512 011a 97F85F30 		ldrb	r3, [r7, #95]
 513 011e 1343     		orrs	r3, r3, r2
ARM GAS  /var/folders/d2/nstgp4h54kz7g1l847x_b8wc0000gn/T//cczgylse.s 			page 10


 514 0120 87F85F30 		strb	r3, [r7, #95]
 515 0124 7868     		ldr	r0, [r7, #4]
 516 0126 FFF7FEFF 		bl	VL53L0X_PollingDelay
 517 012a 0346     		mov	r3, r0
 518 012c 1A46     		mov	r2, r3
 519 012e 97F85F30 		ldrb	r3, [r7, #95]
 520 0132 1343     		orrs	r3, r3, r2
 521 0134 87F85F30 		strb	r3, [r7, #95]
 522 0138 0122     		movs	r2, #1
 523 013a 8021     		movs	r1, #128
 524 013c 7868     		ldr	r0, [r7, #4]
 525 013e FFF7FEFF 		bl	VL53L0X_WrByte
 526 0142 0346     		mov	r3, r0
 527 0144 1A46     		mov	r2, r3
 528 0146 97F85F30 		ldrb	r3, [r7, #95]
 529 014a 1343     		orrs	r3, r3, r2
 530 014c 87F85F30 		strb	r3, [r7, #95]
 531 0150 FB78     		ldrb	r3, [r7, #3]	@ zero_extendqisi2
 532 0152 03F00103 		and	r3, r3, #1
 533 0156 002B     		cmp	r3, #0
 534 0158 00F09880 		beq	.L38
 535 015c 97F83F30 		ldrb	r3, [r7, #63]	@ zero_extendqisi2
 536 0160 03F00103 		and	r3, r3, #1
 537 0164 002B     		cmp	r3, #0
 538 0166 40F09180 		bne	.L38
 539 016a 6B22     		movs	r2, #107
 540 016c 9421     		movs	r1, #148
 541 016e 7868     		ldr	r0, [r7, #4]
 542 0170 FFF7FEFF 		bl	VL53L0X_WrByte
 543 0174 0346     		mov	r3, r0
 544 0176 1A46     		mov	r2, r3
 545 0178 97F85F30 		ldrb	r3, [r7, #95]
 546 017c 1343     		orrs	r3, r3, r2
 547 017e 87F85F30 		strb	r3, [r7, #95]
 548 0182 7868     		ldr	r0, [r7, #4]
 549 0184 FFF7FEFF 		bl	VL53L0X_device_read_strobe
 550 0188 0346     		mov	r3, r0
 551 018a 1A46     		mov	r2, r3
 552 018c 97F85F30 		ldrb	r3, [r7, #95]
 553 0190 1343     		orrs	r3, r3, r2
 554 0192 87F85F30 		strb	r3, [r7, #95]
 555 0196 07F13003 		add	r3, r7, #48
 556 019a 1A46     		mov	r2, r3
 557 019c 9021     		movs	r1, #144
 558 019e 7868     		ldr	r0, [r7, #4]
 559 01a0 FFF7FEFF 		bl	VL53L0X_RdDWord
 560 01a4 0346     		mov	r3, r0
 561 01a6 1A46     		mov	r2, r3
 562 01a8 97F85F30 		ldrb	r3, [r7, #95]
 563 01ac 1343     		orrs	r3, r3, r2
 564 01ae 87F85F30 		strb	r3, [r7, #95]
 565 01b2 3B6B     		ldr	r3, [r7, #48]
 566 01b4 1B0A     		lsrs	r3, r3, #8
 567 01b6 DBB2     		uxtb	r3, r3
 568 01b8 03F07F03 		and	r3, r3, #127
 569 01bc 87F85E30 		strb	r3, [r7, #94]
 570 01c0 3B6B     		ldr	r3, [r7, #48]
ARM GAS  /var/folders/d2/nstgp4h54kz7g1l847x_b8wc0000gn/T//cczgylse.s 			page 11


 571 01c2 DB0B     		lsrs	r3, r3, #15
 572 01c4 DBB2     		uxtb	r3, r3
 573 01c6 03F00103 		and	r3, r3, #1
 574 01ca 87F85D30 		strb	r3, [r7, #93]
 575 01ce 2422     		movs	r2, #36
 576 01d0 9421     		movs	r1, #148
 577 01d2 7868     		ldr	r0, [r7, #4]
 578 01d4 FFF7FEFF 		bl	VL53L0X_WrByte
 579 01d8 0346     		mov	r3, r0
 580 01da 1A46     		mov	r2, r3
 581 01dc 97F85F30 		ldrb	r3, [r7, #95]
 582 01e0 1343     		orrs	r3, r3, r2
 583 01e2 87F85F30 		strb	r3, [r7, #95]
 584 01e6 7868     		ldr	r0, [r7, #4]
 585 01e8 FFF7FEFF 		bl	VL53L0X_device_read_strobe
 586 01ec 0346     		mov	r3, r0
 587 01ee 1A46     		mov	r2, r3
 588 01f0 97F85F30 		ldrb	r3, [r7, #95]
 589 01f4 1343     		orrs	r3, r3, r2
 590 01f6 87F85F30 		strb	r3, [r7, #95]
 591 01fa 07F13003 		add	r3, r7, #48
 592 01fe 1A46     		mov	r2, r3
 593 0200 9021     		movs	r1, #144
 594 0202 7868     		ldr	r0, [r7, #4]
 595 0204 FFF7FEFF 		bl	VL53L0X_RdDWord
 596 0208 0346     		mov	r3, r0
 597 020a 1A46     		mov	r2, r3
 598 020c 97F85F30 		ldrb	r3, [r7, #95]
 599 0210 1343     		orrs	r3, r3, r2
 600 0212 87F85F30 		strb	r3, [r7, #95]
 601 0216 3B6B     		ldr	r3, [r7, #48]
 602 0218 1B0E     		lsrs	r3, r3, #24
 603 021a DBB2     		uxtb	r3, r3
 604 021c 3B72     		strb	r3, [r7, #8]
 605 021e 3B6B     		ldr	r3, [r7, #48]
 606 0220 1B0C     		lsrs	r3, r3, #16
 607 0222 DBB2     		uxtb	r3, r3
 608 0224 7B72     		strb	r3, [r7, #9]
 609 0226 3B6B     		ldr	r3, [r7, #48]
 610 0228 1B0A     		lsrs	r3, r3, #8
 611 022a DBB2     		uxtb	r3, r3
 612 022c BB72     		strb	r3, [r7, #10]
 613 022e 3B6B     		ldr	r3, [r7, #48]
 614 0230 DBB2     		uxtb	r3, r3
 615 0232 FB72     		strb	r3, [r7, #11]
 616 0234 2522     		movs	r2, #37
 617 0236 9421     		movs	r1, #148
 618 0238 7868     		ldr	r0, [r7, #4]
 619 023a FFF7FEFF 		bl	VL53L0X_WrByte
 620 023e 0346     		mov	r3, r0
 621 0240 1A46     		mov	r2, r3
 622 0242 97F85F30 		ldrb	r3, [r7, #95]
 623 0246 1343     		orrs	r3, r3, r2
 624 0248 87F85F30 		strb	r3, [r7, #95]
 625 024c 7868     		ldr	r0, [r7, #4]
 626 024e FFF7FEFF 		bl	VL53L0X_device_read_strobe
 627 0252 0346     		mov	r3, r0
ARM GAS  /var/folders/d2/nstgp4h54kz7g1l847x_b8wc0000gn/T//cczgylse.s 			page 12


 628 0254 1A46     		mov	r2, r3
 629 0256 97F85F30 		ldrb	r3, [r7, #95]
 630 025a 1343     		orrs	r3, r3, r2
 631 025c 87F85F30 		strb	r3, [r7, #95]
 632 0260 07F13003 		add	r3, r7, #48
 633 0264 1A46     		mov	r2, r3
 634 0266 9021     		movs	r1, #144
 635 0268 7868     		ldr	r0, [r7, #4]
 636 026a FFF7FEFF 		bl	VL53L0X_RdDWord
 637 026e 0346     		mov	r3, r0
 638 0270 1A46     		mov	r2, r3
 639 0272 97F85F30 		ldrb	r3, [r7, #95]
 640 0276 1343     		orrs	r3, r3, r2
 641 0278 87F85F30 		strb	r3, [r7, #95]
 642 027c 3B6B     		ldr	r3, [r7, #48]
 643 027e 1B0E     		lsrs	r3, r3, #24
 644 0280 DBB2     		uxtb	r3, r3
 645 0282 3B73     		strb	r3, [r7, #12]
 646 0284 3B6B     		ldr	r3, [r7, #48]
 647 0286 1B0C     		lsrs	r3, r3, #16
 648 0288 DBB2     		uxtb	r3, r3
 649 028a 7B73     		strb	r3, [r7, #13]
 650              	.L38:
 651 028c FB78     		ldrb	r3, [r7, #3]	@ zero_extendqisi2
 652 028e 03F00203 		and	r3, r3, #2
 653 0292 002B     		cmp	r3, #0
 654 0294 00F08981 		beq	.L39
 655 0298 97F83F30 		ldrb	r3, [r7, #63]	@ zero_extendqisi2
 656 029c 03F00203 		and	r3, r3, #2
 657 02a0 002B     		cmp	r3, #0
 658 02a2 40F08281 		bne	.L39
 659 02a6 0222     		movs	r2, #2
 660 02a8 9421     		movs	r1, #148
 661 02aa 7868     		ldr	r0, [r7, #4]
 662 02ac FFF7FEFF 		bl	VL53L0X_WrByte
 663 02b0 0346     		mov	r3, r0
 664 02b2 1A46     		mov	r2, r3
 665 02b4 97F85F30 		ldrb	r3, [r7, #95]
 666 02b8 1343     		orrs	r3, r3, r2
 667 02ba 87F85F30 		strb	r3, [r7, #95]
 668 02be 7868     		ldr	r0, [r7, #4]
 669 02c0 FFF7FEFF 		bl	VL53L0X_device_read_strobe
 670 02c4 0346     		mov	r3, r0
 671 02c6 1A46     		mov	r2, r3
 672 02c8 97F85F30 		ldrb	r3, [r7, #95]
 673 02cc 1343     		orrs	r3, r3, r2
 674 02ce 87F85F30 		strb	r3, [r7, #95]
 675 02d2 07F12F03 		add	r3, r7, #47
 676 02d6 1A46     		mov	r2, r3
 677 02d8 9021     		movs	r1, #144
 678 02da 7868     		ldr	r0, [r7, #4]
 679 02dc FFF7FEFF 		bl	VL53L0X_RdByte
 680 02e0 0346     		mov	r3, r0
 681 02e2 1A46     		mov	r2, r3
 682 02e4 97F85F30 		ldrb	r3, [r7, #95]
 683 02e8 1343     		orrs	r3, r3, r2
 684 02ea 87F85F30 		strb	r3, [r7, #95]
ARM GAS  /var/folders/d2/nstgp4h54kz7g1l847x_b8wc0000gn/T//cczgylse.s 			page 13


 685 02ee 7B22     		movs	r2, #123
 686 02f0 9421     		movs	r1, #148
 687 02f2 7868     		ldr	r0, [r7, #4]
 688 02f4 FFF7FEFF 		bl	VL53L0X_WrByte
 689 02f8 0346     		mov	r3, r0
 690 02fa 1A46     		mov	r2, r3
 691 02fc 97F85F30 		ldrb	r3, [r7, #95]
 692 0300 1343     		orrs	r3, r3, r2
 693 0302 87F85F30 		strb	r3, [r7, #95]
 694 0306 7868     		ldr	r0, [r7, #4]
 695 0308 FFF7FEFF 		bl	VL53L0X_device_read_strobe
 696 030c 0346     		mov	r3, r0
 697 030e 1A46     		mov	r2, r3
 698 0310 97F85F30 		ldrb	r3, [r7, #95]
 699 0314 1343     		orrs	r3, r3, r2
 700 0316 87F85F30 		strb	r3, [r7, #95]
 701 031a 07F12E03 		add	r3, r7, #46
 702 031e 1A46     		mov	r2, r3
 703 0320 9021     		movs	r1, #144
 704 0322 7868     		ldr	r0, [r7, #4]
 705 0324 FFF7FEFF 		bl	VL53L0X_RdByte
 706 0328 0346     		mov	r3, r0
 707 032a 1A46     		mov	r2, r3
 708 032c 97F85F30 		ldrb	r3, [r7, #95]
 709 0330 1343     		orrs	r3, r3, r2
 710 0332 87F85F30 		strb	r3, [r7, #95]
 711 0336 7722     		movs	r2, #119
 712 0338 9421     		movs	r1, #148
 713 033a 7868     		ldr	r0, [r7, #4]
 714 033c FFF7FEFF 		bl	VL53L0X_WrByte
 715 0340 0346     		mov	r3, r0
 716 0342 1A46     		mov	r2, r3
 717 0344 97F85F30 		ldrb	r3, [r7, #95]
 718 0348 1343     		orrs	r3, r3, r2
 719 034a 87F85F30 		strb	r3, [r7, #95]
 720 034e 7868     		ldr	r0, [r7, #4]
 721 0350 FFF7FEFF 		bl	VL53L0X_device_read_strobe
 722 0354 0346     		mov	r3, r0
 723 0356 1A46     		mov	r2, r3
 724 0358 97F85F30 		ldrb	r3, [r7, #95]
 725 035c 1343     		orrs	r3, r3, r2
 726 035e 87F85F30 		strb	r3, [r7, #95]
 727 0362 07F13003 		add	r3, r7, #48
 728 0366 1A46     		mov	r2, r3
 729 0368 9021     		movs	r1, #144
 730 036a 7868     		ldr	r0, [r7, #4]
 731 036c FFF7FEFF 		bl	VL53L0X_RdDWord
 732 0370 0346     		mov	r3, r0
 733 0372 1A46     		mov	r2, r3
 734 0374 97F85F30 		ldrb	r3, [r7, #95]
 735 0378 1343     		orrs	r3, r3, r2
 736 037a 87F85F30 		strb	r3, [r7, #95]
 737 037e 3B6B     		ldr	r3, [r7, #48]
 738 0380 5B0E     		lsrs	r3, r3, #25
 739 0382 DBB2     		uxtb	r3, r3
 740 0384 03F07F03 		and	r3, r3, #127
 741 0388 DBB2     		uxtb	r3, r3
ARM GAS  /var/folders/d2/nstgp4h54kz7g1l847x_b8wc0000gn/T//cczgylse.s 			page 14


 742 038a 3B74     		strb	r3, [r7, #16]
 743 038c 3B6B     		ldr	r3, [r7, #48]
 744 038e 9B0C     		lsrs	r3, r3, #18
 745 0390 DBB2     		uxtb	r3, r3
 746 0392 03F07F03 		and	r3, r3, #127
 747 0396 DBB2     		uxtb	r3, r3
 748 0398 7B74     		strb	r3, [r7, #17]
 749 039a 3B6B     		ldr	r3, [r7, #48]
 750 039c DB0A     		lsrs	r3, r3, #11
 751 039e DBB2     		uxtb	r3, r3
 752 03a0 03F07F03 		and	r3, r3, #127
 753 03a4 DBB2     		uxtb	r3, r3
 754 03a6 BB74     		strb	r3, [r7, #18]
 755 03a8 3B6B     		ldr	r3, [r7, #48]
 756 03aa 1B09     		lsrs	r3, r3, #4
 757 03ac DBB2     		uxtb	r3, r3
 758 03ae 03F07F03 		and	r3, r3, #127
 759 03b2 DBB2     		uxtb	r3, r3
 760 03b4 FB74     		strb	r3, [r7, #19]
 761 03b6 3B6B     		ldr	r3, [r7, #48]
 762 03b8 DBB2     		uxtb	r3, r3
 763 03ba DB00     		lsls	r3, r3, #3
 764 03bc DBB2     		uxtb	r3, r3
 765 03be 03F07803 		and	r3, r3, #120
 766 03c2 DBB2     		uxtb	r3, r3
 767 03c4 87F83730 		strb	r3, [r7, #55]
 768 03c8 7822     		movs	r2, #120
 769 03ca 9421     		movs	r1, #148
 770 03cc 7868     		ldr	r0, [r7, #4]
 771 03ce FFF7FEFF 		bl	VL53L0X_WrByte
 772 03d2 0346     		mov	r3, r0
 773 03d4 1A46     		mov	r2, r3
 774 03d6 97F85F30 		ldrb	r3, [r7, #95]
 775 03da 1343     		orrs	r3, r3, r2
 776 03dc 87F85F30 		strb	r3, [r7, #95]
 777 03e0 7868     		ldr	r0, [r7, #4]
 778 03e2 FFF7FEFF 		bl	VL53L0X_device_read_strobe
 779 03e6 0346     		mov	r3, r0
 780 03e8 1A46     		mov	r2, r3
 781 03ea 97F85F30 		ldrb	r3, [r7, #95]
 782 03ee 1343     		orrs	r3, r3, r2
 783 03f0 87F85F30 		strb	r3, [r7, #95]
 784 03f4 07F13003 		add	r3, r7, #48
 785 03f8 1A46     		mov	r2, r3
 786 03fa 9021     		movs	r1, #144
 787 03fc 7868     		ldr	r0, [r7, #4]
 788 03fe FFF7FEFF 		bl	VL53L0X_RdDWord
 789 0402 0346     		mov	r3, r0
 790 0404 1A46     		mov	r2, r3
 791 0406 97F85F30 		ldrb	r3, [r7, #95]
 792 040a 1343     		orrs	r3, r3, r2
 793 040c 87F85F30 		strb	r3, [r7, #95]
 794 0410 3B6B     		ldr	r3, [r7, #48]
 795 0412 5B0F     		lsrs	r3, r3, #29
 796 0414 DBB2     		uxtb	r3, r3
 797 0416 03F07F03 		and	r3, r3, #127
 798 041a DAB2     		uxtb	r2, r3
ARM GAS  /var/folders/d2/nstgp4h54kz7g1l847x_b8wc0000gn/T//cczgylse.s 			page 15


 799 041c 97F83730 		ldrb	r3, [r7, #55]	@ zero_extendqisi2
 800 0420 1344     		add	r3, r3, r2
 801 0422 DBB2     		uxtb	r3, r3
 802 0424 3B75     		strb	r3, [r7, #20]
 803 0426 3B6B     		ldr	r3, [r7, #48]
 804 0428 9B0D     		lsrs	r3, r3, #22
 805 042a DBB2     		uxtb	r3, r3
 806 042c 03F07F03 		and	r3, r3, #127
 807 0430 DBB2     		uxtb	r3, r3
 808 0432 7B75     		strb	r3, [r7, #21]
 809 0434 3B6B     		ldr	r3, [r7, #48]
 810 0436 DB0B     		lsrs	r3, r3, #15
 811 0438 DBB2     		uxtb	r3, r3
 812 043a 03F07F03 		and	r3, r3, #127
 813 043e DBB2     		uxtb	r3, r3
 814 0440 BB75     		strb	r3, [r7, #22]
 815 0442 3B6B     		ldr	r3, [r7, #48]
 816 0444 1B0A     		lsrs	r3, r3, #8
 817 0446 DBB2     		uxtb	r3, r3
 818 0448 03F07F03 		and	r3, r3, #127
 819 044c DBB2     		uxtb	r3, r3
 820 044e FB75     		strb	r3, [r7, #23]
 821 0450 3B6B     		ldr	r3, [r7, #48]
 822 0452 5B08     		lsrs	r3, r3, #1
 823 0454 DBB2     		uxtb	r3, r3
 824 0456 03F07F03 		and	r3, r3, #127
 825 045a DBB2     		uxtb	r3, r3
 826 045c 3B76     		strb	r3, [r7, #24]
 827 045e 3B6B     		ldr	r3, [r7, #48]
 828 0460 DBB2     		uxtb	r3, r3
 829 0462 9B01     		lsls	r3, r3, #6
 830 0464 DBB2     		uxtb	r3, r3
 831 0466 03F04003 		and	r3, r3, #64
 832 046a DBB2     		uxtb	r3, r3
 833 046c 87F83730 		strb	r3, [r7, #55]
 834 0470 7922     		movs	r2, #121
 835 0472 9421     		movs	r1, #148
 836 0474 7868     		ldr	r0, [r7, #4]
 837 0476 FFF7FEFF 		bl	VL53L0X_WrByte
 838 047a 0346     		mov	r3, r0
 839 047c 1A46     		mov	r2, r3
 840 047e 97F85F30 		ldrb	r3, [r7, #95]
 841 0482 1343     		orrs	r3, r3, r2
 842 0484 87F85F30 		strb	r3, [r7, #95]
 843 0488 7868     		ldr	r0, [r7, #4]
 844 048a FFF7FEFF 		bl	VL53L0X_device_read_strobe
 845 048e 0346     		mov	r3, r0
 846 0490 1A46     		mov	r2, r3
 847 0492 97F85F30 		ldrb	r3, [r7, #95]
 848 0496 1343     		orrs	r3, r3, r2
 849 0498 87F85F30 		strb	r3, [r7, #95]
 850 049c 07F13003 		add	r3, r7, #48
 851 04a0 1A46     		mov	r2, r3
 852 04a2 9021     		movs	r1, #144
 853 04a4 7868     		ldr	r0, [r7, #4]
 854 04a6 FFF7FEFF 		bl	VL53L0X_RdDWord
 855 04aa 0346     		mov	r3, r0
ARM GAS  /var/folders/d2/nstgp4h54kz7g1l847x_b8wc0000gn/T//cczgylse.s 			page 16


 856 04ac 1A46     		mov	r2, r3
 857 04ae 97F85F30 		ldrb	r3, [r7, #95]
 858 04b2 1343     		orrs	r3, r3, r2
 859 04b4 87F85F30 		strb	r3, [r7, #95]
 860 04b8 3B6B     		ldr	r3, [r7, #48]
 861 04ba 9B0E     		lsrs	r3, r3, #26
 862 04bc DBB2     		uxtb	r3, r3
 863 04be 03F07F03 		and	r3, r3, #127
 864 04c2 DAB2     		uxtb	r2, r3
 865 04c4 97F83730 		ldrb	r3, [r7, #55]	@ zero_extendqisi2
 866 04c8 1344     		add	r3, r3, r2
 867 04ca DBB2     		uxtb	r3, r3
 868 04cc 7B76     		strb	r3, [r7, #25]
 869 04ce 3B6B     		ldr	r3, [r7, #48]
 870 04d0 DB0C     		lsrs	r3, r3, #19
 871 04d2 DBB2     		uxtb	r3, r3
 872 04d4 03F07F03 		and	r3, r3, #127
 873 04d8 DBB2     		uxtb	r3, r3
 874 04da BB76     		strb	r3, [r7, #26]
 875 04dc 3B6B     		ldr	r3, [r7, #48]
 876 04de 1B0B     		lsrs	r3, r3, #12
 877 04e0 DBB2     		uxtb	r3, r3
 878 04e2 03F07F03 		and	r3, r3, #127
 879 04e6 DBB2     		uxtb	r3, r3
 880 04e8 FB76     		strb	r3, [r7, #27]
 881 04ea 3B6B     		ldr	r3, [r7, #48]
 882 04ec 5B09     		lsrs	r3, r3, #5
 883 04ee DBB2     		uxtb	r3, r3
 884 04f0 03F07F03 		and	r3, r3, #127
 885 04f4 DBB2     		uxtb	r3, r3
 886 04f6 3B77     		strb	r3, [r7, #28]
 887 04f8 3B6B     		ldr	r3, [r7, #48]
 888 04fa DBB2     		uxtb	r3, r3
 889 04fc 9B00     		lsls	r3, r3, #2
 890 04fe DBB2     		uxtb	r3, r3
 891 0500 03F07C03 		and	r3, r3, #124
 892 0504 DBB2     		uxtb	r3, r3
 893 0506 87F83730 		strb	r3, [r7, #55]
 894 050a 7A22     		movs	r2, #122
 895 050c 9421     		movs	r1, #148
 896 050e 7868     		ldr	r0, [r7, #4]
 897 0510 FFF7FEFF 		bl	VL53L0X_WrByte
 898 0514 0346     		mov	r3, r0
 899 0516 1A46     		mov	r2, r3
 900 0518 97F85F30 		ldrb	r3, [r7, #95]
 901 051c 1343     		orrs	r3, r3, r2
 902 051e 87F85F30 		strb	r3, [r7, #95]
 903 0522 7868     		ldr	r0, [r7, #4]
 904 0524 FFF7FEFF 		bl	VL53L0X_device_read_strobe
 905 0528 0346     		mov	r3, r0
 906 052a 1A46     		mov	r2, r3
 907 052c 97F85F30 		ldrb	r3, [r7, #95]
 908 0530 1343     		orrs	r3, r3, r2
 909 0532 87F85F30 		strb	r3, [r7, #95]
 910 0536 07F13003 		add	r3, r7, #48
 911 053a 1A46     		mov	r2, r3
 912 053c 9021     		movs	r1, #144
ARM GAS  /var/folders/d2/nstgp4h54kz7g1l847x_b8wc0000gn/T//cczgylse.s 			page 17


 913 053e 7868     		ldr	r0, [r7, #4]
 914 0540 FFF7FEFF 		bl	VL53L0X_RdDWord
 915 0544 0346     		mov	r3, r0
 916 0546 1A46     		mov	r2, r3
 917 0548 97F85F30 		ldrb	r3, [r7, #95]
 918 054c 1343     		orrs	r3, r3, r2
 919 054e 87F85F30 		strb	r3, [r7, #95]
 920 0552 3B6B     		ldr	r3, [r7, #48]
 921 0554 9B0F     		lsrs	r3, r3, #30
 922 0556 DBB2     		uxtb	r3, r3
 923 0558 03F07F03 		and	r3, r3, #127
 924 055c DAB2     		uxtb	r2, r3
 925 055e 97F83730 		ldrb	r3, [r7, #55]	@ zero_extendqisi2
 926 0562 1344     		add	r3, r3, r2
 927 0564 DBB2     		uxtb	r3, r3
 928 0566 7B77     		strb	r3, [r7, #29]
 929 0568 3B6B     		ldr	r3, [r7, #48]
 930 056a DB0D     		lsrs	r3, r3, #23
 931 056c DBB2     		uxtb	r3, r3
 932 056e 03F07F03 		and	r3, r3, #127
 933 0572 DBB2     		uxtb	r3, r3
 934 0574 BB77     		strb	r3, [r7, #30]
 935 0576 3B6B     		ldr	r3, [r7, #48]
 936 0578 1B0C     		lsrs	r3, r3, #16
 937 057a DBB2     		uxtb	r3, r3
 938 057c 03F07F03 		and	r3, r3, #127
 939 0580 DBB2     		uxtb	r3, r3
 940 0582 FB77     		strb	r3, [r7, #31]
 941 0584 3B6B     		ldr	r3, [r7, #48]
 942 0586 5B0A     		lsrs	r3, r3, #9
 943 0588 DBB2     		uxtb	r3, r3
 944 058a 03F07F03 		and	r3, r3, #127
 945 058e DBB2     		uxtb	r3, r3
 946 0590 87F82030 		strb	r3, [r7, #32]
 947 0594 3B6B     		ldr	r3, [r7, #48]
 948 0596 9B08     		lsrs	r3, r3, #2
 949 0598 DBB2     		uxtb	r3, r3
 950 059a 03F07F03 		and	r3, r3, #127
 951 059e DBB2     		uxtb	r3, r3
 952 05a0 87F82130 		strb	r3, [r7, #33]
 953 05a4 0023     		movs	r3, #0
 954 05a6 87F82230 		strb	r3, [r7, #34]
 955              	.L39:
 956 05aa FB78     		ldrb	r3, [r7, #3]	@ zero_extendqisi2
 957 05ac 03F00403 		and	r3, r3, #4
 958 05b0 002B     		cmp	r3, #0
 959 05b2 00F0F180 		beq	.L40
 960 05b6 97F83F30 		ldrb	r3, [r7, #63]	@ zero_extendqisi2
 961 05ba 03F00403 		and	r3, r3, #4
 962 05be 002B     		cmp	r3, #0
 963 05c0 40F0EA80 		bne	.L40
 964 05c4 7B22     		movs	r2, #123
 965 05c6 9421     		movs	r1, #148
 966 05c8 7868     		ldr	r0, [r7, #4]
 967 05ca FFF7FEFF 		bl	VL53L0X_WrByte
 968 05ce 0346     		mov	r3, r0
 969 05d0 1A46     		mov	r2, r3
ARM GAS  /var/folders/d2/nstgp4h54kz7g1l847x_b8wc0000gn/T//cczgylse.s 			page 18


 970 05d2 97F85F30 		ldrb	r3, [r7, #95]
 971 05d6 1343     		orrs	r3, r3, r2
 972 05d8 87F85F30 		strb	r3, [r7, #95]
 973 05dc 7868     		ldr	r0, [r7, #4]
 974 05de FFF7FEFF 		bl	VL53L0X_device_read_strobe
 975 05e2 0346     		mov	r3, r0
 976 05e4 1A46     		mov	r2, r3
 977 05e6 97F85F30 		ldrb	r3, [r7, #95]
 978 05ea 1343     		orrs	r3, r3, r2
 979 05ec 87F85F30 		strb	r3, [r7, #95]
 980 05f0 07F12803 		add	r3, r7, #40
 981 05f4 1A46     		mov	r2, r3
 982 05f6 9021     		movs	r1, #144
 983 05f8 7868     		ldr	r0, [r7, #4]
 984 05fa FFF7FEFF 		bl	VL53L0X_RdDWord
 985 05fe 0346     		mov	r3, r0
 986 0600 1A46     		mov	r2, r3
 987 0602 97F85F30 		ldrb	r3, [r7, #95]
 988 0606 1343     		orrs	r3, r3, r2
 989 0608 87F85F30 		strb	r3, [r7, #95]
 990 060c 7C22     		movs	r2, #124
 991 060e 9421     		movs	r1, #148
 992 0610 7868     		ldr	r0, [r7, #4]
 993 0612 FFF7FEFF 		bl	VL53L0X_WrByte
 994 0616 0346     		mov	r3, r0
 995 0618 1A46     		mov	r2, r3
 996 061a 97F85F30 		ldrb	r3, [r7, #95]
 997 061e 1343     		orrs	r3, r3, r2
 998 0620 87F85F30 		strb	r3, [r7, #95]
 999 0624 7868     		ldr	r0, [r7, #4]
 1000 0626 FFF7FEFF 		bl	VL53L0X_device_read_strobe
 1001 062a 0346     		mov	r3, r0
 1002 062c 1A46     		mov	r2, r3
 1003 062e 97F85F30 		ldrb	r3, [r7, #95]
 1004 0632 1343     		orrs	r3, r3, r2
 1005 0634 87F85F30 		strb	r3, [r7, #95]
 1006 0638 07F12403 		add	r3, r7, #36
 1007 063c 1A46     		mov	r2, r3
 1008 063e 9021     		movs	r1, #144
 1009 0640 7868     		ldr	r0, [r7, #4]
 1010 0642 FFF7FEFF 		bl	VL53L0X_RdDWord
 1011 0646 0346     		mov	r3, r0
 1012 0648 1A46     		mov	r2, r3
 1013 064a 97F85F30 		ldrb	r3, [r7, #95]
 1014 064e 1343     		orrs	r3, r3, r2
 1015 0650 87F85F30 		strb	r3, [r7, #95]
 1016 0654 7322     		movs	r2, #115
 1017 0656 9421     		movs	r1, #148
 1018 0658 7868     		ldr	r0, [r7, #4]
 1019 065a FFF7FEFF 		bl	VL53L0X_WrByte
 1020 065e 0346     		mov	r3, r0
 1021 0660 1A46     		mov	r2, r3
 1022 0662 97F85F30 		ldrb	r3, [r7, #95]
 1023 0666 1343     		orrs	r3, r3, r2
 1024 0668 87F85F30 		strb	r3, [r7, #95]
 1025 066c 7868     		ldr	r0, [r7, #4]
 1026 066e FFF7FEFF 		bl	VL53L0X_device_read_strobe
ARM GAS  /var/folders/d2/nstgp4h54kz7g1l847x_b8wc0000gn/T//cczgylse.s 			page 19


 1027 0672 0346     		mov	r3, r0
 1028 0674 1A46     		mov	r2, r3
 1029 0676 97F85F30 		ldrb	r3, [r7, #95]
 1030 067a 1343     		orrs	r3, r3, r2
 1031 067c 87F85F30 		strb	r3, [r7, #95]
 1032 0680 07F13003 		add	r3, r7, #48
 1033 0684 1A46     		mov	r2, r3
 1034 0686 9021     		movs	r1, #144
 1035 0688 7868     		ldr	r0, [r7, #4]
 1036 068a FFF7FEFF 		bl	VL53L0X_RdDWord
 1037 068e 0346     		mov	r3, r0
 1038 0690 1A46     		mov	r2, r3
 1039 0692 97F85F30 		ldrb	r3, [r7, #95]
 1040 0696 1343     		orrs	r3, r3, r2
 1041 0698 87F85F30 		strb	r3, [r7, #95]
 1042 069c 3B6B     		ldr	r3, [r7, #48]
 1043 069e 1B02     		lsls	r3, r3, #8
 1044 06a0 9BB2     		uxth	r3, r3
 1045 06a2 3B65     		str	r3, [r7, #80]
 1046 06a4 7422     		movs	r2, #116
 1047 06a6 9421     		movs	r1, #148
 1048 06a8 7868     		ldr	r0, [r7, #4]
 1049 06aa FFF7FEFF 		bl	VL53L0X_WrByte
 1050 06ae 0346     		mov	r3, r0
 1051 06b0 1A46     		mov	r2, r3
 1052 06b2 97F85F30 		ldrb	r3, [r7, #95]
 1053 06b6 1343     		orrs	r3, r3, r2
 1054 06b8 87F85F30 		strb	r3, [r7, #95]
 1055 06bc 7868     		ldr	r0, [r7, #4]
 1056 06be FFF7FEFF 		bl	VL53L0X_device_read_strobe
 1057 06c2 0346     		mov	r3, r0
 1058 06c4 1A46     		mov	r2, r3
 1059 06c6 97F85F30 		ldrb	r3, [r7, #95]
 1060 06ca 1343     		orrs	r3, r3, r2
 1061 06cc 87F85F30 		strb	r3, [r7, #95]
 1062 06d0 07F13003 		add	r3, r7, #48
 1063 06d4 1A46     		mov	r2, r3
 1064 06d6 9021     		movs	r1, #144
 1065 06d8 7868     		ldr	r0, [r7, #4]
 1066 06da FFF7FEFF 		bl	VL53L0X_RdDWord
 1067 06de 0346     		mov	r3, r0
 1068 06e0 1A46     		mov	r2, r3
 1069 06e2 97F85F30 		ldrb	r3, [r7, #95]
 1070 06e6 1343     		orrs	r3, r3, r2
 1071 06e8 87F85F30 		strb	r3, [r7, #95]
 1072 06ec 3B6B     		ldr	r3, [r7, #48]
 1073 06ee 1B0E     		lsrs	r3, r3, #24
 1074 06f0 3A6D     		ldr	r2, [r7, #80]
 1075 06f2 1343     		orrs	r3, r3, r2
 1076 06f4 3B65     		str	r3, [r7, #80]
 1077 06f6 7522     		movs	r2, #117
 1078 06f8 9421     		movs	r1, #148
 1079 06fa 7868     		ldr	r0, [r7, #4]
 1080 06fc FFF7FEFF 		bl	VL53L0X_WrByte
 1081 0700 0346     		mov	r3, r0
 1082 0702 1A46     		mov	r2, r3
 1083 0704 97F85F30 		ldrb	r3, [r7, #95]
ARM GAS  /var/folders/d2/nstgp4h54kz7g1l847x_b8wc0000gn/T//cczgylse.s 			page 20


 1084 0708 1343     		orrs	r3, r3, r2
 1085 070a 87F85F30 		strb	r3, [r7, #95]
 1086 070e 7868     		ldr	r0, [r7, #4]
 1087 0710 FFF7FEFF 		bl	VL53L0X_device_read_strobe
 1088 0714 0346     		mov	r3, r0
 1089 0716 1A46     		mov	r2, r3
 1090 0718 97F85F30 		ldrb	r3, [r7, #95]
 1091 071c 1343     		orrs	r3, r3, r2
 1092 071e 87F85F30 		strb	r3, [r7, #95]
 1093 0722 07F13003 		add	r3, r7, #48
 1094 0726 1A46     		mov	r2, r3
 1095 0728 9021     		movs	r1, #144
 1096 072a 7868     		ldr	r0, [r7, #4]
 1097 072c FFF7FEFF 		bl	VL53L0X_RdDWord
 1098 0730 0346     		mov	r3, r0
 1099 0732 1A46     		mov	r2, r3
 1100 0734 97F85F30 		ldrb	r3, [r7, #95]
 1101 0738 1343     		orrs	r3, r3, r2
 1102 073a 87F85F30 		strb	r3, [r7, #95]
 1103 073e 3B6B     		ldr	r3, [r7, #48]
 1104 0740 1B02     		lsls	r3, r3, #8
 1105 0742 9BB2     		uxth	r3, r3
 1106 0744 7B65     		str	r3, [r7, #84]
 1107 0746 7622     		movs	r2, #118
 1108 0748 9421     		movs	r1, #148
 1109 074a 7868     		ldr	r0, [r7, #4]
 1110 074c FFF7FEFF 		bl	VL53L0X_WrByte
 1111 0750 0346     		mov	r3, r0
 1112 0752 1A46     		mov	r2, r3
 1113 0754 97F85F30 		ldrb	r3, [r7, #95]
 1114 0758 1343     		orrs	r3, r3, r2
 1115 075a 87F85F30 		strb	r3, [r7, #95]
 1116 075e 7868     		ldr	r0, [r7, #4]
 1117 0760 FFF7FEFF 		bl	VL53L0X_device_read_strobe
 1118 0764 0346     		mov	r3, r0
 1119 0766 1A46     		mov	r2, r3
 1120 0768 97F85F30 		ldrb	r3, [r7, #95]
 1121 076c 1343     		orrs	r3, r3, r2
 1122 076e 87F85F30 		strb	r3, [r7, #95]
 1123 0772 07F13003 		add	r3, r7, #48
 1124 0776 1A46     		mov	r2, r3
 1125 0778 9021     		movs	r1, #144
 1126 077a 7868     		ldr	r0, [r7, #4]
 1127 077c FFF7FEFF 		bl	VL53L0X_RdDWord
 1128 0780 0346     		mov	r3, r0
 1129 0782 1A46     		mov	r2, r3
 1130 0784 97F85F30 		ldrb	r3, [r7, #95]
 1131 0788 1343     		orrs	r3, r3, r2
 1132 078a 87F85F30 		strb	r3, [r7, #95]
 1133 078e 3B6B     		ldr	r3, [r7, #48]
 1134 0790 1B0E     		lsrs	r3, r3, #24
 1135 0792 7A6D     		ldr	r2, [r7, #84]
 1136 0794 1343     		orrs	r3, r3, r2
 1137 0796 7B65     		str	r3, [r7, #84]
 1138              	.L40:
 1139 0798 0022     		movs	r2, #0
 1140 079a 8121     		movs	r1, #129
ARM GAS  /var/folders/d2/nstgp4h54kz7g1l847x_b8wc0000gn/T//cczgylse.s 			page 21


 1141 079c 7868     		ldr	r0, [r7, #4]
 1142 079e FFF7FEFF 		bl	VL53L0X_WrByte
 1143 07a2 0346     		mov	r3, r0
 1144 07a4 1A46     		mov	r2, r3
 1145 07a6 97F85F30 		ldrb	r3, [r7, #95]
 1146 07aa 1343     		orrs	r3, r3, r2
 1147 07ac 87F85F30 		strb	r3, [r7, #95]
 1148 07b0 0622     		movs	r2, #6
 1149 07b2 FF21     		movs	r1, #255
 1150 07b4 7868     		ldr	r0, [r7, #4]
 1151 07b6 FFF7FEFF 		bl	VL53L0X_WrByte
 1152 07ba 0346     		mov	r3, r0
 1153 07bc 1A46     		mov	r2, r3
 1154 07be 97F85F30 		ldrb	r3, [r7, #95]
 1155 07c2 1343     		orrs	r3, r3, r2
 1156 07c4 87F85F30 		strb	r3, [r7, #95]
 1157 07c8 07F13703 		add	r3, r7, #55
 1158 07cc 1A46     		mov	r2, r3
 1159 07ce 8321     		movs	r1, #131
 1160 07d0 7868     		ldr	r0, [r7, #4]
 1161 07d2 FFF7FEFF 		bl	VL53L0X_RdByte
 1162 07d6 0346     		mov	r3, r0
 1163 07d8 1A46     		mov	r2, r3
 1164 07da 97F85F30 		ldrb	r3, [r7, #95]
 1165 07de 1343     		orrs	r3, r3, r2
 1166 07e0 87F85F30 		strb	r3, [r7, #95]
 1167 07e4 97F83730 		ldrb	r3, [r7, #55]	@ zero_extendqisi2
 1168 07e8 23F00403 		bic	r3, r3, #4
 1169 07ec DBB2     		uxtb	r3, r3
 1170 07ee 1A46     		mov	r2, r3
 1171 07f0 8321     		movs	r1, #131
 1172 07f2 7868     		ldr	r0, [r7, #4]
 1173 07f4 FFF7FEFF 		bl	VL53L0X_WrByte
 1174 07f8 0346     		mov	r3, r0
 1175 07fa 1A46     		mov	r2, r3
 1176 07fc 97F85F30 		ldrb	r3, [r7, #95]
 1177 0800 1343     		orrs	r3, r3, r2
 1178 0802 87F85F30 		strb	r3, [r7, #95]
 1179 0806 0122     		movs	r2, #1
 1180 0808 FF21     		movs	r1, #255
 1181 080a 7868     		ldr	r0, [r7, #4]
 1182 080c FFF7FEFF 		bl	VL53L0X_WrByte
 1183 0810 0346     		mov	r3, r0
 1184 0812 1A46     		mov	r2, r3
 1185 0814 97F85F30 		ldrb	r3, [r7, #95]
 1186 0818 1343     		orrs	r3, r3, r2
 1187 081a 87F85F30 		strb	r3, [r7, #95]
 1188 081e 0122     		movs	r2, #1
 1189 0820 0021     		movs	r1, #0
 1190 0822 7868     		ldr	r0, [r7, #4]
 1191 0824 FFF7FEFF 		bl	VL53L0X_WrByte
 1192 0828 0346     		mov	r3, r0
 1193 082a 1A46     		mov	r2, r3
 1194 082c 97F85F30 		ldrb	r3, [r7, #95]
 1195 0830 1343     		orrs	r3, r3, r2
 1196 0832 87F85F30 		strb	r3, [r7, #95]
 1197 0836 0022     		movs	r2, #0
ARM GAS  /var/folders/d2/nstgp4h54kz7g1l847x_b8wc0000gn/T//cczgylse.s 			page 22


 1198 0838 FF21     		movs	r1, #255
 1199 083a 7868     		ldr	r0, [r7, #4]
 1200 083c FFF7FEFF 		bl	VL53L0X_WrByte
 1201 0840 0346     		mov	r3, r0
 1202 0842 1A46     		mov	r2, r3
 1203 0844 97F85F30 		ldrb	r3, [r7, #95]
 1204 0848 1343     		orrs	r3, r3, r2
 1205 084a 87F85F30 		strb	r3, [r7, #95]
 1206 084e 0022     		movs	r2, #0
 1207 0850 8021     		movs	r1, #128
 1208 0852 7868     		ldr	r0, [r7, #4]
 1209 0854 FFF7FEFF 		bl	VL53L0X_WrByte
 1210 0858 0346     		mov	r3, r0
 1211 085a 1A46     		mov	r2, r3
 1212 085c 97F85F30 		ldrb	r3, [r7, #95]
 1213 0860 1343     		orrs	r3, r3, r2
 1214 0862 87F85F30 		strb	r3, [r7, #95]
 1215              	.L37:
 1216 0866 97F95F30 		ldrsb	r3, [r7, #95]
 1217 086a 002B     		cmp	r3, #0
 1218 086c 40F08F80 		bne	.L41
 1219 0870 97F83F30 		ldrb	r3, [r7, #63]	@ zero_extendqisi2
 1220 0874 072B     		cmp	r3, #7
 1221 0876 00F08A80 		beq	.L41
 1222 087a FB78     		ldrb	r3, [r7, #3]	@ zero_extendqisi2
 1223 087c 03F00103 		and	r3, r3, #1
 1224 0880 002B     		cmp	r3, #0
 1225 0882 24D0     		beq	.L42
 1226 0884 97F83F30 		ldrb	r3, [r7, #63]	@ zero_extendqisi2
 1227 0888 03F00103 		and	r3, r3, #1
 1228 088c 002B     		cmp	r3, #0
 1229 088e 1ED1     		bne	.L42
 1230 0890 7B68     		ldr	r3, [r7, #4]
 1231 0892 97F85E20 		ldrb	r2, [r7, #94]
 1232 0896 83F81321 		strb	r2, [r3, #275]
 1233 089a 7B68     		ldr	r3, [r7, #4]
 1234 089c 97F85D20 		ldrb	r2, [r7, #93]
 1235 08a0 83F81421 		strb	r2, [r3, #276]
 1236 08a4 0023     		movs	r3, #0
 1237 08a6 FB64     		str	r3, [r7, #76]
 1238 08a8 0EE0     		b	.L43
 1239              	.L44:
 1240 08aa 07F10802 		add	r2, r7, #8
 1241 08ae FB6C     		ldr	r3, [r7, #76]
 1242 08b0 1344     		add	r3, r3, r2
 1243 08b2 1978     		ldrb	r1, [r3]	@ zero_extendqisi2
 1244 08b4 7A68     		ldr	r2, [r7, #4]
 1245 08b6 FB6C     		ldr	r3, [r7, #76]
 1246 08b8 1344     		add	r3, r3, r2
 1247 08ba 03F59573 		add	r3, r3, #298
 1248 08be 0A46     		mov	r2, r1
 1249 08c0 1A70     		strb	r2, [r3]
 1250 08c2 FB6C     		ldr	r3, [r7, #76]
 1251 08c4 0133     		adds	r3, r3, #1
 1252 08c6 FB64     		str	r3, [r7, #76]
 1253              	.L43:
 1254 08c8 FB6C     		ldr	r3, [r7, #76]
ARM GAS  /var/folders/d2/nstgp4h54kz7g1l847x_b8wc0000gn/T//cczgylse.s 			page 23


 1255 08ca 052B     		cmp	r3, #5
 1256 08cc EDDD     		ble	.L44
 1257              	.L42:
 1258 08ce FB78     		ldrb	r3, [r7, #3]	@ zero_extendqisi2
 1259 08d0 03F00203 		and	r3, r3, #2
 1260 08d4 002B     		cmp	r3, #0
 1261 08d6 18D0     		beq	.L45
 1262 08d8 97F83F30 		ldrb	r3, [r7, #63]	@ zero_extendqisi2
 1263 08dc 03F00203 		and	r3, r3, #2
 1264 08e0 002B     		cmp	r3, #0
 1265 08e2 12D1     		bne	.L45
 1266 08e4 97F82F20 		ldrb	r2, [r7, #47]	@ zero_extendqisi2
 1267 08e8 7B68     		ldr	r3, [r7, #4]
 1268 08ea 83F8F120 		strb	r2, [r3, #241]
 1269 08ee 97F82E20 		ldrb	r2, [r7, #46]	@ zero_extendqisi2
 1270 08f2 7B68     		ldr	r3, [r7, #4]
 1271 08f4 83F8F220 		strb	r2, [r3, #242]
 1272 08f8 7B68     		ldr	r3, [r7, #4]
 1273 08fa F333     		adds	r3, r3, #243
 1274 08fc BB63     		str	r3, [r7, #56]
 1275 08fe 07F11003 		add	r3, r7, #16
 1276 0902 1946     		mov	r1, r3
 1277 0904 B86B     		ldr	r0, [r7, #56]
 1278 0906 FFF7FEFF 		bl	strcpy
 1279              	.L45:
 1280 090a FB78     		ldrb	r3, [r7, #3]	@ zero_extendqisi2
 1281 090c 03F00403 		and	r3, r3, #4
 1282 0910 002B     		cmp	r3, #0
 1283 0912 30D0     		beq	.L46
 1284 0914 97F83F30 		ldrb	r3, [r7, #63]	@ zero_extendqisi2
 1285 0918 03F00403 		and	r3, r3, #4
 1286 091c 002B     		cmp	r3, #0
 1287 091e 2AD1     		bne	.L46
 1288 0920 BA6A     		ldr	r2, [r7, #40]
 1289 0922 7B68     		ldr	r3, [r7, #4]
 1290 0924 C3F81821 		str	r2, [r3, #280]
 1291 0928 7A6A     		ldr	r2, [r7, #36]
 1292 092a 7B68     		ldr	r3, [r7, #4]
 1293 092c C3F81C21 		str	r2, [r3, #284]
 1294 0930 3B6D     		ldr	r3, [r7, #80]
 1295 0932 5B02     		lsls	r3, r3, #9
 1296 0934 3B64     		str	r3, [r7, #64]
 1297 0936 7B68     		ldr	r3, [r7, #4]
 1298 0938 3A6C     		ldr	r2, [r7, #64]
 1299 093a C3F82021 		str	r2, [r3, #288]
 1300 093e 0023     		movs	r3, #0
 1301 0940 A7F85A30 		strh	r3, [r7, #90]	@ movhi
 1302 0944 7B6D     		ldr	r3, [r7, #84]
 1303 0946 002B     		cmp	r3, #0
 1304 0948 11D0     		beq	.L47
 1305 094a 7A6D     		ldr	r2, [r7, #84]
 1306 094c 7B6C     		ldr	r3, [r7, #68]
 1307 094e D31A     		subs	r3, r2, r3
 1308 0950 BB64     		str	r3, [r7, #72]
 1309 0952 BB6C     		ldr	r3, [r7, #72]
 1310 0954 4FF47A72 		mov	r2, #1000
 1311 0958 02FB03F3 		mul	r3, r2, r3
ARM GAS  /var/folders/d2/nstgp4h54kz7g1l847x_b8wc0000gn/T//cczgylse.s 			page 24


 1312 095c 1B09     		lsrs	r3, r3, #4
 1313 095e A7F85A30 		strh	r3, [r7, #90]	@ movhi
 1314 0962 B7F85A30 		ldrh	r3, [r7, #90]
 1315 0966 5B42     		negs	r3, r3
 1316 0968 9BB2     		uxth	r3, r3
 1317 096a A7F85A30 		strh	r3, [r7, #90]	@ movhi
 1318              	.L47:
 1319 096e B7F95A20 		ldrsh	r2, [r7, #90]
 1320 0972 7B68     		ldr	r3, [r7, #4]
 1321 0974 DA60     		str	r2, [r3, #12]
 1322              	.L46:
 1323 0976 97F83F20 		ldrb	r2, [r7, #63]
 1324 097a FB78     		ldrb	r3, [r7, #3]
 1325 097c 1343     		orrs	r3, r3, r2
 1326 097e DBB2     		uxtb	r3, r3
 1327 0980 87F83730 		strb	r3, [r7, #55]
 1328 0984 97F83720 		ldrb	r2, [r7, #55]	@ zero_extendqisi2
 1329 0988 7B68     		ldr	r3, [r7, #4]
 1330 098a 83F8F020 		strb	r2, [r3, #240]
 1331              	.L41:
 1332 098e 97F95F30 		ldrsb	r3, [r7, #95]
 1333 0992 1846     		mov	r0, r3
 1334 0994 6037     		adds	r7, r7, #96
 1335 0996 BD46     		mov	sp, r7
 1336              		@ sp needed
 1337 0998 80BD     		pop	{r7, pc}
 1338              		.size	VL53L0X_get_info_from_device, .-VL53L0X_get_info_from_device
 1339              		.section	.text.VL53L0X_calc_macro_period_ps,"ax",%progbits
 1340              		.align	1
 1341              		.global	VL53L0X_calc_macro_period_ps
 1342              		.syntax unified
 1343              		.thumb
 1344              		.thumb_func
 1345              		.fpu fpv4-sp-d16
 1346              		.type	VL53L0X_calc_macro_period_ps, %function
 1347              	VL53L0X_calc_macro_period_ps:
 1348              		@ args = 0, pretend = 0, frame = 24
 1349              		@ frame_needed = 1, uses_anonymous_args = 0
 1350              		@ link register save eliminated.
 1351 0000 90B4     		push	{r4, r7}
 1352 0002 86B0     		sub	sp, sp, #24
 1353 0004 00AF     		add	r7, sp, #0
 1354 0006 7860     		str	r0, [r7, #4]
 1355 0008 0B46     		mov	r3, r1
 1356 000a FB70     		strb	r3, [r7, #3]
 1357 000c 40F27763 		movw	r3, #1655
 1358 0010 4FF00004 		mov	r4, #0
 1359 0014 C7E90434 		strd	r3, [r7, #16]
 1360 0018 4FF41063 		mov	r3, #2304
 1361 001c FB60     		str	r3, [r7, #12]
 1362 001e FB78     		ldrb	r3, [r7, #3]	@ zero_extendqisi2
 1363 0020 FA68     		ldr	r2, [r7, #12]
 1364 0022 02FB03F3 		mul	r3, r2, r3
 1365 0026 3A69     		ldr	r2, [r7, #16]
 1366 0028 02FB03F3 		mul	r3, r2, r3
 1367 002c BB60     		str	r3, [r7, #8]
 1368 002e BB68     		ldr	r3, [r7, #8]
ARM GAS  /var/folders/d2/nstgp4h54kz7g1l847x_b8wc0000gn/T//cczgylse.s 			page 25


 1369 0030 1846     		mov	r0, r3
 1370 0032 1837     		adds	r7, r7, #24
 1371 0034 BD46     		mov	sp, r7
 1372              		@ sp needed
 1373 0036 90BC     		pop	{r4, r7}
 1374 0038 7047     		bx	lr
 1375              		.size	VL53L0X_calc_macro_period_ps, .-VL53L0X_calc_macro_period_ps
 1376              		.section	.text.VL53L0X_encode_timeout,"ax",%progbits
 1377              		.align	1
 1378              		.global	VL53L0X_encode_timeout
 1379              		.syntax unified
 1380              		.thumb
 1381              		.thumb_func
 1382              		.fpu fpv4-sp-d16
 1383              		.type	VL53L0X_encode_timeout, %function
 1384              	VL53L0X_encode_timeout:
 1385              		@ args = 0, pretend = 0, frame = 24
 1386              		@ frame_needed = 1, uses_anonymous_args = 0
 1387              		@ link register save eliminated.
 1388 0000 80B4     		push	{r7}
 1389 0002 87B0     		sub	sp, sp, #28
 1390 0004 00AF     		add	r7, sp, #0
 1391 0006 7860     		str	r0, [r7, #4]
 1392 0008 0023     		movs	r3, #0
 1393 000a FB82     		strh	r3, [r7, #22]	@ movhi
 1394 000c 0023     		movs	r3, #0
 1395 000e 3B61     		str	r3, [r7, #16]
 1396 0010 0023     		movs	r3, #0
 1397 0012 FB81     		strh	r3, [r7, #14]	@ movhi
 1398 0014 7B68     		ldr	r3, [r7, #4]
 1399 0016 002B     		cmp	r3, #0
 1400 0018 17D0     		beq	.L52
 1401 001a 7B68     		ldr	r3, [r7, #4]
 1402 001c 013B     		subs	r3, r3, #1
 1403 001e 3B61     		str	r3, [r7, #16]
 1404 0020 05E0     		b	.L53
 1405              	.L54:
 1406 0022 3B69     		ldr	r3, [r7, #16]
 1407 0024 5B08     		lsrs	r3, r3, #1
 1408 0026 3B61     		str	r3, [r7, #16]
 1409 0028 FB89     		ldrh	r3, [r7, #14]
 1410 002a 0133     		adds	r3, r3, #1
 1411 002c FB81     		strh	r3, [r7, #14]	@ movhi
 1412              	.L53:
 1413 002e 3B69     		ldr	r3, [r7, #16]
 1414 0030 23F0FF03 		bic	r3, r3, #255
 1415 0034 002B     		cmp	r3, #0
 1416 0036 F4D1     		bne	.L54
 1417 0038 FB89     		ldrh	r3, [r7, #14]	@ movhi
 1418 003a 1B02     		lsls	r3, r3, #8
 1419 003c 9AB2     		uxth	r2, r3
 1420 003e 3B69     		ldr	r3, [r7, #16]
 1421 0040 9BB2     		uxth	r3, r3
 1422 0042 DBB2     		uxtb	r3, r3
 1423 0044 9BB2     		uxth	r3, r3
 1424 0046 1344     		add	r3, r3, r2
 1425 0048 FB82     		strh	r3, [r7, #22]	@ movhi
ARM GAS  /var/folders/d2/nstgp4h54kz7g1l847x_b8wc0000gn/T//cczgylse.s 			page 26


 1426              	.L52:
 1427 004a FB8A     		ldrh	r3, [r7, #22]
 1428 004c 1846     		mov	r0, r3
 1429 004e 1C37     		adds	r7, r7, #28
 1430 0050 BD46     		mov	sp, r7
 1431              		@ sp needed
 1432 0052 5DF8047B 		ldr	r7, [sp], #4
 1433 0056 7047     		bx	lr
 1434              		.size	VL53L0X_encode_timeout, .-VL53L0X_encode_timeout
 1435              		.section	.text.VL53L0X_decode_timeout,"ax",%progbits
 1436              		.align	1
 1437              		.global	VL53L0X_decode_timeout
 1438              		.syntax unified
 1439              		.thumb
 1440              		.thumb_func
 1441              		.fpu fpv4-sp-d16
 1442              		.type	VL53L0X_decode_timeout, %function
 1443              	VL53L0X_decode_timeout:
 1444              		@ args = 0, pretend = 0, frame = 16
 1445              		@ frame_needed = 1, uses_anonymous_args = 0
 1446              		@ link register save eliminated.
 1447 0000 80B4     		push	{r7}
 1448 0002 85B0     		sub	sp, sp, #20
 1449 0004 00AF     		add	r7, sp, #0
 1450 0006 0346     		mov	r3, r0
 1451 0008 FB80     		strh	r3, [r7, #6]	@ movhi
 1452 000a 0023     		movs	r3, #0
 1453 000c FB60     		str	r3, [r7, #12]
 1454 000e FB88     		ldrh	r3, [r7, #6]
 1455 0010 DBB2     		uxtb	r3, r3
 1456 0012 FA88     		ldrh	r2, [r7, #6]
 1457 0014 120A     		lsrs	r2, r2, #8
 1458 0016 92B2     		uxth	r2, r2
 1459 0018 9340     		lsls	r3, r3, r2
 1460 001a 0133     		adds	r3, r3, #1
 1461 001c FB60     		str	r3, [r7, #12]
 1462 001e FB68     		ldr	r3, [r7, #12]
 1463 0020 1846     		mov	r0, r3
 1464 0022 1437     		adds	r7, r7, #20
 1465 0024 BD46     		mov	sp, r7
 1466              		@ sp needed
 1467 0026 5DF8047B 		ldr	r7, [sp], #4
 1468 002a 7047     		bx	lr
 1469              		.size	VL53L0X_decode_timeout, .-VL53L0X_decode_timeout
 1470              		.section	.text.VL53L0X_calc_timeout_mclks,"ax",%progbits
 1471              		.align	1
 1472              		.global	VL53L0X_calc_timeout_mclks
 1473              		.syntax unified
 1474              		.thumb
 1475              		.thumb_func
 1476              		.fpu fpv4-sp-d16
 1477              		.type	VL53L0X_calc_timeout_mclks, %function
 1478              	VL53L0X_calc_timeout_mclks:
 1479              		@ args = 0, pretend = 0, frame = 32
 1480              		@ frame_needed = 1, uses_anonymous_args = 0
 1481 0000 80B5     		push	{r7, lr}
 1482 0002 88B0     		sub	sp, sp, #32
ARM GAS  /var/folders/d2/nstgp4h54kz7g1l847x_b8wc0000gn/T//cczgylse.s 			page 27


 1483 0004 00AF     		add	r7, sp, #0
 1484 0006 F860     		str	r0, [r7, #12]
 1485 0008 B960     		str	r1, [r7, #8]
 1486 000a 1346     		mov	r3, r2
 1487 000c FB71     		strb	r3, [r7, #7]
 1488 000e 0023     		movs	r3, #0
 1489 0010 FB61     		str	r3, [r7, #28]
 1490 0012 FB79     		ldrb	r3, [r7, #7]	@ zero_extendqisi2
 1491 0014 1946     		mov	r1, r3
 1492 0016 F868     		ldr	r0, [r7, #12]
 1493 0018 FFF7FEFF 		bl	VL53L0X_calc_macro_period_ps
 1494 001c B861     		str	r0, [r7, #24]
 1495 001e BB69     		ldr	r3, [r7, #24]
 1496 0020 03F5FA73 		add	r3, r3, #500
 1497 0024 0A4A     		ldr	r2, .L60
 1498 0026 A2FB0323 		umull	r2, r3, r2, r3
 1499 002a 9B09     		lsrs	r3, r3, #6
 1500 002c 7B61     		str	r3, [r7, #20]
 1501 002e BB68     		ldr	r3, [r7, #8]
 1502 0030 4FF47A72 		mov	r2, #1000
 1503 0034 02FB03F2 		mul	r2, r2, r3
 1504 0038 7B69     		ldr	r3, [r7, #20]
 1505 003a 5B08     		lsrs	r3, r3, #1
 1506 003c 1A44     		add	r2, r2, r3
 1507 003e 7B69     		ldr	r3, [r7, #20]
 1508 0040 B2FBF3F3 		udiv	r3, r2, r3
 1509 0044 FB61     		str	r3, [r7, #28]
 1510 0046 FB69     		ldr	r3, [r7, #28]
 1511 0048 1846     		mov	r0, r3
 1512 004a 2037     		adds	r7, r7, #32
 1513 004c BD46     		mov	sp, r7
 1514              		@ sp needed
 1515 004e 80BD     		pop	{r7, pc}
 1516              	.L61:
 1517              		.align	2
 1518              	.L60:
 1519 0050 D34D6210 		.word	274877907
 1520              		.size	VL53L0X_calc_timeout_mclks, .-VL53L0X_calc_timeout_mclks
 1521              		.section	.text.VL53L0X_calc_timeout_us,"ax",%progbits
 1522              		.align	1
 1523              		.global	VL53L0X_calc_timeout_us
 1524              		.syntax unified
 1525              		.thumb
 1526              		.thumb_func
 1527              		.fpu fpv4-sp-d16
 1528              		.type	VL53L0X_calc_timeout_us, %function
 1529              	VL53L0X_calc_timeout_us:
 1530              		@ args = 0, pretend = 0, frame = 24
 1531              		@ frame_needed = 1, uses_anonymous_args = 0
 1532 0000 80B5     		push	{r7, lr}
 1533 0002 86B0     		sub	sp, sp, #24
 1534 0004 00AF     		add	r7, sp, #0
 1535 0006 7860     		str	r0, [r7, #4]
 1536 0008 0B46     		mov	r3, r1
 1537 000a 7B80     		strh	r3, [r7, #2]	@ movhi
 1538 000c 1346     		mov	r3, r2
 1539 000e 7B70     		strb	r3, [r7, #1]
ARM GAS  /var/folders/d2/nstgp4h54kz7g1l847x_b8wc0000gn/T//cczgylse.s 			page 28


 1540 0010 0023     		movs	r3, #0
 1541 0012 7B61     		str	r3, [r7, #20]
 1542 0014 7B78     		ldrb	r3, [r7, #1]	@ zero_extendqisi2
 1543 0016 1946     		mov	r1, r3
 1544 0018 7868     		ldr	r0, [r7, #4]
 1545 001a FFF7FEFF 		bl	VL53L0X_calc_macro_period_ps
 1546 001e 3861     		str	r0, [r7, #16]
 1547 0020 3B69     		ldr	r3, [r7, #16]
 1548 0022 03F5FA73 		add	r3, r3, #500
 1549 0026 0A4A     		ldr	r2, .L64
 1550 0028 A2FB0323 		umull	r2, r3, r2, r3
 1551 002c 9B09     		lsrs	r3, r3, #6
 1552 002e FB60     		str	r3, [r7, #12]
 1553 0030 7B88     		ldrh	r3, [r7, #2]
 1554 0032 FA68     		ldr	r2, [r7, #12]
 1555 0034 02FB03F3 		mul	r3, r2, r3
 1556 0038 03F5FA73 		add	r3, r3, #500
 1557 003c 044A     		ldr	r2, .L64
 1558 003e A2FB0323 		umull	r2, r3, r2, r3
 1559 0042 9B09     		lsrs	r3, r3, #6
 1560 0044 7B61     		str	r3, [r7, #20]
 1561 0046 7B69     		ldr	r3, [r7, #20]
 1562 0048 1846     		mov	r0, r3
 1563 004a 1837     		adds	r7, r7, #24
 1564 004c BD46     		mov	sp, r7
 1565              		@ sp needed
 1566 004e 80BD     		pop	{r7, pc}
 1567              	.L65:
 1568              		.align	2
 1569              	.L64:
 1570 0050 D34D6210 		.word	274877907
 1571              		.size	VL53L0X_calc_timeout_us, .-VL53L0X_calc_timeout_us
 1572              		.section	.text.get_sequence_step_timeout,"ax",%progbits
 1573              		.align	1
 1574              		.global	get_sequence_step_timeout
 1575              		.syntax unified
 1576              		.thumb
 1577              		.thumb_func
 1578              		.fpu fpv4-sp-d16
 1579              		.type	get_sequence_step_timeout, %function
 1580              	get_sequence_step_timeout:
 1581              		@ args = 0, pretend = 0, frame = 48
 1582              		@ frame_needed = 1, uses_anonymous_args = 0
 1583 0000 80B5     		push	{r7, lr}
 1584 0002 8CB0     		sub	sp, sp, #48
 1585 0004 00AF     		add	r7, sp, #0
 1586 0006 F860     		str	r0, [r7, #12]
 1587 0008 0B46     		mov	r3, r1
 1588 000a 7A60     		str	r2, [r7, #4]
 1589 000c FB72     		strb	r3, [r7, #11]
 1590 000e 0023     		movs	r3, #0
 1591 0010 87F82F30 		strb	r3, [r7, #47]
 1592 0014 0023     		movs	r3, #0
 1593 0016 87F82030 		strb	r3, [r7, #32]
 1594 001a 0023     		movs	r3, #0
 1595 001c BB62     		str	r3, [r7, #40]
 1596 001e 0023     		movs	r3, #0
ARM GAS  /var/folders/d2/nstgp4h54kz7g1l847x_b8wc0000gn/T//cczgylse.s 			page 29


 1597 0020 FB83     		strh	r3, [r7, #30]	@ movhi
 1598 0022 0023     		movs	r3, #0
 1599 0024 BB84     		strh	r3, [r7, #36]	@ movhi
 1600 0026 FB7A     		ldrb	r3, [r7, #11]	@ zero_extendqisi2
 1601 0028 002B     		cmp	r3, #0
 1602 002a 05D0     		beq	.L67
 1603 002c FB7A     		ldrb	r3, [r7, #11]	@ zero_extendqisi2
 1604 002e 012B     		cmp	r3, #1
 1605 0030 02D0     		beq	.L67
 1606 0032 FB7A     		ldrb	r3, [r7, #11]	@ zero_extendqisi2
 1607 0034 022B     		cmp	r3, #2
 1608 0036 28D1     		bne	.L68
 1609              	.L67:
 1610 0038 07F12103 		add	r3, r7, #33
 1611 003c 1A46     		mov	r2, r3
 1612 003e 0021     		movs	r1, #0
 1613 0040 F868     		ldr	r0, [r7, #12]
 1614 0042 FFF7FEFF 		bl	VL53L0X_GetVcselPulsePeriod
 1615 0046 0346     		mov	r3, r0
 1616 0048 87F82F30 		strb	r3, [r7, #47]
 1617 004c 97F92F30 		ldrsb	r3, [r7, #47]
 1618 0050 002B     		cmp	r3, #0
 1619 0052 09D1     		bne	.L69
 1620 0054 07F12003 		add	r3, r7, #32
 1621 0058 1A46     		mov	r2, r3
 1622 005a 4621     		movs	r1, #70
 1623 005c F868     		ldr	r0, [r7, #12]
 1624 005e FFF7FEFF 		bl	VL53L0X_RdByte
 1625 0062 0346     		mov	r3, r0
 1626 0064 87F82F30 		strb	r3, [r7, #47]
 1627              	.L69:
 1628 0068 97F82030 		ldrb	r3, [r7, #32]	@ zero_extendqisi2
 1629 006c 9BB2     		uxth	r3, r3
 1630 006e 1846     		mov	r0, r3
 1631 0070 FFF7FEFF 		bl	VL53L0X_decode_timeout
 1632 0074 0346     		mov	r3, r0
 1633 0076 7B84     		strh	r3, [r7, #34]	@ movhi
 1634 0078 97F82120 		ldrb	r2, [r7, #33]	@ zero_extendqisi2
 1635 007c 7B8C     		ldrh	r3, [r7, #34]
 1636 007e 1946     		mov	r1, r3
 1637 0080 F868     		ldr	r0, [r7, #12]
 1638 0082 FFF7FEFF 		bl	VL53L0X_calc_timeout_us
 1639 0086 B862     		str	r0, [r7, #40]
 1640 0088 92E0     		b	.L70
 1641              	.L68:
 1642 008a FB7A     		ldrb	r3, [r7, #11]	@ zero_extendqisi2
 1643 008c 032B     		cmp	r3, #3
 1644 008e 35D1     		bne	.L71
 1645 0090 07F12103 		add	r3, r7, #33
 1646 0094 1A46     		mov	r2, r3
 1647 0096 0021     		movs	r1, #0
 1648 0098 F868     		ldr	r0, [r7, #12]
 1649 009a FFF7FEFF 		bl	VL53L0X_GetVcselPulsePeriod
 1650 009e 0346     		mov	r3, r0
 1651 00a0 87F82F30 		strb	r3, [r7, #47]
 1652 00a4 97F92F30 		ldrsb	r3, [r7, #47]
 1653 00a8 002B     		cmp	r3, #0
ARM GAS  /var/folders/d2/nstgp4h54kz7g1l847x_b8wc0000gn/T//cczgylse.s 			page 30


 1654 00aa 40F08180 		bne	.L70
 1655 00ae 07F12103 		add	r3, r7, #33
 1656 00b2 1A46     		mov	r2, r3
 1657 00b4 0021     		movs	r1, #0
 1658 00b6 F868     		ldr	r0, [r7, #12]
 1659 00b8 FFF7FEFF 		bl	VL53L0X_GetVcselPulsePeriod
 1660 00bc 0346     		mov	r3, r0
 1661 00be 87F82F30 		strb	r3, [r7, #47]
 1662 00c2 97F92F30 		ldrsb	r3, [r7, #47]
 1663 00c6 002B     		cmp	r3, #0
 1664 00c8 09D1     		bne	.L73
 1665 00ca 07F11E03 		add	r3, r7, #30
 1666 00ce 1A46     		mov	r2, r3
 1667 00d0 5121     		movs	r1, #81
 1668 00d2 F868     		ldr	r0, [r7, #12]
 1669 00d4 FFF7FEFF 		bl	VL53L0X_RdWord
 1670 00d8 0346     		mov	r3, r0
 1671 00da 87F82F30 		strb	r3, [r7, #47]
 1672              	.L73:
 1673 00de FB8B     		ldrh	r3, [r7, #30]
 1674 00e0 1846     		mov	r0, r3
 1675 00e2 FFF7FEFF 		bl	VL53L0X_decode_timeout
 1676 00e6 0346     		mov	r3, r0
 1677 00e8 FB84     		strh	r3, [r7, #38]	@ movhi
 1678 00ea 97F82120 		ldrb	r2, [r7, #33]	@ zero_extendqisi2
 1679 00ee FB8C     		ldrh	r3, [r7, #38]
 1680 00f0 1946     		mov	r1, r3
 1681 00f2 F868     		ldr	r0, [r7, #12]
 1682 00f4 FFF7FEFF 		bl	VL53L0X_calc_timeout_us
 1683 00f8 B862     		str	r0, [r7, #40]
 1684 00fa 59E0     		b	.L70
 1685              	.L71:
 1686 00fc FB7A     		ldrb	r3, [r7, #11]	@ zero_extendqisi2
 1687 00fe 042B     		cmp	r3, #4
 1688 0100 56D1     		bne	.L70
 1689 0102 07F11403 		add	r3, r7, #20
 1690 0106 1946     		mov	r1, r3
 1691 0108 F868     		ldr	r0, [r7, #12]
 1692 010a FFF7FEFF 		bl	VL53L0X_GetSequenceStepEnables
 1693 010e 0023     		movs	r3, #0
 1694 0110 FB84     		strh	r3, [r7, #38]	@ movhi
 1695 0112 FB7D     		ldrb	r3, [r7, #23]	@ zero_extendqisi2
 1696 0114 002B     		cmp	r3, #0
 1697 0116 1DD0     		beq	.L74
 1698 0118 07F12103 		add	r3, r7, #33
 1699 011c 1A46     		mov	r2, r3
 1700 011e 0021     		movs	r1, #0
 1701 0120 F868     		ldr	r0, [r7, #12]
 1702 0122 FFF7FEFF 		bl	VL53L0X_GetVcselPulsePeriod
 1703 0126 0346     		mov	r3, r0
 1704 0128 87F82F30 		strb	r3, [r7, #47]
 1705 012c 97F92F30 		ldrsb	r3, [r7, #47]
 1706 0130 002B     		cmp	r3, #0
 1707 0132 0FD1     		bne	.L74
 1708 0134 07F11E03 		add	r3, r7, #30
 1709 0138 1A46     		mov	r2, r3
 1710 013a 5121     		movs	r1, #81
ARM GAS  /var/folders/d2/nstgp4h54kz7g1l847x_b8wc0000gn/T//cczgylse.s 			page 31


 1711 013c F868     		ldr	r0, [r7, #12]
 1712 013e FFF7FEFF 		bl	VL53L0X_RdWord
 1713 0142 0346     		mov	r3, r0
 1714 0144 87F82F30 		strb	r3, [r7, #47]
 1715 0148 FB8B     		ldrh	r3, [r7, #30]
 1716 014a 1846     		mov	r0, r3
 1717 014c FFF7FEFF 		bl	VL53L0X_decode_timeout
 1718 0150 0346     		mov	r3, r0
 1719 0152 FB84     		strh	r3, [r7, #38]	@ movhi
 1720              	.L74:
 1721 0154 97F92F30 		ldrsb	r3, [r7, #47]
 1722 0158 002B     		cmp	r3, #0
 1723 015a 09D1     		bne	.L75
 1724 015c 07F12103 		add	r3, r7, #33
 1725 0160 1A46     		mov	r2, r3
 1726 0162 0121     		movs	r1, #1
 1727 0164 F868     		ldr	r0, [r7, #12]
 1728 0166 FFF7FEFF 		bl	VL53L0X_GetVcselPulsePeriod
 1729 016a 0346     		mov	r3, r0
 1730 016c 87F82F30 		strb	r3, [r7, #47]
 1731              	.L75:
 1732 0170 97F92F30 		ldrsb	r3, [r7, #47]
 1733 0174 002B     		cmp	r3, #0
 1734 0176 0FD1     		bne	.L76
 1735 0178 07F11C03 		add	r3, r7, #28
 1736 017c 1A46     		mov	r2, r3
 1737 017e 7121     		movs	r1, #113
 1738 0180 F868     		ldr	r0, [r7, #12]
 1739 0182 FFF7FEFF 		bl	VL53L0X_RdWord
 1740 0186 0346     		mov	r3, r0
 1741 0188 87F82F30 		strb	r3, [r7, #47]
 1742 018c BB8B     		ldrh	r3, [r7, #28]
 1743 018e 1846     		mov	r0, r3
 1744 0190 FFF7FEFF 		bl	VL53L0X_decode_timeout
 1745 0194 0346     		mov	r3, r0
 1746 0196 BB84     		strh	r3, [r7, #36]	@ movhi
 1747              	.L76:
 1748 0198 BA8C     		ldrh	r2, [r7, #36]	@ movhi
 1749 019a FB8C     		ldrh	r3, [r7, #38]	@ movhi
 1750 019c D31A     		subs	r3, r2, r3
 1751 019e BB84     		strh	r3, [r7, #36]	@ movhi
 1752 01a0 97F82120 		ldrb	r2, [r7, #33]	@ zero_extendqisi2
 1753 01a4 BB8C     		ldrh	r3, [r7, #36]
 1754 01a6 1946     		mov	r1, r3
 1755 01a8 F868     		ldr	r0, [r7, #12]
 1756 01aa FFF7FEFF 		bl	VL53L0X_calc_timeout_us
 1757 01ae B862     		str	r0, [r7, #40]
 1758              	.L70:
 1759 01b0 7B68     		ldr	r3, [r7, #4]
 1760 01b2 BA6A     		ldr	r2, [r7, #40]
 1761 01b4 1A60     		str	r2, [r3]
 1762 01b6 97F92F30 		ldrsb	r3, [r7, #47]
 1763 01ba 1846     		mov	r0, r3
 1764 01bc 3037     		adds	r7, r7, #48
 1765 01be BD46     		mov	sp, r7
 1766              		@ sp needed
 1767 01c0 80BD     		pop	{r7, pc}
ARM GAS  /var/folders/d2/nstgp4h54kz7g1l847x_b8wc0000gn/T//cczgylse.s 			page 32


 1768              		.size	get_sequence_step_timeout, .-get_sequence_step_timeout
 1769              		.section	.text.set_sequence_step_timeout,"ax",%progbits
 1770              		.align	1
 1771              		.global	set_sequence_step_timeout
 1772              		.syntax unified
 1773              		.thumb
 1774              		.thumb_func
 1775              		.fpu fpv4-sp-d16
 1776              		.type	set_sequence_step_timeout, %function
 1777              	set_sequence_step_timeout:
 1778              		@ args = 0, pretend = 0, frame = 40
 1779              		@ frame_needed = 1, uses_anonymous_args = 0
 1780 0000 80B5     		push	{r7, lr}
 1781 0002 8AB0     		sub	sp, sp, #40
 1782 0004 00AF     		add	r7, sp, #0
 1783 0006 F860     		str	r0, [r7, #12]
 1784 0008 0B46     		mov	r3, r1
 1785 000a 7A60     		str	r2, [r7, #4]
 1786 000c FB72     		strb	r3, [r7, #11]
 1787 000e 0023     		movs	r3, #0
 1788 0010 87F82730 		strb	r3, [r7, #39]
 1789 0014 FB7A     		ldrb	r3, [r7, #11]	@ zero_extendqisi2
 1790 0016 002B     		cmp	r3, #0
 1791 0018 05D0     		beq	.L79
 1792 001a FB7A     		ldrb	r3, [r7, #11]	@ zero_extendqisi2
 1793 001c 012B     		cmp	r3, #1
 1794 001e 02D0     		beq	.L79
 1795 0020 FB7A     		ldrb	r3, [r7, #11]	@ zero_extendqisi2
 1796 0022 022B     		cmp	r3, #2
 1797 0024 38D1     		bne	.L80
 1798              	.L79:
 1799 0026 07F11B03 		add	r3, r7, #27
 1800 002a 1A46     		mov	r2, r3
 1801 002c 0021     		movs	r1, #0
 1802 002e F868     		ldr	r0, [r7, #12]
 1803 0030 FFF7FEFF 		bl	VL53L0X_GetVcselPulsePeriod
 1804 0034 0346     		mov	r3, r0
 1805 0036 87F82730 		strb	r3, [r7, #39]
 1806 003a 97F92730 		ldrsb	r3, [r7, #39]
 1807 003e 002B     		cmp	r3, #0
 1808 0040 1AD1     		bne	.L81
 1809 0042 FB7E     		ldrb	r3, [r7, #27]	@ zero_extendqisi2
 1810 0044 1A46     		mov	r2, r3
 1811 0046 7968     		ldr	r1, [r7, #4]
 1812 0048 F868     		ldr	r0, [r7, #12]
 1813 004a FFF7FEFF 		bl	VL53L0X_calc_timeout_mclks
 1814 004e 0346     		mov	r3, r0
 1815 0050 BB83     		strh	r3, [r7, #28]	@ movhi
 1816 0052 BB8B     		ldrh	r3, [r7, #28]
 1817 0054 B3F5807F 		cmp	r3, #256
 1818 0058 03D9     		bls	.L82
 1819 005a FF23     		movs	r3, #255
 1820 005c 87F82630 		strb	r3, [r7, #38]
 1821 0060 04E0     		b	.L83
 1822              	.L82:
 1823 0062 BB8B     		ldrh	r3, [r7, #28]	@ movhi
 1824 0064 DBB2     		uxtb	r3, r3
ARM GAS  /var/folders/d2/nstgp4h54kz7g1l847x_b8wc0000gn/T//cczgylse.s 			page 33


 1825 0066 013B     		subs	r3, r3, #1
 1826 0068 87F82630 		strb	r3, [r7, #38]
 1827              	.L83:
 1828 006c 97F82630 		ldrb	r3, [r7, #38]	@ zero_extendqisi2
 1829 0070 9AB2     		uxth	r2, r3
 1830 0072 FB68     		ldr	r3, [r7, #12]
 1831 0074 A3F8D820 		strh	r2, [r3, #216]	@ movhi
 1832              	.L81:
 1833 0078 97F92730 		ldrsb	r3, [r7, #39]
 1834 007c 002B     		cmp	r3, #0
 1835 007e 40F0AB80 		bne	.L85
 1836 0082 97F82630 		ldrb	r3, [r7, #38]	@ zero_extendqisi2
 1837 0086 1A46     		mov	r2, r3
 1838 0088 4621     		movs	r1, #70
 1839 008a F868     		ldr	r0, [r7, #12]
 1840 008c FFF7FEFF 		bl	VL53L0X_WrByte
 1841 0090 0346     		mov	r3, r0
 1842 0092 87F82730 		strb	r3, [r7, #39]
 1843 0096 9FE0     		b	.L85
 1844              	.L80:
 1845 0098 FB7A     		ldrb	r3, [r7, #11]	@ zero_extendqisi2
 1846 009a 032B     		cmp	r3, #3
 1847 009c 35D1     		bne	.L86
 1848 009e 97F92730 		ldrsb	r3, [r7, #39]
 1849 00a2 002B     		cmp	r3, #0
 1850 00a4 1BD1     		bne	.L87
 1851 00a6 07F11B03 		add	r3, r7, #27
 1852 00aa 1A46     		mov	r2, r3
 1853 00ac 0021     		movs	r1, #0
 1854 00ae F868     		ldr	r0, [r7, #12]
 1855 00b0 FFF7FEFF 		bl	VL53L0X_GetVcselPulsePeriod
 1856 00b4 0346     		mov	r3, r0
 1857 00b6 87F82730 		strb	r3, [r7, #39]
 1858 00ba FB7E     		ldrb	r3, [r7, #27]	@ zero_extendqisi2
 1859 00bc 1A46     		mov	r2, r3
 1860 00be 7968     		ldr	r1, [r7, #4]
 1861 00c0 F868     		ldr	r0, [r7, #12]
 1862 00c2 FFF7FEFF 		bl	VL53L0X_calc_timeout_mclks
 1863 00c6 0346     		mov	r3, r0
 1864 00c8 BB84     		strh	r3, [r7, #36]	@ movhi
 1865 00ca BB8C     		ldrh	r3, [r7, #36]
 1866 00cc 1846     		mov	r0, r3
 1867 00ce FFF7FEFF 		bl	VL53L0X_encode_timeout
 1868 00d2 0346     		mov	r3, r0
 1869 00d4 3B83     		strh	r3, [r7, #24]	@ movhi
 1870 00d6 3A8B     		ldrh	r2, [r7, #24]
 1871 00d8 FB68     		ldr	r3, [r7, #12]
 1872 00da A3F8D820 		strh	r2, [r3, #216]	@ movhi
 1873              	.L87:
 1874 00de 97F92730 		ldrsb	r3, [r7, #39]
 1875 00e2 002B     		cmp	r3, #0
 1876 00e4 08D1     		bne	.L88
 1877 00e6 3B8B     		ldrh	r3, [r7, #24]
 1878 00e8 1A46     		mov	r2, r3
 1879 00ea 5121     		movs	r1, #81
 1880 00ec F868     		ldr	r0, [r7, #12]
 1881 00ee FFF7FEFF 		bl	VL53L0X_WrWord
ARM GAS  /var/folders/d2/nstgp4h54kz7g1l847x_b8wc0000gn/T//cczgylse.s 			page 34


 1882 00f2 0346     		mov	r3, r0
 1883 00f4 87F82730 		strb	r3, [r7, #39]
 1884              	.L88:
 1885 00f8 97F92730 		ldrsb	r3, [r7, #39]
 1886 00fc 002B     		cmp	r3, #0
 1887 00fe 6BD1     		bne	.L85
 1888 0100 FB68     		ldr	r3, [r7, #12]
 1889 0102 7A68     		ldr	r2, [r7, #4]
 1890 0104 C3F8E420 		str	r2, [r3, #228]
 1891 0108 66E0     		b	.L85
 1892              	.L86:
 1893 010a FB7A     		ldrb	r3, [r7, #11]	@ zero_extendqisi2
 1894 010c 042B     		cmp	r3, #4
 1895 010e 60D1     		bne	.L90
 1896 0110 07F11003 		add	r3, r7, #16
 1897 0114 1946     		mov	r1, r3
 1898 0116 F868     		ldr	r0, [r7, #12]
 1899 0118 FFF7FEFF 		bl	VL53L0X_GetSequenceStepEnables
 1900 011c 0023     		movs	r3, #0
 1901 011e BB84     		strh	r3, [r7, #36]	@ movhi
 1902 0120 FB7C     		ldrb	r3, [r7, #19]	@ zero_extendqisi2
 1903 0122 002B     		cmp	r3, #0
 1904 0124 1DD0     		beq	.L91
 1905 0126 07F11B03 		add	r3, r7, #27
 1906 012a 1A46     		mov	r2, r3
 1907 012c 0021     		movs	r1, #0
 1908 012e F868     		ldr	r0, [r7, #12]
 1909 0130 FFF7FEFF 		bl	VL53L0X_GetVcselPulsePeriod
 1910 0134 0346     		mov	r3, r0
 1911 0136 87F82730 		strb	r3, [r7, #39]
 1912 013a 97F92730 		ldrsb	r3, [r7, #39]
 1913 013e 002B     		cmp	r3, #0
 1914 0140 0FD1     		bne	.L91
 1915 0142 07F11803 		add	r3, r7, #24
 1916 0146 1A46     		mov	r2, r3
 1917 0148 5121     		movs	r1, #81
 1918 014a F868     		ldr	r0, [r7, #12]
 1919 014c FFF7FEFF 		bl	VL53L0X_RdWord
 1920 0150 0346     		mov	r3, r0
 1921 0152 87F82730 		strb	r3, [r7, #39]
 1922 0156 3B8B     		ldrh	r3, [r7, #24]
 1923 0158 1846     		mov	r0, r3
 1924 015a FFF7FEFF 		bl	VL53L0X_decode_timeout
 1925 015e 0346     		mov	r3, r0
 1926 0160 BB84     		strh	r3, [r7, #36]	@ movhi
 1927              	.L91:
 1928 0162 97F92730 		ldrsb	r3, [r7, #39]
 1929 0166 002B     		cmp	r3, #0
 1930 0168 09D1     		bne	.L92
 1931 016a 07F11B03 		add	r3, r7, #27
 1932 016e 1A46     		mov	r2, r3
 1933 0170 0121     		movs	r1, #1
 1934 0172 F868     		ldr	r0, [r7, #12]
 1935 0174 FFF7FEFF 		bl	VL53L0X_GetVcselPulsePeriod
 1936 0178 0346     		mov	r3, r0
 1937 017a 87F82730 		strb	r3, [r7, #39]
 1938              	.L92:
ARM GAS  /var/folders/d2/nstgp4h54kz7g1l847x_b8wc0000gn/T//cczgylse.s 			page 35


 1939 017e 97F92730 		ldrsb	r3, [r7, #39]
 1940 0182 002B     		cmp	r3, #0
 1941 0184 28D1     		bne	.L85
 1942 0186 FB7E     		ldrb	r3, [r7, #27]	@ zero_extendqisi2
 1943 0188 1A46     		mov	r2, r3
 1944 018a 7968     		ldr	r1, [r7, #4]
 1945 018c F868     		ldr	r0, [r7, #12]
 1946 018e FFF7FEFF 		bl	VL53L0X_calc_timeout_mclks
 1947 0192 3862     		str	r0, [r7, #32]
 1948 0194 BB8C     		ldrh	r3, [r7, #36]
 1949 0196 3A6A     		ldr	r2, [r7, #32]
 1950 0198 1344     		add	r3, r3, r2
 1951 019a 3B62     		str	r3, [r7, #32]
 1952 019c 386A     		ldr	r0, [r7, #32]
 1953 019e FFF7FEFF 		bl	VL53L0X_encode_timeout
 1954 01a2 0346     		mov	r3, r0
 1955 01a4 FB83     		strh	r3, [r7, #30]	@ movhi
 1956 01a6 97F92730 		ldrsb	r3, [r7, #39]
 1957 01aa 002B     		cmp	r3, #0
 1958 01ac 08D1     		bne	.L94
 1959 01ae FB8B     		ldrh	r3, [r7, #30]
 1960 01b0 1A46     		mov	r2, r3
 1961 01b2 7121     		movs	r1, #113
 1962 01b4 F868     		ldr	r0, [r7, #12]
 1963 01b6 FFF7FEFF 		bl	VL53L0X_WrWord
 1964 01ba 0346     		mov	r3, r0
 1965 01bc 87F82730 		strb	r3, [r7, #39]
 1966              	.L94:
 1967 01c0 97F92730 		ldrsb	r3, [r7, #39]
 1968 01c4 002B     		cmp	r3, #0
 1969 01c6 07D1     		bne	.L85
 1970 01c8 FB68     		ldr	r3, [r7, #12]
 1971 01ca 7A68     		ldr	r2, [r7, #4]
 1972 01cc C3F8DC20 		str	r2, [r3, #220]
 1973 01d0 02E0     		b	.L85
 1974              	.L90:
 1975 01d2 FC23     		movs	r3, #252
 1976 01d4 87F82730 		strb	r3, [r7, #39]
 1977              	.L85:
 1978 01d8 97F92730 		ldrsb	r3, [r7, #39]
 1979 01dc 1846     		mov	r0, r3
 1980 01de 2837     		adds	r7, r7, #40
 1981 01e0 BD46     		mov	sp, r7
 1982              		@ sp needed
 1983 01e2 80BD     		pop	{r7, pc}
 1984              		.size	set_sequence_step_timeout, .-set_sequence_step_timeout
 1985              		.section	.text.VL53L0X_set_vcsel_pulse_period,"ax",%progbits
 1986              		.align	1
 1987              		.global	VL53L0X_set_vcsel_pulse_period
 1988              		.syntax unified
 1989              		.thumb
 1990              		.thumb_func
 1991              		.fpu fpv4-sp-d16
 1992              		.type	VL53L0X_set_vcsel_pulse_period, %function
 1993              	VL53L0X_set_vcsel_pulse_period:
 1994              		@ args = 0, pretend = 0, frame = 40
 1995              		@ frame_needed = 1, uses_anonymous_args = 0
ARM GAS  /var/folders/d2/nstgp4h54kz7g1l847x_b8wc0000gn/T//cczgylse.s 			page 36


 1996 0000 80B5     		push	{r7, lr}
 1997 0002 8AB0     		sub	sp, sp, #40
 1998 0004 00AF     		add	r7, sp, #0
 1999 0006 7860     		str	r0, [r7, #4]
 2000 0008 0B46     		mov	r3, r1
 2001 000a FB70     		strb	r3, [r7, #3]
 2002 000c 1346     		mov	r3, r2
 2003 000e BB70     		strb	r3, [r7, #2]
 2004 0010 0023     		movs	r3, #0
 2005 0012 87F82730 		strb	r3, [r7, #39]
 2006 0016 0C23     		movs	r3, #12
 2007 0018 87F82630 		strb	r3, [r7, #38]
 2008 001c 1223     		movs	r3, #18
 2009 001e 87F82530 		strb	r3, [r7, #37]
 2010 0022 0823     		movs	r3, #8
 2011 0024 87F82430 		strb	r3, [r7, #36]
 2012 0028 0E23     		movs	r3, #14
 2013 002a 87F82330 		strb	r3, [r7, #35]
 2014 002e 0023     		movs	r3, #0
 2015 0030 FB73     		strb	r3, [r7, #15]
 2016 0032 BB78     		ldrb	r3, [r7, #2]
 2017 0034 03F00103 		and	r3, r3, #1
 2018 0038 DBB2     		uxtb	r3, r3
 2019 003a 002B     		cmp	r3, #0
 2020 003c 03D0     		beq	.L97
 2021 003e FC23     		movs	r3, #252
 2022 0040 87F82730 		strb	r3, [r7, #39]
 2023 0044 20E0     		b	.L98
 2024              	.L97:
 2025 0046 FB78     		ldrb	r3, [r7, #3]	@ zero_extendqisi2
 2026 0048 002B     		cmp	r3, #0
 2027 004a 0DD1     		bne	.L99
 2028 004c BA78     		ldrb	r2, [r7, #2]	@ zero_extendqisi2
 2029 004e 97F82630 		ldrb	r3, [r7, #38]	@ zero_extendqisi2
 2030 0052 9A42     		cmp	r2, r3
 2031 0054 04D3     		bcc	.L100
 2032 0056 BA78     		ldrb	r2, [r7, #2]	@ zero_extendqisi2
 2033 0058 97F82530 		ldrb	r3, [r7, #37]	@ zero_extendqisi2
 2034 005c 9A42     		cmp	r2, r3
 2035 005e 03D9     		bls	.L99
 2036              	.L100:
 2037 0060 FC23     		movs	r3, #252
 2038 0062 87F82730 		strb	r3, [r7, #39]
 2039 0066 0FE0     		b	.L98
 2040              	.L99:
 2041 0068 FB78     		ldrb	r3, [r7, #3]	@ zero_extendqisi2
 2042 006a 012B     		cmp	r3, #1
 2043 006c 0CD1     		bne	.L98
 2044 006e BA78     		ldrb	r2, [r7, #2]	@ zero_extendqisi2
 2045 0070 97F82430 		ldrb	r3, [r7, #36]	@ zero_extendqisi2
 2046 0074 9A42     		cmp	r2, r3
 2047 0076 04D3     		bcc	.L101
 2048 0078 BA78     		ldrb	r2, [r7, #2]	@ zero_extendqisi2
 2049 007a 97F82330 		ldrb	r3, [r7, #35]	@ zero_extendqisi2
 2050 007e 9A42     		cmp	r2, r3
 2051 0080 02D9     		bls	.L98
 2052              	.L101:
ARM GAS  /var/folders/d2/nstgp4h54kz7g1l847x_b8wc0000gn/T//cczgylse.s 			page 37


 2053 0082 FC23     		movs	r3, #252
 2054 0084 87F82730 		strb	r3, [r7, #39]
 2055              	.L98:
 2056 0088 97F92730 		ldrsb	r3, [r7, #39]
 2057 008c 002B     		cmp	r3, #0
 2058 008e 02D0     		beq	.L102
 2059 0090 97F92730 		ldrsb	r3, [r7, #39]
 2060 0094 39E2     		b	.L125
 2061              	.L102:
 2062 0096 FB78     		ldrb	r3, [r7, #3]	@ zero_extendqisi2
 2063 0098 002B     		cmp	r3, #0
 2064 009a 50D1     		bne	.L104
 2065 009c BB78     		ldrb	r3, [r7, #2]	@ zero_extendqisi2
 2066 009e 0C2B     		cmp	r3, #12
 2067 00a0 10D1     		bne	.L105
 2068 00a2 1822     		movs	r2, #24
 2069 00a4 5721     		movs	r1, #87
 2070 00a6 7868     		ldr	r0, [r7, #4]
 2071 00a8 FFF7FEFF 		bl	VL53L0X_WrByte
 2072 00ac 0346     		mov	r3, r0
 2073 00ae 87F82730 		strb	r3, [r7, #39]
 2074 00b2 0822     		movs	r2, #8
 2075 00b4 5621     		movs	r1, #86
 2076 00b6 7868     		ldr	r0, [r7, #4]
 2077 00b8 FFF7FEFF 		bl	VL53L0X_WrByte
 2078 00bc 0346     		mov	r3, r0
 2079 00be 87F82730 		strb	r3, [r7, #39]
 2080 00c2 7FE1     		b	.L109
 2081              	.L105:
 2082 00c4 BB78     		ldrb	r3, [r7, #2]	@ zero_extendqisi2
 2083 00c6 0E2B     		cmp	r3, #14
 2084 00c8 10D1     		bne	.L107
 2085 00ca 3022     		movs	r2, #48
 2086 00cc 5721     		movs	r1, #87
 2087 00ce 7868     		ldr	r0, [r7, #4]
 2088 00d0 FFF7FEFF 		bl	VL53L0X_WrByte
 2089 00d4 0346     		mov	r3, r0
 2090 00d6 87F82730 		strb	r3, [r7, #39]
 2091 00da 0822     		movs	r2, #8
 2092 00dc 5621     		movs	r1, #86
 2093 00de 7868     		ldr	r0, [r7, #4]
 2094 00e0 FFF7FEFF 		bl	VL53L0X_WrByte
 2095 00e4 0346     		mov	r3, r0
 2096 00e6 87F82730 		strb	r3, [r7, #39]
 2097 00ea 6BE1     		b	.L109
 2098              	.L107:
 2099 00ec BB78     		ldrb	r3, [r7, #2]	@ zero_extendqisi2
 2100 00ee 102B     		cmp	r3, #16
 2101 00f0 10D1     		bne	.L108
 2102 00f2 4022     		movs	r2, #64
 2103 00f4 5721     		movs	r1, #87
 2104 00f6 7868     		ldr	r0, [r7, #4]
 2105 00f8 FFF7FEFF 		bl	VL53L0X_WrByte
 2106 00fc 0346     		mov	r3, r0
 2107 00fe 87F82730 		strb	r3, [r7, #39]
 2108 0102 0822     		movs	r2, #8
 2109 0104 5621     		movs	r1, #86
ARM GAS  /var/folders/d2/nstgp4h54kz7g1l847x_b8wc0000gn/T//cczgylse.s 			page 38


 2110 0106 7868     		ldr	r0, [r7, #4]
 2111 0108 FFF7FEFF 		bl	VL53L0X_WrByte
 2112 010c 0346     		mov	r3, r0
 2113 010e 87F82730 		strb	r3, [r7, #39]
 2114 0112 57E1     		b	.L109
 2115              	.L108:
 2116 0114 BB78     		ldrb	r3, [r7, #2]	@ zero_extendqisi2
 2117 0116 122B     		cmp	r3, #18
 2118 0118 40F05481 		bne	.L109
 2119 011c 5022     		movs	r2, #80
 2120 011e 5721     		movs	r1, #87
 2121 0120 7868     		ldr	r0, [r7, #4]
 2122 0122 FFF7FEFF 		bl	VL53L0X_WrByte
 2123 0126 0346     		mov	r3, r0
 2124 0128 87F82730 		strb	r3, [r7, #39]
 2125 012c 0822     		movs	r2, #8
 2126 012e 5621     		movs	r1, #86
 2127 0130 7868     		ldr	r0, [r7, #4]
 2128 0132 FFF7FEFF 		bl	VL53L0X_WrByte
 2129 0136 0346     		mov	r3, r0
 2130 0138 87F82730 		strb	r3, [r7, #39]
 2131 013c 42E1     		b	.L109
 2132              	.L104:
 2133 013e FB78     		ldrb	r3, [r7, #3]	@ zero_extendqisi2
 2134 0140 012B     		cmp	r3, #1
 2135 0142 40F03F81 		bne	.L109
 2136 0146 BB78     		ldrb	r3, [r7, #2]	@ zero_extendqisi2
 2137 0148 082B     		cmp	r3, #8
 2138 014a 4CD1     		bne	.L110
 2139 014c 1022     		movs	r2, #16
 2140 014e 4821     		movs	r1, #72
 2141 0150 7868     		ldr	r0, [r7, #4]
 2142 0152 FFF7FEFF 		bl	VL53L0X_WrByte
 2143 0156 0346     		mov	r3, r0
 2144 0158 87F82730 		strb	r3, [r7, #39]
 2145 015c 0822     		movs	r2, #8
 2146 015e 4721     		movs	r1, #71
 2147 0160 7868     		ldr	r0, [r7, #4]
 2148 0162 FFF7FEFF 		bl	VL53L0X_WrByte
 2149 0166 0346     		mov	r3, r0
 2150 0168 87F82730 		strb	r3, [r7, #39]
 2151 016c 0222     		movs	r2, #2
 2152 016e 3221     		movs	r1, #50
 2153 0170 7868     		ldr	r0, [r7, #4]
 2154 0172 FFF7FEFF 		bl	VL53L0X_WrByte
 2155 0176 0346     		mov	r3, r0
 2156 0178 1A46     		mov	r2, r3
 2157 017a 97F82730 		ldrb	r3, [r7, #39]
 2158 017e 1343     		orrs	r3, r3, r2
 2159 0180 87F82730 		strb	r3, [r7, #39]
 2160 0184 0C22     		movs	r2, #12
 2161 0186 3021     		movs	r1, #48
 2162 0188 7868     		ldr	r0, [r7, #4]
 2163 018a FFF7FEFF 		bl	VL53L0X_WrByte
 2164 018e 0346     		mov	r3, r0
 2165 0190 1A46     		mov	r2, r3
 2166 0192 97F82730 		ldrb	r3, [r7, #39]
ARM GAS  /var/folders/d2/nstgp4h54kz7g1l847x_b8wc0000gn/T//cczgylse.s 			page 39


 2167 0196 1343     		orrs	r3, r3, r2
 2168 0198 87F82730 		strb	r3, [r7, #39]
 2169 019c 0122     		movs	r2, #1
 2170 019e FF21     		movs	r1, #255
 2171 01a0 7868     		ldr	r0, [r7, #4]
 2172 01a2 FFF7FEFF 		bl	VL53L0X_WrByte
 2173 01a6 0346     		mov	r3, r0
 2174 01a8 1A46     		mov	r2, r3
 2175 01aa 97F82730 		ldrb	r3, [r7, #39]
 2176 01ae 1343     		orrs	r3, r3, r2
 2177 01b0 87F82730 		strb	r3, [r7, #39]
 2178 01b4 3022     		movs	r2, #48
 2179 01b6 3021     		movs	r1, #48
 2180 01b8 7868     		ldr	r0, [r7, #4]
 2181 01ba FFF7FEFF 		bl	VL53L0X_WrByte
 2182 01be 0346     		mov	r3, r0
 2183 01c0 1A46     		mov	r2, r3
 2184 01c2 97F82730 		ldrb	r3, [r7, #39]
 2185 01c6 1343     		orrs	r3, r3, r2
 2186 01c8 87F82730 		strb	r3, [r7, #39]
 2187 01cc 0022     		movs	r2, #0
 2188 01ce FF21     		movs	r1, #255
 2189 01d0 7868     		ldr	r0, [r7, #4]
 2190 01d2 FFF7FEFF 		bl	VL53L0X_WrByte
 2191 01d6 0346     		mov	r3, r0
 2192 01d8 1A46     		mov	r2, r3
 2193 01da 97F82730 		ldrb	r3, [r7, #39]
 2194 01de 1343     		orrs	r3, r3, r2
 2195 01e0 87F82730 		strb	r3, [r7, #39]
 2196 01e4 EEE0     		b	.L109
 2197              	.L110:
 2198 01e6 BB78     		ldrb	r3, [r7, #2]	@ zero_extendqisi2
 2199 01e8 0A2B     		cmp	r3, #10
 2200 01ea 4CD1     		bne	.L111
 2201 01ec 2822     		movs	r2, #40
 2202 01ee 4821     		movs	r1, #72
 2203 01f0 7868     		ldr	r0, [r7, #4]
 2204 01f2 FFF7FEFF 		bl	VL53L0X_WrByte
 2205 01f6 0346     		mov	r3, r0
 2206 01f8 87F82730 		strb	r3, [r7, #39]
 2207 01fc 0822     		movs	r2, #8
 2208 01fe 4721     		movs	r1, #71
 2209 0200 7868     		ldr	r0, [r7, #4]
 2210 0202 FFF7FEFF 		bl	VL53L0X_WrByte
 2211 0206 0346     		mov	r3, r0
 2212 0208 87F82730 		strb	r3, [r7, #39]
 2213 020c 0322     		movs	r2, #3
 2214 020e 3221     		movs	r1, #50
 2215 0210 7868     		ldr	r0, [r7, #4]
 2216 0212 FFF7FEFF 		bl	VL53L0X_WrByte
 2217 0216 0346     		mov	r3, r0
 2218 0218 1A46     		mov	r2, r3
 2219 021a 97F82730 		ldrb	r3, [r7, #39]
 2220 021e 1343     		orrs	r3, r3, r2
 2221 0220 87F82730 		strb	r3, [r7, #39]
 2222 0224 0922     		movs	r2, #9
 2223 0226 3021     		movs	r1, #48
ARM GAS  /var/folders/d2/nstgp4h54kz7g1l847x_b8wc0000gn/T//cczgylse.s 			page 40


 2224 0228 7868     		ldr	r0, [r7, #4]
 2225 022a FFF7FEFF 		bl	VL53L0X_WrByte
 2226 022e 0346     		mov	r3, r0
 2227 0230 1A46     		mov	r2, r3
 2228 0232 97F82730 		ldrb	r3, [r7, #39]
 2229 0236 1343     		orrs	r3, r3, r2
 2230 0238 87F82730 		strb	r3, [r7, #39]
 2231 023c 0122     		movs	r2, #1
 2232 023e FF21     		movs	r1, #255
 2233 0240 7868     		ldr	r0, [r7, #4]
 2234 0242 FFF7FEFF 		bl	VL53L0X_WrByte
 2235 0246 0346     		mov	r3, r0
 2236 0248 1A46     		mov	r2, r3
 2237 024a 97F82730 		ldrb	r3, [r7, #39]
 2238 024e 1343     		orrs	r3, r3, r2
 2239 0250 87F82730 		strb	r3, [r7, #39]
 2240 0254 2022     		movs	r2, #32
 2241 0256 3021     		movs	r1, #48
 2242 0258 7868     		ldr	r0, [r7, #4]
 2243 025a FFF7FEFF 		bl	VL53L0X_WrByte
 2244 025e 0346     		mov	r3, r0
 2245 0260 1A46     		mov	r2, r3
 2246 0262 97F82730 		ldrb	r3, [r7, #39]
 2247 0266 1343     		orrs	r3, r3, r2
 2248 0268 87F82730 		strb	r3, [r7, #39]
 2249 026c 0022     		movs	r2, #0
 2250 026e FF21     		movs	r1, #255
 2251 0270 7868     		ldr	r0, [r7, #4]
 2252 0272 FFF7FEFF 		bl	VL53L0X_WrByte
 2253 0276 0346     		mov	r3, r0
 2254 0278 1A46     		mov	r2, r3
 2255 027a 97F82730 		ldrb	r3, [r7, #39]
 2256 027e 1343     		orrs	r3, r3, r2
 2257 0280 87F82730 		strb	r3, [r7, #39]
 2258 0284 9EE0     		b	.L109
 2259              	.L111:
 2260 0286 BB78     		ldrb	r3, [r7, #2]	@ zero_extendqisi2
 2261 0288 0C2B     		cmp	r3, #12
 2262 028a 4CD1     		bne	.L112
 2263 028c 3822     		movs	r2, #56
 2264 028e 4821     		movs	r1, #72
 2265 0290 7868     		ldr	r0, [r7, #4]
 2266 0292 FFF7FEFF 		bl	VL53L0X_WrByte
 2267 0296 0346     		mov	r3, r0
 2268 0298 87F82730 		strb	r3, [r7, #39]
 2269 029c 0822     		movs	r2, #8
 2270 029e 4721     		movs	r1, #71
 2271 02a0 7868     		ldr	r0, [r7, #4]
 2272 02a2 FFF7FEFF 		bl	VL53L0X_WrByte
 2273 02a6 0346     		mov	r3, r0
 2274 02a8 87F82730 		strb	r3, [r7, #39]
 2275 02ac 0322     		movs	r2, #3
 2276 02ae 3221     		movs	r1, #50
 2277 02b0 7868     		ldr	r0, [r7, #4]
 2278 02b2 FFF7FEFF 		bl	VL53L0X_WrByte
 2279 02b6 0346     		mov	r3, r0
 2280 02b8 1A46     		mov	r2, r3
ARM GAS  /var/folders/d2/nstgp4h54kz7g1l847x_b8wc0000gn/T//cczgylse.s 			page 41


 2281 02ba 97F82730 		ldrb	r3, [r7, #39]
 2282 02be 1343     		orrs	r3, r3, r2
 2283 02c0 87F82730 		strb	r3, [r7, #39]
 2284 02c4 0822     		movs	r2, #8
 2285 02c6 3021     		movs	r1, #48
 2286 02c8 7868     		ldr	r0, [r7, #4]
 2287 02ca FFF7FEFF 		bl	VL53L0X_WrByte
 2288 02ce 0346     		mov	r3, r0
 2289 02d0 1A46     		mov	r2, r3
 2290 02d2 97F82730 		ldrb	r3, [r7, #39]
 2291 02d6 1343     		orrs	r3, r3, r2
 2292 02d8 87F82730 		strb	r3, [r7, #39]
 2293 02dc 0122     		movs	r2, #1
 2294 02de FF21     		movs	r1, #255
 2295 02e0 7868     		ldr	r0, [r7, #4]
 2296 02e2 FFF7FEFF 		bl	VL53L0X_WrByte
 2297 02e6 0346     		mov	r3, r0
 2298 02e8 1A46     		mov	r2, r3
 2299 02ea 97F82730 		ldrb	r3, [r7, #39]
 2300 02ee 1343     		orrs	r3, r3, r2
 2301 02f0 87F82730 		strb	r3, [r7, #39]
 2302 02f4 2022     		movs	r2, #32
 2303 02f6 3021     		movs	r1, #48
 2304 02f8 7868     		ldr	r0, [r7, #4]
 2305 02fa FFF7FEFF 		bl	VL53L0X_WrByte
 2306 02fe 0346     		mov	r3, r0
 2307 0300 1A46     		mov	r2, r3
 2308 0302 97F82730 		ldrb	r3, [r7, #39]
 2309 0306 1343     		orrs	r3, r3, r2
 2310 0308 87F82730 		strb	r3, [r7, #39]
 2311 030c 0022     		movs	r2, #0
 2312 030e FF21     		movs	r1, #255
 2313 0310 7868     		ldr	r0, [r7, #4]
 2314 0312 FFF7FEFF 		bl	VL53L0X_WrByte
 2315 0316 0346     		mov	r3, r0
 2316 0318 1A46     		mov	r2, r3
 2317 031a 97F82730 		ldrb	r3, [r7, #39]
 2318 031e 1343     		orrs	r3, r3, r2
 2319 0320 87F82730 		strb	r3, [r7, #39]
 2320 0324 4EE0     		b	.L109
 2321              	.L112:
 2322 0326 BB78     		ldrb	r3, [r7, #2]	@ zero_extendqisi2
 2323 0328 0E2B     		cmp	r3, #14
 2324 032a 4BD1     		bne	.L109
 2325 032c 4822     		movs	r2, #72
 2326 032e 4821     		movs	r1, #72
 2327 0330 7868     		ldr	r0, [r7, #4]
 2328 0332 FFF7FEFF 		bl	VL53L0X_WrByte
 2329 0336 0346     		mov	r3, r0
 2330 0338 87F82730 		strb	r3, [r7, #39]
 2331 033c 0822     		movs	r2, #8
 2332 033e 4721     		movs	r1, #71
 2333 0340 7868     		ldr	r0, [r7, #4]
 2334 0342 FFF7FEFF 		bl	VL53L0X_WrByte
 2335 0346 0346     		mov	r3, r0
 2336 0348 87F82730 		strb	r3, [r7, #39]
 2337 034c 0322     		movs	r2, #3
ARM GAS  /var/folders/d2/nstgp4h54kz7g1l847x_b8wc0000gn/T//cczgylse.s 			page 42


 2338 034e 3221     		movs	r1, #50
 2339 0350 7868     		ldr	r0, [r7, #4]
 2340 0352 FFF7FEFF 		bl	VL53L0X_WrByte
 2341 0356 0346     		mov	r3, r0
 2342 0358 1A46     		mov	r2, r3
 2343 035a 97F82730 		ldrb	r3, [r7, #39]
 2344 035e 1343     		orrs	r3, r3, r2
 2345 0360 87F82730 		strb	r3, [r7, #39]
 2346 0364 0722     		movs	r2, #7
 2347 0366 3021     		movs	r1, #48
 2348 0368 7868     		ldr	r0, [r7, #4]
 2349 036a FFF7FEFF 		bl	VL53L0X_WrByte
 2350 036e 0346     		mov	r3, r0
 2351 0370 1A46     		mov	r2, r3
 2352 0372 97F82730 		ldrb	r3, [r7, #39]
 2353 0376 1343     		orrs	r3, r3, r2
 2354 0378 87F82730 		strb	r3, [r7, #39]
 2355 037c 0122     		movs	r2, #1
 2356 037e FF21     		movs	r1, #255
 2357 0380 7868     		ldr	r0, [r7, #4]
 2358 0382 FFF7FEFF 		bl	VL53L0X_WrByte
 2359 0386 0346     		mov	r3, r0
 2360 0388 1A46     		mov	r2, r3
 2361 038a 97F82730 		ldrb	r3, [r7, #39]
 2362 038e 1343     		orrs	r3, r3, r2
 2363 0390 87F82730 		strb	r3, [r7, #39]
 2364 0394 2022     		movs	r2, #32
 2365 0396 3021     		movs	r1, #48
 2366 0398 7868     		ldr	r0, [r7, #4]
 2367 039a FFF7FEFF 		bl	VL53L0X_WrByte
 2368 039e 0346     		mov	r3, r0
 2369 03a0 1A46     		mov	r2, r3
 2370 03a2 97F82730 		ldrb	r3, [r7, #39]
 2371 03a6 1343     		orrs	r3, r3, r2
 2372 03a8 87F82730 		strb	r3, [r7, #39]
 2373 03ac 0022     		movs	r2, #0
 2374 03ae FF21     		movs	r1, #255
 2375 03b0 7868     		ldr	r0, [r7, #4]
 2376 03b2 FFF7FEFF 		bl	VL53L0X_WrByte
 2377 03b6 0346     		mov	r3, r0
 2378 03b8 1A46     		mov	r2, r3
 2379 03ba 97F82730 		ldrb	r3, [r7, #39]
 2380 03be 1343     		orrs	r3, r3, r2
 2381 03c0 87F82730 		strb	r3, [r7, #39]
 2382              	.L109:
 2383 03c4 97F92730 		ldrsb	r3, [r7, #39]
 2384 03c8 002B     		cmp	r3, #0
 2385 03ca 7FD1     		bne	.L127
 2386 03cc BB78     		ldrb	r3, [r7, #2]	@ zero_extendqisi2
 2387 03ce 1846     		mov	r0, r3
 2388 03d0 FFF7FEFF 		bl	VL53L0X_encode_vcsel_period
 2389 03d4 0346     		mov	r3, r0
 2390 03d6 87F82230 		strb	r3, [r7, #34]
 2391 03da FB78     		ldrb	r3, [r7, #3]	@ zero_extendqisi2
 2392 03dc 002B     		cmp	r3, #0
 2393 03de 02D0     		beq	.L115
 2394 03e0 012B     		cmp	r3, #1
ARM GAS  /var/folders/d2/nstgp4h54kz7g1l847x_b8wc0000gn/T//cczgylse.s 			page 43


 2395 03e2 45D0     		beq	.L116
 2396 03e4 6EE0     		b	.L126
 2397              	.L115:
 2398 03e6 07F11403 		add	r3, r7, #20
 2399 03ea 1A46     		mov	r2, r3
 2400 03ec 0321     		movs	r1, #3
 2401 03ee 7868     		ldr	r0, [r7, #4]
 2402 03f0 FFF7FEFF 		bl	get_sequence_step_timeout
 2403 03f4 0346     		mov	r3, r0
 2404 03f6 87F82730 		strb	r3, [r7, #39]
 2405 03fa 97F92730 		ldrsb	r3, [r7, #39]
 2406 03fe 002B     		cmp	r3, #0
 2407 0400 09D1     		bne	.L117
 2408 0402 07F11003 		add	r3, r7, #16
 2409 0406 1A46     		mov	r2, r3
 2410 0408 0221     		movs	r1, #2
 2411 040a 7868     		ldr	r0, [r7, #4]
 2412 040c FFF7FEFF 		bl	get_sequence_step_timeout
 2413 0410 0346     		mov	r3, r0
 2414 0412 87F82730 		strb	r3, [r7, #39]
 2415              	.L117:
 2416 0416 97F92730 		ldrsb	r3, [r7, #39]
 2417 041a 002B     		cmp	r3, #0
 2418 041c 09D1     		bne	.L118
 2419 041e 97F82230 		ldrb	r3, [r7, #34]	@ zero_extendqisi2
 2420 0422 1A46     		mov	r2, r3
 2421 0424 5021     		movs	r1, #80
 2422 0426 7868     		ldr	r0, [r7, #4]
 2423 0428 FFF7FEFF 		bl	VL53L0X_WrByte
 2424 042c 0346     		mov	r3, r0
 2425 042e 87F82730 		strb	r3, [r7, #39]
 2426              	.L118:
 2427 0432 97F92730 		ldrsb	r3, [r7, #39]
 2428 0436 002B     		cmp	r3, #0
 2429 0438 08D1     		bne	.L119
 2430 043a 7B69     		ldr	r3, [r7, #20]
 2431 043c 1A46     		mov	r2, r3
 2432 043e 0321     		movs	r1, #3
 2433 0440 7868     		ldr	r0, [r7, #4]
 2434 0442 FFF7FEFF 		bl	set_sequence_step_timeout
 2435 0446 0346     		mov	r3, r0
 2436 0448 87F82730 		strb	r3, [r7, #39]
 2437              	.L119:
 2438 044c 97F92730 		ldrsb	r3, [r7, #39]
 2439 0450 002B     		cmp	r3, #0
 2440 0452 08D1     		bne	.L120
 2441 0454 3B69     		ldr	r3, [r7, #16]
 2442 0456 1A46     		mov	r2, r3
 2443 0458 0221     		movs	r1, #2
 2444 045a 7868     		ldr	r0, [r7, #4]
 2445 045c FFF7FEFF 		bl	set_sequence_step_timeout
 2446 0460 0346     		mov	r3, r0
 2447 0462 87F82730 		strb	r3, [r7, #39]
 2448              	.L120:
 2449 0466 7B68     		ldr	r3, [r7, #4]
 2450 0468 BA78     		ldrb	r2, [r7, #2]
 2451 046a 83F8E820 		strb	r2, [r3, #232]
ARM GAS  /var/folders/d2/nstgp4h54kz7g1l847x_b8wc0000gn/T//cczgylse.s 			page 44


 2452 046e 2EE0     		b	.L113
 2453              	.L116:
 2454 0470 07F11803 		add	r3, r7, #24
 2455 0474 1A46     		mov	r2, r3
 2456 0476 0421     		movs	r1, #4
 2457 0478 7868     		ldr	r0, [r7, #4]
 2458 047a FFF7FEFF 		bl	get_sequence_step_timeout
 2459 047e 0346     		mov	r3, r0
 2460 0480 87F82730 		strb	r3, [r7, #39]
 2461 0484 97F92730 		ldrsb	r3, [r7, #39]
 2462 0488 002B     		cmp	r3, #0
 2463 048a 09D1     		bne	.L121
 2464 048c 97F82230 		ldrb	r3, [r7, #34]	@ zero_extendqisi2
 2465 0490 1A46     		mov	r2, r3
 2466 0492 7021     		movs	r1, #112
 2467 0494 7868     		ldr	r0, [r7, #4]
 2468 0496 FFF7FEFF 		bl	VL53L0X_WrByte
 2469 049a 0346     		mov	r3, r0
 2470 049c 87F82730 		strb	r3, [r7, #39]
 2471              	.L121:
 2472 04a0 97F92730 		ldrsb	r3, [r7, #39]
 2473 04a4 002B     		cmp	r3, #0
 2474 04a6 08D1     		bne	.L122
 2475 04a8 BB69     		ldr	r3, [r7, #24]
 2476 04aa 1A46     		mov	r2, r3
 2477 04ac 0421     		movs	r1, #4
 2478 04ae 7868     		ldr	r0, [r7, #4]
 2479 04b0 FFF7FEFF 		bl	set_sequence_step_timeout
 2480 04b4 0346     		mov	r3, r0
 2481 04b6 87F82730 		strb	r3, [r7, #39]
 2482              	.L122:
 2483 04ba 7B68     		ldr	r3, [r7, #4]
 2484 04bc BA78     		ldrb	r2, [r7, #2]
 2485 04be 83F8E020 		strb	r2, [r3, #224]
 2486 04c2 04E0     		b	.L113
 2487              	.L126:
 2488 04c4 FC23     		movs	r3, #252
 2489 04c6 87F82730 		strb	r3, [r7, #39]
 2490 04ca 00E0     		b	.L113
 2491              	.L127:
 2492 04cc 00BF     		nop
 2493              	.L113:
 2494 04ce 97F92730 		ldrsb	r3, [r7, #39]
 2495 04d2 002B     		cmp	r3, #0
 2496 04d4 09D1     		bne	.L123
 2497 04d6 7B68     		ldr	r3, [r7, #4]
 2498 04d8 5B69     		ldr	r3, [r3, #20]
 2499 04da FB61     		str	r3, [r7, #28]
 2500 04dc F969     		ldr	r1, [r7, #28]
 2501 04de 7868     		ldr	r0, [r7, #4]
 2502 04e0 FFF7FEFF 		bl	VL53L0X_SetMeasurementTimingBudgetMicroSeconds
 2503 04e4 0346     		mov	r3, r0
 2504 04e6 87F82730 		strb	r3, [r7, #39]
 2505              	.L123:
 2506 04ea 97F92730 		ldrsb	r3, [r7, #39]
 2507 04ee 002B     		cmp	r3, #0
 2508 04f0 09D1     		bne	.L124
ARM GAS  /var/folders/d2/nstgp4h54kz7g1l847x_b8wc0000gn/T//cczgylse.s 			page 45


 2509 04f2 07F10F01 		add	r1, r7, #15
 2510 04f6 0123     		movs	r3, #1
 2511 04f8 0022     		movs	r2, #0
 2512 04fa 7868     		ldr	r0, [r7, #4]
 2513 04fc FFF7FEFF 		bl	VL53L0X_perform_phase_calibration
 2514 0500 0346     		mov	r3, r0
 2515 0502 87F82730 		strb	r3, [r7, #39]
 2516              	.L124:
 2517 0506 97F92730 		ldrsb	r3, [r7, #39]
 2518              	.L125:
 2519 050a 1846     		mov	r0, r3
 2520 050c 2837     		adds	r7, r7, #40
 2521 050e BD46     		mov	sp, r7
 2522              		@ sp needed
 2523 0510 80BD     		pop	{r7, pc}
 2524              		.size	VL53L0X_set_vcsel_pulse_period, .-VL53L0X_set_vcsel_pulse_period
 2525              		.section	.text.VL53L0X_get_vcsel_pulse_period,"ax",%progbits
 2526              		.align	1
 2527              		.global	VL53L0X_get_vcsel_pulse_period
 2528              		.syntax unified
 2529              		.thumb
 2530              		.thumb_func
 2531              		.fpu fpv4-sp-d16
 2532              		.type	VL53L0X_get_vcsel_pulse_period, %function
 2533              	VL53L0X_get_vcsel_pulse_period:
 2534              		@ args = 0, pretend = 0, frame = 24
 2535              		@ frame_needed = 1, uses_anonymous_args = 0
 2536 0000 80B5     		push	{r7, lr}
 2537 0002 86B0     		sub	sp, sp, #24
 2538 0004 00AF     		add	r7, sp, #0
 2539 0006 F860     		str	r0, [r7, #12]
 2540 0008 0B46     		mov	r3, r1
 2541 000a 7A60     		str	r2, [r7, #4]
 2542 000c FB72     		strb	r3, [r7, #11]
 2543 000e 0023     		movs	r3, #0
 2544 0010 FB75     		strb	r3, [r7, #23]
 2545 0012 FB7A     		ldrb	r3, [r7, #11]	@ zero_extendqisi2
 2546 0014 002B     		cmp	r3, #0
 2547 0016 02D0     		beq	.L130
 2548 0018 012B     		cmp	r3, #1
 2549 001a 0AD0     		beq	.L131
 2550 001c 13E0     		b	.L135
 2551              	.L130:
 2552 001e 07F11603 		add	r3, r7, #22
 2553 0022 1A46     		mov	r2, r3
 2554 0024 5021     		movs	r1, #80
 2555 0026 F868     		ldr	r0, [r7, #12]
 2556 0028 FFF7FEFF 		bl	VL53L0X_RdByte
 2557 002c 0346     		mov	r3, r0
 2558 002e FB75     		strb	r3, [r7, #23]
 2559 0030 0BE0     		b	.L132
 2560              	.L131:
 2561 0032 07F11603 		add	r3, r7, #22
 2562 0036 1A46     		mov	r2, r3
 2563 0038 7021     		movs	r1, #112
 2564 003a F868     		ldr	r0, [r7, #12]
 2565 003c FFF7FEFF 		bl	VL53L0X_RdByte
ARM GAS  /var/folders/d2/nstgp4h54kz7g1l847x_b8wc0000gn/T//cczgylse.s 			page 46


 2566 0040 0346     		mov	r3, r0
 2567 0042 FB75     		strb	r3, [r7, #23]
 2568 0044 01E0     		b	.L132
 2569              	.L135:
 2570 0046 FC23     		movs	r3, #252
 2571 0048 FB75     		strb	r3, [r7, #23]
 2572              	.L132:
 2573 004a 97F91730 		ldrsb	r3, [r7, #23]
 2574 004e 002B     		cmp	r3, #0
 2575 0050 07D1     		bne	.L133
 2576 0052 BB7D     		ldrb	r3, [r7, #22]	@ zero_extendqisi2
 2577 0054 1846     		mov	r0, r3
 2578 0056 FFF7FEFF 		bl	VL53L0X_decode_vcsel_period
 2579 005a 0346     		mov	r3, r0
 2580 005c 1A46     		mov	r2, r3
 2581 005e 7B68     		ldr	r3, [r7, #4]
 2582 0060 1A70     		strb	r2, [r3]
 2583              	.L133:
 2584 0062 97F91730 		ldrsb	r3, [r7, #23]
 2585 0066 1846     		mov	r0, r3
 2586 0068 1837     		adds	r7, r7, #24
 2587 006a BD46     		mov	sp, r7
 2588              		@ sp needed
 2589 006c 80BD     		pop	{r7, pc}
 2590              		.size	VL53L0X_get_vcsel_pulse_period, .-VL53L0X_get_vcsel_pulse_period
 2591              		.section	.text.VL53L0X_set_measurement_timing_budget_micro_seconds,"ax",%progbits
 2592              		.align	1
 2593              		.global	VL53L0X_set_measurement_timing_budget_micro_seconds
 2594              		.syntax unified
 2595              		.thumb
 2596              		.thumb_func
 2597              		.fpu fpv4-sp-d16
 2598              		.type	VL53L0X_set_measurement_timing_budget_micro_seconds, %function
 2599              	VL53L0X_set_measurement_timing_budget_micro_seconds:
 2600              		@ args = 0, pretend = 0, frame = 72
 2601              		@ frame_needed = 1, uses_anonymous_args = 0
 2602 0000 80B5     		push	{r7, lr}
 2603 0002 92B0     		sub	sp, sp, #72
 2604 0004 00AF     		add	r7, sp, #0
 2605 0006 7860     		str	r0, [r7, #4]
 2606 0008 3960     		str	r1, [r7]
 2607 000a 0023     		movs	r3, #0
 2608 000c 87F84730 		strb	r3, [r7, #71]
 2609 0010 4FF4FA63 		mov	r3, #2000
 2610 0014 3B61     		str	r3, [r7, #16]
 2611 0016 40F27673 		movw	r3, #1910
 2612 001a FB63     		str	r3, [r7, #60]
 2613 001c 4FF47073 		mov	r3, #960
 2614 0020 BB63     		str	r3, [r7, #56]
 2615 0022 4FF42573 		mov	r3, #660
 2616 0026 7B63     		str	r3, [r7, #52]
 2617 0028 40F24E23 		movw	r3, #590
 2618 002c 3B63     		str	r3, [r7, #48]
 2619 002e 40F2B223 		movw	r3, #690
 2620 0032 FB62     		str	r3, [r7, #44]
 2621 0034 4FF42573 		mov	r3, #660
 2622 0038 BB62     		str	r3, [r7, #40]
ARM GAS  /var/folders/d2/nstgp4h54kz7g1l847x_b8wc0000gn/T//cczgylse.s 			page 47


 2623 003a 40F22623 		movw	r3, #550
 2624 003e 7B62     		str	r3, [r7, #36]
 2625 0040 0023     		movs	r3, #0
 2626 0042 FB60     		str	r3, [r7, #12]
 2627 0044 44F62063 		movw	r3, #20000
 2628 0048 3B62     		str	r3, [r7, #32]
 2629 004a 0023     		movs	r3, #0
 2630 004c FB61     		str	r3, [r7, #28]
 2631 004e 3A68     		ldr	r2, [r7]
 2632 0050 3B6A     		ldr	r3, [r7, #32]
 2633 0052 9A42     		cmp	r2, r3
 2634 0054 05D2     		bcs	.L137
 2635 0056 FC23     		movs	r3, #252
 2636 0058 87F84730 		strb	r3, [r7, #71]
 2637 005c 97F94730 		ldrsb	r3, [r7, #71]
 2638 0060 AAE0     		b	.L153
 2639              	.L137:
 2640 0062 FA6B     		ldr	r2, [r7, #60]
 2641 0064 BB6B     		ldr	r3, [r7, #56]
 2642 0066 1344     		add	r3, r3, r2
 2643 0068 3A68     		ldr	r2, [r7]
 2644 006a D31A     		subs	r3, r2, r3
 2645 006c 3B64     		str	r3, [r7, #64]
 2646 006e 07F11403 		add	r3, r7, #20
 2647 0072 1946     		mov	r1, r3
 2648 0074 7868     		ldr	r0, [r7, #4]
 2649 0076 FFF7FEFF 		bl	VL53L0X_GetSequenceStepEnables
 2650 007a 0346     		mov	r3, r0
 2651 007c 87F84730 		strb	r3, [r7, #71]
 2652 0080 97F94730 		ldrsb	r3, [r7, #71]
 2653 0084 002B     		cmp	r3, #0
 2654 0086 5BD1     		bne	.L139
 2655 0088 3B7D     		ldrb	r3, [r7, #20]	@ zero_extendqisi2
 2656 008a 002B     		cmp	r3, #0
 2657 008c 05D1     		bne	.L140
 2658 008e 7B7D     		ldrb	r3, [r7, #21]	@ zero_extendqisi2
 2659 0090 002B     		cmp	r3, #0
 2660 0092 02D1     		bne	.L140
 2661 0094 BB7D     		ldrb	r3, [r7, #22]	@ zero_extendqisi2
 2662 0096 002B     		cmp	r3, #0
 2663 0098 52D0     		beq	.L139
 2664              	.L140:
 2665 009a 07F11003 		add	r3, r7, #16
 2666 009e 1A46     		mov	r2, r3
 2667 00a0 0221     		movs	r1, #2
 2668 00a2 7868     		ldr	r0, [r7, #4]
 2669 00a4 FFF7FEFF 		bl	get_sequence_step_timeout
 2670 00a8 0346     		mov	r3, r0
 2671 00aa 87F84730 		strb	r3, [r7, #71]
 2672 00ae 97F94730 		ldrsb	r3, [r7, #71]
 2673 00b2 002B     		cmp	r3, #0
 2674 00b4 02D0     		beq	.L141
 2675 00b6 97F94730 		ldrsb	r3, [r7, #71]
 2676 00ba 7DE0     		b	.L153
 2677              	.L141:
 2678 00bc 3B7D     		ldrb	r3, [r7, #20]	@ zero_extendqisi2
 2679 00be 002B     		cmp	r3, #0
ARM GAS  /var/folders/d2/nstgp4h54kz7g1l847x_b8wc0000gn/T//cczgylse.s 			page 48


 2680 00c0 0FD0     		beq	.L142
 2681 00c2 3B69     		ldr	r3, [r7, #16]
 2682 00c4 3A6B     		ldr	r2, [r7, #48]
 2683 00c6 1344     		add	r3, r3, r2
 2684 00c8 FB61     		str	r3, [r7, #28]
 2685 00ca FA69     		ldr	r2, [r7, #28]
 2686 00cc 3B6C     		ldr	r3, [r7, #64]
 2687 00ce 9A42     		cmp	r2, r3
 2688 00d0 04D2     		bcs	.L143
 2689 00d2 3A6C     		ldr	r2, [r7, #64]
 2690 00d4 FB69     		ldr	r3, [r7, #28]
 2691 00d6 D31A     		subs	r3, r2, r3
 2692 00d8 3B64     		str	r3, [r7, #64]
 2693 00da 02E0     		b	.L142
 2694              	.L143:
 2695 00dc FC23     		movs	r3, #252
 2696 00de 87F84730 		strb	r3, [r7, #71]
 2697              	.L142:
 2698 00e2 97F94730 		ldrsb	r3, [r7, #71]
 2699 00e6 002B     		cmp	r3, #0
 2700 00e8 02D0     		beq	.L144
 2701 00ea 97F94730 		ldrsb	r3, [r7, #71]
 2702 00ee 63E0     		b	.L153
 2703              	.L144:
 2704 00f0 BB7D     		ldrb	r3, [r7, #22]	@ zero_extendqisi2
 2705 00f2 002B     		cmp	r3, #0
 2706 00f4 11D0     		beq	.L145
 2707 00f6 3A69     		ldr	r2, [r7, #16]
 2708 00f8 FB6A     		ldr	r3, [r7, #44]
 2709 00fa 1344     		add	r3, r3, r2
 2710 00fc 5B00     		lsls	r3, r3, #1
 2711 00fe FB61     		str	r3, [r7, #28]
 2712 0100 FA69     		ldr	r2, [r7, #28]
 2713 0102 3B6C     		ldr	r3, [r7, #64]
 2714 0104 9A42     		cmp	r2, r3
 2715 0106 04D2     		bcs	.L146
 2716 0108 3A6C     		ldr	r2, [r7, #64]
 2717 010a FB69     		ldr	r3, [r7, #28]
 2718 010c D31A     		subs	r3, r2, r3
 2719 010e 3B64     		str	r3, [r7, #64]
 2720 0110 16E0     		b	.L139
 2721              	.L146:
 2722 0112 FC23     		movs	r3, #252
 2723 0114 87F84730 		strb	r3, [r7, #71]
 2724 0118 12E0     		b	.L139
 2725              	.L145:
 2726 011a 7B7D     		ldrb	r3, [r7, #21]	@ zero_extendqisi2
 2727 011c 002B     		cmp	r3, #0
 2728 011e 0FD0     		beq	.L139
 2729 0120 3B69     		ldr	r3, [r7, #16]
 2730 0122 7A6B     		ldr	r2, [r7, #52]
 2731 0124 1344     		add	r3, r3, r2
 2732 0126 FB61     		str	r3, [r7, #28]
 2733 0128 FA69     		ldr	r2, [r7, #28]
 2734 012a 3B6C     		ldr	r3, [r7, #64]
 2735 012c 9A42     		cmp	r2, r3
 2736 012e 04D2     		bcs	.L148
ARM GAS  /var/folders/d2/nstgp4h54kz7g1l847x_b8wc0000gn/T//cczgylse.s 			page 49


 2737 0130 3A6C     		ldr	r2, [r7, #64]
 2738 0132 FB69     		ldr	r3, [r7, #28]
 2739 0134 D31A     		subs	r3, r2, r3
 2740 0136 3B64     		str	r3, [r7, #64]
 2741 0138 02E0     		b	.L139
 2742              	.L148:
 2743 013a FC23     		movs	r3, #252
 2744 013c 87F84730 		strb	r3, [r7, #71]
 2745              	.L139:
 2746 0140 97F94730 		ldrsb	r3, [r7, #71]
 2747 0144 002B     		cmp	r3, #0
 2748 0146 02D0     		beq	.L149
 2749 0148 97F94730 		ldrsb	r3, [r7, #71]
 2750 014c 34E0     		b	.L153
 2751              	.L149:
 2752 014e FB7D     		ldrb	r3, [r7, #23]	@ zero_extendqisi2
 2753 0150 002B     		cmp	r3, #0
 2754 0152 19D0     		beq	.L150
 2755 0154 07F10C03 		add	r3, r7, #12
 2756 0158 1A46     		mov	r2, r3
 2757 015a 0321     		movs	r1, #3
 2758 015c 7868     		ldr	r0, [r7, #4]
 2759 015e FFF7FEFF 		bl	get_sequence_step_timeout
 2760 0162 0346     		mov	r3, r0
 2761 0164 87F84730 		strb	r3, [r7, #71]
 2762 0168 FB68     		ldr	r3, [r7, #12]
 2763 016a BA6A     		ldr	r2, [r7, #40]
 2764 016c 1344     		add	r3, r3, r2
 2765 016e FB61     		str	r3, [r7, #28]
 2766 0170 FA69     		ldr	r2, [r7, #28]
 2767 0172 3B6C     		ldr	r3, [r7, #64]
 2768 0174 9A42     		cmp	r2, r3
 2769 0176 04D2     		bcs	.L151
 2770 0178 3A6C     		ldr	r2, [r7, #64]
 2771 017a FB69     		ldr	r3, [r7, #28]
 2772 017c D31A     		subs	r3, r2, r3
 2773 017e 3B64     		str	r3, [r7, #64]
 2774 0180 02E0     		b	.L150
 2775              	.L151:
 2776 0182 FC23     		movs	r3, #252
 2777 0184 87F84730 		strb	r3, [r7, #71]
 2778              	.L150:
 2779 0188 97F94730 		ldrsb	r3, [r7, #71]
 2780 018c 002B     		cmp	r3, #0
 2781 018e 11D1     		bne	.L152
 2782 0190 3B7E     		ldrb	r3, [r7, #24]	@ zero_extendqisi2
 2783 0192 002B     		cmp	r3, #0
 2784 0194 0ED0     		beq	.L152
 2785 0196 3A6C     		ldr	r2, [r7, #64]
 2786 0198 7B6A     		ldr	r3, [r7, #36]
 2787 019a D31A     		subs	r3, r2, r3
 2788 019c 3B64     		str	r3, [r7, #64]
 2789 019e 3A6C     		ldr	r2, [r7, #64]
 2790 01a0 0421     		movs	r1, #4
 2791 01a2 7868     		ldr	r0, [r7, #4]
 2792 01a4 FFF7FEFF 		bl	set_sequence_step_timeout
 2793 01a8 0346     		mov	r3, r0
ARM GAS  /var/folders/d2/nstgp4h54kz7g1l847x_b8wc0000gn/T//cczgylse.s 			page 50


 2794 01aa 87F84730 		strb	r3, [r7, #71]
 2795 01ae 7B68     		ldr	r3, [r7, #4]
 2796 01b0 3A68     		ldr	r2, [r7]
 2797 01b2 5A61     		str	r2, [r3, #20]
 2798              	.L152:
 2799 01b4 97F94730 		ldrsb	r3, [r7, #71]
 2800              	.L153:
 2801 01b8 1846     		mov	r0, r3
 2802 01ba 4837     		adds	r7, r7, #72
 2803 01bc BD46     		mov	sp, r7
 2804              		@ sp needed
 2805 01be 80BD     		pop	{r7, pc}
 2806              		.size	VL53L0X_set_measurement_timing_budget_micro_seconds, .-VL53L0X_set_measurement_timing_budget
 2807              		.section	.text.VL53L0X_get_measurement_timing_budget_micro_seconds,"ax",%progbits
 2808              		.align	1
 2809              		.global	VL53L0X_get_measurement_timing_budget_micro_seconds
 2810              		.syntax unified
 2811              		.thumb
 2812              		.thumb_func
 2813              		.fpu fpv4-sp-d16
 2814              		.type	VL53L0X_get_measurement_timing_budget_micro_seconds, %function
 2815              	VL53L0X_get_measurement_timing_budget_micro_seconds:
 2816              		@ args = 0, pretend = 0, frame = 64
 2817              		@ frame_needed = 1, uses_anonymous_args = 0
 2818 0000 80B5     		push	{r7, lr}
 2819 0002 90B0     		sub	sp, sp, #64
 2820 0004 00AF     		add	r7, sp, #0
 2821 0006 7860     		str	r0, [r7, #4]
 2822 0008 3960     		str	r1, [r7]
 2823 000a 0023     		movs	r3, #0
 2824 000c 87F83F30 		strb	r3, [r7, #63]
 2825 0010 4FF4FA63 		mov	r3, #2000
 2826 0014 3B61     		str	r3, [r7, #16]
 2827 0016 40F27673 		movw	r3, #1910
 2828 001a BB63     		str	r3, [r7, #56]
 2829 001c 4FF47073 		mov	r3, #960
 2830 0020 7B63     		str	r3, [r7, #52]
 2831 0022 4FF42573 		mov	r3, #660
 2832 0026 3B63     		str	r3, [r7, #48]
 2833 0028 40F24E23 		movw	r3, #590
 2834 002c FB62     		str	r3, [r7, #44]
 2835 002e 40F2B223 		movw	r3, #690
 2836 0032 BB62     		str	r3, [r7, #40]
 2837 0034 4FF42573 		mov	r3, #660
 2838 0038 7B62     		str	r3, [r7, #36]
 2839 003a 40F22623 		movw	r3, #550
 2840 003e 3B62     		str	r3, [r7, #32]
 2841 0040 0023     		movs	r3, #0
 2842 0042 FB60     		str	r3, [r7, #12]
 2843 0044 BA6B     		ldr	r2, [r7, #56]
 2844 0046 7B6B     		ldr	r3, [r7, #52]
 2845 0048 1A44     		add	r2, r2, r3
 2846 004a 3B68     		ldr	r3, [r7]
 2847 004c 1A60     		str	r2, [r3]
 2848 004e 07F11803 		add	r3, r7, #24
 2849 0052 1946     		mov	r1, r3
 2850 0054 7868     		ldr	r0, [r7, #4]
ARM GAS  /var/folders/d2/nstgp4h54kz7g1l847x_b8wc0000gn/T//cczgylse.s 			page 51


 2851 0056 FFF7FEFF 		bl	VL53L0X_GetSequenceStepEnables
 2852 005a 0346     		mov	r3, r0
 2853 005c 87F83F30 		strb	r3, [r7, #63]
 2854 0060 97F93F30 		ldrsb	r3, [r7, #63]
 2855 0064 002B     		cmp	r3, #0
 2856 0066 02D0     		beq	.L155
 2857 0068 97F93F30 		ldrsb	r3, [r7, #63]
 2858 006c 75E0     		b	.L164
 2859              	.L155:
 2860 006e 3B7E     		ldrb	r3, [r7, #24]	@ zero_extendqisi2
 2861 0070 002B     		cmp	r3, #0
 2862 0072 05D1     		bne	.L157
 2863 0074 7B7E     		ldrb	r3, [r7, #25]	@ zero_extendqisi2
 2864 0076 002B     		cmp	r3, #0
 2865 0078 02D1     		bne	.L157
 2866 007a BB7E     		ldrb	r3, [r7, #26]	@ zero_extendqisi2
 2867 007c 002B     		cmp	r3, #0
 2868 007e 30D0     		beq	.L158
 2869              	.L157:
 2870 0080 07F11003 		add	r3, r7, #16
 2871 0084 1A46     		mov	r2, r3
 2872 0086 0221     		movs	r1, #2
 2873 0088 7868     		ldr	r0, [r7, #4]
 2874 008a FFF7FEFF 		bl	get_sequence_step_timeout
 2875 008e 0346     		mov	r3, r0
 2876 0090 87F83F30 		strb	r3, [r7, #63]
 2877 0094 97F93F30 		ldrsb	r3, [r7, #63]
 2878 0098 002B     		cmp	r3, #0
 2879 009a 22D1     		bne	.L158
 2880 009c 3B7E     		ldrb	r3, [r7, #24]	@ zero_extendqisi2
 2881 009e 002B     		cmp	r3, #0
 2882 00a0 07D0     		beq	.L159
 2883 00a2 3B68     		ldr	r3, [r7]
 2884 00a4 1A68     		ldr	r2, [r3]
 2885 00a6 3969     		ldr	r1, [r7, #16]
 2886 00a8 FB6A     		ldr	r3, [r7, #44]
 2887 00aa 0B44     		add	r3, r3, r1
 2888 00ac 1A44     		add	r2, r2, r3
 2889 00ae 3B68     		ldr	r3, [r7]
 2890 00b0 1A60     		str	r2, [r3]
 2891              	.L159:
 2892 00b2 BB7E     		ldrb	r3, [r7, #26]	@ zero_extendqisi2
 2893 00b4 002B     		cmp	r3, #0
 2894 00b6 09D0     		beq	.L160
 2895 00b8 3B68     		ldr	r3, [r7]
 2896 00ba 1A68     		ldr	r2, [r3]
 2897 00bc 3969     		ldr	r1, [r7, #16]
 2898 00be BB6A     		ldr	r3, [r7, #40]
 2899 00c0 0B44     		add	r3, r3, r1
 2900 00c2 5B00     		lsls	r3, r3, #1
 2901 00c4 1A44     		add	r2, r2, r3
 2902 00c6 3B68     		ldr	r3, [r7]
 2903 00c8 1A60     		str	r2, [r3]
 2904 00ca 0AE0     		b	.L158
 2905              	.L160:
 2906 00cc 7B7E     		ldrb	r3, [r7, #25]	@ zero_extendqisi2
 2907 00ce 002B     		cmp	r3, #0
ARM GAS  /var/folders/d2/nstgp4h54kz7g1l847x_b8wc0000gn/T//cczgylse.s 			page 52


 2908 00d0 07D0     		beq	.L158
 2909 00d2 3B68     		ldr	r3, [r7]
 2910 00d4 1A68     		ldr	r2, [r3]
 2911 00d6 3969     		ldr	r1, [r7, #16]
 2912 00d8 3B6B     		ldr	r3, [r7, #48]
 2913 00da 0B44     		add	r3, r3, r1
 2914 00dc 1A44     		add	r2, r2, r3
 2915 00de 3B68     		ldr	r3, [r7]
 2916 00e0 1A60     		str	r2, [r3]
 2917              	.L158:
 2918 00e2 97F93F30 		ldrsb	r3, [r7, #63]
 2919 00e6 002B     		cmp	r3, #0
 2920 00e8 14D1     		bne	.L161
 2921 00ea FB7E     		ldrb	r3, [r7, #27]	@ zero_extendqisi2
 2922 00ec 002B     		cmp	r3, #0
 2923 00ee 11D0     		beq	.L161
 2924 00f0 07F10C03 		add	r3, r7, #12
 2925 00f4 1A46     		mov	r2, r3
 2926 00f6 0321     		movs	r1, #3
 2927 00f8 7868     		ldr	r0, [r7, #4]
 2928 00fa FFF7FEFF 		bl	get_sequence_step_timeout
 2929 00fe 0346     		mov	r3, r0
 2930 0100 87F83F30 		strb	r3, [r7, #63]
 2931 0104 3B68     		ldr	r3, [r7]
 2932 0106 1A68     		ldr	r2, [r3]
 2933 0108 F968     		ldr	r1, [r7, #12]
 2934 010a 7B6A     		ldr	r3, [r7, #36]
 2935 010c 0B44     		add	r3, r3, r1
 2936 010e 1A44     		add	r2, r2, r3
 2937 0110 3B68     		ldr	r3, [r7]
 2938 0112 1A60     		str	r2, [r3]
 2939              	.L161:
 2940 0114 97F93F30 		ldrsb	r3, [r7, #63]
 2941 0118 002B     		cmp	r3, #0
 2942 011a 14D1     		bne	.L162
 2943 011c 3B7F     		ldrb	r3, [r7, #28]	@ zero_extendqisi2
 2944 011e 002B     		cmp	r3, #0
 2945 0120 11D0     		beq	.L162
 2946 0122 07F11403 		add	r3, r7, #20
 2947 0126 1A46     		mov	r2, r3
 2948 0128 0421     		movs	r1, #4
 2949 012a 7868     		ldr	r0, [r7, #4]
 2950 012c FFF7FEFF 		bl	get_sequence_step_timeout
 2951 0130 0346     		mov	r3, r0
 2952 0132 87F83F30 		strb	r3, [r7, #63]
 2953 0136 3B68     		ldr	r3, [r7]
 2954 0138 1A68     		ldr	r2, [r3]
 2955 013a 7969     		ldr	r1, [r7, #20]
 2956 013c 3B6A     		ldr	r3, [r7, #32]
 2957 013e 0B44     		add	r3, r3, r1
 2958 0140 1A44     		add	r2, r2, r3
 2959 0142 3B68     		ldr	r3, [r7]
 2960 0144 1A60     		str	r2, [r3]
 2961              	.L162:
 2962 0146 97F93F30 		ldrsb	r3, [r7, #63]
 2963 014a 002B     		cmp	r3, #0
 2964 014c 03D1     		bne	.L163
ARM GAS  /var/folders/d2/nstgp4h54kz7g1l847x_b8wc0000gn/T//cczgylse.s 			page 53


 2965 014e 3B68     		ldr	r3, [r7]
 2966 0150 1A68     		ldr	r2, [r3]
 2967 0152 7B68     		ldr	r3, [r7, #4]
 2968 0154 5A61     		str	r2, [r3, #20]
 2969              	.L163:
 2970 0156 97F93F30 		ldrsb	r3, [r7, #63]
 2971              	.L164:
 2972 015a 1846     		mov	r0, r3
 2973 015c 4037     		adds	r7, r7, #64
 2974 015e BD46     		mov	sp, r7
 2975              		@ sp needed
 2976 0160 80BD     		pop	{r7, pc}
 2977              		.size	VL53L0X_get_measurement_timing_budget_micro_seconds, .-VL53L0X_get_measurement_timing_budget
 2978              		.section	.text.VL53L0X_load_tuning_settings,"ax",%progbits
 2979              		.align	1
 2980              		.global	VL53L0X_load_tuning_settings
 2981              		.syntax unified
 2982              		.thumb
 2983              		.thumb_func
 2984              		.fpu fpv4-sp-d16
 2985              		.type	VL53L0X_load_tuning_settings, %function
 2986              	VL53L0X_load_tuning_settings:
 2987              		@ args = 0, pretend = 0, frame = 32
 2988              		@ frame_needed = 1, uses_anonymous_args = 0
 2989 0000 80B5     		push	{r7, lr}
 2990 0002 88B0     		sub	sp, sp, #32
 2991 0004 00AF     		add	r7, sp, #0
 2992 0006 7860     		str	r0, [r7, #4]
 2993 0008 3960     		str	r1, [r7]
 2994 000a 0023     		movs	r3, #0
 2995 000c FB77     		strb	r3, [r7, #31]
 2996 000e 0023     		movs	r3, #0
 2997 0010 7B61     		str	r3, [r7, #20]
 2998 0012 C6E0     		b	.L166
 2999              	.L179:
 3000 0014 7B69     		ldr	r3, [r7, #20]
 3001 0016 3A68     		ldr	r2, [r7]
 3002 0018 1344     		add	r3, r3, r2
 3003 001a 1B78     		ldrb	r3, [r3]
 3004 001c FB74     		strb	r3, [r7, #19]
 3005 001e 7B69     		ldr	r3, [r7, #20]
 3006 0020 0133     		adds	r3, r3, #1
 3007 0022 7B61     		str	r3, [r7, #20]
 3008 0024 FB7C     		ldrb	r3, [r7, #19]	@ zero_extendqisi2
 3009 0026 FF2B     		cmp	r3, #255
 3010 0028 40F08D80 		bne	.L167
 3011 002c 7B69     		ldr	r3, [r7, #20]
 3012 002e 3A68     		ldr	r2, [r7]
 3013 0030 1344     		add	r3, r3, r2
 3014 0032 1B78     		ldrb	r3, [r3]
 3015 0034 7B74     		strb	r3, [r7, #17]
 3016 0036 7B69     		ldr	r3, [r7, #20]
 3017 0038 0133     		adds	r3, r3, #1
 3018 003a 7B61     		str	r3, [r7, #20]
 3019 003c 7B7C     		ldrb	r3, [r7, #17]	@ zero_extendqisi2
 3020 003e 032B     		cmp	r3, #3
 3021 0040 7ED8     		bhi	.L168
ARM GAS  /var/folders/d2/nstgp4h54kz7g1l847x_b8wc0000gn/T//cczgylse.s 			page 54


 3022 0042 01A2     		adr	r2, .L170
 3023 0044 52F823F0 		ldr	pc, [r2, r3, lsl #2]
 3024              		.p2align 2
 3025              	.L170:
 3026 0048 59000000 		.word	.L169+1
 3027 004c 93000000 		.word	.L171+1
 3028 0050 CD000000 		.word	.L172+1
 3029 0054 07010000 		.word	.L173+1
 3030              		.p2align 1
 3031              	.L169:
 3032 0058 7B69     		ldr	r3, [r7, #20]
 3033 005a 3A68     		ldr	r2, [r7]
 3034 005c 1344     		add	r3, r3, r2
 3035 005e 1B78     		ldrb	r3, [r3]
 3036 0060 3B74     		strb	r3, [r7, #16]
 3037 0062 7B69     		ldr	r3, [r7, #20]
 3038 0064 0133     		adds	r3, r3, #1
 3039 0066 7B61     		str	r3, [r7, #20]
 3040 0068 7B69     		ldr	r3, [r7, #20]
 3041 006a 3A68     		ldr	r2, [r7]
 3042 006c 1344     		add	r3, r3, r2
 3043 006e 1B78     		ldrb	r3, [r3]
 3044 0070 FB73     		strb	r3, [r7, #15]
 3045 0072 7B69     		ldr	r3, [r7, #20]
 3046 0074 0133     		adds	r3, r3, #1
 3047 0076 7B61     		str	r3, [r7, #20]
 3048 0078 3B7C     		ldrb	r3, [r7, #16]	@ zero_extendqisi2
 3049 007a 9BB2     		uxth	r3, r3
 3050 007c 1B02     		lsls	r3, r3, #8
 3051 007e 9AB2     		uxth	r2, r3
 3052 0080 FB7B     		ldrb	r3, [r7, #15]	@ zero_extendqisi2
 3053 0082 9BB2     		uxth	r3, r3
 3054 0084 1344     		add	r3, r3, r2
 3055 0086 BB81     		strh	r3, [r7, #12]	@ movhi
 3056 0088 7B68     		ldr	r3, [r7, #4]
 3057 008a BA89     		ldrh	r2, [r7, #12]	@ movhi
 3058 008c A3F83421 		strh	r2, [r3, #308]	@ movhi
 3059 0090 87E0     		b	.L166
 3060              	.L171:
 3061 0092 7B69     		ldr	r3, [r7, #20]
 3062 0094 3A68     		ldr	r2, [r7]
 3063 0096 1344     		add	r3, r3, r2
 3064 0098 1B78     		ldrb	r3, [r3]
 3065 009a 3B74     		strb	r3, [r7, #16]
 3066 009c 7B69     		ldr	r3, [r7, #20]
 3067 009e 0133     		adds	r3, r3, #1
 3068 00a0 7B61     		str	r3, [r7, #20]
 3069 00a2 7B69     		ldr	r3, [r7, #20]
 3070 00a4 3A68     		ldr	r2, [r7]
 3071 00a6 1344     		add	r3, r3, r2
 3072 00a8 1B78     		ldrb	r3, [r3]
 3073 00aa FB73     		strb	r3, [r7, #15]
 3074 00ac 7B69     		ldr	r3, [r7, #20]
 3075 00ae 0133     		adds	r3, r3, #1
 3076 00b0 7B61     		str	r3, [r7, #20]
 3077 00b2 3B7C     		ldrb	r3, [r7, #16]	@ zero_extendqisi2
 3078 00b4 9BB2     		uxth	r3, r3
ARM GAS  /var/folders/d2/nstgp4h54kz7g1l847x_b8wc0000gn/T//cczgylse.s 			page 55


 3079 00b6 1B02     		lsls	r3, r3, #8
 3080 00b8 9AB2     		uxth	r2, r3
 3081 00ba FB7B     		ldrb	r3, [r7, #15]	@ zero_extendqisi2
 3082 00bc 9BB2     		uxth	r3, r3
 3083 00be 1344     		add	r3, r3, r2
 3084 00c0 BB81     		strh	r3, [r7, #12]	@ movhi
 3085 00c2 7B68     		ldr	r3, [r7, #4]
 3086 00c4 BA89     		ldrh	r2, [r7, #12]	@ movhi
 3087 00c6 A3F83621 		strh	r2, [r3, #310]	@ movhi
 3088 00ca 6AE0     		b	.L166
 3089              	.L172:
 3090 00cc 7B69     		ldr	r3, [r7, #20]
 3091 00ce 3A68     		ldr	r2, [r7]
 3092 00d0 1344     		add	r3, r3, r2
 3093 00d2 1B78     		ldrb	r3, [r3]
 3094 00d4 3B74     		strb	r3, [r7, #16]
 3095 00d6 7B69     		ldr	r3, [r7, #20]
 3096 00d8 0133     		adds	r3, r3, #1
 3097 00da 7B61     		str	r3, [r7, #20]
 3098 00dc 7B69     		ldr	r3, [r7, #20]
 3099 00de 3A68     		ldr	r2, [r7]
 3100 00e0 1344     		add	r3, r3, r2
 3101 00e2 1B78     		ldrb	r3, [r3]
 3102 00e4 FB73     		strb	r3, [r7, #15]
 3103 00e6 7B69     		ldr	r3, [r7, #20]
 3104 00e8 0133     		adds	r3, r3, #1
 3105 00ea 7B61     		str	r3, [r7, #20]
 3106 00ec 3B7C     		ldrb	r3, [r7, #16]	@ zero_extendqisi2
 3107 00ee 9BB2     		uxth	r3, r3
 3108 00f0 1B02     		lsls	r3, r3, #8
 3109 00f2 9AB2     		uxth	r2, r3
 3110 00f4 FB7B     		ldrb	r3, [r7, #15]	@ zero_extendqisi2
 3111 00f6 9BB2     		uxth	r3, r3
 3112 00f8 1344     		add	r3, r3, r2
 3113 00fa BB81     		strh	r3, [r7, #12]	@ movhi
 3114 00fc 7B68     		ldr	r3, [r7, #4]
 3115 00fe BA89     		ldrh	r2, [r7, #12]	@ movhi
 3116 0100 A3F83821 		strh	r2, [r3, #312]	@ movhi
 3117 0104 4DE0     		b	.L166
 3118              	.L173:
 3119 0106 7B69     		ldr	r3, [r7, #20]
 3120 0108 3A68     		ldr	r2, [r7]
 3121 010a 1344     		add	r3, r3, r2
 3122 010c 1B78     		ldrb	r3, [r3]
 3123 010e 3B74     		strb	r3, [r7, #16]
 3124 0110 7B69     		ldr	r3, [r7, #20]
 3125 0112 0133     		adds	r3, r3, #1
 3126 0114 7B61     		str	r3, [r7, #20]
 3127 0116 7B69     		ldr	r3, [r7, #20]
 3128 0118 3A68     		ldr	r2, [r7]
 3129 011a 1344     		add	r3, r3, r2
 3130 011c 1B78     		ldrb	r3, [r3]
 3131 011e FB73     		strb	r3, [r7, #15]
 3132 0120 7B69     		ldr	r3, [r7, #20]
 3133 0122 0133     		adds	r3, r3, #1
 3134 0124 7B61     		str	r3, [r7, #20]
 3135 0126 3B7C     		ldrb	r3, [r7, #16]	@ zero_extendqisi2
ARM GAS  /var/folders/d2/nstgp4h54kz7g1l847x_b8wc0000gn/T//cczgylse.s 			page 56


 3136 0128 9BB2     		uxth	r3, r3
 3137 012a 1B02     		lsls	r3, r3, #8
 3138 012c 9AB2     		uxth	r2, r3
 3139 012e FB7B     		ldrb	r3, [r7, #15]	@ zero_extendqisi2
 3140 0130 9BB2     		uxth	r3, r3
 3141 0132 1344     		add	r3, r3, r2
 3142 0134 BB81     		strh	r3, [r7, #12]	@ movhi
 3143 0136 7B68     		ldr	r3, [r7, #4]
 3144 0138 BA89     		ldrh	r2, [r7, #12]	@ movhi
 3145 013a A3F83C21 		strh	r2, [r3, #316]	@ movhi
 3146 013e 30E0     		b	.L166
 3147              	.L168:
 3148 0140 FC23     		movs	r3, #252
 3149 0142 FB77     		strb	r3, [r7, #31]
 3150 0144 2DE0     		b	.L166
 3151              	.L167:
 3152 0146 FB7C     		ldrb	r3, [r7, #19]	@ zero_extendqisi2
 3153 0148 042B     		cmp	r3, #4
 3154 014a 28D8     		bhi	.L175
 3155 014c 7B69     		ldr	r3, [r7, #20]
 3156 014e 3A68     		ldr	r2, [r7]
 3157 0150 1344     		add	r3, r3, r2
 3158 0152 1B78     		ldrb	r3, [r3]
 3159 0154 BB74     		strb	r3, [r7, #18]
 3160 0156 7B69     		ldr	r3, [r7, #20]
 3161 0158 0133     		adds	r3, r3, #1
 3162 015a 7B61     		str	r3, [r7, #20]
 3163 015c 0023     		movs	r3, #0
 3164 015e BB61     		str	r3, [r7, #24]
 3165 0160 0FE0     		b	.L176
 3166              	.L177:
 3167 0162 7B69     		ldr	r3, [r7, #20]
 3168 0164 3A68     		ldr	r2, [r7]
 3169 0166 1344     		add	r3, r3, r2
 3170 0168 1978     		ldrb	r1, [r3]	@ zero_extendqisi2
 3171 016a 07F10802 		add	r2, r7, #8
 3172 016e BB69     		ldr	r3, [r7, #24]
 3173 0170 1344     		add	r3, r3, r2
 3174 0172 0A46     		mov	r2, r1
 3175 0174 1A70     		strb	r2, [r3]
 3176 0176 7B69     		ldr	r3, [r7, #20]
 3177 0178 0133     		adds	r3, r3, #1
 3178 017a 7B61     		str	r3, [r7, #20]
 3179 017c BB69     		ldr	r3, [r7, #24]
 3180 017e 0133     		adds	r3, r3, #1
 3181 0180 BB61     		str	r3, [r7, #24]
 3182              	.L176:
 3183 0182 FB7C     		ldrb	r3, [r7, #19]	@ zero_extendqisi2
 3184 0184 BA69     		ldr	r2, [r7, #24]
 3185 0186 9A42     		cmp	r2, r3
 3186 0188 EBDB     		blt	.L177
 3187 018a FB7C     		ldrb	r3, [r7, #19]	@ zero_extendqisi2
 3188 018c 07F10802 		add	r2, r7, #8
 3189 0190 B97C     		ldrb	r1, [r7, #18]	@ zero_extendqisi2
 3190 0192 7868     		ldr	r0, [r7, #4]
 3191 0194 FFF7FEFF 		bl	VL53L0X_WriteMulti
 3192 0198 0346     		mov	r3, r0
ARM GAS  /var/folders/d2/nstgp4h54kz7g1l847x_b8wc0000gn/T//cczgylse.s 			page 57


 3193 019a FB77     		strb	r3, [r7, #31]
 3194 019c 01E0     		b	.L166
 3195              	.L175:
 3196 019e FC23     		movs	r3, #252
 3197 01a0 FB77     		strb	r3, [r7, #31]
 3198              	.L166:
 3199 01a2 7B69     		ldr	r3, [r7, #20]
 3200 01a4 3A68     		ldr	r2, [r7]
 3201 01a6 1344     		add	r3, r3, r2
 3202 01a8 1B78     		ldrb	r3, [r3]	@ zero_extendqisi2
 3203 01aa 002B     		cmp	r3, #0
 3204 01ac 04D0     		beq	.L178
 3205 01ae 97F91F30 		ldrsb	r3, [r7, #31]
 3206 01b2 002B     		cmp	r3, #0
 3207 01b4 3FF42EAF 		beq	.L179
 3208              	.L178:
 3209 01b8 97F91F30 		ldrsb	r3, [r7, #31]
 3210 01bc 1846     		mov	r0, r3
 3211 01be 2037     		adds	r7, r7, #32
 3212 01c0 BD46     		mov	sp, r7
 3213              		@ sp needed
 3214 01c2 80BD     		pop	{r7, pc}
 3215              		.size	VL53L0X_load_tuning_settings, .-VL53L0X_load_tuning_settings
 3216              		.section	.text.VL53L0X_get_total_xtalk_rate,"ax",%progbits
 3217              		.align	1
 3218              		.global	VL53L0X_get_total_xtalk_rate
 3219              		.syntax unified
 3220              		.thumb
 3221              		.thumb_func
 3222              		.fpu fpv4-sp-d16
 3223              		.type	VL53L0X_get_total_xtalk_rate, %function
 3224              	VL53L0X_get_total_xtalk_rate:
 3225              		@ args = 0, pretend = 0, frame = 32
 3226              		@ frame_needed = 1, uses_anonymous_args = 0
 3227 0000 80B5     		push	{r7, lr}
 3228 0002 88B0     		sub	sp, sp, #32
 3229 0004 00AF     		add	r7, sp, #0
 3230 0006 F860     		str	r0, [r7, #12]
 3231 0008 B960     		str	r1, [r7, #8]
 3232 000a 7A60     		str	r2, [r7, #4]
 3233 000c 0023     		movs	r3, #0
 3234 000e FB77     		strb	r3, [r7, #31]
 3235 0010 7B68     		ldr	r3, [r7, #4]
 3236 0012 0022     		movs	r2, #0
 3237 0014 1A60     		str	r2, [r3]
 3238 0016 07F11303 		add	r3, r7, #19
 3239 001a 1946     		mov	r1, r3
 3240 001c F868     		ldr	r0, [r7, #12]
 3241 001e FFF7FEFF 		bl	VL53L0X_GetXTalkCompensationEnable
 3242 0022 0346     		mov	r3, r0
 3243 0024 FB77     		strb	r3, [r7, #31]
 3244 0026 97F91F30 		ldrsb	r3, [r7, #31]
 3245 002a 002B     		cmp	r3, #0
 3246 002c 11D1     		bne	.L182
 3247 002e FB7C     		ldrb	r3, [r7, #19]	@ zero_extendqisi2
 3248 0030 002B     		cmp	r3, #0
 3249 0032 0ED0     		beq	.L182
ARM GAS  /var/folders/d2/nstgp4h54kz7g1l847x_b8wc0000gn/T//cczgylse.s 			page 58


 3250 0034 FB68     		ldr	r3, [r7, #12]
 3251 0036 1B6A     		ldr	r3, [r3, #32]
 3252 0038 BB61     		str	r3, [r7, #24]
 3253 003a BB68     		ldr	r3, [r7, #8]
 3254 003c 9B8A     		ldrh	r3, [r3, #20]
 3255 003e 1A46     		mov	r2, r3
 3256 0040 BB69     		ldr	r3, [r7, #24]
 3257 0042 02FB03F3 		mul	r3, r2, r3
 3258 0046 7B61     		str	r3, [r7, #20]
 3259 0048 7B69     		ldr	r3, [r7, #20]
 3260 004a 8033     		adds	r3, r3, #128
 3261 004c 1A0A     		lsrs	r2, r3, #8
 3262 004e 7B68     		ldr	r3, [r7, #4]
 3263 0050 1A60     		str	r2, [r3]
 3264              	.L182:
 3265 0052 97F91F30 		ldrsb	r3, [r7, #31]
 3266 0056 1846     		mov	r0, r3
 3267 0058 2037     		adds	r7, r7, #32
 3268 005a BD46     		mov	sp, r7
 3269              		@ sp needed
 3270 005c 80BD     		pop	{r7, pc}
 3271              		.size	VL53L0X_get_total_xtalk_rate, .-VL53L0X_get_total_xtalk_rate
 3272              		.section	.text.VL53L0X_get_total_signal_rate,"ax",%progbits
 3273              		.align	1
 3274              		.global	VL53L0X_get_total_signal_rate
 3275              		.syntax unified
 3276              		.thumb
 3277              		.thumb_func
 3278              		.fpu fpv4-sp-d16
 3279              		.type	VL53L0X_get_total_signal_rate, %function
 3280              	VL53L0X_get_total_signal_rate:
 3281              		@ args = 0, pretend = 0, frame = 24
 3282              		@ frame_needed = 1, uses_anonymous_args = 0
 3283 0000 80B5     		push	{r7, lr}
 3284 0002 86B0     		sub	sp, sp, #24
 3285 0004 00AF     		add	r7, sp, #0
 3286 0006 F860     		str	r0, [r7, #12]
 3287 0008 B960     		str	r1, [r7, #8]
 3288 000a 7A60     		str	r2, [r7, #4]
 3289 000c 0023     		movs	r3, #0
 3290 000e FB75     		strb	r3, [r7, #23]
 3291 0010 BB68     		ldr	r3, [r7, #8]
 3292 0012 DA68     		ldr	r2, [r3, #12]
 3293 0014 7B68     		ldr	r3, [r7, #4]
 3294 0016 1A60     		str	r2, [r3]
 3295 0018 07F11003 		add	r3, r7, #16
 3296 001c 1A46     		mov	r2, r3
 3297 001e B968     		ldr	r1, [r7, #8]
 3298 0020 F868     		ldr	r0, [r7, #12]
 3299 0022 FFF7FEFF 		bl	VL53L0X_get_total_xtalk_rate
 3300 0026 0346     		mov	r3, r0
 3301 0028 FB75     		strb	r3, [r7, #23]
 3302 002a 97F91730 		ldrsb	r3, [r7, #23]
 3303 002e 002B     		cmp	r3, #0
 3304 0030 05D1     		bne	.L185
 3305 0032 7B68     		ldr	r3, [r7, #4]
 3306 0034 1A68     		ldr	r2, [r3]
ARM GAS  /var/folders/d2/nstgp4h54kz7g1l847x_b8wc0000gn/T//cczgylse.s 			page 59


 3307 0036 3B69     		ldr	r3, [r7, #16]
 3308 0038 1A44     		add	r2, r2, r3
 3309 003a 7B68     		ldr	r3, [r7, #4]
 3310 003c 1A60     		str	r2, [r3]
 3311              	.L185:
 3312 003e 97F91730 		ldrsb	r3, [r7, #23]
 3313 0042 1846     		mov	r0, r3
 3314 0044 1837     		adds	r7, r7, #24
 3315 0046 BD46     		mov	sp, r7
 3316              		@ sp needed
 3317 0048 80BD     		pop	{r7, pc}
 3318              		.size	VL53L0X_get_total_signal_rate, .-VL53L0X_get_total_signal_rate
 3319              		.section	.text.VL53L0X_calc_dmax,"ax",%progbits
 3320              		.align	1
 3321              		.global	VL53L0X_calc_dmax
 3322              		.syntax unified
 3323              		.thumb
 3324              		.thumb_func
 3325              		.fpu fpv4-sp-d16
 3326              		.type	VL53L0X_calc_dmax, %function
 3327              	VL53L0X_calc_dmax:
 3328              		@ args = 16, pretend = 0, frame = 104
 3329              		@ frame_needed = 1, uses_anonymous_args = 0
 3330 0000 80B5     		push	{r7, lr}
 3331 0002 9AB0     		sub	sp, sp, #104
 3332 0004 00AF     		add	r7, sp, #0
 3333 0006 F860     		str	r0, [r7, #12]
 3334 0008 B960     		str	r1, [r7, #8]
 3335 000a 7A60     		str	r2, [r7, #4]
 3336 000c 3B60     		str	r3, [r7]
 3337 000e 1223     		movs	r3, #18
 3338 0010 7B65     		str	r3, [r7, #84]
 3339 0012 4FF48043 		mov	r3, #16384
 3340 0016 3B65     		str	r3, [r7, #80]
 3341 0018 4223     		movs	r3, #66
 3342 001a FB64     		str	r3, [r7, #76]
 3343 001c 0623     		movs	r3, #6
 3344 001e BB64     		str	r3, [r7, #72]
 3345 0020 0723     		movs	r3, #7
 3346 0022 7B64     		str	r3, [r7, #68]
 3347 0024 0023     		movs	r3, #0
 3348 0026 87F84330 		strb	r3, [r7, #67]
 3349 002a FB68     		ldr	r3, [r7, #12]
 3350 002c B3F85431 		ldrh	r3, [r3, #340]
 3351 0030 FB63     		str	r3, [r7, #60]
 3352 0032 FB68     		ldr	r3, [r7, #12]
 3353 0034 D3F85831 		ldr	r3, [r3, #344]
 3354 0038 BB63     		str	r3, [r7, #56]
 3355 003a FB6B     		ldr	r3, [r7, #60]
 3356 003c BA6B     		ldr	r2, [r7, #56]
 3357 003e 02FB03F3 		mul	r3, r2, r3
 3358 0042 7B63     		str	r3, [r7, #52]
 3359 0044 7B6B     		ldr	r3, [r7, #52]
 3360 0046 8033     		adds	r3, r3, #128
 3361 0048 1B0A     		lsrs	r3, r3, #8
 3362 004a 7B63     		str	r3, [r7, #52]
 3363 004c 7B6B     		ldr	r3, [r7, #52]
ARM GAS  /var/folders/d2/nstgp4h54kz7g1l847x_b8wc0000gn/T//cczgylse.s 			page 60


 3364 004e FA6B     		ldr	r2, [r7, #60]
 3365 0050 02FB03F3 		mul	r3, r2, r3
 3366 0054 7B63     		str	r3, [r7, #52]
 3367 0056 0023     		movs	r3, #0
 3368 0058 7B66     		str	r3, [r7, #100]
 3369 005a 7B68     		ldr	r3, [r7, #4]
 3370 005c 002B     		cmp	r3, #0
 3371 005e 1BD0     		beq	.L188
 3372 0060 BB68     		ldr	r3, [r7, #8]
 3373 0062 9B02     		lsls	r3, r3, #10
 3374 0064 3B63     		str	r3, [r7, #48]
 3375 0066 7B68     		ldr	r3, [r7, #4]
 3376 0068 5B08     		lsrs	r3, r3, #1
 3377 006a 3A6B     		ldr	r2, [r7, #48]
 3378 006c 1344     		add	r3, r3, r2
 3379 006e 7B66     		str	r3, [r7, #100]
 3380 0070 7A6E     		ldr	r2, [r7, #100]
 3381 0072 7B68     		ldr	r3, [r7, #4]
 3382 0074 B2FBF3F3 		udiv	r3, r2, r3
 3383 0078 7B66     		str	r3, [r7, #100]
 3384 007a 7A6E     		ldr	r2, [r7, #100]
 3385 007c 1346     		mov	r3, r2
 3386 007e 5B00     		lsls	r3, r3, #1
 3387 0080 1344     		add	r3, r3, r2
 3388 0082 7B66     		str	r3, [r7, #100]
 3389 0084 7B6E     		ldr	r3, [r7, #100]
 3390 0086 7A6E     		ldr	r2, [r7, #100]
 3391 0088 02FB03F3 		mul	r3, r2, r3
 3392 008c 7B66     		str	r3, [r7, #100]
 3393 008e 7B6E     		ldr	r3, [r7, #100]
 3394 0090 03F50043 		add	r3, r3, #32768
 3395 0094 1B0C     		lsrs	r3, r3, #16
 3396 0096 7B66     		str	r3, [r7, #100]
 3397              	.L188:
 3398 0098 3B68     		ldr	r3, [r7]
 3399 009a 3A6F     		ldr	r2, [r7, #112]
 3400 009c 02FB03F3 		mul	r3, r2, r3
 3401 00a0 FB62     		str	r3, [r7, #44]
 3402 00a2 FB6A     		ldr	r3, [r7, #44]
 3403 00a4 03F50043 		add	r3, r3, #32768
 3404 00a8 1B0C     		lsrs	r3, r3, #16
 3405 00aa FB62     		str	r3, [r7, #44]
 3406 00ac FB6A     		ldr	r3, [r7, #44]
 3407 00ae FA6A     		ldr	r2, [r7, #44]
 3408 00b0 02FB03F3 		mul	r3, r2, r3
 3409 00b4 FB62     		str	r3, [r7, #44]
 3410 00b6 7B6F     		ldr	r3, [r7, #116]
 3411 00b8 03F50043 		add	r3, r3, #32768
 3412 00bc 1B0C     		lsrs	r3, r3, #16
 3413 00be BB62     		str	r3, [r7, #40]
 3414 00c0 BB6C     		ldr	r3, [r7, #72]
 3415 00c2 5A08     		lsrs	r2, r3, #1
 3416 00c4 BB6A     		ldr	r3, [r7, #40]
 3417 00c6 1A44     		add	r2, r2, r3
 3418 00c8 BB6C     		ldr	r3, [r7, #72]
 3419 00ca B2FBF3F3 		udiv	r3, r2, r3
 3420 00ce BB62     		str	r3, [r7, #40]
ARM GAS  /var/folders/d2/nstgp4h54kz7g1l847x_b8wc0000gn/T//cczgylse.s 			page 61


 3421 00d0 BB6A     		ldr	r3, [r7, #40]
 3422 00d2 7A6C     		ldr	r2, [r7, #68]
 3423 00d4 02FB03F3 		mul	r3, r2, r3
 3424 00d8 BB62     		str	r3, [r7, #40]
 3425 00da BB6A     		ldr	r3, [r7, #40]
 3426 00dc B3F5803F 		cmp	r3, #65536
 3427 00e0 02D3     		bcc	.L189
 3428 00e2 554B     		ldr	r3, .L197
 3429 00e4 3B66     		str	r3, [r7, #96]
 3430 00e6 16E0     		b	.L190
 3431              	.L189:
 3432 00e8 BB6C     		ldr	r3, [r7, #72]
 3433 00ea 5A08     		lsrs	r2, r3, #1
 3434 00ec 7B6F     		ldr	r3, [r7, #116]
 3435 00ee 1A44     		add	r2, r2, r3
 3436 00f0 BB6C     		ldr	r3, [r7, #72]
 3437 00f2 B2FBF3F3 		udiv	r3, r2, r3
 3438 00f6 7B67     		str	r3, [r7, #116]
 3439 00f8 7B6F     		ldr	r3, [r7, #116]
 3440 00fa 7A6C     		ldr	r2, [r7, #68]
 3441 00fc 02FB03F3 		mul	r3, r2, r3
 3442 0100 7B67     		str	r3, [r7, #116]
 3443 0102 7B6F     		ldr	r3, [r7, #116]
 3444 0104 03F50043 		add	r3, r3, #32768
 3445 0108 1B0C     		lsrs	r3, r3, #16
 3446 010a 3B66     		str	r3, [r7, #96]
 3447 010c 3B6E     		ldr	r3, [r7, #96]
 3448 010e 3A6E     		ldr	r2, [r7, #96]
 3449 0110 02FB03F3 		mul	r3, r2, r3
 3450 0114 3B66     		str	r3, [r7, #96]
 3451              	.L190:
 3452 0116 7B6D     		ldr	r3, [r7, #84]
 3453 0118 9B03     		lsls	r3, r3, #14
 3454 011a 03F5FA73 		add	r3, r3, #500
 3455 011e 474A     		ldr	r2, .L197+4
 3456 0120 A2FB0323 		umull	r2, r3, r2, r3
 3457 0124 9B09     		lsrs	r3, r3, #6
 3458 0126 7B62     		str	r3, [r7, #36]
 3459 0128 7B6A     		ldr	r3, [r7, #36]
 3460 012a 7A6A     		ldr	r2, [r7, #36]
 3461 012c 02FB03F3 		mul	r3, r2, r3
 3462 0130 7B62     		str	r3, [r7, #36]
 3463 0132 FB6C     		ldr	r3, [r7, #76]
 3464 0134 FA6C     		ldr	r2, [r7, #76]
 3465 0136 02FB03F3 		mul	r3, r2, r3
 3466 013a 3B62     		str	r3, [r7, #32]
 3467 013c 3B6A     		ldr	r3, [r7, #32]
 3468 013e 0833     		adds	r3, r3, #8
 3469 0140 1B09     		lsrs	r3, r3, #4
 3470 0142 3B62     		str	r3, [r7, #32]
 3471 0144 7A6A     		ldr	r2, [r7, #36]
 3472 0146 3B6A     		ldr	r3, [r7, #32]
 3473 0148 D31A     		subs	r3, r2, r3
 3474 014a 7B62     		str	r3, [r7, #36]
 3475 014c 7A6A     		ldr	r2, [r7, #36]
 3476 014e 1346     		mov	r3, r2
 3477 0150 5B00     		lsls	r3, r3, #1
ARM GAS  /var/folders/d2/nstgp4h54kz7g1l847x_b8wc0000gn/T//cczgylse.s 			page 62


 3478 0152 1344     		add	r3, r3, r2
 3479 0154 1B01     		lsls	r3, r3, #4
 3480 0156 FB61     		str	r3, [r7, #28]
 3481 0158 FB69     		ldr	r3, [r7, #28]
 3482 015a 03F50053 		add	r3, r3, #8192
 3483 015e 9B0B     		lsrs	r3, r3, #14
 3484 0160 FB61     		str	r3, [r7, #28]
 3485 0162 FA6A     		ldr	r2, [r7, #44]
 3486 0164 3B6E     		ldr	r3, [r7, #96]
 3487 0166 1344     		add	r3, r3, r2
 3488 0168 BB61     		str	r3, [r7, #24]
 3489 016a BB6F     		ldr	r3, [r7, #120]
 3490 016c 5B08     		lsrs	r3, r3, #1
 3491 016e BA69     		ldr	r2, [r7, #24]
 3492 0170 1344     		add	r3, r3, r2
 3493 0172 BB61     		str	r3, [r7, #24]
 3494 0174 BA69     		ldr	r2, [r7, #24]
 3495 0176 BB6F     		ldr	r3, [r7, #120]
 3496 0178 B2FBF3F3 		udiv	r3, r2, r3
 3497 017c BB61     		str	r3, [r7, #24]
 3498 017e BB69     		ldr	r3, [r7, #24]
 3499 0180 9B03     		lsls	r3, r3, #14
 3500 0182 BB61     		str	r3, [r7, #24]
 3501 0184 FB69     		ldr	r3, [r7, #28]
 3502 0186 5B08     		lsrs	r3, r3, #1
 3503 0188 BA69     		ldr	r2, [r7, #24]
 3504 018a 1344     		add	r3, r3, r2
 3505 018c BB61     		str	r3, [r7, #24]
 3506 018e BA69     		ldr	r2, [r7, #24]
 3507 0190 FB69     		ldr	r3, [r7, #28]
 3508 0192 B2FBF3F3 		udiv	r3, r2, r3
 3509 0196 BB61     		str	r3, [r7, #24]
 3510 0198 BB69     		ldr	r3, [r7, #24]
 3511 019a 7A6E     		ldr	r2, [r7, #100]
 3512 019c 02FB03F3 		mul	r3, r2, r3
 3513 01a0 BB61     		str	r3, [r7, #24]
 3514 01a2 BB69     		ldr	r3, [r7, #24]
 3515 01a4 03F5FA73 		add	r3, r3, #500
 3516 01a8 244A     		ldr	r2, .L197+4
 3517 01aa A2FB0323 		umull	r2, r3, r2, r3
 3518 01ae 9B09     		lsrs	r3, r3, #6
 3519 01b0 BB61     		str	r3, [r7, #24]
 3520 01b2 BB69     		ldr	r3, [r7, #24]
 3521 01b4 1B01     		lsls	r3, r3, #4
 3522 01b6 BB61     		str	r3, [r7, #24]
 3523 01b8 BB69     		ldr	r3, [r7, #24]
 3524 01ba 03F5FA73 		add	r3, r3, #500
 3525 01be 1F4A     		ldr	r2, .L197+4
 3526 01c0 A2FB0323 		umull	r2, r3, r2, r3
 3527 01c4 9B09     		lsrs	r3, r3, #6
 3528 01c6 BB61     		str	r3, [r7, #24]
 3529 01c8 3B6D     		ldr	r3, [r7, #80]
 3530 01ca 8033     		adds	r3, r3, #128
 3531 01cc 1B0A     		lsrs	r3, r3, #8
 3532 01ce 7B61     		str	r3, [r7, #20]
 3533 01d0 7B69     		ldr	r3, [r7, #20]
 3534 01d2 002B     		cmp	r3, #0
ARM GAS  /var/folders/d2/nstgp4h54kz7g1l847x_b8wc0000gn/T//cczgylse.s 			page 63


 3535 01d4 08D0     		beq	.L191
 3536 01d6 7B69     		ldr	r3, [r7, #20]
 3537 01d8 5A08     		lsrs	r2, r3, #1
 3538 01da 7B6B     		ldr	r3, [r7, #52]
 3539 01dc 1A44     		add	r2, r2, r3
 3540 01de 7B69     		ldr	r3, [r7, #20]
 3541 01e0 B2FBF3F3 		udiv	r3, r2, r3
 3542 01e4 BB65     		str	r3, [r7, #88]
 3543 01e6 01E0     		b	.L192
 3544              	.L191:
 3545 01e8 0023     		movs	r3, #0
 3546 01ea BB65     		str	r3, [r7, #88]
 3547              	.L192:
 3548 01ec B86D     		ldr	r0, [r7, #88]
 3549 01ee FFF7FEFF 		bl	VL53L0X_isqrt
 3550 01f2 3861     		str	r0, [r7, #16]
 3551 01f4 BB69     		ldr	r3, [r7, #24]
 3552 01f6 002B     		cmp	r3, #0
 3553 01f8 08D0     		beq	.L193
 3554 01fa BB69     		ldr	r3, [r7, #24]
 3555 01fc 5A08     		lsrs	r2, r3, #1
 3556 01fe 7B6B     		ldr	r3, [r7, #52]
 3557 0200 1A44     		add	r2, r2, r3
 3558 0202 BB69     		ldr	r3, [r7, #24]
 3559 0204 B2FBF3F3 		udiv	r3, r2, r3
 3560 0208 FB65     		str	r3, [r7, #92]
 3561 020a 01E0     		b	.L194
 3562              	.L193:
 3563 020c 0023     		movs	r3, #0
 3564 020e FB65     		str	r3, [r7, #92]
 3565              	.L194:
 3566 0210 F86D     		ldr	r0, [r7, #92]
 3567 0212 FFF7FEFF 		bl	VL53L0X_isqrt
 3568 0216 F865     		str	r0, [r7, #92]
 3569 0218 FB6F     		ldr	r3, [r7, #124]
 3570 021a 3A69     		ldr	r2, [r7, #16]
 3571 021c 1A60     		str	r2, [r3]
 3572 021e 3A69     		ldr	r2, [r7, #16]
 3573 0220 FB6D     		ldr	r3, [r7, #92]
 3574 0222 9A42     		cmp	r2, r3
 3575 0224 02D9     		bls	.L195
 3576 0226 FB6F     		ldr	r3, [r7, #124]
 3577 0228 FA6D     		ldr	r2, [r7, #92]
 3578 022a 1A60     		str	r2, [r3]
 3579              	.L195:
 3580 022c 97F94330 		ldrsb	r3, [r7, #67]
 3581 0230 1846     		mov	r0, r3
 3582 0232 6837     		adds	r7, r7, #104
 3583 0234 BD46     		mov	sp, r7
 3584              		@ sp needed
 3585 0236 80BD     		pop	{r7, pc}
 3586              	.L198:
 3587              		.align	2
 3588              	.L197:
 3589 0238 0000F0FF 		.word	-1048576
 3590 023c D34D6210 		.word	274877907
 3591              		.size	VL53L0X_calc_dmax, .-VL53L0X_calc_dmax
ARM GAS  /var/folders/d2/nstgp4h54kz7g1l847x_b8wc0000gn/T//cczgylse.s 			page 64


 3592              		.section	.text.VL53L0X_calc_sigma_estimate,"ax",%progbits
 3593              		.align	1
 3594              		.global	VL53L0X_calc_sigma_estimate
 3595              		.syntax unified
 3596              		.thumb
 3597              		.thumb_func
 3598              		.fpu fpv4-sp-d16
 3599              		.type	VL53L0X_calc_sigma_estimate, %function
 3600              	VL53L0X_calc_sigma_estimate:
 3601              		@ args = 0, pretend = 0, frame = 192
 3602              		@ frame_needed = 1, uses_anonymous_args = 0
 3603 0000 80B5     		push	{r7, lr}
 3604 0002 B4B0     		sub	sp, sp, #208
 3605 0004 04AF     		add	r7, sp, #16
 3606 0006 F860     		str	r0, [r7, #12]
 3607 0008 B960     		str	r1, [r7, #8]
 3608 000a 7A60     		str	r2, [r7, #4]
 3609 000c 3B60     		str	r3, [r7]
 3610 000e 4FF44873 		mov	r3, #800
 3611 0012 C7F89030 		str	r3, [r7, #144]
 3612 0016 4FF41673 		mov	r3, #600
 3613 001a C7F88C30 		str	r3, [r7, #140]
 3614 001e 4FF4C813 		mov	r3, #1638400
 3615 0022 C7F88830 		str	r3, [r7, #136]
 3616 0026 41F25C23 		movw	r3, #4700
 3617 002a C7F88430 		str	r3, [r7, #132]
 3618 002e 9E4B     		ldr	r3, .L215
 3619 0030 C7F88030 		str	r3, [r7, #128]
 3620 0034 4FF47043 		mov	r3, #61440
 3621 0038 FB67     		str	r3, [r7, #124]
 3622 003a 4FF07042 		mov	r2, #-268435456
 3623 003e D7F88C30 		ldr	r3, [r7, #140]
 3624 0042 B2FBF3F3 		udiv	r3, r2, r3
 3625 0046 BB67     		str	r3, [r7, #120]
 3626 0048 984B     		ldr	r3, .L215+4
 3627 004a 7B67     		str	r3, [r7, #116]
 3628 004c 4FF40043 		mov	r3, #32768
 3629 0050 3B67     		str	r3, [r7, #112]
 3630 0052 4FF44813 		mov	r3, #3276800
 3631 0056 FB66     		str	r3, [r7, #108]
 3632 0058 40F27763 		movw	r3, #1655
 3633 005c BB66     		str	r3, [r7, #104]
 3634 005e 0023     		movs	r3, #0
 3635 0060 87F89F30 		strb	r3, [r7, #159]
 3636 0064 FB68     		ldr	r3, [r7, #12]
 3637 0066 1B6A     		ldr	r3, [r3, #32]
 3638 0068 7B61     		str	r3, [r7, #20]
 3639 006a BB68     		ldr	r3, [r7, #8]
 3640 006c 1B69     		ldr	r3, [r3, #16]
 3641 006e 4FF47A72 		mov	r2, #1000
 3642 0072 02FB03F3 		mul	r3, r2, r3
 3643 0076 1B0C     		lsrs	r3, r3, #16
 3644 0078 7B66     		str	r3, [r7, #100]
 3645 007a BB68     		ldr	r3, [r7, #8]
 3646 007c DB68     		ldr	r3, [r3, #12]
 3647 007e 3B66     		str	r3, [r7, #96]
 3648 0080 07F11003 		add	r3, r7, #16
ARM GAS  /var/folders/d2/nstgp4h54kz7g1l847x_b8wc0000gn/T//cczgylse.s 			page 65


 3649 0084 1A46     		mov	r2, r3
 3650 0086 B968     		ldr	r1, [r7, #8]
 3651 0088 F868     		ldr	r0, [r7, #12]
 3652 008a FFF7FEFF 		bl	VL53L0X_get_total_signal_rate
 3653 008e 0346     		mov	r3, r0
 3654 0090 87F89F30 		strb	r3, [r7, #159]
 3655 0094 07F11403 		add	r3, r7, #20
 3656 0098 1A46     		mov	r2, r3
 3657 009a B968     		ldr	r1, [r7, #8]
 3658 009c F868     		ldr	r0, [r7, #12]
 3659 009e FFF7FEFF 		bl	VL53L0X_get_total_xtalk_rate
 3660 00a2 0346     		mov	r3, r0
 3661 00a4 87F89F30 		strb	r3, [r7, #159]
 3662 00a8 3B69     		ldr	r3, [r7, #16]
 3663 00aa 4FF47A72 		mov	r2, #1000
 3664 00ae 02FB03F3 		mul	r3, r2, r3
 3665 00b2 FB65     		str	r3, [r7, #92]
 3666 00b4 FB6D     		ldr	r3, [r7, #92]
 3667 00b6 03F50043 		add	r3, r3, #32768
 3668 00ba 1B0C     		lsrs	r3, r3, #16
 3669 00bc FB65     		str	r3, [r7, #92]
 3670 00be 7B69     		ldr	r3, [r7, #20]
 3671 00c0 4FF47A72 		mov	r2, #1000
 3672 00c4 02FB03F3 		mul	r3, r2, r3
 3673 00c8 C7F8A030 		str	r3, [r7, #160]
 3674 00cc D7F8A020 		ldr	r2, [r7, #160]
 3675 00d0 FB6E     		ldr	r3, [r7, #108]
 3676 00d2 9A42     		cmp	r2, r3
 3677 00d4 02D9     		bls	.L200
 3678 00d6 FB6E     		ldr	r3, [r7, #108]
 3679 00d8 C7F8A030 		str	r3, [r7, #160]
 3680              	.L200:
 3681 00dc 97F99F30 		ldrsb	r3, [r7, #159]
 3682 00e0 002B     		cmp	r3, #0
 3683 00e2 68D1     		bne	.L201
 3684 00e4 FB68     		ldr	r3, [r7, #12]
 3685 00e6 D3F8DC30 		ldr	r3, [r3, #220]
 3686 00ea C7F8B830 		str	r3, [r7, #184]
 3687 00ee FB68     		ldr	r3, [r7, #12]
 3688 00f0 93F8E030 		ldrb	r3, [r3, #224]
 3689 00f4 87F85B30 		strb	r3, [r7, #91]
 3690 00f8 97F85B30 		ldrb	r3, [r7, #91]	@ zero_extendqisi2
 3691 00fc 1A46     		mov	r2, r3
 3692 00fe D7F8B810 		ldr	r1, [r7, #184]
 3693 0102 F868     		ldr	r0, [r7, #12]
 3694 0104 FFF7FEFF 		bl	VL53L0X_calc_timeout_mclks
 3695 0108 7865     		str	r0, [r7, #84]
 3696 010a FB68     		ldr	r3, [r7, #12]
 3697 010c D3F8E430 		ldr	r3, [r3, #228]
 3698 0110 C7F8B430 		str	r3, [r7, #180]
 3699 0114 FB68     		ldr	r3, [r7, #12]
 3700 0116 93F8E830 		ldrb	r3, [r3, #232]
 3701 011a 87F85330 		strb	r3, [r7, #83]
 3702 011e 97F85330 		ldrb	r3, [r7, #83]	@ zero_extendqisi2
 3703 0122 1A46     		mov	r2, r3
 3704 0124 D7F8B410 		ldr	r1, [r7, #180]
 3705 0128 F868     		ldr	r0, [r7, #12]
ARM GAS  /var/folders/d2/nstgp4h54kz7g1l847x_b8wc0000gn/T//cczgylse.s 			page 66


 3706 012a FFF7FEFF 		bl	VL53L0X_calc_timeout_mclks
 3707 012e F864     		str	r0, [r7, #76]
 3708 0130 0323     		movs	r3, #3
 3709 0132 C7F89830 		str	r3, [r7, #152]
 3710 0136 97F85B30 		ldrb	r3, [r7, #91]	@ zero_extendqisi2
 3711 013a 082B     		cmp	r3, #8
 3712 013c 02D1     		bne	.L202
 3713 013e 0223     		movs	r3, #2
 3714 0140 C7F89830 		str	r3, [r7, #152]
 3715              	.L202:
 3716 0144 FA6C     		ldr	r2, [r7, #76]
 3717 0146 7B6D     		ldr	r3, [r7, #84]
 3718 0148 1344     		add	r3, r3, r2
 3719 014a D7F89820 		ldr	r2, [r7, #152]
 3720 014e 02FB03F3 		mul	r3, r2, r3
 3721 0152 DB02     		lsls	r3, r3, #11
 3722 0154 C7F89430 		str	r3, [r7, #148]
 3723 0158 D7F89430 		ldr	r3, [r7, #148]
 3724 015c 03F5FA73 		add	r3, r3, #500
 3725 0160 534A     		ldr	r2, .L215+8
 3726 0162 A2FB0323 		umull	r2, r3, r2, r3
 3727 0166 9B09     		lsrs	r3, r3, #6
 3728 0168 C7F89430 		str	r3, [r7, #148]
 3729 016c D7F89430 		ldr	r3, [r7, #148]
 3730 0170 BA6E     		ldr	r2, [r7, #104]
 3731 0172 02FB03F3 		mul	r3, r2, r3
 3732 0176 C7F89430 		str	r3, [r7, #148]
 3733 017a D7F89430 		ldr	r3, [r7, #148]
 3734 017e 03F5FA73 		add	r3, r3, #500
 3735 0182 4B4A     		ldr	r2, .L215+8
 3736 0184 A2FB0323 		umull	r2, r3, r2, r3
 3737 0188 9B09     		lsrs	r3, r3, #6
 3738 018a C7F89430 		str	r3, [r7, #148]
 3739 018e 3B69     		ldr	r3, [r7, #16]
 3740 0190 8033     		adds	r3, r3, #128
 3741 0192 1B0A     		lsrs	r3, r3, #8
 3742 0194 3B61     		str	r3, [r7, #16]
 3743 0196 3A69     		ldr	r2, [r7, #16]
 3744 0198 D7F89430 		ldr	r3, [r7, #148]
 3745 019c 02FB03F3 		mul	r3, r2, r3
 3746 01a0 C7F8BC30 		str	r3, [r7, #188]
 3747 01a4 D7F8BC30 		ldr	r3, [r7, #188]
 3748 01a8 8033     		adds	r3, r3, #128
 3749 01aa 1B0A     		lsrs	r3, r3, #8
 3750 01ac C7F8BC30 		str	r3, [r7, #188]
 3751 01b0 3B69     		ldr	r3, [r7, #16]
 3752 01b2 1B02     		lsls	r3, r3, #8
 3753 01b4 3B61     		str	r3, [r7, #16]
 3754              	.L201:
 3755 01b6 97F99F30 		ldrsb	r3, [r7, #159]
 3756 01ba 002B     		cmp	r3, #0
 3757 01bc 02D0     		beq	.L203
 3758 01be 97F99F30 		ldrsb	r3, [r7, #159]
 3759 01c2 65E1     		b	.L214
 3760              	.L203:
 3761 01c4 FB6D     		ldr	r3, [r7, #92]
 3762 01c6 002B     		cmp	r3, #0
ARM GAS  /var/folders/d2/nstgp4h54kz7g1l847x_b8wc0000gn/T//cczgylse.s 			page 67


 3763 01c8 0CD1     		bne	.L205
 3764 01ca 7B68     		ldr	r3, [r7, #4]
 3765 01cc D7F88020 		ldr	r2, [r7, #128]
 3766 01d0 1A60     		str	r2, [r3]
 3767 01d2 FB68     		ldr	r3, [r7, #12]
 3768 01d4 D7F88020 		ldr	r2, [r7, #128]
 3769 01d8 C3F84021 		str	r2, [r3, #320]
 3770 01dc 3B68     		ldr	r3, [r7]
 3771 01de 0022     		movs	r2, #0
 3772 01e0 1A60     		str	r2, [r3]
 3773 01e2 53E1     		b	.L206
 3774              	.L205:
 3775 01e4 D7F8BC30 		ldr	r3, [r7, #188]
 3776 01e8 002B     		cmp	r3, #0
 3777 01ea 02D1     		bne	.L207
 3778 01ec 0123     		movs	r3, #1
 3779 01ee C7F8BC30 		str	r3, [r7, #188]
 3780              	.L207:
 3781 01f2 D7F89030 		ldr	r3, [r7, #144]
 3782 01f6 BB64     		str	r3, [r7, #72]
 3783 01f8 7B6E     		ldr	r3, [r7, #100]
 3784 01fa 1A04     		lsls	r2, r3, #16
 3785 01fc FB6D     		ldr	r3, [r7, #92]
 3786 01fe B2FBF3F3 		udiv	r3, r2, r3
 3787 0202 C7F8B030 		str	r3, [r7, #176]
 3788 0206 D7F8B020 		ldr	r2, [r7, #176]
 3789 020a BB6F     		ldr	r3, [r7, #120]
 3790 020c 9A42     		cmp	r2, r3
 3791 020e 02D9     		bls	.L208
 3792 0210 BB6F     		ldr	r3, [r7, #120]
 3793 0212 C7F8B030 		str	r3, [r7, #176]
 3794              	.L208:
 3795 0216 D7F8B030 		ldr	r3, [r7, #176]
 3796 021a D7F88C20 		ldr	r2, [r7, #140]
 3797 021e 02FB03F3 		mul	r3, r2, r3
 3798 0222 C7F8B030 		str	r3, [r7, #176]
 3799 0226 D7F8BC20 		ldr	r2, [r7, #188]
 3800 022a 1346     		mov	r3, r2
 3801 022c 5B00     		lsls	r3, r3, #1
 3802 022e 1344     		add	r3, r3, r2
 3803 0230 9B00     		lsls	r3, r3, #2
 3804 0232 1846     		mov	r0, r3
 3805 0234 FFF7FEFF 		bl	VL53L0X_isqrt
 3806 0238 0346     		mov	r3, r0
 3807 023a 5B00     		lsls	r3, r3, #1
 3808 023c 7B64     		str	r3, [r7, #68]
 3809 023e BB68     		ldr	r3, [r7, #8]
 3810 0240 1B89     		ldrh	r3, [r3, #8]
 3811 0242 1A46     		mov	r2, r3
 3812 0244 7B6F     		ldr	r3, [r7, #116]
 3813 0246 02FB03F3 		mul	r3, r2, r3
 3814 024a 3B64     		str	r3, [r7, #64]
 3815 024c FB6D     		ldr	r3, [r7, #92]
 3816 024e 1A04     		lsls	r2, r3, #16
 3817 0250 D7F8A030 		ldr	r3, [r7, #160]
 3818 0254 5B00     		lsls	r3, r3, #1
 3819 0256 D31A     		subs	r3, r2, r3
ARM GAS  /var/folders/d2/nstgp4h54kz7g1l847x_b8wc0000gn/T//cczgylse.s 			page 68


 3820 0258 03F5FA73 		add	r3, r3, #500
 3821 025c 144A     		ldr	r2, .L215+8
 3822 025e A2FB0323 		umull	r2, r3, r2, r3
 3823 0262 9B09     		lsrs	r3, r3, #6
 3824 0264 FB63     		str	r3, [r7, #60]
 3825 0266 FB6D     		ldr	r3, [r7, #92]
 3826 0268 1B04     		lsls	r3, r3, #16
 3827 026a 03F5FA73 		add	r3, r3, #500
 3828 026e 104A     		ldr	r2, .L215+8
 3829 0270 A2FB0323 		umull	r2, r3, r2, r3
 3830 0274 9B09     		lsrs	r3, r3, #6
 3831 0276 BB63     		str	r3, [r7, #56]
 3832 0278 FB6B     		ldr	r3, [r7, #60]
 3833 027a 1B02     		lsls	r3, r3, #8
 3834 027c FB63     		str	r3, [r7, #60]
 3835 027e FA6B     		ldr	r2, [r7, #60]
 3836 0280 BB6B     		ldr	r3, [r7, #56]
 3837 0282 B2FBF3F3 		udiv	r3, r2, r3
 3838 0286 002B     		cmp	r3, #0
 3839 0288 B8BF     		it	lt
 3840 028a 5B42     		rsblt	r3, r3, #0
 3841 028c 7B63     		str	r3, [r7, #52]
 3842 028e 7B6B     		ldr	r3, [r7, #52]
 3843 0290 1B02     		lsls	r3, r3, #8
 3844 0292 7B63     		str	r3, [r7, #52]
 3845 0294 BB68     		ldr	r3, [r7, #8]
 3846 0296 1B7E     		ldrb	r3, [r3, #24]	@ zero_extendqisi2
 3847 0298 002B     		cmp	r3, #0
 3848 029a 0BD0     		beq	.L209
 3849 029c 4FF48033 		mov	r3, #65536
 3850 02a0 C7F8AC30 		str	r3, [r7, #172]
 3851 02a4 35E0     		b	.L210
 3852              	.L216:
 3853 02a6 00BF     		.align	2
 3854              	.L215:
 3855 02a8 AE878F02 		.word	42960814
 3856 02ac 9A990600 		.word	432538
 3857 02b0 D34D6210 		.word	274877907
 3858              	.L209:
 3859 02b4 3A6C     		ldr	r2, [r7, #64]
 3860 02b6 D7F88430 		ldr	r3, [r7, #132]
 3861 02ba B2FBF3F3 		udiv	r3, r2, r3
 3862 02be C7F8AC30 		str	r3, [r7, #172]
 3863 02c2 7B6B     		ldr	r3, [r7, #52]
 3864 02c4 C3F58032 		rsb	r2, r3, #65536
 3865 02c8 D7F8AC30 		ldr	r3, [r7, #172]
 3866 02cc 02FB03F3 		mul	r3, r2, r3
 3867 02d0 C7F8AC30 		str	r3, [r7, #172]
 3868 02d4 D7F8AC20 		ldr	r2, [r7, #172]
 3869 02d8 3B6F     		ldr	r3, [r7, #112]
 3870 02da 1344     		add	r3, r3, r2
 3871 02dc 1B0C     		lsrs	r3, r3, #16
 3872 02de C7F8AC30 		str	r3, [r7, #172]
 3873 02e2 D7F8AC30 		ldr	r3, [r7, #172]
 3874 02e6 03F58033 		add	r3, r3, #65536
 3875 02ea C7F8AC30 		str	r3, [r7, #172]
 3876 02ee D7F8AC30 		ldr	r3, [r7, #172]
ARM GAS  /var/folders/d2/nstgp4h54kz7g1l847x_b8wc0000gn/T//cczgylse.s 			page 69


 3877 02f2 5B08     		lsrs	r3, r3, #1
 3878 02f4 C7F8AC30 		str	r3, [r7, #172]
 3879 02f8 D7F8AC30 		ldr	r3, [r7, #172]
 3880 02fc D7F8AC20 		ldr	r2, [r7, #172]
 3881 0300 02FB03F3 		mul	r3, r2, r3
 3882 0304 C7F8AC30 		str	r3, [r7, #172]
 3883 0308 D7F8AC30 		ldr	r3, [r7, #172]
 3884 030c 9B0B     		lsrs	r3, r3, #14
 3885 030e C7F8AC30 		str	r3, [r7, #172]
 3886              	.L210:
 3887 0312 D7F8AC30 		ldr	r3, [r7, #172]
 3888 0316 BA6C     		ldr	r2, [r7, #72]
 3889 0318 02FB03F3 		mul	r3, r2, r3
 3890 031c 3B63     		str	r3, [r7, #48]
 3891 031e 3B6B     		ldr	r3, [r7, #48]
 3892 0320 03F50043 		add	r3, r3, #32768
 3893 0324 1B0C     		lsrs	r3, r3, #16
 3894 0326 3B63     		str	r3, [r7, #48]
 3895 0328 3B6B     		ldr	r3, [r7, #48]
 3896 032a 3A6B     		ldr	r2, [r7, #48]
 3897 032c 02FB03F3 		mul	r3, r2, r3
 3898 0330 3B63     		str	r3, [r7, #48]
 3899 0332 D7F8B030 		ldr	r3, [r7, #176]
 3900 0336 FB62     		str	r3, [r7, #44]
 3901 0338 FB6A     		ldr	r3, [r7, #44]
 3902 033a 03F50043 		add	r3, r3, #32768
 3903 033e 1B0C     		lsrs	r3, r3, #16
 3904 0340 FB62     		str	r3, [r7, #44]
 3905 0342 FB6A     		ldr	r3, [r7, #44]
 3906 0344 FA6A     		ldr	r2, [r7, #44]
 3907 0346 02FB03F3 		mul	r3, r2, r3
 3908 034a FB62     		str	r3, [r7, #44]
 3909 034c 3A6B     		ldr	r2, [r7, #48]
 3910 034e FB6A     		ldr	r3, [r7, #44]
 3911 0350 1344     		add	r3, r3, r2
 3912 0352 BB62     		str	r3, [r7, #40]
 3913 0354 B86A     		ldr	r0, [r7, #40]
 3914 0356 FFF7FEFF 		bl	VL53L0X_isqrt
 3915 035a 7862     		str	r0, [r7, #36]
 3916 035c 7B6A     		ldr	r3, [r7, #36]
 3917 035e 1B04     		lsls	r3, r3, #16
 3918 0360 7B62     		str	r3, [r7, #36]
 3919 0362 7B6A     		ldr	r3, [r7, #36]
 3920 0364 3233     		adds	r3, r3, #50
 3921 0366 4C4A     		ldr	r2, .L217
 3922 0368 A2FB0323 		umull	r2, r3, r2, r3
 3923 036c 5A09     		lsrs	r2, r3, #5
 3924 036e 7B6C     		ldr	r3, [r7, #68]
 3925 0370 B2FBF3F3 		udiv	r3, r2, r3
 3926 0374 C7F8A830 		str	r3, [r7, #168]
 3927 0378 D7F8A830 		ldr	r3, [r7, #168]
 3928 037c 40F6B532 		movw	r2, #2997
 3929 0380 02FB03F3 		mul	r3, r2, r3
 3930 0384 C7F8A830 		str	r3, [r7, #168]
 3931 0388 D7F8A830 		ldr	r3, [r7, #168]
 3932 038c 03F59C53 		add	r3, r3, #4992
 3933 0390 0833     		adds	r3, r3, #8
ARM GAS  /var/folders/d2/nstgp4h54kz7g1l847x_b8wc0000gn/T//cczgylse.s 			page 70


 3934 0392 C7F8A830 		str	r3, [r7, #168]
 3935 0396 D7F8A830 		ldr	r3, [r7, #168]
 3936 039a 404A     		ldr	r2, .L217+4
 3937 039c A2FB0323 		umull	r2, r3, r2, r3
 3938 03a0 5B0B     		lsrs	r3, r3, #13
 3939 03a2 C7F8A830 		str	r3, [r7, #168]
 3940 03a6 D7F8A820 		ldr	r2, [r7, #168]
 3941 03aa FB6F     		ldr	r3, [r7, #124]
 3942 03ac 9A42     		cmp	r2, r3
 3943 03ae 02D9     		bls	.L211
 3944 03b0 FB6F     		ldr	r3, [r7, #124]
 3945 03b2 C7F8A830 		str	r3, [r7, #168]
 3946              	.L211:
 3947 03b6 D7F8B820 		ldr	r2, [r7, #184]
 3948 03ba D7F8B430 		ldr	r3, [r7, #180]
 3949 03be 1344     		add	r3, r3, r2
 3950 03c0 03F5FA73 		add	r3, r3, #500
 3951 03c4 364A     		ldr	r2, .L217+8
 3952 03c6 A2FB0323 		umull	r2, r3, r2, r3
 3953 03ca 9B09     		lsrs	r3, r3, #6
 3954 03cc 3B62     		str	r3, [r7, #32]
 3955 03ce 3B6A     		ldr	r3, [r7, #32]
 3956 03d0 5A08     		lsrs	r2, r3, #1
 3957 03d2 D7F88830 		ldr	r3, [r7, #136]
 3958 03d6 1A44     		add	r2, r2, r3
 3959 03d8 3B6A     		ldr	r3, [r7, #32]
 3960 03da B2FBF3F3 		udiv	r3, r2, r3
 3961 03de 1846     		mov	r0, r3
 3962 03e0 FFF7FEFF 		bl	VL53L0X_isqrt
 3963 03e4 F861     		str	r0, [r7, #28]
 3964 03e6 FB69     		ldr	r3, [r7, #28]
 3965 03e8 1B02     		lsls	r3, r3, #8
 3966 03ea FB61     		str	r3, [r7, #28]
 3967 03ec FB69     		ldr	r3, [r7, #28]
 3968 03ee 03F5FA73 		add	r3, r3, #500
 3969 03f2 2B4A     		ldr	r2, .L217+8
 3970 03f4 A2FB0323 		umull	r2, r3, r2, r3
 3971 03f8 9B09     		lsrs	r3, r3, #6
 3972 03fa FB61     		str	r3, [r7, #28]
 3973 03fc D7F8A830 		ldr	r3, [r7, #168]
 3974 0400 D7F8A820 		ldr	r2, [r7, #168]
 3975 0404 02FB03F3 		mul	r3, r2, r3
 3976 0408 3B63     		str	r3, [r7, #48]
 3977 040a FB69     		ldr	r3, [r7, #28]
 3978 040c FA69     		ldr	r2, [r7, #28]
 3979 040e 02FB03F3 		mul	r3, r2, r3
 3980 0412 FB62     		str	r3, [r7, #44]
 3981 0414 3A6B     		ldr	r2, [r7, #48]
 3982 0416 FB6A     		ldr	r3, [r7, #44]
 3983 0418 1344     		add	r3, r3, r2
 3984 041a 1846     		mov	r0, r3
 3985 041c FFF7FEFF 		bl	VL53L0X_isqrt
 3986 0420 B861     		str	r0, [r7, #24]
 3987 0422 BB69     		ldr	r3, [r7, #24]
 3988 0424 4FF47A72 		mov	r2, #1000
 3989 0428 02FB03F3 		mul	r3, r2, r3
 3990 042c C7F8A430 		str	r3, [r7, #164]
ARM GAS  /var/folders/d2/nstgp4h54kz7g1l847x_b8wc0000gn/T//cczgylse.s 			page 71


 3991 0430 FB6D     		ldr	r3, [r7, #92]
 3992 0432 002B     		cmp	r3, #0
 3993 0434 09D0     		beq	.L212
 3994 0436 D7F8BC30 		ldr	r3, [r7, #188]
 3995 043a 002B     		cmp	r3, #0
 3996 043c 05D0     		beq	.L212
 3997 043e D7F8A420 		ldr	r2, [r7, #164]
 3998 0442 D7F88030 		ldr	r3, [r7, #128]
 3999 0446 9A42     		cmp	r2, r3
 4000 0448 03D9     		bls	.L213
 4001              	.L212:
 4002 044a D7F88030 		ldr	r3, [r7, #128]
 4003 044e C7F8A430 		str	r3, [r7, #164]
 4004              	.L213:
 4005 0452 7B68     		ldr	r3, [r7, #4]
 4006 0454 D7F8A420 		ldr	r2, [r7, #164]
 4007 0458 1A60     		str	r2, [r3]
 4008 045a 7B68     		ldr	r3, [r7, #4]
 4009 045c 1A68     		ldr	r2, [r3]
 4010 045e FB68     		ldr	r3, [r7, #12]
 4011 0460 C3F84021 		str	r2, [r3, #320]
 4012 0464 3969     		ldr	r1, [r7, #16]
 4013 0466 3B68     		ldr	r3, [r7]
 4014 0468 0393     		str	r3, [sp, #12]
 4015 046a D7F89430 		ldr	r3, [r7, #148]
 4016 046e 0293     		str	r3, [sp, #8]
 4017 0470 D7F8B030 		ldr	r3, [r7, #176]
 4018 0474 0193     		str	r3, [sp, #4]
 4019 0476 BB6C     		ldr	r3, [r7, #72]
 4020 0478 0093     		str	r3, [sp]
 4021 047a D7F8AC30 		ldr	r3, [r7, #172]
 4022 047e 3A6E     		ldr	r2, [r7, #96]
 4023 0480 F868     		ldr	r0, [r7, #12]
 4024 0482 FFF7FEFF 		bl	VL53L0X_calc_dmax
 4025 0486 0346     		mov	r3, r0
 4026 0488 87F89F30 		strb	r3, [r7, #159]
 4027              	.L206:
 4028 048c 97F99F30 		ldrsb	r3, [r7, #159]
 4029              	.L214:
 4030 0490 1846     		mov	r0, r3
 4031 0492 C037     		adds	r7, r7, #192
 4032 0494 BD46     		mov	sp, r7
 4033              		@ sp needed
 4034 0496 80BD     		pop	{r7, pc}
 4035              	.L218:
 4036              		.align	2
 4037              	.L217:
 4038 0498 1F85EB51 		.word	1374389535
 4039 049c 5917B7D1 		.word	-776530087
 4040 04a0 D34D6210 		.word	274877907
 4041              		.size	VL53L0X_calc_sigma_estimate, .-VL53L0X_calc_sigma_estimate
 4042              		.section	.text.VL53L0X_get_pal_range_status,"ax",%progbits
 4043              		.align	1
 4044              		.global	VL53L0X_get_pal_range_status
 4045              		.syntax unified
 4046              		.thumb
 4047              		.thumb_func
ARM GAS  /var/folders/d2/nstgp4h54kz7g1l847x_b8wc0000gn/T//cczgylse.s 			page 72


 4048              		.fpu fpv4-sp-d16
 4049              		.type	VL53L0X_get_pal_range_status, %function
 4050              	VL53L0X_get_pal_range_status:
 4051              		@ args = 8, pretend = 0, frame = 64
 4052              		@ frame_needed = 1, uses_anonymous_args = 0
 4053 0000 80B5     		push	{r7, lr}
 4054 0002 90B0     		sub	sp, sp, #64
 4055 0004 00AF     		add	r7, sp, #0
 4056 0006 F860     		str	r0, [r7, #12]
 4057 0008 7A60     		str	r2, [r7, #4]
 4058 000a 1A46     		mov	r2, r3
 4059 000c 0B46     		mov	r3, r1
 4060 000e FB72     		strb	r3, [r7, #11]
 4061 0010 1346     		mov	r3, r2	@ movhi
 4062 0012 3B81     		strh	r3, [r7, #8]	@ movhi
 4063 0014 0023     		movs	r3, #0
 4064 0016 87F83F30 		strb	r3, [r7, #63]
 4065 001a 0023     		movs	r3, #0
 4066 001c 87F83D30 		strb	r3, [r7, #61]
 4067 0020 0023     		movs	r3, #0
 4068 0022 87F83C30 		strb	r3, [r7, #60]
 4069 0026 0023     		movs	r3, #0
 4070 0028 87F83B30 		strb	r3, [r7, #59]
 4071 002c 0023     		movs	r3, #0
 4072 002e 87F82B30 		strb	r3, [r7, #43]
 4073 0032 0023     		movs	r3, #0
 4074 0034 87F82A30 		strb	r3, [r7, #42]
 4075 0038 0023     		movs	r3, #0
 4076 003a 87F82930 		strb	r3, [r7, #41]
 4077 003e 0023     		movs	r3, #0
 4078 0040 87F82830 		strb	r3, [r7, #40]
 4079 0044 0023     		movs	r3, #0
 4080 0046 87F83230 		strb	r3, [r7, #50]
 4081 004a 0023     		movs	r3, #0
 4082 004c FB82     		strh	r3, [r7, #22]	@ movhi
 4083 004e 0023     		movs	r3, #0
 4084 0050 3B61     		str	r3, [r7, #16]
 4085 0052 FB7A     		ldrb	r3, [r7, #11]	@ zero_extendqisi2
 4086 0054 DB10     		asrs	r3, r3, #3
 4087 0056 DBB2     		uxtb	r3, r3
 4088 0058 03F00F03 		and	r3, r3, #15
 4089 005c 87F83230 		strb	r3, [r7, #50]
 4090 0060 97F83230 		ldrb	r3, [r7, #50]	@ zero_extendqisi2
 4091 0064 002B     		cmp	r3, #0
 4092 0066 17D0     		beq	.L220
 4093 0068 97F83230 		ldrb	r3, [r7, #50]	@ zero_extendqisi2
 4094 006c 052B     		cmp	r3, #5
 4095 006e 13D0     		beq	.L220
 4096 0070 97F83230 		ldrb	r3, [r7, #50]	@ zero_extendqisi2
 4097 0074 072B     		cmp	r3, #7
 4098 0076 0FD0     		beq	.L220
 4099 0078 97F83230 		ldrb	r3, [r7, #50]	@ zero_extendqisi2
 4100 007c 0C2B     		cmp	r3, #12
 4101 007e 0BD0     		beq	.L220
 4102 0080 97F83230 		ldrb	r3, [r7, #50]	@ zero_extendqisi2
 4103 0084 0D2B     		cmp	r3, #13
 4104 0086 07D0     		beq	.L220
ARM GAS  /var/folders/d2/nstgp4h54kz7g1l847x_b8wc0000gn/T//cczgylse.s 			page 73


 4105 0088 97F83230 		ldrb	r3, [r7, #50]	@ zero_extendqisi2
 4106 008c 0E2B     		cmp	r3, #14
 4107 008e 03D0     		beq	.L220
 4108 0090 97F83230 		ldrb	r3, [r7, #50]	@ zero_extendqisi2
 4109 0094 0F2B     		cmp	r3, #15
 4110 0096 03D1     		bne	.L221
 4111              	.L220:
 4112 0098 0123     		movs	r3, #1
 4113 009a 87F83E30 		strb	r3, [r7, #62]
 4114 009e 02E0     		b	.L222
 4115              	.L221:
 4116 00a0 0023     		movs	r3, #0
 4117 00a2 87F83E30 		strb	r3, [r7, #62]
 4118              	.L222:
 4119 00a6 97F93F30 		ldrsb	r3, [r7, #63]
 4120 00aa 002B     		cmp	r3, #0
 4121 00ac 09D1     		bne	.L223
 4122 00ae 07F12B03 		add	r3, r7, #43
 4123 00b2 1A46     		mov	r2, r3
 4124 00b4 0021     		movs	r1, #0
 4125 00b6 F868     		ldr	r0, [r7, #12]
 4126 00b8 FFF7FEFF 		bl	VL53L0X_GetLimitCheckEnable
 4127 00bc 0346     		mov	r3, r0
 4128 00be 87F83F30 		strb	r3, [r7, #63]
 4129              	.L223:
 4130 00c2 97F82B30 		ldrb	r3, [r7, #43]	@ zero_extendqisi2
 4131 00c6 002B     		cmp	r3, #0
 4132 00c8 2ED0     		beq	.L224
 4133 00ca 97F93F30 		ldrsb	r3, [r7, #63]
 4134 00ce 002B     		cmp	r3, #0
 4135 00d0 2AD1     		bne	.L224
 4136 00d2 07F11003 		add	r3, r7, #16
 4137 00d6 07F12402 		add	r2, r7, #36
 4138 00da B96C     		ldr	r1, [r7, #72]
 4139 00dc F868     		ldr	r0, [r7, #12]
 4140 00de FFF7FEFF 		bl	VL53L0X_calc_sigma_estimate
 4141 00e2 0346     		mov	r3, r0
 4142 00e4 87F83F30 		strb	r3, [r7, #63]
 4143 00e8 97F93F30 		ldrsb	r3, [r7, #63]
 4144 00ec 002B     		cmp	r3, #0
 4145 00ee 03D1     		bne	.L225
 4146 00f0 3B69     		ldr	r3, [r7, #16]
 4147 00f2 9AB2     		uxth	r2, r3
 4148 00f4 BB6C     		ldr	r3, [r7, #72]
 4149 00f6 5A81     		strh	r2, [r3, #10]	@ movhi
 4150              	.L225:
 4151 00f8 97F93F30 		ldrsb	r3, [r7, #63]
 4152 00fc 002B     		cmp	r3, #0
 4153 00fe 13D1     		bne	.L224
 4154 0100 07F12003 		add	r3, r7, #32
 4155 0104 1A46     		mov	r2, r3
 4156 0106 0021     		movs	r1, #0
 4157 0108 F868     		ldr	r0, [r7, #12]
 4158 010a FFF7FEFF 		bl	VL53L0X_GetLimitCheckValue
 4159 010e 0346     		mov	r3, r0
 4160 0110 87F83F30 		strb	r3, [r7, #63]
 4161 0114 3B6A     		ldr	r3, [r7, #32]
ARM GAS  /var/folders/d2/nstgp4h54kz7g1l847x_b8wc0000gn/T//cczgylse.s 			page 74


 4162 0116 002B     		cmp	r3, #0
 4163 0118 06D0     		beq	.L224
 4164 011a 7A6A     		ldr	r2, [r7, #36]
 4165 011c 3B6A     		ldr	r3, [r7, #32]
 4166 011e 9A42     		cmp	r2, r3
 4167 0120 02D9     		bls	.L224
 4168 0122 0123     		movs	r3, #1
 4169 0124 87F83D30 		strb	r3, [r7, #61]
 4170              	.L224:
 4171 0128 97F93F30 		ldrsb	r3, [r7, #63]
 4172 012c 002B     		cmp	r3, #0
 4173 012e 09D1     		bne	.L226
 4174 0130 07F12903 		add	r3, r7, #41
 4175 0134 1A46     		mov	r2, r3
 4176 0136 0221     		movs	r1, #2
 4177 0138 F868     		ldr	r0, [r7, #12]
 4178 013a FFF7FEFF 		bl	VL53L0X_GetLimitCheckEnable
 4179 013e 0346     		mov	r3, r0
 4180 0140 87F83F30 		strb	r3, [r7, #63]
 4181              	.L226:
 4182 0144 97F82930 		ldrb	r3, [r7, #41]	@ zero_extendqisi2
 4183 0148 002B     		cmp	r3, #0
 4184 014a 44D0     		beq	.L227
 4185 014c 97F93F30 		ldrsb	r3, [r7, #63]
 4186 0150 002B     		cmp	r3, #0
 4187 0152 40D1     		bne	.L227
 4188 0154 07F11C03 		add	r3, r7, #28
 4189 0158 1A46     		mov	r2, r3
 4190 015a 0221     		movs	r1, #2
 4191 015c F868     		ldr	r0, [r7, #12]
 4192 015e FFF7FEFF 		bl	VL53L0X_GetLimitCheckValue
 4193 0162 0346     		mov	r3, r0
 4194 0164 87F83F30 		strb	r3, [r7, #63]
 4195 0168 97F93F30 		ldrsb	r3, [r7, #63]
 4196 016c 002B     		cmp	r3, #0
 4197 016e 07D1     		bne	.L228
 4198 0170 0122     		movs	r2, #1
 4199 0172 FF21     		movs	r1, #255
 4200 0174 F868     		ldr	r0, [r7, #12]
 4201 0176 FFF7FEFF 		bl	VL53L0X_WrByte
 4202 017a 0346     		mov	r3, r0
 4203 017c 87F83F30 		strb	r3, [r7, #63]
 4204              	.L228:
 4205 0180 97F93F30 		ldrsb	r3, [r7, #63]
 4206 0184 002B     		cmp	r3, #0
 4207 0186 09D1     		bne	.L229
 4208 0188 07F11603 		add	r3, r7, #22
 4209 018c 1A46     		mov	r2, r3
 4210 018e B621     		movs	r1, #182
 4211 0190 F868     		ldr	r0, [r7, #12]
 4212 0192 FFF7FEFF 		bl	VL53L0X_RdWord
 4213 0196 0346     		mov	r3, r0
 4214 0198 87F83F30 		strb	r3, [r7, #63]
 4215              	.L229:
 4216 019c 97F93F30 		ldrsb	r3, [r7, #63]
 4217 01a0 002B     		cmp	r3, #0
 4218 01a2 07D1     		bne	.L230
ARM GAS  /var/folders/d2/nstgp4h54kz7g1l847x_b8wc0000gn/T//cczgylse.s 			page 75


 4219 01a4 0022     		movs	r2, #0
 4220 01a6 FF21     		movs	r1, #255
 4221 01a8 F868     		ldr	r0, [r7, #12]
 4222 01aa FFF7FEFF 		bl	VL53L0X_WrByte
 4223 01ae 0346     		mov	r3, r0
 4224 01b0 87F83F30 		strb	r3, [r7, #63]
 4225              	.L230:
 4226 01b4 FB8A     		ldrh	r3, [r7, #22]
 4227 01b6 5B02     		lsls	r3, r3, #9
 4228 01b8 FB62     		str	r3, [r7, #44]
 4229 01ba FB68     		ldr	r3, [r7, #12]
 4230 01bc FA6A     		ldr	r2, [r7, #44]
 4231 01be C3F84821 		str	r2, [r3, #328]
 4232 01c2 FB69     		ldr	r3, [r7, #28]
 4233 01c4 002B     		cmp	r3, #0
 4234 01c6 06D0     		beq	.L227
 4235 01c8 FB69     		ldr	r3, [r7, #28]
 4236 01ca FA6A     		ldr	r2, [r7, #44]
 4237 01cc 9A42     		cmp	r2, r3
 4238 01ce 02D9     		bls	.L227
 4239 01d0 0123     		movs	r3, #1
 4240 01d2 87F83C30 		strb	r3, [r7, #60]
 4241              	.L227:
 4242 01d6 97F93F30 		ldrsb	r3, [r7, #63]
 4243 01da 002B     		cmp	r3, #0
 4244 01dc 09D1     		bne	.L231
 4245 01de 07F12803 		add	r3, r7, #40
 4246 01e2 1A46     		mov	r2, r3
 4247 01e4 0321     		movs	r1, #3
 4248 01e6 F868     		ldr	r0, [r7, #12]
 4249 01e8 FFF7FEFF 		bl	VL53L0X_GetLimitCheckEnable
 4250 01ec 0346     		mov	r3, r0
 4251 01ee 87F83F30 		strb	r3, [r7, #63]
 4252              	.L231:
 4253 01f2 97F82830 		ldrb	r3, [r7, #40]	@ zero_extendqisi2
 4254 01f6 002B     		cmp	r3, #0
 4255 01f8 23D0     		beq	.L232
 4256 01fa 97F93F30 		ldrsb	r3, [r7, #63]
 4257 01fe 002B     		cmp	r3, #0
 4258 0200 1FD1     		bne	.L232
 4259 0202 3B89     		ldrh	r3, [r7, #8]
 4260 0204 002B     		cmp	r3, #0
 4261 0206 02D1     		bne	.L233
 4262 0208 0023     		movs	r3, #0
 4263 020a 7B63     		str	r3, [r7, #52]
 4264 020c 05E0     		b	.L234
 4265              	.L233:
 4266 020e 7B68     		ldr	r3, [r7, #4]
 4267 0210 1A02     		lsls	r2, r3, #8
 4268 0212 3B89     		ldrh	r3, [r7, #8]
 4269 0214 B2FBF3F3 		udiv	r3, r2, r3
 4270 0218 7B63     		str	r3, [r7, #52]
 4271              	.L234:
 4272 021a 07F11803 		add	r3, r7, #24
 4273 021e 1A46     		mov	r2, r3
 4274 0220 0321     		movs	r1, #3
 4275 0222 F868     		ldr	r0, [r7, #12]
ARM GAS  /var/folders/d2/nstgp4h54kz7g1l847x_b8wc0000gn/T//cczgylse.s 			page 76


 4276 0224 FFF7FEFF 		bl	VL53L0X_GetLimitCheckValue
 4277 0228 0346     		mov	r3, r0
 4278 022a 87F83F30 		strb	r3, [r7, #63]
 4279 022e BB69     		ldr	r3, [r7, #24]
 4280 0230 002B     		cmp	r3, #0
 4281 0232 06D0     		beq	.L232
 4282 0234 BB69     		ldr	r3, [r7, #24]
 4283 0236 7A6B     		ldr	r2, [r7, #52]
 4284 0238 9A42     		cmp	r2, r3
 4285 023a 02D2     		bcs	.L232
 4286 023c 0123     		movs	r3, #1
 4287 023e 87F83B30 		strb	r3, [r7, #59]
 4288              	.L232:
 4289 0242 97F93F30 		ldrsb	r3, [r7, #63]
 4290 0246 002B     		cmp	r3, #0
 4291 0248 4AD1     		bne	.L235
 4292 024a 97F83E30 		ldrb	r3, [r7, #62]	@ zero_extendqisi2
 4293 024e 012B     		cmp	r3, #1
 4294 0250 03D1     		bne	.L236
 4295 0252 FB6C     		ldr	r3, [r7, #76]
 4296 0254 FF22     		movs	r2, #255
 4297 0256 1A70     		strb	r2, [r3]
 4298 0258 42E0     		b	.L235
 4299              	.L236:
 4300 025a 97F83230 		ldrb	r3, [r7, #50]	@ zero_extendqisi2
 4301 025e 012B     		cmp	r3, #1
 4302 0260 07D0     		beq	.L237
 4303 0262 97F83230 		ldrb	r3, [r7, #50]	@ zero_extendqisi2
 4304 0266 022B     		cmp	r3, #2
 4305 0268 03D0     		beq	.L237
 4306 026a 97F83230 		ldrb	r3, [r7, #50]	@ zero_extendqisi2
 4307 026e 032B     		cmp	r3, #3
 4308 0270 03D1     		bne	.L238
 4309              	.L237:
 4310 0272 FB6C     		ldr	r3, [r7, #76]
 4311 0274 0522     		movs	r2, #5
 4312 0276 1A70     		strb	r2, [r3]
 4313 0278 32E0     		b	.L235
 4314              	.L238:
 4315 027a 97F83230 		ldrb	r3, [r7, #50]	@ zero_extendqisi2
 4316 027e 062B     		cmp	r3, #6
 4317 0280 03D0     		beq	.L239
 4318 0282 97F83230 		ldrb	r3, [r7, #50]	@ zero_extendqisi2
 4319 0286 092B     		cmp	r3, #9
 4320 0288 03D1     		bne	.L240
 4321              	.L239:
 4322 028a FB6C     		ldr	r3, [r7, #76]
 4323 028c 0422     		movs	r2, #4
 4324 028e 1A70     		strb	r2, [r3]
 4325 0290 26E0     		b	.L235
 4326              	.L240:
 4327 0292 97F83230 		ldrb	r3, [r7, #50]	@ zero_extendqisi2
 4328 0296 082B     		cmp	r3, #8
 4329 0298 07D0     		beq	.L241
 4330 029a 97F83230 		ldrb	r3, [r7, #50]	@ zero_extendqisi2
 4331 029e 0A2B     		cmp	r3, #10
 4332 02a0 03D0     		beq	.L241
ARM GAS  /var/folders/d2/nstgp4h54kz7g1l847x_b8wc0000gn/T//cczgylse.s 			page 77


 4333 02a2 97F83C30 		ldrb	r3, [r7, #60]	@ zero_extendqisi2
 4334 02a6 012B     		cmp	r3, #1
 4335 02a8 03D1     		bne	.L242
 4336              	.L241:
 4337 02aa FB6C     		ldr	r3, [r7, #76]
 4338 02ac 0322     		movs	r2, #3
 4339 02ae 1A70     		strb	r2, [r3]
 4340 02b0 16E0     		b	.L235
 4341              	.L242:
 4342 02b2 97F83230 		ldrb	r3, [r7, #50]	@ zero_extendqisi2
 4343 02b6 042B     		cmp	r3, #4
 4344 02b8 03D0     		beq	.L243
 4345 02ba 97F83B30 		ldrb	r3, [r7, #59]	@ zero_extendqisi2
 4346 02be 012B     		cmp	r3, #1
 4347 02c0 03D1     		bne	.L244
 4348              	.L243:
 4349 02c2 FB6C     		ldr	r3, [r7, #76]
 4350 02c4 0222     		movs	r2, #2
 4351 02c6 1A70     		strb	r2, [r3]
 4352 02c8 0AE0     		b	.L235
 4353              	.L244:
 4354 02ca 97F83D30 		ldrb	r3, [r7, #61]	@ zero_extendqisi2
 4355 02ce 012B     		cmp	r3, #1
 4356 02d0 03D1     		bne	.L245
 4357 02d2 FB6C     		ldr	r3, [r7, #76]
 4358 02d4 0122     		movs	r2, #1
 4359 02d6 1A70     		strb	r2, [r3]
 4360 02d8 02E0     		b	.L235
 4361              	.L245:
 4362 02da FB6C     		ldr	r3, [r7, #76]
 4363 02dc 0022     		movs	r2, #0
 4364 02de 1A70     		strb	r2, [r3]
 4365              	.L235:
 4366 02e0 FB6C     		ldr	r3, [r7, #76]
 4367 02e2 1B78     		ldrb	r3, [r3]	@ zero_extendqisi2
 4368 02e4 002B     		cmp	r3, #0
 4369 02e6 02D1     		bne	.L246
 4370 02e8 BB6C     		ldr	r3, [r7, #72]
 4371 02ea 0022     		movs	r2, #0
 4372 02ec 5A81     		strh	r2, [r3, #10]	@ movhi
 4373              	.L246:
 4374 02ee 07F12A03 		add	r3, r7, #42
 4375 02f2 1A46     		mov	r2, r3
 4376 02f4 0121     		movs	r1, #1
 4377 02f6 F868     		ldr	r0, [r7, #12]
 4378 02f8 FFF7FEFF 		bl	VL53L0X_GetLimitCheckEnable
 4379 02fc 0346     		mov	r3, r0
 4380 02fe 87F83F30 		strb	r3, [r7, #63]
 4381 0302 97F93F30 		ldrsb	r3, [r7, #63]
 4382 0306 002B     		cmp	r3, #0
 4383 0308 4FD1     		bne	.L247
 4384 030a 97F82B30 		ldrb	r3, [r7, #43]	@ zero_extendqisi2
 4385 030e 002B     		cmp	r3, #0
 4386 0310 03D0     		beq	.L248
 4387 0312 97F83D30 		ldrb	r3, [r7, #61]	@ zero_extendqisi2
 4388 0316 012B     		cmp	r3, #1
 4389 0318 03D1     		bne	.L249
ARM GAS  /var/folders/d2/nstgp4h54kz7g1l847x_b8wc0000gn/T//cczgylse.s 			page 78


 4390              	.L248:
 4391 031a 0123     		movs	r3, #1
 4392 031c 87F83330 		strb	r3, [r7, #51]
 4393 0320 02E0     		b	.L250
 4394              	.L249:
 4395 0322 0023     		movs	r3, #0
 4396 0324 87F83330 		strb	r3, [r7, #51]
 4397              	.L250:
 4398 0328 FB68     		ldr	r3, [r7, #12]
 4399 032a 97F83320 		ldrb	r2, [r7, #51]
 4400 032e 83F82E20 		strb	r2, [r3, #46]
 4401 0332 97F83230 		ldrb	r3, [r7, #50]	@ zero_extendqisi2
 4402 0336 042B     		cmp	r3, #4
 4403 0338 03D0     		beq	.L251
 4404 033a 97F82A30 		ldrb	r3, [r7, #42]	@ zero_extendqisi2
 4405 033e 002B     		cmp	r3, #0
 4406 0340 03D1     		bne	.L252
 4407              	.L251:
 4408 0342 0123     		movs	r3, #1
 4409 0344 87F83330 		strb	r3, [r7, #51]
 4410 0348 02E0     		b	.L253
 4411              	.L252:
 4412 034a 0023     		movs	r3, #0
 4413 034c 87F83330 		strb	r3, [r7, #51]
 4414              	.L253:
 4415 0350 FB68     		ldr	r3, [r7, #12]
 4416 0352 97F83320 		ldrb	r2, [r7, #51]
 4417 0356 83F82F20 		strb	r2, [r3, #47]
 4418 035a 97F82930 		ldrb	r3, [r7, #41]	@ zero_extendqisi2
 4419 035e 002B     		cmp	r3, #0
 4420 0360 03D0     		beq	.L254
 4421 0362 97F83C30 		ldrb	r3, [r7, #60]	@ zero_extendqisi2
 4422 0366 012B     		cmp	r3, #1
 4423 0368 03D1     		bne	.L255
 4424              	.L254:
 4425 036a 0123     		movs	r3, #1
 4426 036c 87F83330 		strb	r3, [r7, #51]
 4427 0370 02E0     		b	.L256
 4428              	.L255:
 4429 0372 0023     		movs	r3, #0
 4430 0374 87F83330 		strb	r3, [r7, #51]
 4431              	.L256:
 4432 0378 FB68     		ldr	r3, [r7, #12]
 4433 037a 97F83320 		ldrb	r2, [r7, #51]
 4434 037e 83F83020 		strb	r2, [r3, #48]
 4435 0382 97F82830 		ldrb	r3, [r7, #40]	@ zero_extendqisi2
 4436 0386 002B     		cmp	r3, #0
 4437 0388 03D0     		beq	.L257
 4438 038a 97F83B30 		ldrb	r3, [r7, #59]	@ zero_extendqisi2
 4439 038e 012B     		cmp	r3, #1
 4440 0390 03D1     		bne	.L258
 4441              	.L257:
 4442 0392 0123     		movs	r3, #1
 4443 0394 87F83330 		strb	r3, [r7, #51]
 4444 0398 02E0     		b	.L259
 4445              	.L258:
 4446 039a 0023     		movs	r3, #0
ARM GAS  /var/folders/d2/nstgp4h54kz7g1l847x_b8wc0000gn/T//cczgylse.s 			page 79


 4447 039c 87F83330 		strb	r3, [r7, #51]
 4448              	.L259:
 4449 03a0 FB68     		ldr	r3, [r7, #12]
 4450 03a2 97F83320 		ldrb	r2, [r7, #51]
 4451 03a6 83F83120 		strb	r2, [r3, #49]
 4452              	.L247:
 4453 03aa 97F93F30 		ldrsb	r3, [r7, #63]
 4454 03ae 1846     		mov	r0, r3
 4455 03b0 4037     		adds	r7, r7, #64
 4456 03b2 BD46     		mov	sp, r7
 4457              		@ sp needed
 4458 03b4 80BD     		pop	{r7, pc}
 4459              		.size	VL53L0X_get_pal_range_status, .-VL53L0X_get_pal_range_status
 4460              		.ident	"GCC: (GNU Tools for Arm Embedded Processors 7-2017-q4-major) 7.2.1 20170904 (release) [ARM
ARM GAS  /var/folders/d2/nstgp4h54kz7g1l847x_b8wc0000gn/T//cczgylse.s 			page 80


DEFINED SYMBOLS
                            *ABS*:0000000000000000 vl53l0x_api_core.c
/var/folders/d2/nstgp4h54kz7g1l847x_b8wc0000gn/T//cczgylse.s:15     .text.VL53L0X_reverse_bytes:0000000000000000 $t
/var/folders/d2/nstgp4h54kz7g1l847x_b8wc0000gn/T//cczgylse.s:22     .text.VL53L0X_reverse_bytes:0000000000000000 VL53L0X_reverse_bytes
/var/folders/d2/nstgp4h54kz7g1l847x_b8wc0000gn/T//cczgylse.s:80     .text.VL53L0X_measurement_poll_for_completion:0000000000000000 $t
/var/folders/d2/nstgp4h54kz7g1l847x_b8wc0000gn/T//cczgylse.s:87     .text.VL53L0X_measurement_poll_for_completion:0000000000000000 VL53L0X_measurement_poll_for_completion
/var/folders/d2/nstgp4h54kz7g1l847x_b8wc0000gn/T//cczgylse.s:140    .text.VL53L0X_decode_vcsel_period:0000000000000000 $t
/var/folders/d2/nstgp4h54kz7g1l847x_b8wc0000gn/T//cczgylse.s:147    .text.VL53L0X_decode_vcsel_period:0000000000000000 VL53L0X_decode_vcsel_period
/var/folders/d2/nstgp4h54kz7g1l847x_b8wc0000gn/T//cczgylse.s:172    .text.VL53L0X_encode_vcsel_period:0000000000000000 $t
/var/folders/d2/nstgp4h54kz7g1l847x_b8wc0000gn/T//cczgylse.s:179    .text.VL53L0X_encode_vcsel_period:0000000000000000 VL53L0X_encode_vcsel_period
/var/folders/d2/nstgp4h54kz7g1l847x_b8wc0000gn/T//cczgylse.s:204    .text.VL53L0X_isqrt:0000000000000000 $t
/var/folders/d2/nstgp4h54kz7g1l847x_b8wc0000gn/T//cczgylse.s:211    .text.VL53L0X_isqrt:0000000000000000 VL53L0X_isqrt
/var/folders/d2/nstgp4h54kz7g1l847x_b8wc0000gn/T//cczgylse.s:274    .text.VL53L0X_quadrature_sum:0000000000000000 $t
/var/folders/d2/nstgp4h54kz7g1l847x_b8wc0000gn/T//cczgylse.s:281    .text.VL53L0X_quadrature_sum:0000000000000000 VL53L0X_quadrature_sum
/var/folders/d2/nstgp4h54kz7g1l847x_b8wc0000gn/T//cczgylse.s:321    .text.VL53L0X_device_read_strobe:0000000000000000 $t
/var/folders/d2/nstgp4h54kz7g1l847x_b8wc0000gn/T//cczgylse.s:328    .text.VL53L0X_device_read_strobe:0000000000000000 VL53L0X_device_read_strobe
/var/folders/d2/nstgp4h54kz7g1l847x_b8wc0000gn/T//cczgylse.s:395    .text.VL53L0X_get_info_from_device:0000000000000000 $t
/var/folders/d2/nstgp4h54kz7g1l847x_b8wc0000gn/T//cczgylse.s:402    .text.VL53L0X_get_info_from_device:0000000000000000 VL53L0X_get_info_from_device
/var/folders/d2/nstgp4h54kz7g1l847x_b8wc0000gn/T//cczgylse.s:1340   .text.VL53L0X_calc_macro_period_ps:0000000000000000 $t
/var/folders/d2/nstgp4h54kz7g1l847x_b8wc0000gn/T//cczgylse.s:1347   .text.VL53L0X_calc_macro_period_ps:0000000000000000 VL53L0X_calc_macro_period_ps
/var/folders/d2/nstgp4h54kz7g1l847x_b8wc0000gn/T//cczgylse.s:1377   .text.VL53L0X_encode_timeout:0000000000000000 $t
/var/folders/d2/nstgp4h54kz7g1l847x_b8wc0000gn/T//cczgylse.s:1384   .text.VL53L0X_encode_timeout:0000000000000000 VL53L0X_encode_timeout
/var/folders/d2/nstgp4h54kz7g1l847x_b8wc0000gn/T//cczgylse.s:1436   .text.VL53L0X_decode_timeout:0000000000000000 $t
/var/folders/d2/nstgp4h54kz7g1l847x_b8wc0000gn/T//cczgylse.s:1443   .text.VL53L0X_decode_timeout:0000000000000000 VL53L0X_decode_timeout
/var/folders/d2/nstgp4h54kz7g1l847x_b8wc0000gn/T//cczgylse.s:1471   .text.VL53L0X_calc_timeout_mclks:0000000000000000 $t
/var/folders/d2/nstgp4h54kz7g1l847x_b8wc0000gn/T//cczgylse.s:1478   .text.VL53L0X_calc_timeout_mclks:0000000000000000 VL53L0X_calc_timeout_mclks
/var/folders/d2/nstgp4h54kz7g1l847x_b8wc0000gn/T//cczgylse.s:1519   .text.VL53L0X_calc_timeout_mclks:0000000000000050 $d
/var/folders/d2/nstgp4h54kz7g1l847x_b8wc0000gn/T//cczgylse.s:1522   .text.VL53L0X_calc_timeout_us:0000000000000000 $t
/var/folders/d2/nstgp4h54kz7g1l847x_b8wc0000gn/T//cczgylse.s:1529   .text.VL53L0X_calc_timeout_us:0000000000000000 VL53L0X_calc_timeout_us
/var/folders/d2/nstgp4h54kz7g1l847x_b8wc0000gn/T//cczgylse.s:1570   .text.VL53L0X_calc_timeout_us:0000000000000050 $d
/var/folders/d2/nstgp4h54kz7g1l847x_b8wc0000gn/T//cczgylse.s:1573   .text.get_sequence_step_timeout:0000000000000000 $t
/var/folders/d2/nstgp4h54kz7g1l847x_b8wc0000gn/T//cczgylse.s:1580   .text.get_sequence_step_timeout:0000000000000000 get_sequence_step_timeout
/var/folders/d2/nstgp4h54kz7g1l847x_b8wc0000gn/T//cczgylse.s:1770   .text.set_sequence_step_timeout:0000000000000000 $t
/var/folders/d2/nstgp4h54kz7g1l847x_b8wc0000gn/T//cczgylse.s:1777   .text.set_sequence_step_timeout:0000000000000000 set_sequence_step_timeout
/var/folders/d2/nstgp4h54kz7g1l847x_b8wc0000gn/T//cczgylse.s:1986   .text.VL53L0X_set_vcsel_pulse_period:0000000000000000 $t
/var/folders/d2/nstgp4h54kz7g1l847x_b8wc0000gn/T//cczgylse.s:1993   .text.VL53L0X_set_vcsel_pulse_period:0000000000000000 VL53L0X_set_vcsel_pulse_period
/var/folders/d2/nstgp4h54kz7g1l847x_b8wc0000gn/T//cczgylse.s:2526   .text.VL53L0X_get_vcsel_pulse_period:0000000000000000 $t
/var/folders/d2/nstgp4h54kz7g1l847x_b8wc0000gn/T//cczgylse.s:2533   .text.VL53L0X_get_vcsel_pulse_period:0000000000000000 VL53L0X_get_vcsel_pulse_period
/var/folders/d2/nstgp4h54kz7g1l847x_b8wc0000gn/T//cczgylse.s:2592   .text.VL53L0X_set_measurement_timing_budget_micro_seconds:0000000000000000 $t
/var/folders/d2/nstgp4h54kz7g1l847x_b8wc0000gn/T//cczgylse.s:2599   .text.VL53L0X_set_measurement_timing_budget_micro_seconds:0000000000000000 VL53L0X_set_measurement_timing_budget_micro_seconds
/var/folders/d2/nstgp4h54kz7g1l847x_b8wc0000gn/T//cczgylse.s:2808   .text.VL53L0X_get_measurement_timing_budget_micro_seconds:0000000000000000 $t
/var/folders/d2/nstgp4h54kz7g1l847x_b8wc0000gn/T//cczgylse.s:2815   .text.VL53L0X_get_measurement_timing_budget_micro_seconds:0000000000000000 VL53L0X_get_measurement_timing_budget_micro_seconds
/var/folders/d2/nstgp4h54kz7g1l847x_b8wc0000gn/T//cczgylse.s:2979   .text.VL53L0X_load_tuning_settings:0000000000000000 $t
/var/folders/d2/nstgp4h54kz7g1l847x_b8wc0000gn/T//cczgylse.s:2986   .text.VL53L0X_load_tuning_settings:0000000000000000 VL53L0X_load_tuning_settings
/var/folders/d2/nstgp4h54kz7g1l847x_b8wc0000gn/T//cczgylse.s:3026   .text.VL53L0X_load_tuning_settings:0000000000000048 $d
/var/folders/d2/nstgp4h54kz7g1l847x_b8wc0000gn/T//cczgylse.s:3030   .text.VL53L0X_load_tuning_settings:0000000000000058 $t
/var/folders/d2/nstgp4h54kz7g1l847x_b8wc0000gn/T//cczgylse.s:3217   .text.VL53L0X_get_total_xtalk_rate:0000000000000000 $t
/var/folders/d2/nstgp4h54kz7g1l847x_b8wc0000gn/T//cczgylse.s:3224   .text.VL53L0X_get_total_xtalk_rate:0000000000000000 VL53L0X_get_total_xtalk_rate
/var/folders/d2/nstgp4h54kz7g1l847x_b8wc0000gn/T//cczgylse.s:3273   .text.VL53L0X_get_total_signal_rate:0000000000000000 $t
/var/folders/d2/nstgp4h54kz7g1l847x_b8wc0000gn/T//cczgylse.s:3280   .text.VL53L0X_get_total_signal_rate:0000000000000000 VL53L0X_get_total_signal_rate
/var/folders/d2/nstgp4h54kz7g1l847x_b8wc0000gn/T//cczgylse.s:3320   .text.VL53L0X_calc_dmax:0000000000000000 $t
/var/folders/d2/nstgp4h54kz7g1l847x_b8wc0000gn/T//cczgylse.s:3327   .text.VL53L0X_calc_dmax:0000000000000000 VL53L0X_calc_dmax
/var/folders/d2/nstgp4h54kz7g1l847x_b8wc0000gn/T//cczgylse.s:3589   .text.VL53L0X_calc_dmax:0000000000000238 $d
/var/folders/d2/nstgp4h54kz7g1l847x_b8wc0000gn/T//cczgylse.s:3593   .text.VL53L0X_calc_sigma_estimate:0000000000000000 $t
/var/folders/d2/nstgp4h54kz7g1l847x_b8wc0000gn/T//cczgylse.s:3600   .text.VL53L0X_calc_sigma_estimate:0000000000000000 VL53L0X_calc_sigma_estimate
/var/folders/d2/nstgp4h54kz7g1l847x_b8wc0000gn/T//cczgylse.s:3855   .text.VL53L0X_calc_sigma_estimate:00000000000002a8 $d
/var/folders/d2/nstgp4h54kz7g1l847x_b8wc0000gn/T//cczgylse.s:3859   .text.VL53L0X_calc_sigma_estimate:00000000000002b4 $t
ARM GAS  /var/folders/d2/nstgp4h54kz7g1l847x_b8wc0000gn/T//cczgylse.s 			page 81


/var/folders/d2/nstgp4h54kz7g1l847x_b8wc0000gn/T//cczgylse.s:4038   .text.VL53L0X_calc_sigma_estimate:0000000000000498 $d
/var/folders/d2/nstgp4h54kz7g1l847x_b8wc0000gn/T//cczgylse.s:4043   .text.VL53L0X_get_pal_range_status:0000000000000000 $t
/var/folders/d2/nstgp4h54kz7g1l847x_b8wc0000gn/T//cczgylse.s:4050   .text.VL53L0X_get_pal_range_status:0000000000000000 VL53L0X_get_pal_range_status

UNDEFINED SYMBOLS
VL53L0X_GetMeasurementDataReady
VL53L0X_PollingDelay
VL53L0X_WrByte
VL53L0X_RdByte
VL53L0X_RdDWord
strcpy
VL53L0X_GetVcselPulsePeriod
VL53L0X_RdWord
VL53L0X_GetSequenceStepEnables
VL53L0X_WrWord
VL53L0X_SetMeasurementTimingBudgetMicroSeconds
VL53L0X_perform_phase_calibration
VL53L0X_WriteMulti
VL53L0X_GetXTalkCompensationEnable
VL53L0X_GetLimitCheckEnable
VL53L0X_GetLimitCheckValue
