ARM GAS  /var/folders/d2/nstgp4h54kz7g1l847x_b8wc0000gn/T//ccuafcop.s 			page 1


   1              		.cpu cortex-m4
   2              		.eabi_attribute 27, 1
   3              		.eabi_attribute 28, 1
   4              		.eabi_attribute 20, 1
   5              		.eabi_attribute 21, 1
   6              		.eabi_attribute 23, 3
   7              		.eabi_attribute 24, 1
   8              		.eabi_attribute 25, 1
   9              		.eabi_attribute 26, 1
  10              		.eabi_attribute 30, 2
  11              		.eabi_attribute 34, 1
  12              		.eabi_attribute 18, 4
  13              		.file	"vl53l0x_api_strings.c"
  14              		.text
  15              	.Ltext0:
  16              		.cfi_sections	.debug_frame
  17              		.section	.text.VL53L0X_check_part_used,"ax",%progbits
  18              		.align	1
  19              		.p2align 4,,15
  20              		.global	VL53L0X_check_part_used
  21              		.syntax unified
  22              		.thumb
  23              		.thumb_func
  24              		.fpu fpv4-sp-d16
  25              		.type	VL53L0X_check_part_used, %function
  26              	VL53L0X_check_part_used:
  27              	.LFB3:
  28              		.file 1 "../e-puck2_main-processor/src/sensors/VL53L0X/Api/core/src/vl53l0x_api_strings.c"
  29              		.loc 1 48 0
  30              		.cfi_startproc
  31              		@ args = 0, pretend = 0, frame = 8
  32              		@ frame_needed = 0, uses_anonymous_args = 0
  33              	.LVL0:
  34 0000 2DE9F041 		push	{r4, r5, r6, r7, r8, lr}
  35              		.cfi_def_cfa_offset 24
  36              		.cfi_offset 4, -24
  37              		.cfi_offset 5, -20
  38              		.cfi_offset 6, -16
  39              		.cfi_offset 7, -12
  40              		.cfi_offset 8, -8
  41              		.cfi_offset 14, -4
  42 0004 134D     		ldr	r5, .L9
  43 0006 82B0     		sub	sp, sp, #8
  44              		.cfi_def_cfa_offset 32
  45              		.loc 1 48 0
  46 0008 2B68     		ldr	r3, [r5]
  47 000a 0193     		str	r3, [sp, #4]
  48 000c 8846     		mov	r8, r1
  49              	.LVL1:
  50              		.loc 1 55 0
  51 000e 0221     		movs	r1, #2
  52              	.LVL2:
  53              		.loc 1 48 0
  54 0010 1746     		mov	r7, r2
  55 0012 0646     		mov	r6, r0
  56              		.loc 1 55 0
  57 0014 FFF7FEFF 		bl	VL53L0X_get_info_from_device
ARM GAS  /var/folders/d2/nstgp4h54kz7g1l847x_b8wc0000gn/T//ccuafcop.s 			page 2


  58              	.LVL3:
  59              		.loc 1 57 0
  60 0018 0446     		mov	r4, r0
  61 001a 60B9     		cbnz	r0, .L2
  62              	.LVL4:
  63              		.loc 1 60 0
  64 001c 96F8F130 		ldrb	r3, [r6, #241]	@ zero_extendqisi2
  65 0020 07F14000 		add	r0, r7, #64
  66              	.LVL5:
  67 0024 7BB1     		cbz	r3, .L7
  68              		.loc 1 64 0
  69 0026 96F8F230 		ldrb	r3, [r6, #242]	@ zero_extendqisi2
  70 002a 88F80030 		strb	r3, [r8]
  71              	.LVL6:
  72              		.loc 1 67 0
  73 002e 06F1F301 		add	r1, r6, #243
  74 0032 FFF7FEFF 		bl	strcpy
  75              	.LVL7:
  76              	.L2:
  77              		.loc 1 73 0
  78 0036 019A     		ldr	r2, [sp, #4]
  79 0038 2B68     		ldr	r3, [r5]
  80 003a 9A42     		cmp	r2, r3
  81 003c 2046     		mov	r0, r4
  82 003e 07D1     		bne	.L8
  83 0040 02B0     		add	sp, sp, #8
  84              		.cfi_remember_state
  85              		.cfi_def_cfa_offset 24
  86              		@ sp needed
  87 0042 BDE8F081 		pop	{r4, r5, r6, r7, r8, pc}
  88              	.LVL8:
  89              	.L7:
  90              		.cfi_restore_state
  91              	.LBB4:
  92              	.LBB5:
  93              		.loc 1 61 0
  94 0046 88F80040 		strb	r4, [r8]
  95              	.LVL9:
  96              		.loc 1 62 0
  97 004a 87F84040 		strb	r4, [r7, #64]
  98 004e F2E7     		b	.L2
  99              	.LVL10:
 100              	.L8:
 101              	.LBE5:
 102              	.LBE4:
 103              		.loc 1 73 0
 104 0050 FFF7FEFF 		bl	__stack_chk_fail
 105              	.LVL11:
 106              	.L10:
 107              		.align	2
 108              	.L9:
 109 0054 00000000 		.word	__stack_chk_guard
 110              		.cfi_endproc
 111              	.LFE3:
 112              		.size	VL53L0X_check_part_used, .-VL53L0X_check_part_used
 113              		.section	.text.VL53L0X_get_device_info,"ax",%progbits
 114              		.align	1
ARM GAS  /var/folders/d2/nstgp4h54kz7g1l847x_b8wc0000gn/T//ccuafcop.s 			page 3


 115              		.p2align 4,,15
 116              		.global	VL53L0X_get_device_info
 117              		.syntax unified
 118              		.thumb
 119              		.thumb_func
 120              		.fpu fpv4-sp-d16
 121              		.type	VL53L0X_get_device_info, %function
 122              	VL53L0X_get_device_info:
 123              	.LFB4:
 124              		.loc 1 78 0
 125              		.cfi_startproc
 126              		@ args = 0, pretend = 0, frame = 8
 127              		@ frame_needed = 0, uses_anonymous_args = 0
 128              	.LVL12:
 129 0000 F0B5     		push	{r4, r5, r6, r7, lr}
 130              		.cfi_def_cfa_offset 20
 131              		.cfi_offset 4, -20
 132              		.cfi_offset 5, -16
 133              		.cfi_offset 6, -12
 134              		.cfi_offset 7, -8
 135              		.cfi_offset 14, -4
 136 0002 2A4D     		ldr	r5, .L26
 137 0004 83B0     		sub	sp, sp, #12
 138              		.cfi_def_cfa_offset 32
 139              		.loc 1 78 0
 140 0006 0C46     		mov	r4, r1
 141 0008 2B68     		ldr	r3, [r5]
 142 000a 0193     		str	r3, [sp, #4]
 143              	.LVL13:
 144              		.loc 1 83 0
 145 000c 0A46     		mov	r2, r1
 146 000e 0DF10301 		add	r1, sp, #3
 147              	.LVL14:
 148              		.loc 1 78 0
 149 0012 0646     		mov	r6, r0
 150              		.loc 1 83 0
 151 0014 FFF7FEFF 		bl	VL53L0X_check_part_used
 152              	.LVL15:
 153              		.loc 1 85 0
 154 0018 60BB     		cbnz	r0, .L12
 155              		.loc 1 86 0
 156 001a 9DF80330 		ldrb	r3, [sp, #3]	@ zero_extendqisi2
 157 001e 002B     		cmp	r3, #0
 158 0020 36D0     		beq	.L23
 159              		.loc 1 89 0
 160 0022 222B     		cmp	r3, #34
 161 0024 2CD9     		bls	.L24
 162              		.loc 1 92 0
 163 0026 262B     		cmp	r3, #38
 164 0028 38D9     		bls	.L16
 165              		.loc 1 96 0
 166 002a 214F     		ldr	r7, .L26+4
 167 002c 0FCF     		ldmia	r7!, {r0, r1, r2, r3}
 168              	.LVL16:
 169 002e 2060     		str	r0, [r4]	@ unaligned
 170 0030 97F804C0 		ldrb	ip, [r7, #4]	@ zero_extendqisi2
 171 0034 3868     		ldr	r0, [r7]
ARM GAS  /var/folders/d2/nstgp4h54kz7g1l847x_b8wc0000gn/T//ccuafcop.s 			page 4


 172 0036 6160     		str	r1, [r4, #4]	@ unaligned
 173 0038 A260     		str	r2, [r4, #8]	@ unaligned
 174 003a E360     		str	r3, [r4, #12]	@ unaligned
 175 003c 2061     		str	r0, [r4, #16]	@ unaligned
 176 003e 84F814C0 		strb	ip, [r4, #20]
 177              	.L14:
 178              		.loc 1 100 0
 179 0042 1C4B     		ldr	r3, .L26+8
 180 0044 03CB     		ldmia	r3!, {r0, r1}
 181              		.loc 1 106 0
 182 0046 04F16002 		add	r2, r4, #96
 183              		.loc 1 100 0
 184 004a 2062     		str	r0, [r4, #32]	@ unaligned
 185 004c 6162     		str	r1, [r4, #36]	@ unaligned
 186              		.loc 1 106 0
 187 004e 3046     		mov	r0, r6
 188 0050 C021     		movs	r1, #192
 189 0052 FFF7FEFF 		bl	VL53L0X_RdByte
 190              	.LVL17:
 191              		.loc 1 110 0
 192 0056 68B9     		cbnz	r0, .L12
 193              		.loc 1 111 0
 194 0058 0DF10202 		add	r2, sp, #2
 195 005c 3046     		mov	r0, r6
 196              	.LVL18:
 197 005e C221     		movs	r1, #194
 198 0060 FFF7FEFF 		bl	VL53L0X_RdByte
 199              	.LVL19:
 200              		.loc 1 116 0
 201 0064 9DF80230 		ldrb	r3, [sp, #2]	@ zero_extendqisi2
 202              		.loc 1 114 0
 203 0068 0122     		movs	r2, #1
 204              		.loc 1 116 0
 205 006a 1B09     		lsrs	r3, r3, #4
 206              		.loc 1 115 0
 207 006c 84F86230 		strb	r3, [r4, #98]
 208              		.loc 1 114 0
 209 0070 84F86120 		strb	r2, [r4, #97]
 210              	.L12:
 211              		.loc 1 120 0
 212 0074 019A     		ldr	r2, [sp, #4]
 213 0076 2B68     		ldr	r3, [r5]
 214 0078 9A42     		cmp	r2, r3
 215 007a 15D1     		bne	.L25
 216 007c 03B0     		add	sp, sp, #12
 217              		.cfi_remember_state
 218              		.cfi_def_cfa_offset 20
 219              		@ sp needed
 220 007e F0BD     		pop	{r4, r5, r6, r7, pc}
 221              	.LVL20:
 222              	.L24:
 223              		.cfi_restore_state
 224              		.loc 1 89 0 discriminator 1
 225 0080 202B     		cmp	r3, #32
 226 0082 0BD0     		beq	.L16
 227              		.loc 1 90 0
 228 0084 0C4B     		ldr	r3, .L26+12
ARM GAS  /var/folders/d2/nstgp4h54kz7g1l847x_b8wc0000gn/T//ccuafcop.s 			page 5


 229 0086 07CB     		ldmia	r3!, {r0, r1, r2}
 230              	.LVL21:
 231 0088 2060     		str	r0, [r4]	@ unaligned
 232 008a 6160     		str	r1, [r4, #4]	@ unaligned
 233 008c A260     		str	r2, [r4, #8]	@ unaligned
 234 008e D8E7     		b	.L14
 235              	.LVL22:
 236              	.L23:
 237              		.loc 1 87 0
 238 0090 0A4B     		ldr	r3, .L26+16
 239 0092 07CB     		ldmia	r3!, {r0, r1, r2}
 240              	.LVL23:
 241 0094 2060     		str	r0, [r4]	@ unaligned
 242 0096 6160     		str	r1, [r4, #4]	@ unaligned
 243 0098 A260     		str	r2, [r4, #8]	@ unaligned
 244 009a D2E7     		b	.L14
 245              	.LVL24:
 246              	.L16:
 247              		.loc 1 93 0
 248 009c 084B     		ldr	r3, .L26+20
 249 009e 07CB     		ldmia	r3!, {r0, r1, r2}
 250              	.LVL25:
 251 00a0 2060     		str	r0, [r4]	@ unaligned
 252 00a2 6160     		str	r1, [r4, #4]	@ unaligned
 253 00a4 A260     		str	r2, [r4, #8]	@ unaligned
 254 00a6 CCE7     		b	.L14
 255              	.LVL26:
 256              	.L25:
 257              		.loc 1 120 0
 258 00a8 FFF7FEFF 		bl	__stack_chk_fail
 259              	.LVL27:
 260              	.L27:
 261              		.align	2
 262              	.L26:
 263 00ac 00000000 		.word	__stack_chk_guard
 264 00b0 24000000 		.word	.LC3
 265 00b4 3C000000 		.word	.LC4
 266 00b8 0C000000 		.word	.LC1
 267 00bc 00000000 		.word	.LC0
 268 00c0 18000000 		.word	.LC2
 269              		.cfi_endproc
 270              	.LFE4:
 271              		.size	VL53L0X_get_device_info, .-VL53L0X_get_device_info
 272              		.section	.text.VL53L0X_get_device_error_string,"ax",%progbits
 273              		.align	1
 274              		.p2align 4,,15
 275              		.global	VL53L0X_get_device_error_string
 276              		.syntax unified
 277              		.thumb
 278              		.thumb_func
 279              		.fpu fpv4-sp-d16
 280              		.type	VL53L0X_get_device_error_string, %function
 281              	VL53L0X_get_device_error_string:
 282              	.LFB5:
 283              		.loc 1 125 0
 284              		.cfi_startproc
 285              		@ args = 0, pretend = 0, frame = 8
ARM GAS  /var/folders/d2/nstgp4h54kz7g1l847x_b8wc0000gn/T//ccuafcop.s 			page 6


 286              		@ frame_needed = 0, uses_anonymous_args = 0
 287              	.LVL28:
 288 0000 F0B5     		push	{r4, r5, r6, r7, lr}
 289              		.cfi_def_cfa_offset 20
 290              		.cfi_offset 4, -20
 291              		.cfi_offset 5, -16
 292              		.cfi_offset 6, -12
 293              		.cfi_offset 7, -8
 294              		.cfi_offset 14, -4
 295 0002 4B4D     		ldr	r5, .L55
 296 0004 83B0     		sub	sp, sp, #12
 297              		.cfi_def_cfa_offset 32
 298              		.loc 1 125 0
 299 0006 2B68     		ldr	r3, [r5]
 300 0008 0193     		str	r3, [sp, #4]
 301              	.LVL29:
 302 000a 0C46     		mov	r4, r1
 303              		.loc 1 130 0
 304 000c 0E28     		cmp	r0, #14
 305 000e 00F28B80 		bhi	.L29
 306 0012 DFE800F0 		tbb	[pc, r0]
 307              	.L31:
 308 0016 1C       		.byte	(.L30-.L31)/2
 309 0017 23       		.byte	(.L32-.L31)/2
 310 0018 30       		.byte	(.L33-.L31)/2
 311 0019 3B       		.byte	(.L34-.L31)/2
 312 001a 46       		.byte	(.L35-.L31)/2
 313 001b 51       		.byte	(.L36-.L31)/2
 314 001c 5B       		.byte	(.L37-.L31)/2
 315 001d 65       		.byte	(.L38-.L31)/2
 316 001e 67       		.byte	(.L39-.L31)/2
 317 001f 69       		.byte	(.L40-.L31)/2
 318 0020 6B       		.byte	(.L41-.L31)/2
 319 0021 6D       		.byte	(.L42-.L31)/2
 320 0022 6F       		.byte	(.L43-.L31)/2
 321 0023 7D       		.byte	(.L44-.L31)/2
 322 0024 08       		.byte	(.L45-.L31)/2
 323 0025 00       		.p2align 1
 324              	.L45:
 325              		.loc 1 188 0
 326 0026 434E     		ldr	r6, .L55+4
 327 0028 0FCE     		ldmia	r6!, {r0, r1, r2, r3}
 328              	.LVL30:
 329 002a 2060     		str	r0, [r4]	@ unaligned
 330 002c 6160     		str	r1, [r4, #4]	@ unaligned
 331 002e A260     		str	r2, [r4, #8]	@ unaligned
 332 0030 07CE     		ldmia	r6!, {r0, r1, r2}
 333 0032 3678     		ldrb	r6, [r6]	@ zero_extendqisi2
 334 0034 E360     		str	r3, [r4, #12]	@ unaligned
 335 0036 2677     		strb	r6, [r4, #28]
 336 0038 2061     		str	r0, [r4, #16]	@ unaligned
 337 003a 6161     		str	r1, [r4, #20]	@ unaligned
 338 003c A261     		str	r2, [r4, #24]	@ unaligned
 339              	.L46:
 340              		.loc 1 200 0
 341 003e 019A     		ldr	r2, [sp, #4]
 342 0040 2B68     		ldr	r3, [r5]
ARM GAS  /var/folders/d2/nstgp4h54kz7g1l847x_b8wc0000gn/T//ccuafcop.s 			page 7


 343 0042 9A42     		cmp	r2, r3
 344 0044 4FF00000 		mov	r0, #0
 345 0048 70D1     		bne	.L54
 346 004a 03B0     		add	sp, sp, #12
 347              		.cfi_remember_state
 348              		.cfi_def_cfa_offset 20
 349              		@ sp needed
 350 004c F0BD     		pop	{r4, r5, r6, r7, pc}
 351              	.LVL31:
 352              	.L30:
 353              		.cfi_restore_state
 354              		.loc 1 132 0
 355 004e 3A4B     		ldr	r3, .L55+8
 356              	.L49:
 357              		.loc 1 164 0
 358 0050 03CB     		ldmia	r3!, {r0, r1}
 359              	.LVL32:
 360 0052 1B88     		ldrh	r3, [r3]	@ unaligned
 361 0054 2381     		strh	r3, [r4, #8]	@ unaligned
 362 0056 2060     		str	r0, [r4]	@ unaligned
 363 0058 6160     		str	r1, [r4, #4]	@ unaligned
 364              		.loc 1 166 0
 365 005a F0E7     		b	.L46
 366              	.LVL33:
 367              	.L32:
 368              		.loc 1 136 0
 369 005c 374E     		ldr	r6, .L55+12
 370 005e 0FCE     		ldmia	r6!, {r0, r1, r2, r3}
 371              	.LVL34:
 372 0060 2060     		str	r0, [r4]	@ unaligned
 373 0062 6160     		str	r1, [r4, #4]	@ unaligned
 374 0064 A260     		str	r2, [r4, #8]	@ unaligned
 375 0066 07CE     		ldmia	r6!, {r0, r1, r2}
 376 0068 3688     		ldrh	r6, [r6]	@ unaligned
 377 006a E360     		str	r3, [r4, #12]	@ unaligned
 378 006c A683     		strh	r6, [r4, #28]	@ unaligned
 379 006e 2061     		str	r0, [r4, #16]	@ unaligned
 380 0070 6161     		str	r1, [r4, #20]	@ unaligned
 381 0072 A261     		str	r2, [r4, #24]	@ unaligned
 382              		.loc 1 138 0
 383 0074 E3E7     		b	.L46
 384              	.LVL35:
 385              	.L33:
 386              		.loc 1 140 0
 387 0076 324E     		ldr	r6, .L55+16
 388              	.L50:
 389              		.loc 1 160 0
 390 0078 0FCE     		ldmia	r6!, {r0, r1, r2, r3}
 391              	.LVL36:
 392 007a 2060     		str	r0, [r4]	@ unaligned
 393 007c 6160     		str	r1, [r4, #4]	@ unaligned
 394 007e A260     		str	r2, [r4, #8]	@ unaligned
 395 0080 07CE     		ldmia	r6!, {r0, r1, r2}
 396 0082 E360     		str	r3, [r4, #12]	@ unaligned
 397 0084 2061     		str	r0, [r4, #16]	@ unaligned
 398 0086 6161     		str	r1, [r4, #20]	@ unaligned
 399 0088 A261     		str	r2, [r4, #24]	@ unaligned
ARM GAS  /var/folders/d2/nstgp4h54kz7g1l847x_b8wc0000gn/T//ccuafcop.s 			page 8


 400              		.loc 1 162 0
 401 008a D8E7     		b	.L46
 402              	.LVL37:
 403              	.L34:
 404              		.loc 1 144 0
 405 008c 2D4E     		ldr	r6, .L55+20
 406              	.L51:
 407              		.loc 1 193 0
 408 008e 0FCE     		ldmia	r6!, {r0, r1, r2, r3}
 409              	.LVL38:
 410 0090 3788     		ldrh	r7, [r6]	@ unaligned
 411 0092 B678     		ldrb	r6, [r6, #2]	@ zero_extendqisi2
 412 0094 2060     		str	r0, [r4]	@ unaligned
 413 0096 6160     		str	r1, [r4, #4]	@ unaligned
 414 0098 A260     		str	r2, [r4, #8]	@ unaligned
 415 009a E360     		str	r3, [r4, #12]	@ unaligned
 416 009c 2782     		strh	r7, [r4, #16]	@ unaligned
 417 009e A674     		strb	r6, [r4, #18]
 418 00a0 CDE7     		b	.L46
 419              	.LVL39:
 420              	.L35:
 421              		.loc 1 148 0
 422 00a2 294E     		ldr	r6, .L55+24
 423 00a4 0FCE     		ldmia	r6!, {r0, r1, r2, r3}
 424              	.LVL40:
 425 00a6 2060     		str	r0, [r4]	@ unaligned
 426 00a8 3779     		ldrb	r7, [r6, #4]	@ zero_extendqisi2
 427 00aa 3068     		ldr	r0, [r6]
 428 00ac 6160     		str	r1, [r4, #4]	@ unaligned
 429 00ae A260     		str	r2, [r4, #8]	@ unaligned
 430 00b0 E360     		str	r3, [r4, #12]	@ unaligned
 431 00b2 2061     		str	r0, [r4, #16]	@ unaligned
 432 00b4 2775     		strb	r7, [r4, #20]
 433              		.loc 1 150 0
 434 00b6 C2E7     		b	.L46
 435              	.LVL41:
 436              	.L36:
 437              		.loc 1 152 0
 438 00b8 244B     		ldr	r3, .L55+28
 439              	.L52:
 440              		.loc 1 172 0
 441 00ba 07CB     		ldmia	r3!, {r0, r1, r2}
 442              	.LVL42:
 443 00bc 1E88     		ldrh	r6, [r3]	@ unaligned
 444 00be 9B78     		ldrb	r3, [r3, #2]	@ zero_extendqisi2
 445 00c0 2060     		str	r0, [r4]	@ unaligned
 446 00c2 6160     		str	r1, [r4, #4]	@ unaligned
 447 00c4 A260     		str	r2, [r4, #8]	@ unaligned
 448 00c6 A681     		strh	r6, [r4, #12]	@ unaligned
 449 00c8 A373     		strb	r3, [r4, #14]
 450              		.loc 1 174 0
 451 00ca B8E7     		b	.L46
 452              	.LVL43:
 453              	.L37:
 454              		.loc 1 156 0
 455 00cc 204E     		ldr	r6, .L55+32
 456              	.L53:
ARM GAS  /var/folders/d2/nstgp4h54kz7g1l847x_b8wc0000gn/T//ccuafcop.s 			page 9


 457              		.loc 1 168 0
 458 00ce 0FCE     		ldmia	r6!, {r0, r1, r2, r3}
 459              	.LVL44:
 460 00d0 2060     		str	r0, [r4]	@ unaligned
 461 00d2 6160     		str	r1, [r4, #4]	@ unaligned
 462 00d4 03CE     		ldmia	r6!, {r0, r1}
 463 00d6 A260     		str	r2, [r4, #8]	@ unaligned
 464 00d8 E360     		str	r3, [r4, #12]	@ unaligned
 465 00da 2061     		str	r0, [r4, #16]	@ unaligned
 466 00dc 6161     		str	r1, [r4, #20]	@ unaligned
 467              		.loc 1 170 0
 468 00de AEE7     		b	.L46
 469              	.LVL45:
 470              	.L38:
 471              		.loc 1 160 0
 472 00e0 1C4E     		ldr	r6, .L55+36
 473 00e2 C9E7     		b	.L50
 474              	.L39:
 475              		.loc 1 164 0
 476 00e4 1C4B     		ldr	r3, .L55+40
 477 00e6 B3E7     		b	.L49
 478              	.L40:
 479              		.loc 1 168 0
 480 00e8 1C4E     		ldr	r6, .L55+44
 481 00ea F0E7     		b	.L53
 482              	.L41:
 483              		.loc 1 172 0
 484 00ec 1C4B     		ldr	r3, .L55+48
 485 00ee E4E7     		b	.L52
 486              	.L42:
 487              		.loc 1 176 0
 488 00f0 1C4B     		ldr	r3, .L55+52
 489 00f2 E2E7     		b	.L52
 490              	.L43:
 491              		.loc 1 180 0
 492 00f4 1C4E     		ldr	r6, .L55+56
 493 00f6 0FCE     		ldmia	r6!, {r0, r1, r2, r3}
 494              	.LVL46:
 495 00f8 2060     		str	r0, [r4]	@ unaligned
 496 00fa 6160     		str	r1, [r4, #4]	@ unaligned
 497 00fc 03CE     		ldmia	r6!, {r0, r1}
 498 00fe 3788     		ldrh	r7, [r6]	@ unaligned
 499 0100 B678     		ldrb	r6, [r6, #2]	@ zero_extendqisi2
 500 0102 A260     		str	r2, [r4, #8]	@ unaligned
 501 0104 E360     		str	r3, [r4, #12]	@ unaligned
 502 0106 2061     		str	r0, [r4, #16]	@ unaligned
 503 0108 6161     		str	r1, [r4, #20]	@ unaligned
 504 010a 2783     		strh	r7, [r4, #24]	@ unaligned
 505 010c A676     		strb	r6, [r4, #26]
 506              		.loc 1 182 0
 507 010e 96E7     		b	.L46
 508              	.LVL47:
 509              	.L44:
 510              		.loc 1 184 0
 511 0110 164E     		ldr	r6, .L55+60
 512 0112 0FCE     		ldmia	r6!, {r0, r1, r2, r3}
 513              	.LVL48:
ARM GAS  /var/folders/d2/nstgp4h54kz7g1l847x_b8wc0000gn/T//ccuafcop.s 			page 10


 514 0114 2060     		str	r0, [r4]	@ unaligned
 515 0116 6160     		str	r1, [r4, #4]	@ unaligned
 516 0118 03CE     		ldmia	r6!, {r0, r1}
 517 011a 3678     		ldrb	r6, [r6]	@ zero_extendqisi2
 518 011c A260     		str	r2, [r4, #8]	@ unaligned
 519 011e E360     		str	r3, [r4, #12]	@ unaligned
 520 0120 2676     		strb	r6, [r4, #24]
 521 0122 2061     		str	r0, [r4, #16]	@ unaligned
 522 0124 6161     		str	r1, [r4, #20]	@ unaligned
 523              		.loc 1 186 0
 524 0126 8AE7     		b	.L46
 525              	.LVL49:
 526              	.L29:
 527              		.loc 1 193 0
 528 0128 114E     		ldr	r6, .L55+64
 529 012a B0E7     		b	.L51
 530              	.LVL50:
 531              	.L54:
 532              		.loc 1 200 0
 533 012c FFF7FEFF 		bl	__stack_chk_fail
 534              	.LVL51:
 535              	.L56:
 536              		.align	2
 537              	.L55:
 538 0130 00000000 		.word	__stack_chk_guard
 539 0134 34010000 		.word	.LC19
 540 0138 00000000 		.word	.LC5
 541 013c 0C000000 		.word	.LC6
 542 0140 2C000000 		.word	.LC7
 543 0144 48000000 		.word	.LC8
 544 0148 5C000000 		.word	.LC9
 545 014c 74000000 		.word	.LC10
 546 0150 84000000 		.word	.LC11
 547 0154 9C000000 		.word	.LC12
 548 0158 B8000000 		.word	.LC13
 549 015c C4000000 		.word	.LC14
 550 0160 DC000000 		.word	.LC15
 551 0164 EC000000 		.word	.LC16
 552 0168 FC000000 		.word	.LC17
 553 016c 18010000 		.word	.LC18
 554 0170 54010000 		.word	.LC20
 555              		.cfi_endproc
 556              	.LFE5:
 557              		.size	VL53L0X_get_device_error_string, .-VL53L0X_get_device_error_string
 558              		.section	.text.VL53L0X_get_range_status_string,"ax",%progbits
 559              		.align	1
 560              		.p2align 4,,15
 561              		.global	VL53L0X_get_range_status_string
 562              		.syntax unified
 563              		.thumb
 564              		.thumb_func
 565              		.fpu fpv4-sp-d16
 566              		.type	VL53L0X_get_range_status_string, %function
 567              	VL53L0X_get_range_status_string:
 568              	.LFB6:
 569              		.loc 1 204 0
 570              		.cfi_startproc
ARM GAS  /var/folders/d2/nstgp4h54kz7g1l847x_b8wc0000gn/T//ccuafcop.s 			page 11


 571              		@ args = 0, pretend = 0, frame = 8
 572              		@ frame_needed = 0, uses_anonymous_args = 0
 573              	.LVL52:
 574 0000 70B5     		push	{r4, r5, r6, lr}
 575              		.cfi_def_cfa_offset 16
 576              		.cfi_offset 4, -16
 577              		.cfi_offset 5, -12
 578              		.cfi_offset 6, -8
 579              		.cfi_offset 14, -4
 580 0002 224C     		ldr	r4, .L71
 581 0004 82B0     		sub	sp, sp, #8
 582              		.cfi_def_cfa_offset 24
 583              		.loc 1 204 0
 584 0006 2368     		ldr	r3, [r4]
 585 0008 0193     		str	r3, [sp, #4]
 586              	.LVL53:
 587 000a 0B46     		mov	r3, r1
 588              		.loc 1 209 0
 589 000c 0528     		cmp	r0, #5
 590 000e 34D8     		bhi	.L58
 591 0010 DFE800F0 		tbb	[pc, r0]
 592              	.L60:
 593 0014 12       		.byte	(.L59-.L60)/2
 594 0015 18       		.byte	(.L61-.L60)/2
 595 0016 21       		.byte	(.L62-.L60)/2
 596 0017 27       		.byte	(.L63-.L60)/2
 597 0018 31       		.byte	(.L64-.L60)/2
 598 0019 03       		.byte	(.L65-.L60)/2
 599              		.p2align 1
 600              	.L65:
 601              		.loc 1 231 0
 602 001a 1D4D     		ldr	r5, .L71+4
 603 001c 07CD     		ldmia	r5!, {r0, r1, r2}
 604              	.LVL54:
 605 001e 2D88     		ldrh	r5, [r5]	@ unaligned
 606 0020 9D81     		strh	r5, [r3, #12]	@ unaligned
 607 0022 1860     		str	r0, [r3]	@ unaligned
 608 0024 5960     		str	r1, [r3, #4]	@ unaligned
 609 0026 9A60     		str	r2, [r3, #8]	@ unaligned
 610              	.L66:
 611              		.loc 1 242 0
 612 0028 019A     		ldr	r2, [sp, #4]
 613 002a 2368     		ldr	r3, [r4]
 614              	.LVL55:
 615 002c 9A42     		cmp	r2, r3
 616 002e 4FF00000 		mov	r0, #0
 617 0032 29D1     		bne	.L70
 618 0034 02B0     		add	sp, sp, #8
 619              		.cfi_remember_state
 620              		.cfi_def_cfa_offset 16
 621              		@ sp needed
 622 0036 70BD     		pop	{r4, r5, r6, pc}
 623              	.LVL56:
 624              	.L59:
 625              		.cfi_restore_state
 626              		.loc 1 211 0
 627 0038 164D     		ldr	r5, .L71+8
ARM GAS  /var/folders/d2/nstgp4h54kz7g1l847x_b8wc0000gn/T//ccuafcop.s 			page 12


 628 003a 07CD     		ldmia	r5!, {r0, r1, r2}
 629              	.LVL57:
 630 003c 1860     		str	r0, [r3]	@ unaligned
 631 003e 5960     		str	r1, [r3, #4]	@ unaligned
 632 0040 9A60     		str	r2, [r3, #8]	@ unaligned
 633              		.loc 1 213 0
 634 0042 F1E7     		b	.L66
 635              	.LVL58:
 636              	.L61:
 637              		.loc 1 215 0
 638 0044 144A     		ldr	r2, .L71+12
 639              	.L69:
 640              		.loc 1 227 0
 641 0046 03CA     		ldmia	r2!, {r0, r1}
 642              	.LVL59:
 643 0048 1588     		ldrh	r5, [r2]	@ unaligned
 644 004a 9278     		ldrb	r2, [r2, #2]	@ zero_extendqisi2
 645 004c 1860     		str	r0, [r3]	@ unaligned
 646 004e 5960     		str	r1, [r3, #4]	@ unaligned
 647 0050 1D81     		strh	r5, [r3, #8]	@ unaligned
 648 0052 9A72     		strb	r2, [r3, #10]
 649              		.loc 1 229 0
 650 0054 E8E7     		b	.L66
 651              	.LVL60:
 652              	.L62:
 653              		.loc 1 219 0
 654 0056 114D     		ldr	r5, .L71+16
 655 0058 07CD     		ldmia	r5!, {r0, r1, r2}
 656              	.LVL61:
 657 005a 1860     		str	r0, [r3]	@ unaligned
 658 005c 5960     		str	r1, [r3, #4]	@ unaligned
 659 005e 9A60     		str	r2, [r3, #8]	@ unaligned
 660              		.loc 1 221 0
 661 0060 E2E7     		b	.L66
 662              	.LVL62:
 663              	.L63:
 664              		.loc 1 223 0
 665 0062 0F4D     		ldr	r5, .L71+20
 666 0064 07CD     		ldmia	r5!, {r0, r1, r2}
 667              	.LVL63:
 668 0066 2E88     		ldrh	r6, [r5]	@ unaligned
 669 0068 AD78     		ldrb	r5, [r5, #2]	@ zero_extendqisi2
 670 006a 1860     		str	r0, [r3]	@ unaligned
 671 006c 5960     		str	r1, [r3, #4]	@ unaligned
 672 006e 9A60     		str	r2, [r3, #8]	@ unaligned
 673 0070 9E81     		strh	r6, [r3, #12]	@ unaligned
 674 0072 9D73     		strb	r5, [r3, #14]
 675              		.loc 1 225 0
 676 0074 D8E7     		b	.L66
 677              	.LVL64:
 678              	.L64:
 679              		.loc 1 227 0
 680 0076 0B4A     		ldr	r2, .L71+24
 681 0078 E5E7     		b	.L69
 682              	.L58:
 683              		.loc 1 236 0
 684 007a 0B4A     		ldr	r2, .L71+28
ARM GAS  /var/folders/d2/nstgp4h54kz7g1l847x_b8wc0000gn/T//ccuafcop.s 			page 13


 685 007c 03CA     		ldmia	r2!, {r0, r1}
 686              	.LVL65:
 687 007e 1288     		ldrh	r2, [r2]	@ unaligned
 688 0080 1A81     		strh	r2, [r3, #8]	@ unaligned
 689 0082 1860     		str	r0, [r3]	@ unaligned
 690 0084 5960     		str	r1, [r3, #4]	@ unaligned
 691 0086 CFE7     		b	.L66
 692              	.LVL66:
 693              	.L70:
 694              		.loc 1 242 0
 695 0088 FFF7FEFF 		bl	__stack_chk_fail
 696              	.LVL67:
 697              	.L72:
 698              		.align	2
 699              	.L71:
 700 008c 00000000 		.word	__stack_chk_guard
 701 0090 40000000 		.word	.LC26
 702 0094 00000000 		.word	.LC21
 703 0098 0C000000 		.word	.LC22
 704 009c 18000000 		.word	.LC23
 705 00a0 24000000 		.word	.LC24
 706 00a4 34000000 		.word	.LC25
 707 00a8 00000000 		.word	.LC5
 708              		.cfi_endproc
 709              	.LFE6:
 710              		.size	VL53L0X_get_range_status_string, .-VL53L0X_get_range_status_string
 711              		.section	.text.VL53L0X_get_pal_error_string,"ax",%progbits
 712              		.align	1
 713              		.p2align 4,,15
 714              		.global	VL53L0X_get_pal_error_string
 715              		.syntax unified
 716              		.thumb
 717              		.thumb_func
 718              		.fpu fpv4-sp-d16
 719              		.type	VL53L0X_get_pal_error_string, %function
 720              	VL53L0X_get_pal_error_string:
 721              	.LFB7:
 722              		.loc 1 246 0
 723              		.cfi_startproc
 724              		@ args = 0, pretend = 0, frame = 8
 725              		@ frame_needed = 0, uses_anonymous_args = 0
 726              	.LVL68:
 727 0000 F0B5     		push	{r4, r5, r6, r7, lr}
 728              		.cfi_def_cfa_offset 20
 729              		.cfi_offset 4, -20
 730              		.cfi_offset 5, -16
 731              		.cfi_offset 6, -12
 732              		.cfi_offset 7, -8
 733              		.cfi_offset 14, -4
 734 0002 684D     		ldr	r5, .L102
 735 0004 83B0     		sub	sp, sp, #12
 736              		.cfi_def_cfa_offset 32
 737              		.loc 1 246 0
 738 0006 2B68     		ldr	r3, [r5]
 739 0008 0193     		str	r3, [sp, #4]
 740              	.LVL69:
 741              		.loc 1 251 0
ARM GAS  /var/folders/d2/nstgp4h54kz7g1l847x_b8wc0000gn/T//ccuafcop.s 			page 14


 742 000a 6330     		adds	r0, r0, #99
 743              	.LVL70:
 744              		.loc 1 246 0
 745 000c 0C46     		mov	r4, r1
 746              		.loc 1 251 0
 747 000e 6328     		cmp	r0, #99
 748 0010 00F2BB80 		bhi	.L74
 749 0014 DFE800F0 		tbb	[pc, r0]
 750              	.L76:
 751 0018 41       		.byte	(.L75-.L76)/2
 752 0019 B9       		.byte	(.L74-.L76)/2
 753 001a B9       		.byte	(.L74-.L76)/2
 754 001b B9       		.byte	(.L74-.L76)/2
 755 001c B9       		.byte	(.L74-.L76)/2
 756 001d B9       		.byte	(.L74-.L76)/2
 757 001e B9       		.byte	(.L74-.L76)/2
 758 001f B9       		.byte	(.L74-.L76)/2
 759 0020 B9       		.byte	(.L74-.L76)/2
 760 0021 B9       		.byte	(.L74-.L76)/2
 761 0022 B9       		.byte	(.L74-.L76)/2
 762 0023 B9       		.byte	(.L74-.L76)/2
 763 0024 B9       		.byte	(.L74-.L76)/2
 764 0025 B9       		.byte	(.L74-.L76)/2
 765 0026 B9       		.byte	(.L74-.L76)/2
 766 0027 B9       		.byte	(.L74-.L76)/2
 767 0028 B9       		.byte	(.L74-.L76)/2
 768 0029 B9       		.byte	(.L74-.L76)/2
 769 002a B9       		.byte	(.L74-.L76)/2
 770 002b B9       		.byte	(.L74-.L76)/2
 771 002c B9       		.byte	(.L74-.L76)/2
 772 002d B9       		.byte	(.L74-.L76)/2
 773 002e B9       		.byte	(.L74-.L76)/2
 774 002f B9       		.byte	(.L74-.L76)/2
 775 0030 B9       		.byte	(.L74-.L76)/2
 776 0031 B9       		.byte	(.L74-.L76)/2
 777 0032 B9       		.byte	(.L74-.L76)/2
 778 0033 B9       		.byte	(.L74-.L76)/2
 779 0034 B9       		.byte	(.L74-.L76)/2
 780 0035 B9       		.byte	(.L74-.L76)/2
 781 0036 B9       		.byte	(.L74-.L76)/2
 782 0037 B9       		.byte	(.L74-.L76)/2
 783 0038 B9       		.byte	(.L74-.L76)/2
 784 0039 B9       		.byte	(.L74-.L76)/2
 785 003a B9       		.byte	(.L74-.L76)/2
 786 003b B9       		.byte	(.L74-.L76)/2
 787 003c B9       		.byte	(.L74-.L76)/2
 788 003d B9       		.byte	(.L74-.L76)/2
 789 003e B9       		.byte	(.L74-.L76)/2
 790 003f B9       		.byte	(.L74-.L76)/2
 791 0040 B9       		.byte	(.L74-.L76)/2
 792 0041 B9       		.byte	(.L74-.L76)/2
 793 0042 B9       		.byte	(.L74-.L76)/2
 794 0043 B9       		.byte	(.L74-.L76)/2
 795 0044 B9       		.byte	(.L74-.L76)/2
 796 0045 B9       		.byte	(.L74-.L76)/2
 797 0046 B9       		.byte	(.L74-.L76)/2
 798 0047 B9       		.byte	(.L74-.L76)/2
ARM GAS  /var/folders/d2/nstgp4h54kz7g1l847x_b8wc0000gn/T//ccuafcop.s 			page 15


 799 0048 B9       		.byte	(.L74-.L76)/2
 800 0049 4C       		.byte	(.L77-.L76)/2
 801 004a B9       		.byte	(.L74-.L76)/2
 802 004b B9       		.byte	(.L74-.L76)/2
 803 004c B9       		.byte	(.L74-.L76)/2
 804 004d B9       		.byte	(.L74-.L76)/2
 805 004e B9       		.byte	(.L74-.L76)/2
 806 004f B9       		.byte	(.L74-.L76)/2
 807 0050 B9       		.byte	(.L74-.L76)/2
 808 0051 B9       		.byte	(.L74-.L76)/2
 809 0052 B9       		.byte	(.L74-.L76)/2
 810 0053 58       		.byte	(.L78-.L76)/2
 811 0054 B9       		.byte	(.L74-.L76)/2
 812 0055 B9       		.byte	(.L74-.L76)/2
 813 0056 B9       		.byte	(.L74-.L76)/2
 814 0057 B9       		.byte	(.L74-.L76)/2
 815 0058 B9       		.byte	(.L74-.L76)/2
 816 0059 B9       		.byte	(.L74-.L76)/2
 817 005a B9       		.byte	(.L74-.L76)/2
 818 005b B9       		.byte	(.L74-.L76)/2
 819 005c B9       		.byte	(.L74-.L76)/2
 820 005d 65       		.byte	(.L79-.L76)/2
 821 005e B9       		.byte	(.L74-.L76)/2
 822 005f B9       		.byte	(.L74-.L76)/2
 823 0060 B9       		.byte	(.L74-.L76)/2
 824 0061 B9       		.byte	(.L74-.L76)/2
 825 0062 B9       		.byte	(.L74-.L76)/2
 826 0063 B9       		.byte	(.L74-.L76)/2
 827 0064 B9       		.byte	(.L74-.L76)/2
 828 0065 B9       		.byte	(.L74-.L76)/2
 829 0066 B9       		.byte	(.L74-.L76)/2
 830 0067 67       		.byte	(.L80-.L76)/2
 831 0068 B9       		.byte	(.L74-.L76)/2
 832 0069 B9       		.byte	(.L74-.L76)/2
 833 006a B9       		.byte	(.L74-.L76)/2
 834 006b B9       		.byte	(.L74-.L76)/2
 835 006c B9       		.byte	(.L74-.L76)/2
 836 006d B9       		.byte	(.L74-.L76)/2
 837 006e B9       		.byte	(.L74-.L76)/2
 838 006f 71       		.byte	(.L81-.L76)/2
 839 0070 73       		.byte	(.L82-.L76)/2
 840 0071 7F       		.byte	(.L83-.L76)/2
 841 0072 88       		.byte	(.L84-.L76)/2
 842 0073 91       		.byte	(.L85-.L76)/2
 843 0074 93       		.byte	(.L86-.L76)/2
 844 0075 9D       		.byte	(.L87-.L76)/2
 845 0076 A3       		.byte	(.L88-.L76)/2
 846 0077 AC       		.byte	(.L89-.L76)/2
 847 0078 AE       		.byte	(.L90-.L76)/2
 848 0079 B5       		.byte	(.L91-.L76)/2
 849 007a B7       		.byte	(.L92-.L76)/2
 850 007b 32       		.byte	(.L93-.L76)/2
 851              		.p2align 1
 852              	.L93:
 853              		.loc 1 253 0
 854 007c 4A4B     		ldr	r3, .L102+4
 855 007e 03CB     		ldmia	r3!, {r0, r1}
ARM GAS  /var/folders/d2/nstgp4h54kz7g1l847x_b8wc0000gn/T//ccuafcop.s 			page 16


 856              	.LVL71:
 857 0080 1B78     		ldrb	r3, [r3]	@ zero_extendqisi2
 858 0082 2372     		strb	r3, [r4, #8]
 859 0084 2060     		str	r0, [r4]	@ unaligned
 860 0086 6160     		str	r1, [r4, #4]	@ unaligned
 861              	.L94:
 862              		.loc 1 332 0
 863 0088 019A     		ldr	r2, [sp, #4]
 864 008a 2B68     		ldr	r3, [r5]
 865 008c 9A42     		cmp	r2, r3
 866 008e 4FF00000 		mov	r0, #0
 867 0092 40F08580 		bne	.L101
 868 0096 03B0     		add	sp, sp, #12
 869              		.cfi_remember_state
 870              		.cfi_def_cfa_offset 20
 871              		@ sp needed
 872 0098 F0BD     		pop	{r4, r5, r6, r7, pc}
 873              	.LVL72:
 874              	.L75:
 875              		.cfi_restore_state
 876              		.loc 1 321 0
 877 009a 444E     		ldr	r6, .L102+8
 878              	.L100:
 879 009c 0FCE     		ldmia	r6!, {r0, r1, r2, r3}
 880              	.LVL73:
 881 009e 2060     		str	r0, [r4]	@ unaligned
 882 00a0 B788     		ldrh	r7, [r6, #4]	@ unaligned
 883 00a2 3068     		ldr	r0, [r6]
 884 00a4 6160     		str	r1, [r4, #4]	@ unaligned
 885 00a6 A260     		str	r2, [r4, #8]	@ unaligned
 886 00a8 E360     		str	r3, [r4, #12]	@ unaligned
 887 00aa 2061     		str	r0, [r4, #16]	@ unaligned
 888 00ac A782     		strh	r7, [r4, #20]	@ unaligned
 889              		.loc 1 323 0
 890 00ae EBE7     		b	.L94
 891              	.LVL74:
 892              	.L77:
 893              		.loc 1 317 0
 894 00b0 3F4E     		ldr	r6, .L102+12
 895              	.L97:
 896 00b2 0FCE     		ldmia	r6!, {r0, r1, r2, r3}
 897              	.LVL75:
 898 00b4 2060     		str	r0, [r4]	@ unaligned
 899 00b6 6160     		str	r1, [r4, #4]	@ unaligned
 900 00b8 03CE     		ldmia	r6!, {r0, r1}
 901 00ba 3688     		ldrh	r6, [r6]	@ unaligned
 902 00bc A260     		str	r2, [r4, #8]	@ unaligned
 903 00be E360     		str	r3, [r4, #12]	@ unaligned
 904 00c0 2683     		strh	r6, [r4, #24]	@ unaligned
 905 00c2 2061     		str	r0, [r4, #16]	@ unaligned
 906 00c4 6161     		str	r1, [r4, #20]	@ unaligned
 907              		.loc 1 319 0
 908 00c6 DFE7     		b	.L94
 909              	.LVL76:
 910              	.L78:
 911              		.loc 1 313 0
 912 00c8 3A4E     		ldr	r6, .L102+16
ARM GAS  /var/folders/d2/nstgp4h54kz7g1l847x_b8wc0000gn/T//ccuafcop.s 			page 17


 913 00ca 0FCE     		ldmia	r6!, {r0, r1, r2, r3}
 914              	.LVL77:
 915 00cc B788     		ldrh	r7, [r6, #4]	@ unaligned
 916 00ce 2060     		str	r0, [r4]	@ unaligned
 917 00d0 3068     		ldr	r0, [r6]
 918 00d2 B679     		ldrb	r6, [r6, #6]	@ zero_extendqisi2
 919 00d4 6160     		str	r1, [r4, #4]	@ unaligned
 920 00d6 A260     		str	r2, [r4, #8]	@ unaligned
 921 00d8 E360     		str	r3, [r4, #12]	@ unaligned
 922 00da 2061     		str	r0, [r4, #16]	@ unaligned
 923 00dc A782     		strh	r7, [r4, #20]	@ unaligned
 924 00de A675     		strb	r6, [r4, #22]
 925              		.loc 1 315 0
 926 00e0 D2E7     		b	.L94
 927              	.LVL78:
 928              	.L79:
 929              		.loc 1 309 0
 930 00e2 354E     		ldr	r6, .L102+20
 931 00e4 DAE7     		b	.L100
 932              	.L80:
 933              		.loc 1 305 0
 934 00e6 354E     		ldr	r6, .L102+24
 935 00e8 0FCE     		ldmia	r6!, {r0, r1, r2, r3}
 936              	.LVL79:
 937 00ea 2060     		str	r0, [r4]	@ unaligned
 938 00ec 6160     		str	r1, [r4, #4]	@ unaligned
 939 00ee 03CE     		ldmia	r6!, {r0, r1}
 940 00f0 A260     		str	r2, [r4, #8]	@ unaligned
 941 00f2 E360     		str	r3, [r4, #12]	@ unaligned
 942 00f4 2061     		str	r0, [r4, #16]	@ unaligned
 943 00f6 6161     		str	r1, [r4, #20]	@ unaligned
 944              		.loc 1 307 0
 945 00f8 C6E7     		b	.L94
 946              	.LVL80:
 947              	.L81:
 948              		.loc 1 277 0
 949 00fa 314E     		ldr	r6, .L102+28
 950 00fc CEE7     		b	.L100
 951              	.L82:
 952              		.loc 1 301 0
 953 00fe 314E     		ldr	r6, .L102+32
 954              	.L99:
 955              		.loc 1 289 0
 956 0100 0FCE     		ldmia	r6!, {r0, r1, r2, r3}
 957              	.LVL81:
 958 0102 2060     		str	r0, [r4]	@ unaligned
 959 0104 6160     		str	r1, [r4, #4]	@ unaligned
 960 0106 03CE     		ldmia	r6!, {r0, r1}
 961 0108 3678     		ldrb	r6, [r6]	@ zero_extendqisi2
 962 010a A260     		str	r2, [r4, #8]	@ unaligned
 963 010c E360     		str	r3, [r4, #12]	@ unaligned
 964 010e 2676     		strb	r6, [r4, #24]
 965 0110 2061     		str	r0, [r4, #16]	@ unaligned
 966 0112 6161     		str	r1, [r4, #20]	@ unaligned
 967              		.loc 1 291 0
 968 0114 B8E7     		b	.L94
 969              	.LVL82:
ARM GAS  /var/folders/d2/nstgp4h54kz7g1l847x_b8wc0000gn/T//ccuafcop.s 			page 18


 970              	.L83:
 971              		.loc 1 297 0
 972 0116 2C4E     		ldr	r6, .L102+36
 973              	.L98:
 974 0118 0FCE     		ldmia	r6!, {r0, r1, r2, r3}
 975              	.LVL83:
 976 011a 3688     		ldrh	r6, [r6]	@ unaligned
 977 011c 2682     		strh	r6, [r4, #16]	@ unaligned
 978 011e 2060     		str	r0, [r4]	@ unaligned
 979 0120 6160     		str	r1, [r4, #4]	@ unaligned
 980 0122 A260     		str	r2, [r4, #8]	@ unaligned
 981 0124 E360     		str	r3, [r4, #12]	@ unaligned
 982              		.loc 1 299 0
 983 0126 AFE7     		b	.L94
 984              	.LVL84:
 985              	.L84:
 986              		.loc 1 293 0
 987 0128 284E     		ldr	r6, .L102+40
 988 012a 0FCE     		ldmia	r6!, {r0, r1, r2, r3}
 989              	.LVL85:
 990 012c 3678     		ldrb	r6, [r6]	@ zero_extendqisi2
 991 012e 2674     		strb	r6, [r4, #16]
 992 0130 2060     		str	r0, [r4]	@ unaligned
 993 0132 6160     		str	r1, [r4, #4]	@ unaligned
 994 0134 A260     		str	r2, [r4, #8]	@ unaligned
 995 0136 E360     		str	r3, [r4, #12]	@ unaligned
 996              		.loc 1 295 0
 997 0138 A6E7     		b	.L94
 998              	.LVL86:
 999              	.L85:
 1000              		.loc 1 289 0
 1001 013a 254E     		ldr	r6, .L102+44
 1002 013c E0E7     		b	.L99
 1003              	.L86:
 1004              		.loc 1 285 0
 1005 013e 254B     		ldr	r3, .L102+48
 1006 0140 07CB     		ldmia	r3!, {r0, r1, r2}
 1007              	.LVL87:
 1008 0142 1E88     		ldrh	r6, [r3]	@ unaligned
 1009 0144 9B78     		ldrb	r3, [r3, #2]	@ zero_extendqisi2
 1010 0146 2060     		str	r0, [r4]	@ unaligned
 1011 0148 6160     		str	r1, [r4, #4]	@ unaligned
 1012 014a A260     		str	r2, [r4, #8]	@ unaligned
 1013 014c A681     		strh	r6, [r4, #12]	@ unaligned
 1014 014e A373     		strb	r3, [r4, #14]
 1015              		.loc 1 287 0
 1016 0150 9AE7     		b	.L94
 1017              	.LVL88:
 1018              	.L87:
 1019              		.loc 1 281 0
 1020 0152 214B     		ldr	r3, .L102+52
 1021 0154 07CB     		ldmia	r3!, {r0, r1, r2}
 1022              	.LVL89:
 1023 0156 2060     		str	r0, [r4]	@ unaligned
 1024 0158 6160     		str	r1, [r4, #4]	@ unaligned
 1025 015a A260     		str	r2, [r4, #8]	@ unaligned
 1026              		.loc 1 283 0
ARM GAS  /var/folders/d2/nstgp4h54kz7g1l847x_b8wc0000gn/T//ccuafcop.s 			page 19


 1027 015c 94E7     		b	.L94
 1028              	.LVL90:
 1029              	.L88:
 1030              		.loc 1 273 0
 1031 015e 1F4E     		ldr	r6, .L102+56
 1032 0160 0FCE     		ldmia	r6!, {r0, r1, r2, r3}
 1033              	.LVL91:
 1034 0162 2060     		str	r0, [r4]	@ unaligned
 1035 0164 3068     		ldr	r0, [r6]
 1036 0166 2061     		str	r0, [r4, #16]	@ unaligned
 1037 0168 6160     		str	r1, [r4, #4]	@ unaligned
 1038 016a A260     		str	r2, [r4, #8]	@ unaligned
 1039 016c E360     		str	r3, [r4, #12]	@ unaligned
 1040              		.loc 1 275 0
 1041 016e 8BE7     		b	.L94
 1042              	.LVL92:
 1043              	.L89:
 1044              		.loc 1 269 0
 1045 0170 1B4E     		ldr	r6, .L102+60
 1046 0172 C5E7     		b	.L99
 1047              	.L90:
 1048              		.loc 1 265 0
 1049 0174 1B4E     		ldr	r6, .L102+64
 1050 0176 0FCE     		ldmia	r6!, {r0, r1, r2, r3}
 1051              	.LVL93:
 1052 0178 2060     		str	r0, [r4]	@ unaligned
 1053 017a 6160     		str	r1, [r4, #4]	@ unaligned
 1054 017c A260     		str	r2, [r4, #8]	@ unaligned
 1055 017e E360     		str	r3, [r4, #12]	@ unaligned
 1056              		.loc 1 267 0
 1057 0180 82E7     		b	.L94
 1058              	.LVL94:
 1059              	.L91:
 1060              		.loc 1 261 0
 1061 0182 194E     		ldr	r6, .L102+68
 1062 0184 C8E7     		b	.L98
 1063              	.L92:
 1064              		.loc 1 257 0
 1065 0186 194E     		ldr	r6, .L102+72
 1066 0188 93E7     		b	.L97
 1067              	.L74:
 1068              		.loc 1 326 0
 1069 018a 194E     		ldr	r6, .L102+76
 1070 018c 0FCE     		ldmia	r6!, {r0, r1, r2, r3}
 1071              	.LVL95:
 1072 018e 3788     		ldrh	r7, [r6]	@ unaligned
 1073 0190 B678     		ldrb	r6, [r6, #2]	@ zero_extendqisi2
 1074 0192 2060     		str	r0, [r4]	@ unaligned
 1075 0194 6160     		str	r1, [r4, #4]	@ unaligned
 1076 0196 A260     		str	r2, [r4, #8]	@ unaligned
 1077 0198 E360     		str	r3, [r4, #12]	@ unaligned
 1078 019a 2782     		strh	r7, [r4, #16]	@ unaligned
 1079 019c A674     		strb	r6, [r4, #18]
 1080 019e 73E7     		b	.L94
 1081              	.L101:
 1082              		.loc 1 332 0
 1083 01a0 FFF7FEFF 		bl	__stack_chk_fail
ARM GAS  /var/folders/d2/nstgp4h54kz7g1l847x_b8wc0000gn/T//ccuafcop.s 			page 20


 1084              	.LVL96:
 1085              	.L103:
 1086              		.align	2
 1087              	.L102:
 1088 01a4 00000000 		.word	__stack_chk_guard
 1089 01a8 00000000 		.word	.LC27
 1090 01ac 74010000 		.word	.LC44
 1091 01b0 58010000 		.word	.LC43
 1092 01b4 40010000 		.word	.LC42
 1093 01b8 28010000 		.word	.LC41
 1094 01bc 10010000 		.word	.LC40
 1095 01c0 7C000000 		.word	.LC33
 1096 01c4 F4000000 		.word	.LC39
 1097 01c8 E0000000 		.word	.LC38
 1098 01cc CC000000 		.word	.LC37
 1099 01d0 B0000000 		.word	.LC36
 1100 01d4 A0000000 		.word	.LC35
 1101 01d8 94000000 		.word	.LC34
 1102 01dc 68000000 		.word	.LC32
 1103 01e0 4C000000 		.word	.LC31
 1104 01e4 3C000000 		.word	.LC30
 1105 01e8 28000000 		.word	.LC29
 1106 01ec 0C000000 		.word	.LC28
 1107 01f0 54010000 		.word	.LC20
 1108              		.cfi_endproc
 1109              	.LFE7:
 1110              		.size	VL53L0X_get_pal_error_string, .-VL53L0X_get_pal_error_string
 1111              		.section	.text.VL53L0X_get_pal_state_string,"ax",%progbits
 1112              		.align	1
 1113              		.p2align 4,,15
 1114              		.global	VL53L0X_get_pal_state_string
 1115              		.syntax unified
 1116              		.thumb
 1117              		.thumb_func
 1118              		.fpu fpv4-sp-d16
 1119              		.type	VL53L0X_get_pal_state_string, %function
 1120              	VL53L0X_get_pal_state_string:
 1121              	.LFB8:
 1122              		.loc 1 336 0
 1123              		.cfi_startproc
 1124              		@ args = 0, pretend = 0, frame = 8
 1125              		@ frame_needed = 0, uses_anonymous_args = 0
 1126              	.LVL97:
 1127 0000 70B5     		push	{r4, r5, r6, lr}
 1128              		.cfi_def_cfa_offset 16
 1129              		.cfi_offset 4, -16
 1130              		.cfi_offset 5, -12
 1131              		.cfi_offset 6, -8
 1132              		.cfi_offset 14, -4
 1133 0002 234D     		ldr	r5, .L119
 1134 0004 82B0     		sub	sp, sp, #8
 1135              		.cfi_def_cfa_offset 24
 1136              		.loc 1 336 0
 1137 0006 2B68     		ldr	r3, [r5]
 1138 0008 0193     		str	r3, [sp, #4]
 1139              	.LVL98:
 1140              		.loc 1 341 0
ARM GAS  /var/folders/d2/nstgp4h54kz7g1l847x_b8wc0000gn/T//ccuafcop.s 			page 21


 1141 000a 0228     		cmp	r0, #2
 1142              		.loc 1 336 0
 1143 000c 0C46     		mov	r4, r1
 1144              		.loc 1 341 0
 1145 000e 3BD0     		beq	.L106
 1146 0010 0AD9     		bls	.L117
 1147 0012 0428     		cmp	r0, #4
 1148 0014 36D0     		beq	.L110
 1149 0016 2CD3     		bcc	.L111
 1150 0018 6328     		cmp	r0, #99
 1151 001a 14D1     		bne	.L105
 1152              		.loc 1 367 0
 1153 001c 1D4B     		ldr	r3, .L119+4
 1154 001e 07CB     		ldmia	r3!, {r0, r1, r2}
 1155              	.LVL99:
 1156 0020 2060     		str	r0, [r4]	@ unaligned
 1157 0022 6160     		str	r1, [r4, #4]	@ unaligned
 1158 0024 A260     		str	r2, [r4, #8]	@ unaligned
 1159              		.loc 1 369 0
 1160 0026 15E0     		b	.L113
 1161              	.LVL100:
 1162              	.L117:
 1163              		.loc 1 341 0
 1164 0028 E0B1     		cbz	r0, .L108
 1165 002a 0128     		cmp	r0, #1
 1166 002c 0BD1     		bne	.L105
 1167              		.loc 1 347 0
 1168 002e 1A4E     		ldr	r6, .L119+8
 1169 0030 0FCE     		ldmia	r6!, {r0, r1, r2, r3}
 1170              	.LVL101:
 1171 0032 2060     		str	r0, [r4]	@ unaligned
 1172 0034 6160     		str	r1, [r4, #4]	@ unaligned
 1173 0036 03CE     		ldmia	r6!, {r0, r1}
 1174 0038 3688     		ldrh	r6, [r6]	@ unaligned
 1175 003a A260     		str	r2, [r4, #8]	@ unaligned
 1176 003c E360     		str	r3, [r4, #12]	@ unaligned
 1177 003e 2683     		strh	r6, [r4, #24]	@ unaligned
 1178 0040 2061     		str	r0, [r4, #16]	@ unaligned
 1179 0042 6161     		str	r1, [r4, #20]	@ unaligned
 1180              		.loc 1 349 0
 1181 0044 06E0     		b	.L113
 1182              	.LVL102:
 1183              	.L105:
 1184              		.loc 1 363 0
 1185 0046 154B     		ldr	r3, .L119+12
 1186              	.L116:
 1187              		.loc 1 359 0
 1188 0048 07CB     		ldmia	r3!, {r0, r1, r2}
 1189              	.LVL103:
 1190 004a 1B88     		ldrh	r3, [r3]	@ unaligned
 1191 004c A381     		strh	r3, [r4, #12]	@ unaligned
 1192 004e 2060     		str	r0, [r4]	@ unaligned
 1193 0050 6160     		str	r1, [r4, #4]	@ unaligned
 1194 0052 A260     		str	r2, [r4, #8]	@ unaligned
 1195              	.L113:
 1196              		.loc 1 378 0
 1197 0054 019A     		ldr	r2, [sp, #4]
ARM GAS  /var/folders/d2/nstgp4h54kz7g1l847x_b8wc0000gn/T//ccuafcop.s 			page 22


 1198 0056 2B68     		ldr	r3, [r5]
 1199 0058 9A42     		cmp	r2, r3
 1200 005a 4FF00000 		mov	r0, #0
 1201 005e 15D1     		bne	.L118
 1202 0060 02B0     		add	sp, sp, #8
 1203              		.cfi_remember_state
 1204              		.cfi_def_cfa_offset 16
 1205              		@ sp needed
 1206 0062 70BD     		pop	{r4, r5, r6, pc}
 1207              	.LVL104:
 1208              	.L108:
 1209              		.cfi_restore_state
 1210              		.loc 1 343 0
 1211 0064 0E4E     		ldr	r6, .L119+16
 1212 0066 0FCE     		ldmia	r6!, {r0, r1, r2, r3}
 1213              	.LVL105:
 1214 0068 2060     		str	r0, [r4]	@ unaligned
 1215 006a 6160     		str	r1, [r4, #4]	@ unaligned
 1216 006c A260     		str	r2, [r4, #8]	@ unaligned
 1217 006e E360     		str	r3, [r4, #12]	@ unaligned
 1218              		.loc 1 345 0
 1219 0070 F0E7     		b	.L113
 1220              	.LVL106:
 1221              	.L111:
 1222              		.loc 1 355 0
 1223 0072 0C4B     		ldr	r3, .L119+20
 1224 0074 03CB     		ldmia	r3!, {r0, r1}
 1225              	.LVL107:
 1226 0076 1A88     		ldrh	r2, [r3]	@ unaligned
 1227 0078 9B78     		ldrb	r3, [r3, #2]	@ zero_extendqisi2
 1228 007a 2060     		str	r0, [r4]	@ unaligned
 1229 007c 6160     		str	r1, [r4, #4]	@ unaligned
 1230 007e 2281     		strh	r2, [r4, #8]	@ unaligned
 1231 0080 A372     		strb	r3, [r4, #10]
 1232              		.loc 1 357 0
 1233 0082 E7E7     		b	.L113
 1234              	.LVL108:
 1235              	.L110:
 1236              		.loc 1 359 0
 1237 0084 084B     		ldr	r3, .L119+24
 1238 0086 DFE7     		b	.L116
 1239              	.L106:
 1240              		.loc 1 351 0
 1241 0088 084B     		ldr	r3, .L119+28
 1242 008a DDE7     		b	.L116
 1243              	.LVL109:
 1244              	.L118:
 1245              		.loc 1 378 0
 1246 008c FFF7FEFF 		bl	__stack_chk_fail
 1247              	.LVL110:
 1248              	.L120:
 1249              		.align	2
 1250              	.L119:
 1251 0090 00000000 		.word	__stack_chk_guard
 1252 0094 68000000 		.word	.LC51
 1253 0098 10000000 		.word	.LC46
 1254 009c 58000000 		.word	.LC50
ARM GAS  /var/folders/d2/nstgp4h54kz7g1l847x_b8wc0000gn/T//ccuafcop.s 			page 23


 1255 00a0 00000000 		.word	.LC45
 1256 00a4 3C000000 		.word	.LC48
 1257 00a8 48000000 		.word	.LC49
 1258 00ac 2C000000 		.word	.LC47
 1259              		.cfi_endproc
 1260              	.LFE8:
 1261              		.size	VL53L0X_get_pal_state_string, .-VL53L0X_get_pal_state_string
 1262              		.section	.text.VL53L0X_get_sequence_steps_info,"ax",%progbits
 1263              		.align	1
 1264              		.p2align 4,,15
 1265              		.global	VL53L0X_get_sequence_steps_info
 1266              		.syntax unified
 1267              		.thumb
 1268              		.thumb_func
 1269              		.fpu fpv4-sp-d16
 1270              		.type	VL53L0X_get_sequence_steps_info, %function
 1271              	VL53L0X_get_sequence_steps_info:
 1272              	.LFB9:
 1273              		.loc 1 383 0
 1274              		.cfi_startproc
 1275              		@ args = 0, pretend = 0, frame = 8
 1276              		@ frame_needed = 0, uses_anonymous_args = 0
 1277              	.LVL111:
 1278 0000 30B5     		push	{r4, r5, lr}
 1279              		.cfi_def_cfa_offset 12
 1280              		.cfi_offset 4, -12
 1281              		.cfi_offset 5, -8
 1282              		.cfi_offset 14, -4
 1283 0002 1B4B     		ldr	r3, .L133
 1284 0004 83B0     		sub	sp, sp, #12
 1285              		.cfi_def_cfa_offset 24
 1286              		.loc 1 383 0
 1287 0006 1A68     		ldr	r2, [r3]
 1288 0008 0192     		str	r2, [sp, #4]
 1289              	.LVL112:
 1290 000a 0C46     		mov	r4, r1
 1291              		.loc 1 387 0
 1292 000c 0428     		cmp	r0, #4
 1293 000e 2BD8     		bhi	.L130
 1294 0010 DFE800F0 		tbb	[pc, r0]
 1295              	.L124:
 1296 0014 0F       		.byte	(.L123-.L124)/2
 1297 0015 14       		.byte	(.L125-.L124)/2
 1298 0016 19       		.byte	(.L126-.L124)/2
 1299 0017 20       		.byte	(.L127-.L124)/2
 1300 0018 03       		.byte	(.L128-.L124)/2
 1301 0019 00       		.p2align 1
 1302              	.L128:
 1303              		.loc 1 405 0
 1304 001a 164D     		ldr	r5, .L133+4
 1305 001c 07CD     		ldmia	r5!, {r0, r1, r2}
 1306              	.LVL113:
 1307 001e 2060     		str	r0, [r4]	@ unaligned
 1308 0020 6160     		str	r1, [r4, #4]	@ unaligned
 1309 0022 A260     		str	r2, [r4, #8]	@ unaligned
 1310              		.loc 1 384 0
 1311 0024 0020     		movs	r0, #0
ARM GAS  /var/folders/d2/nstgp4h54kz7g1l847x_b8wc0000gn/T//ccuafcop.s 			page 24


 1312              	.L122:
 1313              	.LVL114:
 1314              		.loc 1 416 0
 1315 0026 019A     		ldr	r2, [sp, #4]
 1316 0028 1B68     		ldr	r3, [r3]
 1317 002a 9A42     		cmp	r2, r3
 1318 002c 1AD1     		bne	.L132
 1319 002e 03B0     		add	sp, sp, #12
 1320              		.cfi_remember_state
 1321              		.cfi_def_cfa_offset 12
 1322              		@ sp needed
 1323 0030 30BD     		pop	{r4, r5, pc}
 1324              	.LVL115:
 1325              	.L123:
 1326              		.cfi_restore_state
 1327              		.loc 1 389 0
 1328 0032 114A     		ldr	r2, .L133+8
 1329 0034 1068     		ldr	r0, [r2]
 1330              	.LVL116:
 1331 0036 0860     		str	r0, [r1]	@ unaligned
 1332              		.loc 1 384 0
 1333 0038 0020     		movs	r0, #0
 1334              		.loc 1 391 0
 1335 003a F4E7     		b	.L122
 1336              	.LVL117:
 1337              	.L125:
 1338              		.loc 1 393 0
 1339 003c 0F4A     		ldr	r2, .L133+12
 1340 003e 1068     		ldr	r0, [r2]
 1341              	.LVL118:
 1342 0040 0860     		str	r0, [r1]	@ unaligned
 1343              		.loc 1 384 0
 1344 0042 0020     		movs	r0, #0
 1345              		.loc 1 395 0
 1346 0044 EFE7     		b	.L122
 1347              	.LVL119:
 1348              	.L126:
 1349              		.loc 1 397 0
 1350 0046 0E4A     		ldr	r2, .L133+16
 1351 0048 1068     		ldr	r0, [r2]
 1352              	.LVL120:
 1353 004a 1279     		ldrb	r2, [r2, #4]	@ zero_extendqisi2
 1354 004c 0860     		str	r0, [r1]	@ unaligned
 1355 004e 0A71     		strb	r2, [r1, #4]
 1356              		.loc 1 384 0
 1357 0050 0020     		movs	r0, #0
 1358              		.loc 1 399 0
 1359 0052 E8E7     		b	.L122
 1360              	.LVL121:
 1361              	.L127:
 1362              		.loc 1 401 0
 1363 0054 0B4A     		ldr	r2, .L133+20
 1364 0056 03CA     		ldmia	r2!, {r0, r1}
 1365              	.LVL122:
 1366 0058 1288     		ldrh	r2, [r2]	@ unaligned
 1367 005a 2060     		str	r0, [r4]	@ unaligned
 1368 005c 2281     		strh	r2, [r4, #8]	@ unaligned
ARM GAS  /var/folders/d2/nstgp4h54kz7g1l847x_b8wc0000gn/T//ccuafcop.s 			page 25


 1369 005e 6160     		str	r1, [r4, #4]	@ unaligned
 1370              		.loc 1 384 0
 1371 0060 0020     		movs	r0, #0
 1372              		.loc 1 403 0
 1373 0062 E0E7     		b	.L122
 1374              	.LVL123:
 1375              	.L132:
 1376              		.loc 1 416 0
 1377 0064 FFF7FEFF 		bl	__stack_chk_fail
 1378              	.LVL124:
 1379              	.L130:
 1380              		.loc 1 410 0
 1381 0068 6FF00300 		mvn	r0, #3
 1382              	.LVL125:
 1383 006c DBE7     		b	.L122
 1384              	.L134:
 1385 006e 00BF     		.align	2
 1386              	.L133:
 1387 0070 00000000 		.word	__stack_chk_guard
 1388 0074 1C000000 		.word	.LC56
 1389 0078 00000000 		.word	.LC52
 1390 007c 04000000 		.word	.LC53
 1391 0080 08000000 		.word	.LC54
 1392 0084 10000000 		.word	.LC55
 1393              		.cfi_endproc
 1394              	.LFE9:
 1395              		.size	VL53L0X_get_sequence_steps_info, .-VL53L0X_get_sequence_steps_info
 1396              		.section	.text.VL53L0X_get_limit_check_info,"ax",%progbits
 1397              		.align	1
 1398              		.p2align 4,,15
 1399              		.global	VL53L0X_get_limit_check_info
 1400              		.syntax unified
 1401              		.thumb
 1402              		.thumb_func
 1403              		.fpu fpv4-sp-d16
 1404              		.type	VL53L0X_get_limit_check_info, %function
 1405              	VL53L0X_get_limit_check_info:
 1406              	.LFB10:
 1407              		.loc 1 421 0
 1408              		.cfi_startproc
 1409              		@ args = 0, pretend = 0, frame = 8
 1410              		@ frame_needed = 0, uses_anonymous_args = 0
 1411              	.LVL126:
 1412 0000 F0B5     		push	{r4, r5, r6, r7, lr}
 1413              		.cfi_def_cfa_offset 20
 1414              		.cfi_offset 4, -20
 1415              		.cfi_offset 5, -16
 1416              		.cfi_offset 6, -12
 1417              		.cfi_offset 7, -8
 1418              		.cfi_offset 14, -4
 1419 0002 2D4D     		ldr	r5, .L148
 1420 0004 83B0     		sub	sp, sp, #12
 1421              		.cfi_def_cfa_offset 32
 1422              		.loc 1 421 0
 1423 0006 2B68     		ldr	r3, [r5]
 1424 0008 0193     		str	r3, [sp, #4]
 1425              	.LVL127:
ARM GAS  /var/folders/d2/nstgp4h54kz7g1l847x_b8wc0000gn/T//ccuafcop.s 			page 26


 1426 000a 1446     		mov	r4, r2
 1427              		.loc 1 427 0
 1428 000c 0529     		cmp	r1, #5
 1429 000e 46D8     		bhi	.L136
 1430 0010 DFE801F0 		tbb	[pc, r1]
 1431              	.L138:
 1432 0014 15       		.byte	(.L137-.L138)/2
 1433 0015 1E       		.byte	(.L139-.L138)/2
 1434 0016 28       		.byte	(.L140-.L138)/2
 1435 0017 2F       		.byte	(.L141-.L138)/2
 1436 0018 3C       		.byte	(.L142-.L138)/2
 1437 0019 03       		.byte	(.L143-.L138)/2
 1438              		.p2align 1
 1439              	.L143:
 1440              		.loc 1 451 0
 1441 001a 284E     		ldr	r6, .L148+4
 1442 001c 0FCE     		ldmia	r6!, {r0, r1, r2, r3}
 1443              	.LVL128:
 1444 001e 2060     		str	r0, [r4]	@ unaligned
 1445 0020 B788     		ldrh	r7, [r6, #4]	@ unaligned
 1446 0022 3068     		ldr	r0, [r6]
 1447 0024 6160     		str	r1, [r4, #4]	@ unaligned
 1448 0026 A260     		str	r2, [r4, #8]	@ unaligned
 1449 0028 E360     		str	r3, [r4, #12]	@ unaligned
 1450 002a 2061     		str	r0, [r4, #16]	@ unaligned
 1451 002c A782     		strh	r7, [r4, #20]	@ unaligned
 1452              	.L144:
 1453              		.loc 1 463 0
 1454 002e 019A     		ldr	r2, [sp, #4]
 1455 0030 2B68     		ldr	r3, [r5]
 1456 0032 9A42     		cmp	r2, r3
 1457 0034 4FF00000 		mov	r0, #0
 1458 0038 3CD1     		bne	.L147
 1459 003a 03B0     		add	sp, sp, #12
 1460              		.cfi_remember_state
 1461              		.cfi_def_cfa_offset 20
 1462              		@ sp needed
 1463 003c F0BD     		pop	{r4, r5, r6, r7, pc}
 1464              	.LVL129:
 1465              	.L137:
 1466              		.cfi_restore_state
 1467              		.loc 1 429 0
 1468 003e 204E     		ldr	r6, .L148+8
 1469 0040 0FCE     		ldmia	r6!, {r0, r1, r2, r3}
 1470              	.LVL130:
 1471 0042 3688     		ldrh	r6, [r6]	@ unaligned
 1472 0044 2682     		strh	r6, [r4, #16]	@ unaligned
 1473 0046 2060     		str	r0, [r4]	@ unaligned
 1474 0048 6160     		str	r1, [r4, #4]	@ unaligned
 1475 004a A260     		str	r2, [r4, #8]	@ unaligned
 1476 004c E360     		str	r3, [r4, #12]	@ unaligned
 1477              		.loc 1 431 0
 1478 004e EEE7     		b	.L144
 1479              	.LVL131:
 1480              	.L139:
 1481              		.loc 1 433 0
 1482 0050 1C4E     		ldr	r6, .L148+12
ARM GAS  /var/folders/d2/nstgp4h54kz7g1l847x_b8wc0000gn/T//ccuafcop.s 			page 27


 1483 0052 0FCE     		ldmia	r6!, {r0, r1, r2, r3}
 1484              	.LVL132:
 1485 0054 2060     		str	r0, [r4]	@ unaligned
 1486 0056 6160     		str	r1, [r4, #4]	@ unaligned
 1487 0058 03CE     		ldmia	r6!, {r0, r1}
 1488 005a A260     		str	r2, [r4, #8]	@ unaligned
 1489 005c E360     		str	r3, [r4, #12]	@ unaligned
 1490 005e 2061     		str	r0, [r4, #16]	@ unaligned
 1491 0060 6161     		str	r1, [r4, #20]	@ unaligned
 1492              		.loc 1 435 0
 1493 0062 E4E7     		b	.L144
 1494              	.LVL133:
 1495              	.L140:
 1496              		.loc 1 437 0
 1497 0064 184E     		ldr	r6, .L148+16
 1498 0066 0FCE     		ldmia	r6!, {r0, r1, r2, r3}
 1499              	.LVL134:
 1500 0068 2060     		str	r0, [r4]	@ unaligned
 1501 006a 6160     		str	r1, [r4, #4]	@ unaligned
 1502 006c A260     		str	r2, [r4, #8]	@ unaligned
 1503 006e E360     		str	r3, [r4, #12]	@ unaligned
 1504              		.loc 1 439 0
 1505 0070 DDE7     		b	.L144
 1506              	.LVL135:
 1507              	.L141:
 1508              		.loc 1 441 0
 1509 0072 164E     		ldr	r6, .L148+20
 1510 0074 0FCE     		ldmia	r6!, {r0, r1, r2, r3}
 1511              	.LVL136:
 1512 0076 B788     		ldrh	r7, [r6, #4]	@ unaligned
 1513 0078 2060     		str	r0, [r4]	@ unaligned
 1514 007a 3068     		ldr	r0, [r6]
 1515 007c B679     		ldrb	r6, [r6, #6]	@ zero_extendqisi2
 1516 007e 6160     		str	r1, [r4, #4]	@ unaligned
 1517 0080 A260     		str	r2, [r4, #8]	@ unaligned
 1518 0082 E360     		str	r3, [r4, #12]	@ unaligned
 1519 0084 2061     		str	r0, [r4, #16]	@ unaligned
 1520 0086 A782     		strh	r7, [r4, #20]	@ unaligned
 1521 0088 A675     		strb	r6, [r4, #22]
 1522              		.loc 1 443 0
 1523 008a D0E7     		b	.L144
 1524              	.LVL137:
 1525              	.L142:
 1526              		.loc 1 446 0
 1527 008c 104E     		ldr	r6, .L148+24
 1528 008e 0FCE     		ldmia	r6!, {r0, r1, r2, r3}
 1529              	.LVL138:
 1530 0090 3678     		ldrb	r6, [r6]	@ zero_extendqisi2
 1531 0092 2674     		strb	r6, [r4, #16]
 1532 0094 2060     		str	r0, [r4]	@ unaligned
 1533 0096 6160     		str	r1, [r4, #4]	@ unaligned
 1534 0098 A260     		str	r2, [r4, #8]	@ unaligned
 1535 009a E360     		str	r3, [r4, #12]	@ unaligned
 1536              		.loc 1 448 0
 1537 009c C7E7     		b	.L144
 1538              	.LVL139:
 1539              	.L136:
ARM GAS  /var/folders/d2/nstgp4h54kz7g1l847x_b8wc0000gn/T//ccuafcop.s 			page 28


 1540              		.loc 1 456 0
 1541 009e 0D4E     		ldr	r6, .L148+28
 1542 00a0 0FCE     		ldmia	r6!, {r0, r1, r2, r3}
 1543              	.LVL140:
 1544 00a2 3788     		ldrh	r7, [r6]	@ unaligned
 1545 00a4 B678     		ldrb	r6, [r6, #2]	@ zero_extendqisi2
 1546 00a6 2060     		str	r0, [r4]	@ unaligned
 1547 00a8 6160     		str	r1, [r4, #4]	@ unaligned
 1548 00aa A260     		str	r2, [r4, #8]	@ unaligned
 1549 00ac E360     		str	r3, [r4, #12]	@ unaligned
 1550 00ae 2782     		strh	r7, [r4, #16]	@ unaligned
 1551 00b0 A674     		strb	r6, [r4, #18]
 1552 00b2 BCE7     		b	.L144
 1553              	.L147:
 1554              		.loc 1 463 0
 1555 00b4 FFF7FEFF 		bl	__stack_chk_fail
 1556              	.LVL141:
 1557              	.L149:
 1558              		.align	2
 1559              	.L148:
 1560 00b8 00000000 		.word	__stack_chk_guard
 1561 00bc 68000000 		.word	.LC62
 1562 00c0 00000000 		.word	.LC57
 1563 00c4 14000000 		.word	.LC58
 1564 00c8 2C000000 		.word	.LC59
 1565 00cc 3C000000 		.word	.LC60
 1566 00d0 54000000 		.word	.LC61
 1567 00d4 54010000 		.word	.LC20
 1568              		.cfi_endproc
 1569              	.LFE10:
 1570              		.size	VL53L0X_get_limit_check_info, .-VL53L0X_get_limit_check_info
 1571              		.section	.rodata.VL53L0X_get_device_error_string.str1.4,"aMS",%progbits,1
 1572              		.align	2
 1573              	.LC5:
 1574 0000 4E6F2055 		.ascii	"No Update\000"
 1574      70646174 
 1574      6500
 1575 000a 0000     		.space	2
 1576              	.LC6:
 1577 000c 56435345 		.ascii	"VCSEL Continuity Test Failure\000"
 1577      4C20436F 
 1577      6E74696E 
 1577      75697479 
 1577      20546573 
 1578 002a 0000     		.space	2
 1579              	.LC7:
 1580 002c 56435345 		.ascii	"VCSEL Watchdog Test Failure\000"
 1580      4C205761 
 1580      74636864 
 1580      6F672054 
 1580      65737420 
 1581              	.LC8:
 1582 0048 4E6F2056 		.ascii	"No VHV Value found\000"
 1582      48562056 
 1582      616C7565 
 1582      20666F75 
 1582      6E6400
ARM GAS  /var/folders/d2/nstgp4h54kz7g1l847x_b8wc0000gn/T//ccuafcop.s 			page 29


 1583 005b 00       		.space	1
 1584              	.LC9:
 1585 005c 4D535243 		.ascii	"MSRC No Target Error\000"
 1585      204E6F20 
 1585      54617267 
 1585      65742045 
 1585      72726F72 
 1586 0071 000000   		.space	3
 1587              	.LC10:
 1588 0074 534E5220 		.ascii	"SNR Check Exit\000"
 1588      43686563 
 1588      6B204578 
 1588      697400
 1589 0083 00       		.space	1
 1590              	.LC11:
 1591 0084 52616E67 		.ascii	"Range Phase Check Error\000"
 1591      65205068 
 1591      61736520 
 1591      43686563 
 1591      6B204572 
 1592              	.LC12:
 1593 009c 5369676D 		.ascii	"Sigma Threshold Check Error\000"
 1593      61205468 
 1593      72657368 
 1593      6F6C6420 
 1593      43686563 
 1594              	.LC13:
 1595 00b8 54434320 		.ascii	"TCC Error\000"
 1595      4572726F 
 1595      7200
 1596 00c2 0000     		.space	2
 1597              	.LC14:
 1598 00c4 50686173 		.ascii	"Phase Consistency Error\000"
 1598      6520436F 
 1598      6E736973 
 1598      74656E63 
 1598      79204572 
 1599              	.LC15:
 1600 00dc 4D696E20 		.ascii	"Min Clip Error\000"
 1600      436C6970 
 1600      20457272 
 1600      6F7200
 1601 00eb 00       		.space	1
 1602              	.LC16:
 1603 00ec 52616E67 		.ascii	"Range Complete\000"
 1603      6520436F 
 1603      6D706C65 
 1603      746500
 1604 00fb 00       		.space	1
 1605              	.LC17:
 1606 00fc 52616E67 		.ascii	"Range Algo Underflow Error\000"
 1606      6520416C 
 1606      676F2055 
 1606      6E646572 
 1606      666C6F77 
 1607 0117 00       		.space	1
 1608              	.LC18:
ARM GAS  /var/folders/d2/nstgp4h54kz7g1l847x_b8wc0000gn/T//ccuafcop.s 			page 30


 1609 0118 52616E67 		.ascii	"Range Algo Overlow Error\000"
 1609      6520416C 
 1609      676F204F 
 1609      7665726C 
 1609      6F772045 
 1610 0131 000000   		.space	3
 1611              	.LC19:
 1612 0134 52616E67 		.ascii	"Range Ignore Threshold Error\000"
 1612      65204967 
 1612      6E6F7265 
 1612      20546872 
 1612      6573686F 
 1613 0151 000000   		.space	3
 1614              	.LC20:
 1615 0154 556E6B6E 		.ascii	"Unknown Error Code\000"
 1615      6F776E20 
 1615      4572726F 
 1615      7220436F 
 1615      646500
 1616              		.section	.rodata.VL53L0X_get_device_info.str1.4,"aMS",%progbits,1
 1617              		.align	2
 1618              	.LC0:
 1619 0000 564C3533 		.ascii	"VL53L0X TS0\000"
 1619      4C305820 
 1619      54533000 
 1620              	.LC1:
 1621 000c 564C3533 		.ascii	"VL53L0X TS1\000"
 1621      4C305820 
 1621      54533100 
 1622              	.LC2:
 1623 0018 564C3533 		.ascii	"VL53L0X TS2\000"
 1623      4C305820 
 1623      54533200 
 1624              	.LC3:
 1625 0024 564C3533 		.ascii	"VL53L0X ES1 or later\000"
 1625      4C305820 
 1625      45533120 
 1625      6F72206C 
 1625      61746572 
 1626 0039 000000   		.space	3
 1627              	.LC4:
 1628 003c 564C3533 		.ascii	"VL53L0X\000"
 1628      4C305800 
 1629              		.section	.rodata.VL53L0X_get_limit_check_info.str1.4,"aMS",%progbits,1
 1630              		.align	2
 1631              	.LC57:
 1632 0000 5349474D 		.ascii	"SIGMA FINAL RANGE\000"
 1632      41204649 
 1632      4E414C20 
 1632      52414E47 
 1632      4500
 1633 0012 0000     		.space	2
 1634              	.LC58:
 1635 0014 5349474E 		.ascii	"SIGNAL RATE FINAL RANGE\000"
 1635      414C2052 
 1635      41544520 
 1635      46494E41 
ARM GAS  /var/folders/d2/nstgp4h54kz7g1l847x_b8wc0000gn/T//ccuafcop.s 			page 31


 1635      4C205241 
 1636              	.LC59:
 1637 002c 5349474E 		.ascii	"SIGNAL REF CLIP\000"
 1637      414C2052 
 1637      45462043 
 1637      4C495000 
 1638              	.LC60:
 1639 003c 52414E47 		.ascii	"RANGE IGNORE THRESHOLD\000"
 1639      45204947 
 1639      4E4F5245 
 1639      20544852 
 1639      4553484F 
 1640 0053 00       		.space	1
 1641              	.LC61:
 1642 0054 5349474E 		.ascii	"SIGNAL RATE MSRC\000"
 1642      414C2052 
 1642      41544520 
 1642      4D535243 
 1642      00
 1643 0065 000000   		.space	3
 1644              	.LC62:
 1645 0068 5349474E 		.ascii	"SIGNAL RATE PRE RANGE\000"
 1645      414C2052 
 1645      41544520 
 1645      50524520 
 1645      52414E47 
 1646              		.section	.rodata.VL53L0X_get_pal_error_string.str1.4,"aMS",%progbits,1
 1647              		.align	2
 1648              	.LC27:
 1649 0000 4E6F2045 		.ascii	"No Error\000"
 1649      72726F72 
 1649      00
 1650 0009 000000   		.space	3
 1651              	.LC28:
 1652 000c 43616C69 		.ascii	"Calibration Warning Error\000"
 1652      62726174 
 1652      696F6E20 
 1652      5761726E 
 1652      696E6720 
 1653 0026 0000     		.space	2
 1654              	.LC29:
 1655 0028 4D696E20 		.ascii	"Min clipped error\000"
 1655      636C6970 
 1655      70656420 
 1655      6572726F 
 1655      7200
 1656 003a 0000     		.space	2
 1657              	.LC30:
 1658 003c 556E6465 		.ascii	"Undefined error\000"
 1658      66696E65 
 1658      64206572 
 1658      726F7200 
 1659              	.LC31:
 1660 004c 496E7661 		.ascii	"Invalid parameters error\000"
 1660      6C696420 
 1660      70617261 
 1660      6D657465 
ARM GAS  /var/folders/d2/nstgp4h54kz7g1l847x_b8wc0000gn/T//ccuafcop.s 			page 32


 1660      72732065 
 1661 0065 000000   		.space	3
 1662              	.LC32:
 1663 0068 4E6F7420 		.ascii	"Not supported error\000"
 1663      73757070 
 1663      6F727465 
 1663      64206572 
 1663      726F7200 
 1664              	.LC33:
 1665 007c 496E7465 		.ascii	"Interrupt not Cleared\000"
 1665      72727570 
 1665      74206E6F 
 1665      7420436C 
 1665      65617265 
 1666 0092 0000     		.space	2
 1667              	.LC34:
 1668 0094 52616E67 		.ascii	"Range error\000"
 1668      65206572 
 1668      726F7200 
 1669              	.LC35:
 1670 00a0 54696D65 		.ascii	"Time out error\000"
 1670      206F7574 
 1670      20657272 
 1670      6F7200
 1671 00af 00       		.space	1
 1672              	.LC36:
 1673 00b0 4D6F6465 		.ascii	"Mode not supported error\000"
 1673      206E6F74 
 1673      20737570 
 1673      706F7274 
 1673      65642065 
 1674 00c9 000000   		.space	3
 1675              	.LC37:
 1676 00cc 42756666 		.ascii	"Buffer too small\000"
 1676      65722074 
 1676      6F6F2073 
 1676      6D616C6C 
 1676      00
 1677 00dd 000000   		.space	3
 1678              	.LC38:
 1679 00e0 4750494F 		.ascii	"GPIO not existing\000"
 1679      206E6F74 
 1679      20657869 
 1679      7374696E 
 1679      6700
 1680 00f2 0000     		.space	2
 1681              	.LC39:
 1682 00f4 4750494F 		.ascii	"GPIO funct not supported\000"
 1682      2066756E 
 1682      6374206E 
 1682      6F742073 
 1682      7570706F 
 1683 010d 000000   		.space	3
 1684              	.LC40:
 1685 0110 436F6E74 		.ascii	"Control Interface Error\000"
 1685      726F6C20 
 1685      496E7465 
ARM GAS  /var/folders/d2/nstgp4h54kz7g1l847x_b8wc0000gn/T//ccuafcop.s 			page 33


 1685      72666163 
 1685      65204572 
 1686              	.LC41:
 1687 0128 496E7661 		.ascii	"Invalid Command Error\000"
 1687      6C696420 
 1687      436F6D6D 
 1687      616E6420 
 1687      4572726F 
 1688 013e 0000     		.space	2
 1689              	.LC42:
 1690 0140 44697669 		.ascii	"Division by zero Error\000"
 1690      73696F6E 
 1690      20627920 
 1690      7A65726F 
 1690      20457272 
 1691 0157 00       		.space	1
 1692              	.LC43:
 1693 0158 52656665 		.ascii	"Reference Spad Init Error\000"
 1693      72656E63 
 1693      65205370 
 1693      61642049 
 1693      6E697420 
 1694 0172 0000     		.space	2
 1695              	.LC44:
 1696 0174 4E6F7420 		.ascii	"Not implemented error\000"
 1696      696D706C 
 1696      656D656E 
 1696      74656420 
 1696      6572726F 
 1697              		.section	.rodata.VL53L0X_get_pal_state_string.str1.4,"aMS",%progbits,1
 1698              		.align	2
 1699              	.LC45:
 1700 0000 504F5745 		.ascii	"POWERDOWN State\000"
 1700      52444F57 
 1700      4E205374 
 1700      61746500 
 1701              	.LC46:
 1702 0010 57616974 		.ascii	"Wait for staticinit State\000"
 1702      20666F72 
 1702      20737461 
 1702      74696369 
 1702      6E697420 
 1703 002a 0000     		.space	2
 1704              	.LC47:
 1705 002c 5354414E 		.ascii	"STANDBY State\000"
 1705      44425920 
 1705      53746174 
 1705      6500
 1706 003a 0000     		.space	2
 1707              	.LC48:
 1708 003c 49444C45 		.ascii	"IDLE State\000"
 1708      20537461 
 1708      746500
 1709 0047 00       		.space	1
 1710              	.LC49:
 1711 0048 52554E4E 		.ascii	"RUNNING State\000"
 1711      494E4720 
ARM GAS  /var/folders/d2/nstgp4h54kz7g1l847x_b8wc0000gn/T//ccuafcop.s 			page 34


 1711      53746174 
 1711      6500
 1712 0056 0000     		.space	2
 1713              	.LC50:
 1714 0058 554E4B4E 		.ascii	"UNKNOWN State\000"
 1714      4F574E20 
 1714      53746174 
 1714      6500
 1715 0066 0000     		.space	2
 1716              	.LC51:
 1717 0068 4552524F 		.ascii	"ERROR State\000"
 1717      52205374 
 1717      61746500 
 1718              		.section	.rodata.VL53L0X_get_range_status_string.str1.4,"aMS",%progbits,1
 1719              		.align	2
 1720              	.LC21:
 1721 0000 52616E67 		.ascii	"Range Valid\000"
 1721      65205661 
 1721      6C696400 
 1722              	.LC22:
 1723 000c 5369676D 		.ascii	"Sigma Fail\000"
 1723      61204661 
 1723      696C00
 1724 0017 00       		.space	1
 1725              	.LC23:
 1726 0018 5369676E 		.ascii	"Signal Fail\000"
 1726      616C2046 
 1726      61696C00 
 1727              	.LC24:
 1728 0024 4D696E20 		.ascii	"Min Range Fail\000"
 1728      52616E67 
 1728      65204661 
 1728      696C00
 1729 0033 00       		.space	1
 1730              	.LC25:
 1731 0034 50686173 		.ascii	"Phase Fail\000"
 1731      65204661 
 1731      696C00
 1732 003f 00       		.space	1
 1733              	.LC26:
 1734 0040 48617264 		.ascii	"Hardware Fail\000"
 1734      77617265 
 1734      20466169 
 1734      6C00
 1735              		.section	.rodata.VL53L0X_get_sequence_steps_info.str1.4,"aMS",%progbits,1
 1736              		.align	2
 1737              	.LC52:
 1738 0000 54434300 		.ascii	"TCC\000"
 1739              	.LC53:
 1740 0004 44535300 		.ascii	"DSS\000"
 1741              	.LC54:
 1742 0008 4D535243 		.ascii	"MSRC\000"
 1742      00
 1743 000d 000000   		.space	3
 1744              	.LC55:
 1745 0010 50524520 		.ascii	"PRE RANGE\000"
 1745      52414E47 
ARM GAS  /var/folders/d2/nstgp4h54kz7g1l847x_b8wc0000gn/T//ccuafcop.s 			page 35


 1745      4500
 1746 001a 0000     		.space	2
 1747              	.LC56:
 1748 001c 46494E41 		.ascii	"FINAL RANGE\000"
 1748      4C205241 
 1748      4E474500 
 1749              		.text
 1750              	.Letext0:
 1751              		.file 2 "/Applications/Eclipse_e-puck2.app/Contents/Eclipse_e-puck2/Tools/gcc-arm-none-eabi-7-2017
 1752              		.file 3 "/Applications/Eclipse_e-puck2.app/Contents/Eclipse_e-puck2/Tools/gcc-arm-none-eabi-7-2017
 1753              		.file 4 "../e-puck2_main-processor/src/sensors/VL53L0X/Api/core/src/../inc/vl53l0x_types.h"
 1754              		.file 5 "../e-puck2_main-processor/src/sensors/VL53L0X/Api/core/src/../inc/vl53l0x_device.h"
 1755              		.file 6 "../e-puck2_main-processor/src/sensors/VL53L0X/Api/core/src/../inc/vl53l0x_def.h"
 1756              		.file 7 "/Applications/Eclipse_e-puck2.app/Contents/Eclipse_e-puck2/Tools/gcc-arm-none-eabi-7-2017
 1757              		.file 8 "/Applications/Eclipse_e-puck2.app/Contents/Eclipse_e-puck2/Tools/gcc-arm-none-eabi-7-2017
 1758              		.file 9 "/Applications/Eclipse_e-puck2.app/Contents/Eclipse_e-puck2/Tools/gcc-arm-none-eabi-7-2017
 1759              		.file 10 "/Applications/Eclipse_e-puck2.app/Contents/Eclipse_e-puck2/Tools/gcc-arm-none-eabi-7-201
 1760              		.file 11 "../e-puck2_main-processor/src/sensors/VL53L0X/Api/core/src/../inc/../../platform/inc/vl5
 1761              		.file 12 "/Applications/Eclipse_e-puck2.app/Contents/Eclipse_e-puck2/Tools/gcc-arm-none-eabi-7-201
 1762              		.file 13 "../e-puck2_main-processor/src/sensors/VL53L0X/Api/core/src/../inc/vl53l0x_api_core.h"
 1763              		.file 14 "/Applications/Eclipse_e-puck2.app/Contents/Eclipse_e-puck2/Tools/gcc-arm-none-eabi-7-201