ARM GAS  /var/folders/d2/nstgp4h54kz7g1l847x_b8wc0000gn/T//ccf4JSA8.s 			page 1


   1              		.cpu cortex-m4
   2              		.eabi_attribute 27, 1
   3              		.eabi_attribute 28, 1
   4              		.eabi_attribute 20, 1
   5              		.eabi_attribute 21, 1
   6              		.eabi_attribute 23, 3
   7              		.eabi_attribute 24, 1
   8              		.eabi_attribute 25, 1
   9              		.eabi_attribute 26, 1
  10              		.eabi_attribute 30, 2
  11              		.eabi_attribute 34, 1
  12              		.eabi_attribute 18, 4
  13              		.file	"vm-buffer.c"
  14              		.text
  15              	.Ltext0:
  16              		.cfi_sections	.debug_frame
  17              		.section	.text.buffer_add_string,"ax",%progbits
  18              		.align	1
  19              		.p2align 4,,15
  20              		.syntax unified
  21              		.thumb
  22              		.thumb_func
  23              		.fpu fpv4-sp-d16
  24              		.type	buffer_add_string, %function
  25              	buffer_add_string:
  26              	.LFB5:
  27              		.file 1 "../e-puck2_main-processor/aseba/transport/buffer/vm-buffer.c"
  28              		.loc 1 63 0
  29              		.cfi_startproc
  30              		@ args = 0, pretend = 0, frame = 8
  31              		@ frame_needed = 0, uses_anonymous_args = 0
  32              	.LVL0:
  33 0000 F0B5     		push	{r4, r5, r6, r7, lr}
  34              		.cfi_def_cfa_offset 20
  35              		.cfi_offset 4, -20
  36              		.cfi_offset 5, -16
  37              		.cfi_offset 6, -12
  38              		.cfi_offset 7, -8
  39              		.cfi_offset 14, -4
  40 0002 114E     		ldr	r6, .L12
  41              	.LBB93:
  42              	.LBB94:
  43              	.LBB95:
  44              		.loc 1 41 0
  45 0004 114D     		ldr	r5, .L12+4
  46              	.LBE95:
  47              	.LBE94:
  48              	.LBE93:
  49              		.loc 1 63 0
  50 0006 3368     		ldr	r3, [r6]
  51 0008 83B0     		sub	sp, sp, #12
  52              		.cfi_def_cfa_offset 32
  53              		.loc 1 63 0
  54 000a 0446     		mov	r4, r0
  55 000c 0193     		str	r3, [sp, #4]
  56              		.loc 1 64 0
  57 000e FFF7FEFF 		bl	strlen
ARM GAS  /var/folders/d2/nstgp4h54kz7g1l847x_b8wc0000gn/T//ccf4JSA8.s 			page 2


  58              	.LVL1:
  59              	.LBB100:
  60              	.LBB98:
  61              	.LBB96:
  62              		.loc 1 41 0
  63 0012 2968     		ldr	r1, [r5]
  64 0014 0E4A     		ldr	r2, .L12+8
  65              	.LBE96:
  66              	.LBE98:
  67              	.LBE100:
  68              		.loc 1 65 0
  69 0016 5054     		strb	r0, [r2, r1]
  70              		.loc 1 66 0
  71 0018 2378     		ldrb	r3, [r4]	@ zero_extendqisi2
  72              	.LBB101:
  73              	.LBB99:
  74              	.LBB97:
  75              		.loc 1 41 0
  76 001a 4F1C     		adds	r7, r1, #1
  77 001c 2F60     		str	r7, [r5]
  78              	.LBE97:
  79              	.LBE99:
  80              	.LBE101:
  81              		.loc 1 66 0
  82 001e 5BB1     		cbz	r3, .L1
  83 0020 0231     		adds	r1, r1, #2
  84 0022 2046     		mov	r0, r4
  85              	.LVL2:
  86 0024 091B     		subs	r1, r1, r4
  87              	.LVL3:
  88 0026 3A44     		add	r2, r2, r7
  89              	.LVL4:
  90              	.L3:
  91              	.LBB102:
  92              	.LBB103:
  93              	.LBB104:
  94              		.loc 1 41 0
  95 0028 02F8013B 		strb	r3, [r2], #1
  96 002c 0C18     		adds	r4, r1, r0
  97              	.LBE104:
  98              	.LBE103:
  99              	.LBE102:
 100              		.loc 1 66 0
 101 002e 10F8013F 		ldrb	r3, [r0, #1]!	@ zero_extendqisi2
 102              	.LVL5:
 103 0032 002B     		cmp	r3, #0
 104 0034 F8D1     		bne	.L3
 105 0036 2C60     		str	r4, [r5]
 106              	.LVL6:
 107              	.L1:
 108              		.loc 1 68 0
 109 0038 019A     		ldr	r2, [sp, #4]
 110 003a 3368     		ldr	r3, [r6]
 111 003c 9A42     		cmp	r2, r3
 112 003e 01D1     		bne	.L11
 113 0040 03B0     		add	sp, sp, #12
 114              		.cfi_remember_state
ARM GAS  /var/folders/d2/nstgp4h54kz7g1l847x_b8wc0000gn/T//ccf4JSA8.s 			page 3


 115              		.cfi_def_cfa_offset 20
 116              		@ sp needed
 117 0042 F0BD     		pop	{r4, r5, r6, r7, pc}
 118              	.L11:
 119              		.cfi_restore_state
 120 0044 FFF7FEFF 		bl	__stack_chk_fail
 121              	.LVL7:
 122              	.L13:
 123              		.align	2
 124              	.L12:
 125 0048 00000000 		.word	__stack_chk_guard
 126 004c 00000000 		.word	.LANCHOR0
 127 0050 00000000 		.word	.LANCHOR1
 128              		.cfi_endproc
 129              	.LFE5:
 130              		.size	buffer_add_string, .-buffer_add_string
 131              		.section	.text.AsebaSendMessage,"ax",%progbits
 132              		.align	1
 133              		.p2align 4,,15
 134              		.global	AsebaSendMessage
 135              		.syntax unified
 136              		.thumb
 137              		.thumb_func
 138              		.fpu fpv4-sp-d16
 139              		.type	AsebaSendMessage, %function
 140              	AsebaSendMessage:
 141              	.LFB6:
 142              		.loc 1 73 0
 143              		.cfi_startproc
 144              		@ args = 0, pretend = 0, frame = 8
 145              		@ frame_needed = 0, uses_anonymous_args = 0
 146              	.LVL8:
 147 0000 F0B5     		push	{r4, r5, r6, r7, lr}
 148              		.cfi_def_cfa_offset 20
 149              		.cfi_offset 4, -20
 150              		.cfi_offset 5, -16
 151              		.cfi_offset 6, -12
 152              		.cfi_offset 7, -8
 153              		.cfi_offset 14, -4
 154 0002 164F     		ldr	r7, .L23
 155              	.LBB105:
 156              	.LBB106:
 157              	.LBB107:
 158              	.LBB108:
 159              		.loc 1 41 0
 160 0004 164C     		ldr	r4, .L23+4
 161              	.LBE108:
 162              	.LBE107:
 163              	.LBE106:
 164              	.LBE105:
 165              		.loc 1 73 0
 166 0006 3D68     		ldr	r5, [r7]
 167              	.LBB118:
 168              	.LBB115:
 169              	.LBB112:
 170              	.LBB109:
 171              		.loc 1 41 0
ARM GAS  /var/folders/d2/nstgp4h54kz7g1l847x_b8wc0000gn/T//ccf4JSA8.s 			page 4


 172 0008 DFF858C0 		ldr	ip, .L23+8
 173 000c 2170     		strb	r1, [r4]
 174              	.LBE109:
 175              	.LBE112:
 176              	.LBE115:
 177              	.LBE118:
 178              		.loc 1 73 0
 179 000e 83B0     		sub	sp, sp, #12
 180              		.cfi_def_cfa_offset 32
 181              	.LBB119:
 182              	.LBB116:
 183              	.LBB113:
 184              	.LBB110:
 185              		.loc 1 41 0
 186 0010 C1F30726 		ubfx	r6, r1, #8, #8
 187              	.LBE110:
 188              	.LBE113:
 189              	.LBE116:
 190              	.LBE119:
 191              		.loc 1 73 0
 192 0014 0195     		str	r5, [sp, #4]
 193              	.LVL9:
 194              	.LBB120:
 195              	.LBB117:
 196              	.LBB114:
 197              	.LBB111:
 198              		.loc 1 41 0
 199 0016 0225     		movs	r5, #2
 200 0018 6670     		strb	r6, [r4, #1]
 201 001a CCF80050 		str	r5, [ip]
 202              	.LBE111:
 203              	.LBE114:
 204              	.LBE117:
 205              	.LBE120:
 206              		.loc 1 78 0
 207 001e 83B1     		cbz	r3, .L19
 208 0020 5E1E     		subs	r6, r3, #1
 209 0022 B6B2     		uxth	r6, r6
 210 0024 9519     		adds	r5, r2, r6
 211 0026 611C     		adds	r1, r4, #1
 212              	.LVL10:
 213 0028 013A     		subs	r2, r2, #1
 214              	.LVL11:
 215              	.L16:
 216              		.loc 1 79 0 discriminator 3
 217 002a 12F8014F 		ldrb	r4, [r2, #1]!	@ zero_extendqisi2
 218              	.LVL12:
 219              	.LBB121:
 220              	.LBB122:
 221              	.LBB123:
 222              		.loc 1 41 0 discriminator 3
 223 002e 01F8014F 		strb	r4, [r1, #1]!
 224              	.LVL13:
 225              	.LBE123:
 226              	.LBE122:
 227              	.LBE121:
 228              		.loc 1 78 0 discriminator 3
ARM GAS  /var/folders/d2/nstgp4h54kz7g1l847x_b8wc0000gn/T//ccf4JSA8.s 			page 5


 229 0032 9542     		cmp	r5, r2
 230 0034 F9D1     		bne	.L16
 231 0036 0336     		adds	r6, r6, #3
 232 0038 0233     		adds	r3, r3, #2
 233              	.LVL14:
 234 003a CCF80060 		str	r6, [ip]
 235 003e 9AB2     		uxth	r2, r3
 236              	.LVL15:
 237 0040 00E0     		b	.L15
 238              	.LVL16:
 239              	.L19:
 240              		.loc 1 78 0 is_stmt 0
 241 0042 2A46     		mov	r2, r5
 242              	.LVL17:
 243              	.L15:
 244              		.loc 1 81 0 is_stmt 1
 245 0044 0199     		ldr	r1, [sp, #4]
 246 0046 3B68     		ldr	r3, [r7]
 247 0048 9942     		cmp	r1, r3
 248 004a 05D1     		bne	.L22
 249 004c 0449     		ldr	r1, .L23+4
 250              		.loc 1 82 0
 251 004e 03B0     		add	sp, sp, #12
 252              		.cfi_remember_state
 253              		.cfi_def_cfa_offset 20
 254              		@ sp needed
 255 0050 BDE8F040 		pop	{r4, r5, r6, r7, lr}
 256              		.cfi_restore 14
 257              		.cfi_restore 7
 258              		.cfi_restore 6
 259              		.cfi_restore 5
 260              		.cfi_restore 4
 261              		.cfi_def_cfa_offset 0
 262              		.loc 1 81 0
 263 0054 FFF7FEBF 		b	AsebaSendBuffer
 264              	.LVL18:
 265              	.L22:
 266              		.cfi_restore_state
 267 0058 FFF7FEFF 		bl	__stack_chk_fail
 268              	.LVL19:
 269              	.L24:
 270              		.align	2
 271              	.L23:
 272 005c 00000000 		.word	__stack_chk_guard
 273 0060 00000000 		.word	.LANCHOR1
 274 0064 00000000 		.word	.LANCHOR0
 275              		.cfi_endproc
 276              	.LFE6:
 277              		.size	AsebaSendMessage, .-AsebaSendMessage
 278              		.section	.text.AsebaSendVariables,"ax",%progbits
 279              		.align	1
 280              		.p2align 4,,15
 281              		.global	AsebaSendVariables
 282              		.syntax unified
 283              		.thumb
 284              		.thumb_func
 285              		.fpu fpv4-sp-d16
ARM GAS  /var/folders/d2/nstgp4h54kz7g1l847x_b8wc0000gn/T//ccf4JSA8.s 			page 6


 286              		.type	AsebaSendVariables, %function
 287              	AsebaSendVariables:
 288              	.LFB7:
 289              		.loc 1 99 0
 290              		.cfi_startproc
 291              		@ args = 0, pretend = 0, frame = 8
 292              		@ frame_needed = 0, uses_anonymous_args = 0
 293              	.LVL20:
 294 0000 F0B5     		push	{r4, r5, r6, r7, lr}
 295              		.cfi_def_cfa_offset 20
 296              		.cfi_offset 4, -20
 297              		.cfi_offset 5, -16
 298              		.cfi_offset 6, -12
 299              		.cfi_offset 7, -8
 300              		.cfi_offset 14, -4
 301 0002 1A4D     		ldr	r5, .L34
 302              	.LBB124:
 303              	.LBB125:
 304              	.LBB126:
 305              	.LBB127:
 306              		.loc 1 41 0
 307 0004 1A4B     		ldr	r3, .L34+4
 308              	.LBE127:
 309              	.LBE126:
 310              	.LBE125:
 311              	.LBE124:
 312              		.loc 1 99 0
 313 0006 2C68     		ldr	r4, [r5]
 314              	.LBB134:
 315              	.LBB135:
 316              	.LBB136:
 317              	.LBB137:
 318              		.loc 1 41 0
 319 0008 1A4E     		ldr	r6, .L34+8
 320 000a 9970     		strb	r1, [r3, #2]
 321              	.LBE137:
 322              	.LBE136:
 323              	.LBE135:
 324              	.LBE134:
 325              		.loc 1 99 0
 326 000c 83B0     		sub	sp, sp, #12
 327              		.cfi_def_cfa_offset 32
 328              		.loc 1 105 0
 329 000e 0A44     		add	r2, r2, r1
 330              	.LVL21:
 331              		.loc 1 99 0
 332 0010 0194     		str	r4, [sp, #4]
 333              	.LVL22:
 334              	.LBB150:
 335              	.LBB146:
 336              	.LBB142:
 337              	.LBB138:
 338              		.loc 1 41 0
 339 0012 C1F30724 		ubfx	r4, r1, #8, #8
 340              	.LBE138:
 341              	.LBE142:
 342              	.LBE146:
ARM GAS  /var/folders/d2/nstgp4h54kz7g1l847x_b8wc0000gn/T//ccf4JSA8.s 			page 7


 343              	.LBE150:
 344              	.LBB151:
 345              	.LBB132:
 346              	.LBB130:
 347              	.LBB128:
 348 0016 49F20507 		movw	r7, #36869
 349              	.LBE128:
 350              	.LBE130:
 351              	.LBE132:
 352              	.LBE151:
 353              	.LBB152:
 354              	.LBB147:
 355              	.LBB143:
 356              	.LBB139:
 357 001a DC70     		strb	r4, [r3, #3]
 358              	.LBE139:
 359              	.LBE143:
 360              	.LBE147:
 361              	.LBE152:
 362              		.loc 1 105 0
 363 001c 9142     		cmp	r1, r2
 364              	.LBB153:
 365              	.LBB148:
 366              	.LBB144:
 367              	.LBB140:
 368              		.loc 1 41 0
 369 001e 4FF00404 		mov	r4, #4
 370              	.LBE140:
 371              	.LBE144:
 372              	.LBE148:
 373              	.LBE153:
 374              	.LBB154:
 375              	.LBB133:
 376              	.LBB131:
 377              	.LBB129:
 378 0022 1F80     		strh	r7, [r3]	@ movhi
 379              	.LVL23:
 380              	.LBE129:
 381              	.LBE131:
 382              	.LBE133:
 383              	.LBE154:
 384              	.LBB155:
 385              	.LBB149:
 386              	.LBB145:
 387              	.LBB141:
 388 0024 3460     		str	r4, [r6]
 389              	.LBE141:
 390              	.LBE145:
 391              	.LBE149:
 392              	.LBE155:
 393              		.loc 1 105 0
 394 0026 13DA     		bge	.L30
 395 0028 C3F10607 		rsb	r7, r3, #6
 396              	.LVL24:
 397              	.L27:
 398              		.loc 1 106 0 discriminator 3
 399 002c C468     		ldr	r4, [r0, #12]
ARM GAS  /var/folders/d2/nstgp4h54kz7g1l847x_b8wc0000gn/T//ccf4JSA8.s 			page 8


 400 002e 34F91140 		ldrsh	r4, [r4, r1, lsl #1]
 401              	.LVL25:
 402              	.LBB156:
 403              	.LBB157:
 404              	.LBB158:
 405              	.LBB159:
 406              		.loc 1 41 0 discriminator 3
 407 0032 1C71     		strb	r4, [r3, #4]
 408              	.LVL26:
 409              	.LBE159:
 410              	.LBE158:
 411              	.LBE157:
 412              	.LBE156:
 413              		.loc 1 105 0 discriminator 3
 414 0034 0131     		adds	r1, r1, #1
 415              	.LVL27:
 416 0036 89B2     		uxth	r1, r1
 417              	.LBB166:
 418              	.LBB164:
 419              	.LBB162:
 420              	.LBB160:
 421              		.loc 1 41 0 discriminator 3
 422 0038 C4F30724 		ubfx	r4, r4, #8, #8
 423              	.LVL28:
 424              	.LBE160:
 425              	.LBE162:
 426              	.LBE164:
 427              	.LBE166:
 428              		.loc 1 105 0 discriminator 3
 429 003c 9142     		cmp	r1, r2
 430              	.LBB167:
 431              	.LBB165:
 432              	.LBB163:
 433              	.LBB161:
 434              		.loc 1 41 0 discriminator 3
 435 003e 5C71     		strb	r4, [r3, #5]
 436              	.LVL29:
 437 0040 07EB0304 		add	r4, r7, r3
 438 0044 03F10203 		add	r3, r3, #2
 439              	.LBE161:
 440              	.LBE163:
 441              	.LBE165:
 442              	.LBE167:
 443              		.loc 1 105 0 discriminator 3
 444 0048 F0DB     		blt	.L27
 445 004a 3460     		str	r4, [r6]
 446 004c A2B2     		uxth	r2, r4
 447 004e 00E0     		b	.L26
 448              	.LVL30:
 449              	.L30:
 450              		.loc 1 105 0 is_stmt 0
 451 0050 2246     		mov	r2, r4
 452              	.LVL31:
 453              	.L26:
 454              		.loc 1 108 0 is_stmt 1
 455 0052 0199     		ldr	r1, [sp, #4]
 456              	.LVL32:
ARM GAS  /var/folders/d2/nstgp4h54kz7g1l847x_b8wc0000gn/T//ccf4JSA8.s 			page 9


 457 0054 2B68     		ldr	r3, [r5]
 458 0056 9942     		cmp	r1, r3
 459 0058 05D1     		bne	.L33
 460 005a 0549     		ldr	r1, .L34+4
 461              		.loc 1 129 0
 462 005c 03B0     		add	sp, sp, #12
 463              		.cfi_remember_state
 464              		.cfi_def_cfa_offset 20
 465              		@ sp needed
 466 005e BDE8F040 		pop	{r4, r5, r6, r7, lr}
 467              		.cfi_restore 14
 468              		.cfi_restore 7
 469              		.cfi_restore 6
 470              		.cfi_restore 5
 471              		.cfi_restore 4
 472              		.cfi_def_cfa_offset 0
 473              		.loc 1 108 0
 474 0062 FFF7FEBF 		b	AsebaSendBuffer
 475              	.LVL33:
 476              	.L33:
 477              		.cfi_restore_state
 478 0066 FFF7FEFF 		bl	__stack_chk_fail
 479              	.LVL34:
 480              	.L35:
 481 006a 00BF     		.align	2
 482              	.L34:
 483 006c 00000000 		.word	__stack_chk_guard
 484 0070 00000000 		.word	.LANCHOR1
 485 0074 00000000 		.word	.LANCHOR0
 486              		.cfi_endproc
 487              	.LFE7:
 488              		.size	AsebaSendVariables, .-AsebaSendVariables
 489              		.section	.text.AsebaSendDescription,"ax",%progbits
 490              		.align	1
 491              		.p2align 4,,15
 492              		.global	AsebaSendDescription
 493              		.syntax unified
 494              		.thumb
 495              		.thumb_func
 496              		.fpu fpv4-sp-d16
 497              		.type	AsebaSendDescription, %function
 498              	AsebaSendDescription:
 499              	.LFB8:
 500              		.loc 1 132 0
 501              		.cfi_startproc
 502              		@ args = 0, pretend = 0, frame = 8
 503              		@ frame_needed = 0, uses_anonymous_args = 0
 504              	.LVL35:
 505 0000 2DE9F04F 		push	{r4, r5, r6, r7, r8, r9, r10, fp, lr}
 506              		.cfi_def_cfa_offset 36
 507              		.cfi_offset 4, -36
 508              		.cfi_offset 5, -32
 509              		.cfi_offset 6, -28
 510              		.cfi_offset 7, -24
 511              		.cfi_offset 8, -20
 512              		.cfi_offset 9, -16
 513              		.cfi_offset 10, -12
ARM GAS  /var/folders/d2/nstgp4h54kz7g1l847x_b8wc0000gn/T//ccf4JSA8.s 			page 10


 514              		.cfi_offset 11, -8
 515              		.cfi_offset 14, -4
 516 0004 924B     		ldr	r3, .L80
 517              	.LBB168:
 518              	.LBB169:
 519              	.LBB170:
 520              	.LBB171:
 521              		.loc 1 41 0
 522 0006 934C     		ldr	r4, .L80+4
 523              	.LBE171:
 524              	.LBE170:
 525              	.LBE169:
 526              	.LBE168:
 527              		.loc 1 132 0
 528 0008 1B68     		ldr	r3, [r3]
 529              	.LBB184:
 530              	.LBB180:
 531              	.LBB176:
 532              	.LBB172:
 533              		.loc 1 41 0
 534 000a 934D     		ldr	r5, .L80+8
 535              	.LBE172:
 536              	.LBE176:
 537              	.LBE180:
 538              	.LBE184:
 539              		.loc 1 132 0
 540 000c 83B0     		sub	sp, sp, #12
 541              		.cfi_def_cfa_offset 48
 542              		.loc 1 132 0
 543 000e 0746     		mov	r7, r0
 544 0010 0193     		str	r3, [sp, #4]
 545              		.loc 1 133 0
 546 0012 FFF7FEFF 		bl	AsebaGetVMDescription
 547              	.LVL36:
 548 0016 0646     		mov	r6, r0
 549              	.LVL37:
 550              		.loc 1 135 0
 551 0018 3846     		mov	r0, r7
 552              	.LVL38:
 553 001a FFF7FEFF 		bl	AsebaGetNativeFunctionsDescriptions
 554              	.LVL39:
 555 001e 8046     		mov	r8, r0
 556              		.loc 1 136 0
 557 0020 3846     		mov	r0, r7
 558 0022 FFF7FEFF 		bl	AsebaGetLocalEventsDescriptions
 559              	.LVL40:
 560              	.LBB185:
 561              	.LBB181:
 562              	.LBB177:
 563              	.LBB173:
 564              		.loc 1 41 0
 565 0026 4FF41042 		mov	r2, #36864
 566 002a 2280     		strh	r2, [r4]	@ movhi
 567              	.LBE173:
 568              	.LBE177:
 569              	.LBE181:
 570              	.LBE185:
ARM GAS  /var/folders/d2/nstgp4h54kz7g1l847x_b8wc0000gn/T//ccf4JSA8.s 			page 11


 571              		.loc 1 136 0
 572 002c 8246     		mov	r10, r0
 573              	.LBB186:
 574              	.LBB182:
 575              	.LBB178:
 576              	.LBB174:
 577              		.loc 1 41 0
 578 002e 0222     		movs	r2, #2
 579              	.LBE174:
 580              	.LBE178:
 581              	.LBE182:
 582              	.LBE186:
 583              		.loc 1 143 0
 584 0030 3068     		ldr	r0, [r6]
 585              	.LBB187:
 586              	.LBB183:
 587              	.LBB179:
 588              	.LBB175:
 589              		.loc 1 41 0
 590 0032 2A60     		str	r2, [r5]
 591              	.LBE175:
 592              	.LBE179:
 593              	.LBE183:
 594              	.LBE187:
 595              		.loc 1 143 0
 596 0034 FFF7FEFF 		bl	buffer_add_string
 597              	.LVL41:
 598              	.LBB188:
 599              	.LBB189:
 600              	.LBB190:
 601              	.LBB191:
 602              		.loc 1 41 0
 603 0038 D5F800C0 		ldr	ip, [r5]
 604 003c 0522     		movs	r2, #5
 605 003e 04EB0C01 		add	r1, r4, ip
 606 0042 04F80C20 		strb	r2, [r4, ip]
 607 0046 0022     		movs	r2, #0
 608 0048 4A70     		strb	r2, [r1, #1]
 609              	.LBE191:
 610              	.LBE190:
 611              	.LBE189:
 612              	.LBE188:
 613              		.loc 1 147 0
 614 004a 7888     		ldrh	r0, [r7, #2]
 615              	.LBB192:
 616              	.LBB193:
 617              	.LBB194:
 618              	.LBB195:
 619              		.loc 1 41 0
 620 004c 8870     		strb	r0, [r1, #2]
 621 004e C0F30720 		ubfx	r0, r0, #8, #8
 622 0052 C870     		strb	r0, [r1, #3]
 623              	.LBE195:
 624              	.LBE194:
 625              	.LBE193:
 626              	.LBE192:
 627              		.loc 1 148 0
ARM GAS  /var/folders/d2/nstgp4h54kz7g1l847x_b8wc0000gn/T//ccf4JSA8.s 			page 12


 628 0054 388A     		ldrh	r0, [r7, #16]
 629              	.LBB196:
 630              	.LBB197:
 631              	.LBB198:
 632              	.LBB199:
 633              		.loc 1 41 0
 634 0056 0871     		strb	r0, [r1, #4]
 635 0058 C0F30720 		ubfx	r0, r0, #8, #8
 636 005c 4871     		strb	r0, [r1, #5]
 637              	.LBE199:
 638              	.LBE198:
 639              	.LBE197:
 640              	.LBE196:
 641              		.loc 1 149 0
 642 005e 3889     		ldrh	r0, [r7, #8]
 643              	.LBB200:
 644              	.LBB201:
 645              	.LBB202:
 646              	.LBB203:
 647              		.loc 1 41 0
 648 0060 8871     		strb	r0, [r1, #6]
 649 0062 C0F30720 		ubfx	r0, r0, #8, #8
 650 0066 C871     		strb	r0, [r1, #7]
 651              	.LBE203:
 652              	.LBE202:
 653              	.LBE201:
 654              	.LBE200:
 655              		.loc 1 152 0
 656 0068 B188     		ldrh	r1, [r6, #4]
 657              	.LBB207:
 658              	.LBB206:
 659              	.LBB205:
 660              	.LBB204:
 661              		.loc 1 41 0
 662 006a 0CF10800 		add	r0, ip, #8
 663              	.LBE204:
 664              	.LBE205:
 665              	.LBE206:
 666              	.LBE207:
 667              		.loc 1 134 0
 668 006e 06F10409 		add	r9, r6, #4
 669              	.LVL42:
 670              		.loc 1 152 0
 671 0072 0029     		cmp	r1, #0
 672 0074 00F0E380 		beq	.L55
 673              	.LVL43:
 674              	.L38:
 675              		.loc 1 152 0 is_stmt 0 discriminator 3
 676 0078 0132     		adds	r2, r2, #1
 677              	.LVL44:
 678 007a 92B2     		uxth	r2, r2
 679              	.LVL45:
 680 007c 39F83230 		ldrh	r3, [r9, r2, lsl #3]
 681 0080 002B     		cmp	r3, #0
 682 0082 F9D1     		bne	.L38
 683 0084 110A     		lsrs	r1, r2, #8
 684 0086 D2B2     		uxtb	r2, r2
ARM GAS  /var/folders/d2/nstgp4h54kz7g1l847x_b8wc0000gn/T//ccf4JSA8.s 			page 13


 685              	.LVL46:
 686              	.L37:
 687              	.LBB208:
 688              	.LBB209:
 689              	.LBB210:
 690              	.LBB211:
 691              		.loc 1 41 0 is_stmt 1
 692 0088 04EB0C0E 		add	lr, r4, ip
 693 008c 2254     		strb	r2, [r4, r0]
 694              	.LVL47:
 695 008e 8EF80910 		strb	r1, [lr, #9]
 696              	.LVL48:
 697              	.LBE211:
 698              	.LBE210:
 699              	.LBE209:
 700              	.LBE208:
 701              		.loc 1 157 0
 702 0092 DAF80020 		ldr	r2, [r10]
 703              	.LBB215:
 704              	.LBB214:
 705              	.LBB213:
 706              	.LBB212:
 707              		.loc 1 41 0
 708 0096 0CF10A00 		add	r0, ip, #10
 709              	.LBE212:
 710              	.LBE213:
 711              	.LBE214:
 712              	.LBE215:
 713              		.loc 1 157 0
 714 009a 002A     		cmp	r2, #0
 715 009c 00F0D180 		beq	.L56
 716 00a0 0022     		movs	r2, #0
 717              	.LVL49:
 718              	.L40:
 719              		.loc 1 157 0 is_stmt 0 discriminator 3
 720 00a2 0132     		adds	r2, r2, #1
 721              	.LVL50:
 722 00a4 92B2     		uxth	r2, r2
 723              	.LVL51:
 724 00a6 5AF83230 		ldr	r3, [r10, r2, lsl #3]
 725 00aa 002B     		cmp	r3, #0
 726 00ac F9D1     		bne	.L40
 727 00ae 5FFA82FE 		uxtb	lr, r2
 728 00b2 120A     		lsrs	r2, r2, #8
 729              	.LVL52:
 730              	.L39:
 731              	.LBB216:
 732              	.LBB217:
 733              	.LBB218:
 734              	.LBB219:
 735              		.loc 1 41 0 is_stmt 1
 736 00b4 04EB0C01 		add	r1, r4, ip
 737 00b8 04F800E0 		strb	lr, [r4, r0]
 738              	.LVL53:
 739 00bc CA72     		strb	r2, [r1, #11]
 740              	.LVL54:
 741              	.LBE219:
ARM GAS  /var/folders/d2/nstgp4h54kz7g1l847x_b8wc0000gn/T//ccf4JSA8.s 			page 14


 742              	.LBE218:
 743              	.LBE217:
 744              	.LBE216:
 745              		.loc 1 162 0
 746 00be D8F80020 		ldr	r2, [r8]
 747              	.LBB223:
 748              	.LBB222:
 749              	.LBB221:
 750              	.LBB220:
 751              		.loc 1 41 0
 752 00c2 0CF10C03 		add	r3, ip, #12
 753              	.LBE220:
 754              	.LBE221:
 755              	.LBE222:
 756              	.LBE223:
 757              		.loc 1 162 0
 758 00c6 002A     		cmp	r2, #0
 759 00c8 00F0BD80 		beq	.L57
 760 00cc 0022     		movs	r2, #0
 761              	.LVL55:
 762              	.L42:
 763              		.loc 1 162 0 is_stmt 0 discriminator 3
 764 00ce 0132     		adds	r2, r2, #1
 765              	.LVL56:
 766 00d0 92B2     		uxth	r2, r2
 767              	.LVL57:
 768 00d2 58F82210 		ldr	r1, [r8, r2, lsl #2]
 769 00d6 0029     		cmp	r1, #0
 770 00d8 F9D1     		bne	.L42
 771 00da 4FEA122E 		lsr	lr, r2, #8
 772 00de D2B2     		uxtb	r2, r2
 773              	.LVL58:
 774              	.L41:
 775              	.LBB224:
 776              	.LBB225:
 777              	.LBB226:
 778              	.LBB227:
 779              		.loc 1 41 0 is_stmt 1
 780 00e0 0CF10E00 		add	r0, ip, #14
 781 00e4 A444     		add	ip, ip, r4
 782 00e6 E254     		strb	r2, [r4, r3]
 783              	.LVL59:
 784 00e8 2860     		str	r0, [r5]
 785              	.LBE227:
 786              	.LBE226:
 787              	.LBE225:
 788              	.LBE224:
 789              		.loc 1 167 0
 790 00ea 82B2     		uxth	r2, r0
 791 00ec 5949     		ldr	r1, .L80+4
 792              	.LBB231:
 793              	.LBB230:
 794              	.LBB229:
 795              	.LBB228:
 796              		.loc 1 41 0
 797 00ee 8CF80DE0 		strb	lr, [ip, #13]
 798              	.LVL60:
ARM GAS  /var/folders/d2/nstgp4h54kz7g1l847x_b8wc0000gn/T//ccf4JSA8.s 			page 15


 799              	.LBE228:
 800              	.LBE229:
 801              	.LBE230:
 802              	.LBE231:
 803              		.loc 1 167 0
 804 00f2 3846     		mov	r0, r7
 805 00f4 FFF7FEFF 		bl	AsebaSendBuffer
 806              	.LVL61:
 807              		.loc 1 170 0
 808 00f8 B068     		ldr	r0, [r6, #8]
 809 00fa D0B1     		cbz	r0, .L43
 810 00fc 4A46     		mov	r2, r9
 811 00fe 0026     		movs	r6, #0
 812              	.LVL62:
 813              	.LBB232:
 814              	.LBB233:
 815              	.LBB234:
 816              	.LBB235:
 817              		.loc 1 41 0
 818 0100 49F2010B 		movw	fp, #36865
 819              	.LVL63:
 820              	.L44:
 821              		.loc 1 41 0 is_stmt 0 discriminator 3
 822 0104 A4F800B0 		strh	fp, [r4]	@ movhi
 823              	.LVL64:
 824              	.LBE235:
 825              	.LBE234:
 826              	.LBE233:
 827              	.LBE232:
 828              		.loc 1 176 0 is_stmt 1 discriminator 3
 829 0108 1388     		ldrh	r3, [r2]
 830              	.LVL65:
 831              	.LBB236:
 832              	.LBB237:
 833              	.LBB238:
 834              	.LBB239:
 835              		.loc 1 41 0 discriminator 3
 836 010a A370     		strb	r3, [r4, #2]
 837              	.LVL66:
 838 010c C3F30723 		ubfx	r3, r3, #8, #8
 839              	.LVL67:
 840 0110 E370     		strb	r3, [r4, #3]
 841              	.LVL68:
 842              	.LBE239:
 843              	.LBE238:
 844              	.LBE237:
 845              	.LBE236:
 846              		.loc 1 170 0 discriminator 3
 847 0112 0136     		adds	r6, r6, #1
 848              	.LVL69:
 849              	.LBB243:
 850              	.LBB242:
 851              	.LBB241:
 852              	.LBB240:
 853              		.loc 1 41 0 discriminator 3
 854 0114 0423     		movs	r3, #4
 855 0116 2B60     		str	r3, [r5]
ARM GAS  /var/folders/d2/nstgp4h54kz7g1l847x_b8wc0000gn/T//ccf4JSA8.s 			page 16


 856              	.LBE240:
 857              	.LBE241:
 858              	.LBE242:
 859              	.LBE243:
 860              		.loc 1 170 0 discriminator 3
 861 0118 B6B2     		uxth	r6, r6
 862              		.loc 1 177 0 discriminator 3
 863 011a FFF7FEFF 		bl	buffer_add_string
 864              	.LVL70:
 865              		.loc 1 180 0 discriminator 3
 866 011e 2A88     		ldrh	r2, [r5]
 867 0120 4C49     		ldr	r1, .L80+4
 868 0122 3846     		mov	r0, r7
 869 0124 FFF7FEFF 		bl	AsebaSendBuffer
 870              	.LVL71:
 871              		.loc 1 170 0 discriminator 3
 872 0128 09EBC602 		add	r2, r9, r6, lsl #3
 873 012c 5068     		ldr	r0, [r2, #4]
 874 012e 0028     		cmp	r0, #0
 875 0130 E8D1     		bne	.L44
 876              	.LVL72:
 877              	.L43:
 878              		.loc 1 184 0
 879 0132 DAF80020 		ldr	r2, [r10]
 880 0136 F2B1     		cbz	r2, .L45
 881 0138 D146     		mov	r9, r10
 882              	.LVL73:
 883 013a 4FF0000B 		mov	fp, #0
 884              	.LBB244:
 885              	.LBB245:
 886              	.LBB246:
 887              	.LBB247:
 888              		.loc 1 41 0
 889 013e 49F20206 		movw	r6, #36866
 890              	.LVL74:
 891              	.L46:
 892              		.loc 1 41 0 is_stmt 0 discriminator 3
 893 0142 2680     		strh	r6, [r4]	@ movhi
 894              	.LVL75:
 895 0144 0223     		movs	r3, #2
 896              	.LBE247:
 897              	.LBE246:
 898              	.LBE245:
 899              	.LBE244:
 900              		.loc 1 190 0 is_stmt 1 discriminator 3
 901 0146 D9F80000 		ldr	r0, [r9]
 902              	.LBB251:
 903              	.LBB250:
 904              	.LBB249:
 905              	.LBB248:
 906              		.loc 1 41 0 discriminator 3
 907 014a 2B60     		str	r3, [r5]
 908              	.LBE248:
 909              	.LBE249:
 910              	.LBE250:
 911              	.LBE251:
 912              		.loc 1 184 0 discriminator 3
ARM GAS  /var/folders/d2/nstgp4h54kz7g1l847x_b8wc0000gn/T//ccf4JSA8.s 			page 17


 913 014c 0BF1010B 		add	fp, fp, #1
 914              	.LVL76:
 915              		.loc 1 190 0 discriminator 3
 916 0150 FFF7FEFF 		bl	buffer_add_string
 917              	.LVL77:
 918              		.loc 1 184 0 discriminator 3
 919 0154 1FFA8BFB 		uxth	fp, fp
 920              		.loc 1 191 0 discriminator 3
 921 0158 D9F80400 		ldr	r0, [r9, #4]
 922 015c FFF7FEFF 		bl	buffer_add_string
 923              	.LVL78:
 924              		.loc 1 194 0 discriminator 3
 925 0160 2A88     		ldrh	r2, [r5]
 926 0162 3C49     		ldr	r1, .L80+4
 927 0164 3846     		mov	r0, r7
 928 0166 FFF7FEFF 		bl	AsebaSendBuffer
 929              	.LVL79:
 930              		.loc 1 184 0 discriminator 3
 931 016a 5AF83B30 		ldr	r3, [r10, fp, lsl #3]
 932 016e 0AEBCB09 		add	r9, r10, fp, lsl #3
 933 0172 002B     		cmp	r3, #0
 934 0174 E5D1     		bne	.L46
 935              	.LVL80:
 936              	.L45:
 937              		.loc 1 198 0
 938 0176 D8F80030 		ldr	r3, [r8]
 939 017a 002B     		cmp	r3, #0
 940 017c 55D0     		beq	.L36
 941              	.LBB252:
 942              		.loc 1 219 0
 943 017e DFF8D490 		ldr	r9, .L80+4
 944              	.LBE252:
 945              		.loc 1 198 0
 946 0182 C346     		mov	fp, r8
 947 0184 0026     		movs	r6, #0
 948              	.LVL81:
 949              	.L53:
 950              	.LBB285:
 951              	.LBB253:
 952              	.LBB254:
 953              	.LBB255:
 954              	.LBB256:
 955              		.loc 1 41 0
 956 0186 49F20303 		movw	r3, #36867
 957 018a 2380     		strh	r3, [r4]	@ movhi
 958              	.LVL82:
 959              	.LBE256:
 960              	.LBE255:
 961              	.LBE254:
 962              	.LBE253:
 963              		.loc 1 207 0
 964 018c DBF80020 		ldr	r2, [fp]
 965              	.LBB263:
 966              	.LBB261:
 967              	.LBB259:
 968              	.LBB257:
 969              		.loc 1 41 0
ARM GAS  /var/folders/d2/nstgp4h54kz7g1l847x_b8wc0000gn/T//ccf4JSA8.s 			page 18


 970 0190 0223     		movs	r3, #2
 971              	.LBE257:
 972              	.LBE259:
 973              	.LBE261:
 974              	.LBE263:
 975              		.loc 1 207 0
 976 0192 1068     		ldr	r0, [r2]
 977              	.LBB264:
 978              	.LBB262:
 979              	.LBB260:
 980              	.LBB258:
 981              		.loc 1 41 0
 982 0194 2B60     		str	r3, [r5]
 983              	.LBE258:
 984              	.LBE260:
 985              	.LBE262:
 986              	.LBE264:
 987              		.loc 1 207 0
 988 0196 FFF7FEFF 		bl	buffer_add_string
 989              	.LVL83:
 990              		.loc 1 208 0
 991 019a DBF80030 		ldr	r3, [fp]
 992 019e 5868     		ldr	r0, [r3, #4]
 993 01a0 FFF7FEFF 		bl	buffer_add_string
 994              	.LVL84:
 995              		.loc 1 209 0
 996 01a4 DBF80000 		ldr	r0, [fp]
 997 01a8 B0F90830 		ldrsh	r3, [r0, #8]
 998 01ac 002B     		cmp	r3, #0
 999 01ae 44D0     		beq	.L58
 1000 01b0 0123     		movs	r3, #1
 1001              	.LVL85:
 1002              	.L49:
 1003              		.loc 1 209 0 is_stmt 0 discriminator 3
 1004 01b2 9AB2     		uxth	r2, r3
 1005              	.LVL86:
 1006 01b4 531C     		adds	r3, r2, #1
 1007 01b6 30F93310 		ldrsh	r1, [r0, r3, lsl #3]
 1008 01ba 0029     		cmp	r1, #0
 1009 01bc F9D1     		bne	.L49
 1010 01be D0B2     		uxtb	r0, r2
 1011 01c0 130A     		lsrs	r3, r2, #8
 1012              	.LVL87:
 1013              	.L48:
 1014              	.LBB265:
 1015              	.LBB266:
 1016              	.LBB267:
 1017              	.LBB268:
 1018              		.loc 1 41 0 is_stmt 1
 1019 01c2 2A68     		ldr	r2, [r5]
 1020 01c4 A118     		adds	r1, r4, r2
 1021 01c6 A054     		strb	r0, [r4, r2]
 1022              	.LVL88:
 1023 01c8 4B70     		strb	r3, [r1, #1]
 1024              	.LVL89:
 1025              	.LBE268:
 1026              	.LBE267:
ARM GAS  /var/folders/d2/nstgp4h54kz7g1l847x_b8wc0000gn/T//ccf4JSA8.s 			page 19


 1027              	.LBE266:
 1028              	.LBE265:
 1029              		.loc 1 212 0
 1030 01ca DBF80030 		ldr	r3, [fp]
 1031 01ce B3F90830 		ldrsh	r3, [r3, #8]
 1032              	.LBB272:
 1033              	.LBB271:
 1034              	.LBB270:
 1035              	.LBB269:
 1036              		.loc 1 41 0
 1037 01d2 0232     		adds	r2, r2, #2
 1038 01d4 2A60     		str	r2, [r5]
 1039              	.LBE269:
 1040              	.LBE270:
 1041              	.LBE271:
 1042              	.LBE272:
 1043              		.loc 1 212 0
 1044 01d6 DBB1     		cbz	r3, .L50
 1045 01d8 0021     		movs	r1, #0
 1046 01da 4FF0010A 		mov	r10, #1
 1047              	.LVL90:
 1048              	.L52:
 1049              	.LBB273:
 1050              	.LBB274:
 1051              	.LBB275:
 1052              	.LBB276:
 1053              		.loc 1 41 0 discriminator 3
 1054 01de A018     		adds	r0, r4, r2
 1055 01e0 A354     		strb	r3, [r4, r2]
 1056              	.LVL91:
 1057 01e2 C3F30723 		ubfx	r3, r3, #8, #8
 1058              	.LVL92:
 1059 01e6 4370     		strb	r3, [r0, #1]
 1060              	.LVL93:
 1061              	.LBE276:
 1062              	.LBE275:
 1063              	.LBE274:
 1064              	.LBE273:
 1065              		.loc 1 215 0 discriminator 3
 1066 01e8 DBF80030 		ldr	r3, [fp]
 1067 01ec 03EBC103 		add	r3, r3, r1, lsl #3
 1068              	.LBB283:
 1069              	.LBB281:
 1070              	.LBB279:
 1071              	.LBB277:
 1072              		.loc 1 41 0 discriminator 3
 1073 01f0 0232     		adds	r2, r2, #2
 1074              	.LBE277:
 1075              	.LBE279:
 1076              	.LBE281:
 1077              	.LBE283:
 1078              		.loc 1 215 0 discriminator 3
 1079 01f2 D868     		ldr	r0, [r3, #12]
 1080              	.LBB284:
 1081              	.LBB282:
 1082              	.LBB280:
 1083              	.LBB278:
ARM GAS  /var/folders/d2/nstgp4h54kz7g1l847x_b8wc0000gn/T//ccf4JSA8.s 			page 20


 1084              		.loc 1 41 0 discriminator 3
 1085 01f4 2A60     		str	r2, [r5]
 1086              	.LBE278:
 1087              	.LBE280:
 1088              	.LBE282:
 1089              	.LBE284:
 1090              		.loc 1 215 0 discriminator 3
 1091 01f6 FFF7FEFF 		bl	buffer_add_string
 1092              	.LVL94:
 1093              		.loc 1 212 0 discriminator 3
 1094 01fa 1FFA8AF1 		uxth	r1, r10
 1095              	.LVL95:
 1096 01fe DBF80020 		ldr	r2, [fp]
 1097 0202 01F1010A 		add	r10, r1, #1
 1098 0206 32F93A30 		ldrsh	r3, [r2, r10, lsl #3]
 1099 020a 2A68     		ldr	r2, [r5]
 1100 020c 002B     		cmp	r3, #0
 1101 020e E6D1     		bne	.L52
 1102              	.LVL96:
 1103              	.L50:
 1104              	.LBE285:
 1105              		.loc 1 198 0 discriminator 2
 1106 0210 0136     		adds	r6, r6, #1
 1107              	.LVL97:
 1108 0212 B6B2     		uxth	r6, r6
 1109              	.LBB286:
 1110              		.loc 1 219 0 discriminator 2
 1111 0214 92B2     		uxth	r2, r2
 1112 0216 4946     		mov	r1, r9
 1113 0218 3846     		mov	r0, r7
 1114 021a FFF7FEFF 		bl	AsebaSendBuffer
 1115              	.LVL98:
 1116              	.LBE286:
 1117              		.loc 1 198 0 discriminator 2
 1118 021e 58F82630 		ldr	r3, [r8, r6, lsl #2]
 1119 0222 08EB860B 		add	fp, r8, r6, lsl #2
 1120 0226 002B     		cmp	r3, #0
 1121 0228 ADD1     		bne	.L53
 1122              	.LVL99:
 1123              	.L36:
 1124              		.loc 1 221 0
 1125 022a 094B     		ldr	r3, .L80
 1126 022c 019A     		ldr	r2, [sp, #4]
 1127 022e 1B68     		ldr	r3, [r3]
 1128 0230 9A42     		cmp	r2, r3
 1129 0232 0AD1     		bne	.L79
 1130 0234 03B0     		add	sp, sp, #12
 1131              		.cfi_remember_state
 1132              		.cfi_def_cfa_offset 36
 1133              		@ sp needed
 1134 0236 BDE8F08F 		pop	{r4, r5, r6, r7, r8, r9, r10, fp, pc}
 1135              	.LVL100:
 1136              	.L58:
 1137              		.cfi_restore_state
 1138              	.LBB287:
 1139              		.loc 1 209 0
 1140 023a 1846     		mov	r0, r3
ARM GAS  /var/folders/d2/nstgp4h54kz7g1l847x_b8wc0000gn/T//ccf4JSA8.s 			page 21


 1141 023c C1E7     		b	.L48
 1142              	.LVL101:
 1143              	.L55:
 1144              	.LBE287:
 1145              		.loc 1 152 0
 1146 023e 0A46     		mov	r2, r1
 1147 0240 22E7     		b	.L37
 1148              	.L56:
 1149              		.loc 1 157 0
 1150 0242 9646     		mov	lr, r2
 1151 0244 36E7     		b	.L39
 1152              	.L57:
 1153              		.loc 1 162 0
 1154 0246 9646     		mov	lr, r2
 1155 0248 4AE7     		b	.L41
 1156              	.LVL102:
 1157              	.L79:
 1158              		.loc 1 221 0
 1159 024a FFF7FEFF 		bl	__stack_chk_fail
 1160              	.LVL103:
 1161              	.L81:
 1162 024e 00BF     		.align	2
 1163              	.L80:
 1164 0250 00000000 		.word	__stack_chk_guard
 1165 0254 00000000 		.word	.LANCHOR1
 1166 0258 00000000 		.word	.LANCHOR0
 1167              		.cfi_endproc
 1168              	.LFE8:
 1169              		.size	AsebaSendDescription, .-AsebaSendDescription
 1170              		.section	.text.AsebaProcessIncomingEvents,"ax",%progbits
 1171              		.align	1
 1172              		.p2align 4,,15
 1173              		.global	AsebaProcessIncomingEvents
 1174              		.syntax unified
 1175              		.thumb
 1176              		.thumb_func
 1177              		.fpu fpv4-sp-d16
 1178              		.type	AsebaProcessIncomingEvents, %function
 1179              	AsebaProcessIncomingEvents:
 1180              	.LFB9:
 1181              		.loc 1 224 0
 1182              		.cfi_startproc
 1183              		@ args = 0, pretend = 0, frame = 8
 1184              		@ frame_needed = 0, uses_anonymous_args = 0
 1185              	.LVL104:
 1186 0000 F0B5     		push	{r4, r5, r6, r7, lr}
 1187              		.cfi_def_cfa_offset 20
 1188              		.cfi_offset 4, -20
 1189              		.cfi_offset 5, -16
 1190              		.cfi_offset 6, -12
 1191              		.cfi_offset 7, -8
 1192              		.cfi_offset 14, -4
 1193 0002 2B4D     		ldr	r5, .L104
 1194              		.loc 1 228 0
 1195 0004 2B4E     		ldr	r6, .L104+4
 1196              		.loc 1 224 0
 1197 0006 2B68     		ldr	r3, [r5]
ARM GAS  /var/folders/d2/nstgp4h54kz7g1l847x_b8wc0000gn/T//ccf4JSA8.s 			page 22


 1198 0008 83B0     		sub	sp, sp, #12
 1199              		.cfi_def_cfa_offset 32
 1200              		.loc 1 224 0
 1201 000a 0446     		mov	r4, r0
 1202 000c 0193     		str	r3, [sp, #4]
 1203              		.loc 1 226 0
 1204 000e FFF7FEFF 		bl	AsebaGetVMDescription
 1205              	.LVL105:
 1206              		.loc 1 228 0
 1207 0012 3146     		mov	r1, r6
 1208              		.loc 1 226 0
 1209 0014 0746     		mov	r7, r0
 1210              	.LVL106:
 1211              		.loc 1 228 0
 1212 0016 0DF10203 		add	r3, sp, #2
 1213 001a 2046     		mov	r0, r4
 1214              	.LVL107:
 1215 001c 40F20622 		movw	r2, #518
 1216 0020 FFF7FEFF 		bl	AsebaGetBuffer
 1217              	.LVL108:
 1218              		.loc 1 230 0
 1219 0024 0028     		cmp	r0, #0
 1220 0026 35D0     		beq	.L82
 1221              	.LBB288:
 1222              		.loc 1 234 0
 1223 0028 0238     		subs	r0, r0, #2
 1224              	.LVL109:
 1225              		.loc 1 232 0
 1226 002a 3188     		ldrh	r1, [r6]
 1227              	.LVL110:
 1228              		.loc 1 234 0
 1229 002c 00EBD070 		add	r0, r0, r0, lsr #31
 1230 0030 4010     		asrs	r0, r0, #1
 1231              		.loc 1 235 0
 1232 0032 0A04     		lsls	r2, r1, #16
 1233              		.loc 1 234 0
 1234 0034 83B2     		uxth	r3, r0
 1235              	.LVL111:
 1236              		.loc 1 235 0
 1237 0036 33D4     		bmi	.L84
 1238              		.loc 1 238 0
 1239 0038 228B     		ldrh	r2, [r4, #24]
 1240 003a 02F00302 		and	r2, r2, #3
 1241 003e 032A     		cmp	r2, #3
 1242 0040 28D0     		beq	.L82
 1243              	.LBB289:
 1244              		.loc 1 242 0
 1245 0042 BA89     		ldrh	r2, [r7, #12]
 1246              	.LVL112:
 1247              		.loc 1 243 0
 1248 0044 B7F814E0 		ldrh	lr, [r7, #20]
 1249              	.LVL113:
 1250              		.loc 1 245 0
 1251 0048 E768     		ldr	r7, [r4, #12]
 1252              	.LVL114:
 1253 004a BDF802C0 		ldrh	ip, [sp, #2]
 1254 004e 27F812C0 		strh	ip, [r7, r2, lsl #1]	@ movhi
ARM GAS  /var/folders/d2/nstgp4h54kz7g1l847x_b8wc0000gn/T//ccf4JSA8.s 			page 23


 1255 0052 0132     		adds	r2, r2, #1
 1256              	.LVL115:
 1257 0054 92B2     		uxth	r2, r2
 1258              	.LVL116:
 1259              		.loc 1 246 0
 1260 0056 BEF1000F 		cmp	lr, #0
 1261 005a 18D0     		beq	.L85
 1262 005c B8B1     		cbz	r0, .L85
 1263 005e 3046     		mov	r0, r6
 1264 0060 0EF1FF37 		add	r7, lr, #-1
 1265 0064 5E1E     		subs	r6, r3, #1
 1266 0066 531C     		adds	r3, r2, #1
 1267              	.LVL117:
 1268 0068 13FA86F6 		uxtah	r6, r3, r6
 1269              	.LVL118:
 1270 006c BFB2     		uxth	r7, r7
 1271 006e 00F1020C 		add	ip, r0, #2
 1272 0072 0CEB470C 		add	ip, ip, r7, lsl #1
 1273 0076 7600     		lsls	r6, r6, #1
 1274 0078 5300     		lsls	r3, r2, #1
 1275 007a 02E0     		b	.L86
 1276              	.LVL119:
 1277              	.L102:
 1278 007c 0233     		adds	r3, r3, #2
 1279              		.loc 1 246 0 is_stmt 0 discriminator 3
 1280 007e B342     		cmp	r3, r6
 1281 0080 05D0     		beq	.L85
 1282              	.L86:
 1283              		.loc 1 247 0 is_stmt 1 discriminator 4
 1284 0082 30F8022F 		ldrh	r2, [r0, #2]!
 1285 0086 E768     		ldr	r7, [r4, #12]
 1286              		.loc 1 246 0 discriminator 4
 1287 0088 6045     		cmp	r0, ip
 1288              		.loc 1 247 0 discriminator 4
 1289 008a FA52     		strh	r2, [r7, r3]	@ movhi
 1290              		.loc 1 246 0 discriminator 4
 1291 008c F6D1     		bne	.L102
 1292              	.L85:
 1293              		.loc 1 248 0
 1294 008e 2046     		mov	r0, r4
 1295 0090 FFF7FEFF 		bl	AsebaVMSetupEvent
 1296              	.LVL120:
 1297              	.L82:
 1298              	.LBE289:
 1299              	.LBE288:
 1300              		.loc 1 257 0
 1301 0094 019A     		ldr	r2, [sp, #4]
 1302 0096 2B68     		ldr	r3, [r5]
 1303 0098 9A42     		cmp	r2, r3
 1304 009a 06D1     		bne	.L103
 1305 009c 03B0     		add	sp, sp, #12
 1306              		.cfi_remember_state
 1307              		.cfi_def_cfa_offset 20
 1308              		@ sp needed
 1309 009e F0BD     		pop	{r4, r5, r6, r7, pc}
 1310              	.LVL121:
 1311              	.L84:
ARM GAS  /var/folders/d2/nstgp4h54kz7g1l847x_b8wc0000gn/T//ccf4JSA8.s 			page 24


 1312              		.cfi_restore_state
 1313              	.LBB290:
 1314              		.loc 1 254 0
 1315 00a0 B21C     		adds	r2, r6, #2
 1316 00a2 2046     		mov	r0, r4
 1317 00a4 FFF7FEFF 		bl	AsebaVMDebugMessage
 1318              	.LVL122:
 1319              	.LBE290:
 1320              		.loc 1 257 0
 1321 00a8 F4E7     		b	.L82
 1322              	.LVL123:
 1323              	.L103:
 1324 00aa FFF7FEFF 		bl	__stack_chk_fail
 1325              	.LVL124:
 1326              	.L105:
 1327 00ae 00BF     		.align	2
 1328              	.L104:
 1329 00b0 00000000 		.word	__stack_chk_guard
 1330 00b4 00000000 		.word	.LANCHOR1
 1331              		.cfi_endproc
 1332              	.LFE9:
 1333              		.size	AsebaProcessIncomingEvents, .-AsebaProcessIncomingEvents
 1334              		.section	.bss.buffer,"aw",%nobits
 1335              		.align	2
 1336              		.set	.LANCHOR1,. + 0
 1337              		.type	buffer, %object
 1338              		.size	buffer, 518
 1339              	buffer:
 1340 0000 00000000 		.space	518
 1340      00000000 
 1340      00000000 
 1340      00000000 
 1340      00000000 
 1341              		.section	.bss.buffer_pos,"aw",%nobits
 1342              		.align	2
 1343              		.set	.LANCHOR0,. + 0
 1344              		.type	buffer_pos, %object
 1345              		.size	buffer_pos, 4
 1346              	buffer_pos:
 1347 0000 00000000 		.space	4
 1348              		.text
 1349              	.Letext0:
 1350              		.file 2 "/Applications/Eclipse_e-puck2.app/Contents/Eclipse_e-puck2/Tools/gcc-arm-none-eabi-7-2017
 1351              		.file 3 "/Applications/Eclipse_e-puck2.app/Contents/Eclipse_e-puck2/Tools/gcc-arm-none-eabi-7-2017
 1352              		.file 4 "/Applications/Eclipse_e-puck2.app/Contents/Eclipse_e-puck2/Tools/gcc-arm-none-eabi-7-2017
 1353              		.file 5 "/Applications/Eclipse_e-puck2.app/Contents/Eclipse_e-puck2/Tools/gcc-arm-none-eabi-7-2017
 1354              		.file 6 "/Applications/Eclipse_e-puck2.app/Contents/Eclipse_e-puck2/Tools/gcc-arm-none-eabi-7-2017
 1355              		.file 7 "../e-puck2_main-processor/aseba/transport/buffer/../../common/types.h"
 1356              		.file 8 "../e-puck2_main-processor/aseba/transport/buffer/../../vm/vm.h"
 1357              		.file 9 "../e-puck2_main-processor/aseba/transport/buffer/../../vm/natives.h"
 1358              		.file 10 "../e-puck2_main-processor/aseba/transport/buffer/../../common/consts.h"
 1359              		.file 11 "../e-puck2_main-processor/aseba/transport/buffer/vm-buffer.h"
 1360              		.file 12 "/Applications/Eclipse_e-puck2.app/Contents/Eclipse_e-puck2/Tools/gcc-arm-none-eabi-7-201