ARM GAS  /var/folders/d2/nstgp4h54kz7g1l847x_b8wc0000gn/T//ccRa8b8D.s 			page 1


   1              		.cpu cortex-m4
   2              		.eabi_attribute 27, 1
   3              		.eabi_attribute 28, 1
   4              		.eabi_attribute 20, 1
   5              		.eabi_attribute 21, 1
   6              		.eabi_attribute 23, 3
   7              		.eabi_attribute 24, 1
   8              		.eabi_attribute 25, 1
   9              		.eabi_attribute 26, 1
  10              		.eabi_attribute 30, 6
  11              		.eabi_attribute 34, 1
  12              		.eabi_attribute 18, 4
  13              		.file	"vm-buffer.c"
  14              		.section	.bss.buffer,"aw",%nobits
  15              		.align	2
  16              		.type	buffer, %object
  17              		.size	buffer, 518
  18              	buffer:
  19 0000 00000000 		.space	518
  19      00000000 
  19      00000000 
  19      00000000 
  19      00000000 
  20              		.section	.bss.buffer_pos,"aw",%nobits
  21              		.align	2
  22              		.type	buffer_pos, %object
  23              		.size	buffer_pos, 4
  24              	buffer_pos:
  25 0000 00000000 		.space	4
  26              		.section	.text.buffer_add,"ax",%progbits
  27              		.align	1
  28              		.syntax unified
  29              		.thumb
  30              		.thumb_func
  31              		.fpu fpv4-sp-d16
  32              		.type	buffer_add, %function
  33              	buffer_add:
  34              		@ args = 0, pretend = 0, frame = 16
  35              		@ frame_needed = 1, uses_anonymous_args = 0
  36              		@ link register save eliminated.
  37 0000 80B4     		push	{r7}
  38 0002 85B0     		sub	sp, sp, #20
  39 0004 00AF     		add	r7, sp, #0
  40 0006 7860     		str	r0, [r7, #4]
  41 0008 0B46     		mov	r3, r1
  42 000a 7B80     		strh	r3, [r7, #2]	@ movhi
  43 000c 0023     		movs	r3, #0
  44 000e FB81     		strh	r3, [r7, #14]	@ movhi
  45 0010 0DE0     		b	.L2
  46              	.L3:
  47 0012 FB89     		ldrh	r3, [r7, #14]
  48 0014 5A1C     		adds	r2, r3, #1
  49 0016 FA81     		strh	r2, [r7, #14]	@ movhi
  50 0018 1A46     		mov	r2, r3
  51 001a 7B68     		ldr	r3, [r7, #4]
  52 001c 1A44     		add	r2, r2, r3
  53 001e 094B     		ldr	r3, .L4
ARM GAS  /var/folders/d2/nstgp4h54kz7g1l847x_b8wc0000gn/T//ccRa8b8D.s 			page 2


  54 0020 1B68     		ldr	r3, [r3]
  55 0022 591C     		adds	r1, r3, #1
  56 0024 0748     		ldr	r0, .L4
  57 0026 0160     		str	r1, [r0]
  58 0028 1178     		ldrb	r1, [r2]	@ zero_extendqisi2
  59 002a 074A     		ldr	r2, .L4+4
  60 002c D154     		strb	r1, [r2, r3]
  61              	.L2:
  62 002e FA89     		ldrh	r2, [r7, #14]
  63 0030 7B88     		ldrh	r3, [r7, #2]
  64 0032 9A42     		cmp	r2, r3
  65 0034 EDD3     		bcc	.L3
  66 0036 00BF     		nop
  67 0038 1437     		adds	r7, r7, #20
  68 003a BD46     		mov	sp, r7
  69              		@ sp needed
  70 003c 5DF8047B 		ldr	r7, [sp], #4
  71 0040 7047     		bx	lr
  72              	.L5:
  73 0042 00BF     		.align	2
  74              	.L4:
  75 0044 00000000 		.word	buffer_pos
  76 0048 00000000 		.word	buffer
  77              		.size	buffer_add, .-buffer_add
  78              		.section	.text.buffer_add_uint8,"ax",%progbits
  79              		.align	1
  80              		.syntax unified
  81              		.thumb
  82              		.thumb_func
  83              		.fpu fpv4-sp-d16
  84              		.type	buffer_add_uint8, %function
  85              	buffer_add_uint8:
  86              		@ args = 0, pretend = 0, frame = 8
  87              		@ frame_needed = 1, uses_anonymous_args = 0
  88 0000 80B5     		push	{r7, lr}
  89 0002 82B0     		sub	sp, sp, #8
  90 0004 00AF     		add	r7, sp, #0
  91 0006 0346     		mov	r3, r0
  92 0008 FB71     		strb	r3, [r7, #7]
  93 000a FB1D     		adds	r3, r7, #7
  94 000c 0121     		movs	r1, #1
  95 000e 1846     		mov	r0, r3
  96 0010 FFF7FEFF 		bl	buffer_add
  97 0014 00BF     		nop
  98 0016 0837     		adds	r7, r7, #8
  99 0018 BD46     		mov	sp, r7
 100              		@ sp needed
 101 001a 80BD     		pop	{r7, pc}
 102              		.size	buffer_add_uint8, .-buffer_add_uint8
 103              		.section	.text.buffer_add_uint16,"ax",%progbits
 104              		.align	1
 105              		.syntax unified
 106              		.thumb
 107              		.thumb_func
 108              		.fpu fpv4-sp-d16
 109              		.type	buffer_add_uint16, %function
 110              	buffer_add_uint16:
ARM GAS  /var/folders/d2/nstgp4h54kz7g1l847x_b8wc0000gn/T//ccRa8b8D.s 			page 3


 111              		@ args = 0, pretend = 0, frame = 16
 112              		@ frame_needed = 1, uses_anonymous_args = 0
 113 0000 80B5     		push	{r7, lr}
 114 0002 84B0     		sub	sp, sp, #16
 115 0004 00AF     		add	r7, sp, #0
 116 0006 0346     		mov	r3, r0
 117 0008 FB80     		strh	r3, [r7, #6]	@ movhi
 118 000a FB88     		ldrh	r3, [r7, #6]	@ movhi
 119 000c FB81     		strh	r3, [r7, #14]	@ movhi
 120 000e 07F10E03 		add	r3, r7, #14
 121 0012 0221     		movs	r1, #2
 122 0014 1846     		mov	r0, r3
 123 0016 FFF7FEFF 		bl	buffer_add
 124 001a 00BF     		nop
 125 001c 1037     		adds	r7, r7, #16
 126 001e BD46     		mov	sp, r7
 127              		@ sp needed
 128 0020 80BD     		pop	{r7, pc}
 129              		.size	buffer_add_uint16, .-buffer_add_uint16
 130              		.section	.text.buffer_add_sint16,"ax",%progbits
 131              		.align	1
 132              		.syntax unified
 133              		.thumb
 134              		.thumb_func
 135              		.fpu fpv4-sp-d16
 136              		.type	buffer_add_sint16, %function
 137              	buffer_add_sint16:
 138              		@ args = 0, pretend = 0, frame = 16
 139              		@ frame_needed = 1, uses_anonymous_args = 0
 140 0000 80B5     		push	{r7, lr}
 141 0002 84B0     		sub	sp, sp, #16
 142 0004 00AF     		add	r7, sp, #0
 143 0006 0346     		mov	r3, r0
 144 0008 FB80     		strh	r3, [r7, #6]	@ movhi
 145 000a FB88     		ldrh	r3, [r7, #6]
 146 000c FB81     		strh	r3, [r7, #14]	@ movhi
 147 000e 07F10E03 		add	r3, r7, #14
 148 0012 0221     		movs	r1, #2
 149 0014 1846     		mov	r0, r3
 150 0016 FFF7FEFF 		bl	buffer_add
 151 001a 00BF     		nop
 152 001c 1037     		adds	r7, r7, #16
 153 001e BD46     		mov	sp, r7
 154              		@ sp needed
 155 0020 80BD     		pop	{r7, pc}
 156              		.size	buffer_add_sint16, .-buffer_add_sint16
 157              		.section	.text.buffer_add_string,"ax",%progbits
 158              		.align	1
 159              		.syntax unified
 160              		.thumb
 161              		.thumb_func
 162              		.fpu fpv4-sp-d16
 163              		.type	buffer_add_string, %function
 164              	buffer_add_string:
 165              		@ args = 0, pretend = 0, frame = 16
 166              		@ frame_needed = 1, uses_anonymous_args = 0
 167 0000 80B5     		push	{r7, lr}
ARM GAS  /var/folders/d2/nstgp4h54kz7g1l847x_b8wc0000gn/T//ccRa8b8D.s 			page 4


 168 0002 84B0     		sub	sp, sp, #16
 169 0004 00AF     		add	r7, sp, #0
 170 0006 7860     		str	r0, [r7, #4]
 171 0008 7868     		ldr	r0, [r7, #4]
 172 000a FFF7FEFF 		bl	strlen
 173 000e 0346     		mov	r3, r0
 174 0010 FB81     		strh	r3, [r7, #14]	@ movhi
 175 0012 FB89     		ldrh	r3, [r7, #14]	@ movhi
 176 0014 DBB2     		uxtb	r3, r3
 177 0016 1846     		mov	r0, r3
 178 0018 FFF7FEFF 		bl	buffer_add_uint8
 179 001c 06E0     		b	.L10
 180              	.L11:
 181 001e 7B68     		ldr	r3, [r7, #4]
 182 0020 5A1C     		adds	r2, r3, #1
 183 0022 7A60     		str	r2, [r7, #4]
 184 0024 1B78     		ldrb	r3, [r3]	@ zero_extendqisi2
 185 0026 1846     		mov	r0, r3
 186 0028 FFF7FEFF 		bl	buffer_add_uint8
 187              	.L10:
 188 002c 7B68     		ldr	r3, [r7, #4]
 189 002e 1B78     		ldrb	r3, [r3]	@ zero_extendqisi2
 190 0030 002B     		cmp	r3, #0
 191 0032 F4D1     		bne	.L11
 192 0034 00BF     		nop
 193 0036 1037     		adds	r7, r7, #16
 194 0038 BD46     		mov	sp, r7
 195              		@ sp needed
 196 003a 80BD     		pop	{r7, pc}
 197              		.size	buffer_add_string, .-buffer_add_string
 198              		.section	.text.AsebaSendMessage,"ax",%progbits
 199              		.align	1
 200              		.global	AsebaSendMessage
 201              		.syntax unified
 202              		.thumb
 203              		.thumb_func
 204              		.fpu fpv4-sp-d16
 205              		.type	AsebaSendMessage, %function
 206              	AsebaSendMessage:
 207              		@ args = 0, pretend = 0, frame = 24
 208              		@ frame_needed = 1, uses_anonymous_args = 0
 209 0000 80B5     		push	{r7, lr}
 210 0002 86B0     		sub	sp, sp, #24
 211 0004 00AF     		add	r7, sp, #0
 212 0006 F860     		str	r0, [r7, #12]
 213 0008 7A60     		str	r2, [r7, #4]
 214 000a 1A46     		mov	r2, r3
 215 000c 0B46     		mov	r3, r1	@ movhi
 216 000e 7B81     		strh	r3, [r7, #10]	@ movhi
 217 0010 1346     		mov	r3, r2	@ movhi
 218 0012 3B81     		strh	r3, [r7, #8]	@ movhi
 219 0014 114B     		ldr	r3, .L15
 220 0016 0022     		movs	r2, #0
 221 0018 1A60     		str	r2, [r3]
 222 001a 7B89     		ldrh	r3, [r7, #10]
 223 001c 1846     		mov	r0, r3
 224 001e FFF7FEFF 		bl	buffer_add_uint16
ARM GAS  /var/folders/d2/nstgp4h54kz7g1l847x_b8wc0000gn/T//ccRa8b8D.s 			page 5


 225 0022 0023     		movs	r3, #0
 226 0024 FB82     		strh	r3, [r7, #22]	@ movhi
 227 0026 09E0     		b	.L13
 228              	.L14:
 229 0028 FB8A     		ldrh	r3, [r7, #22]
 230 002a 7A68     		ldr	r2, [r7, #4]
 231 002c 1344     		add	r3, r3, r2
 232 002e 1B78     		ldrb	r3, [r3]	@ zero_extendqisi2
 233 0030 1846     		mov	r0, r3
 234 0032 FFF7FEFF 		bl	buffer_add_uint8
 235 0036 FB8A     		ldrh	r3, [r7, #22]
 236 0038 0133     		adds	r3, r3, #1
 237 003a FB82     		strh	r3, [r7, #22]	@ movhi
 238              	.L13:
 239 003c FA8A     		ldrh	r2, [r7, #22]
 240 003e 3B89     		ldrh	r3, [r7, #8]
 241 0040 9A42     		cmp	r2, r3
 242 0042 F1D3     		bcc	.L14
 243 0044 054B     		ldr	r3, .L15
 244 0046 1B68     		ldr	r3, [r3]
 245 0048 9BB2     		uxth	r3, r3
 246 004a 1A46     		mov	r2, r3
 247 004c 0449     		ldr	r1, .L15+4
 248 004e F868     		ldr	r0, [r7, #12]
 249 0050 FFF7FEFF 		bl	AsebaSendBuffer
 250 0054 00BF     		nop
 251 0056 1837     		adds	r7, r7, #24
 252 0058 BD46     		mov	sp, r7
 253              		@ sp needed
 254 005a 80BD     		pop	{r7, pc}
 255              	.L16:
 256              		.align	2
 257              	.L15:
 258 005c 00000000 		.word	buffer_pos
 259 0060 00000000 		.word	buffer
 260              		.size	AsebaSendMessage, .-AsebaSendMessage
 261              		.section	.text.AsebaSendVariables,"ax",%progbits
 262              		.align	1
 263              		.global	AsebaSendVariables
 264              		.syntax unified
 265              		.thumb
 266              		.thumb_func
 267              		.fpu fpv4-sp-d16
 268              		.type	AsebaSendVariables, %function
 269              	AsebaSendVariables:
 270              		@ args = 0, pretend = 0, frame = 16
 271              		@ frame_needed = 1, uses_anonymous_args = 0
 272 0000 80B5     		push	{r7, lr}
 273 0002 84B0     		sub	sp, sp, #16
 274 0004 00AF     		add	r7, sp, #0
 275 0006 7860     		str	r0, [r7, #4]
 276 0008 0B46     		mov	r3, r1
 277 000a 7B80     		strh	r3, [r7, #2]	@ movhi
 278 000c 1346     		mov	r3, r2	@ movhi
 279 000e 3B80     		strh	r3, [r7]	@ movhi
 280 0010 164B     		ldr	r3, .L20
 281 0012 0022     		movs	r2, #0
ARM GAS  /var/folders/d2/nstgp4h54kz7g1l847x_b8wc0000gn/T//ccRa8b8D.s 			page 6


 282 0014 1A60     		str	r2, [r3]
 283 0016 49F20500 		movw	r0, #36869
 284 001a FFF7FEFF 		bl	buffer_add_uint16
 285 001e 7B88     		ldrh	r3, [r7, #2]
 286 0020 1846     		mov	r0, r3
 287 0022 FFF7FEFF 		bl	buffer_add_uint16
 288 0026 7B88     		ldrh	r3, [r7, #2]	@ movhi
 289 0028 FB81     		strh	r3, [r7, #14]	@ movhi
 290 002a 0DE0     		b	.L18
 291              	.L19:
 292 002c 7B68     		ldr	r3, [r7, #4]
 293 002e DA68     		ldr	r2, [r3, #12]
 294 0030 FB89     		ldrh	r3, [r7, #14]
 295 0032 5B00     		lsls	r3, r3, #1
 296 0034 1344     		add	r3, r3, r2
 297 0036 B3F90030 		ldrsh	r3, [r3]
 298 003a 9BB2     		uxth	r3, r3
 299 003c 1846     		mov	r0, r3
 300 003e FFF7FEFF 		bl	buffer_add_uint16
 301 0042 FB89     		ldrh	r3, [r7, #14]
 302 0044 0133     		adds	r3, r3, #1
 303 0046 FB81     		strh	r3, [r7, #14]	@ movhi
 304              	.L18:
 305 0048 FA89     		ldrh	r2, [r7, #14]
 306 004a 7988     		ldrh	r1, [r7, #2]
 307 004c 3B88     		ldrh	r3, [r7]
 308 004e 0B44     		add	r3, r3, r1
 309 0050 9A42     		cmp	r2, r3
 310 0052 EBDB     		blt	.L19
 311 0054 054B     		ldr	r3, .L20
 312 0056 1B68     		ldr	r3, [r3]
 313 0058 9BB2     		uxth	r3, r3
 314 005a 1A46     		mov	r2, r3
 315 005c 0449     		ldr	r1, .L20+4
 316 005e 7868     		ldr	r0, [r7, #4]
 317 0060 FFF7FEFF 		bl	AsebaSendBuffer
 318 0064 00BF     		nop
 319 0066 1037     		adds	r7, r7, #16
 320 0068 BD46     		mov	sp, r7
 321              		@ sp needed
 322 006a 80BD     		pop	{r7, pc}
 323              	.L21:
 324              		.align	2
 325              	.L20:
 326 006c 00000000 		.word	buffer_pos
 327 0070 00000000 		.word	buffer
 328              		.size	AsebaSendVariables, .-AsebaSendVariables
 329              		.section	.text.AsebaSendDescription,"ax",%progbits
 330              		.align	1
 331              		.global	AsebaSendDescription
 332              		.syntax unified
 333              		.thumb
 334              		.thumb_func
 335              		.fpu fpv4-sp-d16
 336              		.type	AsebaSendDescription, %function
 337              	AsebaSendDescription:
 338              		@ args = 0, pretend = 0, frame = 32
ARM GAS  /var/folders/d2/nstgp4h54kz7g1l847x_b8wc0000gn/T//ccRa8b8D.s 			page 7


 339              		@ frame_needed = 1, uses_anonymous_args = 0
 340 0000 80B5     		push	{r7, lr}
 341 0002 88B0     		sub	sp, sp, #32
 342 0004 00AF     		add	r7, sp, #0
 343 0006 7860     		str	r0, [r7, #4]
 344 0008 7868     		ldr	r0, [r7, #4]
 345 000a FFF7FEFF 		bl	AsebaGetVMDescription
 346 000e B861     		str	r0, [r7, #24]
 347 0010 BB69     		ldr	r3, [r7, #24]
 348 0012 0433     		adds	r3, r3, #4
 349 0014 7B61     		str	r3, [r7, #20]
 350 0016 7868     		ldr	r0, [r7, #4]
 351 0018 FFF7FEFF 		bl	AsebaGetNativeFunctionsDescriptions
 352 001c 3861     		str	r0, [r7, #16]
 353 001e 7868     		ldr	r0, [r7, #4]
 354 0020 FFF7FEFF 		bl	AsebaGetLocalEventsDescriptions
 355 0024 F860     		str	r0, [r7, #12]
 356 0026 0023     		movs	r3, #0
 357 0028 FB83     		strh	r3, [r7, #30]	@ movhi
 358 002a 914B     		ldr	r3, .L39
 359 002c 0022     		movs	r2, #0
 360 002e 1A60     		str	r2, [r3]
 361 0030 4FF41040 		mov	r0, #36864
 362 0034 FFF7FEFF 		bl	buffer_add_uint16
 363 0038 BB69     		ldr	r3, [r7, #24]
 364 003a 1B68     		ldr	r3, [r3]
 365 003c 1846     		mov	r0, r3
 366 003e FFF7FEFF 		bl	buffer_add_string
 367 0042 0520     		movs	r0, #5
 368 0044 FFF7FEFF 		bl	buffer_add_uint16
 369 0048 7B68     		ldr	r3, [r7, #4]
 370 004a 5B88     		ldrh	r3, [r3, #2]
 371 004c 1846     		mov	r0, r3
 372 004e FFF7FEFF 		bl	buffer_add_uint16
 373 0052 7B68     		ldr	r3, [r7, #4]
 374 0054 1B8A     		ldrh	r3, [r3, #16]
 375 0056 1846     		mov	r0, r3
 376 0058 FFF7FEFF 		bl	buffer_add_uint16
 377 005c 7B68     		ldr	r3, [r7, #4]
 378 005e 1B89     		ldrh	r3, [r3, #8]
 379 0060 1846     		mov	r0, r3
 380 0062 FFF7FEFF 		bl	buffer_add_uint16
 381 0066 0023     		movs	r3, #0
 382 0068 FB83     		strh	r3, [r7, #30]	@ movhi
 383 006a 02E0     		b	.L23
 384              	.L24:
 385 006c FB8B     		ldrh	r3, [r7, #30]
 386 006e 0133     		adds	r3, r3, #1
 387 0070 FB83     		strh	r3, [r7, #30]	@ movhi
 388              	.L23:
 389 0072 FB8B     		ldrh	r3, [r7, #30]
 390 0074 DB00     		lsls	r3, r3, #3
 391 0076 7A69     		ldr	r2, [r7, #20]
 392 0078 1344     		add	r3, r3, r2
 393 007a 1B88     		ldrh	r3, [r3]
 394 007c 002B     		cmp	r3, #0
 395 007e F5D1     		bne	.L24
ARM GAS  /var/folders/d2/nstgp4h54kz7g1l847x_b8wc0000gn/T//ccRa8b8D.s 			page 8


 396 0080 FB8B     		ldrh	r3, [r7, #30]
 397 0082 1846     		mov	r0, r3
 398 0084 FFF7FEFF 		bl	buffer_add_uint16
 399 0088 0023     		movs	r3, #0
 400 008a FB83     		strh	r3, [r7, #30]	@ movhi
 401 008c 02E0     		b	.L25
 402              	.L26:
 403 008e FB8B     		ldrh	r3, [r7, #30]
 404 0090 0133     		adds	r3, r3, #1
 405 0092 FB83     		strh	r3, [r7, #30]	@ movhi
 406              	.L25:
 407 0094 FB8B     		ldrh	r3, [r7, #30]
 408 0096 DB00     		lsls	r3, r3, #3
 409 0098 FA68     		ldr	r2, [r7, #12]
 410 009a 1344     		add	r3, r3, r2
 411 009c 1B68     		ldr	r3, [r3]
 412 009e 002B     		cmp	r3, #0
 413 00a0 F5D1     		bne	.L26
 414 00a2 FB8B     		ldrh	r3, [r7, #30]
 415 00a4 1846     		mov	r0, r3
 416 00a6 FFF7FEFF 		bl	buffer_add_uint16
 417 00aa 0023     		movs	r3, #0
 418 00ac FB83     		strh	r3, [r7, #30]	@ movhi
 419 00ae 02E0     		b	.L27
 420              	.L28:
 421 00b0 FB8B     		ldrh	r3, [r7, #30]
 422 00b2 0133     		adds	r3, r3, #1
 423 00b4 FB83     		strh	r3, [r7, #30]	@ movhi
 424              	.L27:
 425 00b6 FB8B     		ldrh	r3, [r7, #30]
 426 00b8 9B00     		lsls	r3, r3, #2
 427 00ba 3A69     		ldr	r2, [r7, #16]
 428 00bc 1344     		add	r3, r3, r2
 429 00be 1B68     		ldr	r3, [r3]
 430 00c0 002B     		cmp	r3, #0
 431 00c2 F5D1     		bne	.L28
 432 00c4 FB8B     		ldrh	r3, [r7, #30]
 433 00c6 1846     		mov	r0, r3
 434 00c8 FFF7FEFF 		bl	buffer_add_uint16
 435 00cc 684B     		ldr	r3, .L39
 436 00ce 1B68     		ldr	r3, [r3]
 437 00d0 9BB2     		uxth	r3, r3
 438 00d2 1A46     		mov	r2, r3
 439 00d4 6749     		ldr	r1, .L39+4
 440 00d6 7868     		ldr	r0, [r7, #4]
 441 00d8 FFF7FEFF 		bl	AsebaSendBuffer
 442 00dc 0023     		movs	r3, #0
 443 00de FB83     		strh	r3, [r7, #30]	@ movhi
 444 00e0 21E0     		b	.L29
 445              	.L30:
 446 00e2 634B     		ldr	r3, .L39
 447 00e4 0022     		movs	r2, #0
 448 00e6 1A60     		str	r2, [r3]
 449 00e8 49F20100 		movw	r0, #36865
 450 00ec FFF7FEFF 		bl	buffer_add_uint16
 451 00f0 FB8B     		ldrh	r3, [r7, #30]
 452 00f2 DB00     		lsls	r3, r3, #3
ARM GAS  /var/folders/d2/nstgp4h54kz7g1l847x_b8wc0000gn/T//ccRa8b8D.s 			page 9


 453 00f4 7A69     		ldr	r2, [r7, #20]
 454 00f6 1344     		add	r3, r3, r2
 455 00f8 1B88     		ldrh	r3, [r3]
 456 00fa 1846     		mov	r0, r3
 457 00fc FFF7FEFF 		bl	buffer_add_uint16
 458 0100 FB8B     		ldrh	r3, [r7, #30]
 459 0102 DB00     		lsls	r3, r3, #3
 460 0104 7A69     		ldr	r2, [r7, #20]
 461 0106 1344     		add	r3, r3, r2
 462 0108 5B68     		ldr	r3, [r3, #4]
 463 010a 1846     		mov	r0, r3
 464 010c FFF7FEFF 		bl	buffer_add_string
 465 0110 574B     		ldr	r3, .L39
 466 0112 1B68     		ldr	r3, [r3]
 467 0114 9BB2     		uxth	r3, r3
 468 0116 1A46     		mov	r2, r3
 469 0118 5649     		ldr	r1, .L39+4
 470 011a 7868     		ldr	r0, [r7, #4]
 471 011c FFF7FEFF 		bl	AsebaSendBuffer
 472 0120 FB8B     		ldrh	r3, [r7, #30]
 473 0122 0133     		adds	r3, r3, #1
 474 0124 FB83     		strh	r3, [r7, #30]	@ movhi
 475              	.L29:
 476 0126 FB8B     		ldrh	r3, [r7, #30]
 477 0128 DB00     		lsls	r3, r3, #3
 478 012a 7A69     		ldr	r2, [r7, #20]
 479 012c 1344     		add	r3, r3, r2
 480 012e 5B68     		ldr	r3, [r3, #4]
 481 0130 002B     		cmp	r3, #0
 482 0132 D6D1     		bne	.L30
 483 0134 0023     		movs	r3, #0
 484 0136 FB83     		strh	r3, [r7, #30]	@ movhi
 485 0138 21E0     		b	.L31
 486              	.L32:
 487 013a 4D4B     		ldr	r3, .L39
 488 013c 0022     		movs	r2, #0
 489 013e 1A60     		str	r2, [r3]
 490 0140 49F20200 		movw	r0, #36866
 491 0144 FFF7FEFF 		bl	buffer_add_uint16
 492 0148 FB8B     		ldrh	r3, [r7, #30]
 493 014a DB00     		lsls	r3, r3, #3
 494 014c FA68     		ldr	r2, [r7, #12]
 495 014e 1344     		add	r3, r3, r2
 496 0150 1B68     		ldr	r3, [r3]
 497 0152 1846     		mov	r0, r3
 498 0154 FFF7FEFF 		bl	buffer_add_string
 499 0158 FB8B     		ldrh	r3, [r7, #30]
 500 015a DB00     		lsls	r3, r3, #3
 501 015c FA68     		ldr	r2, [r7, #12]
 502 015e 1344     		add	r3, r3, r2
 503 0160 5B68     		ldr	r3, [r3, #4]
 504 0162 1846     		mov	r0, r3
 505 0164 FFF7FEFF 		bl	buffer_add_string
 506 0168 414B     		ldr	r3, .L39
 507 016a 1B68     		ldr	r3, [r3]
 508 016c 9BB2     		uxth	r3, r3
 509 016e 1A46     		mov	r2, r3
ARM GAS  /var/folders/d2/nstgp4h54kz7g1l847x_b8wc0000gn/T//ccRa8b8D.s 			page 10


 510 0170 4049     		ldr	r1, .L39+4
 511 0172 7868     		ldr	r0, [r7, #4]
 512 0174 FFF7FEFF 		bl	AsebaSendBuffer
 513 0178 FB8B     		ldrh	r3, [r7, #30]
 514 017a 0133     		adds	r3, r3, #1
 515 017c FB83     		strh	r3, [r7, #30]	@ movhi
 516              	.L31:
 517 017e FB8B     		ldrh	r3, [r7, #30]
 518 0180 DB00     		lsls	r3, r3, #3
 519 0182 FA68     		ldr	r2, [r7, #12]
 520 0184 1344     		add	r3, r3, r2
 521 0186 1B68     		ldr	r3, [r3]
 522 0188 002B     		cmp	r3, #0
 523 018a D6D1     		bne	.L32
 524 018c 0023     		movs	r3, #0
 525 018e FB83     		strh	r3, [r7, #30]	@ movhi
 526 0190 62E0     		b	.L33
 527              	.L38:
 528 0192 374B     		ldr	r3, .L39
 529 0194 0022     		movs	r2, #0
 530 0196 1A60     		str	r2, [r3]
 531 0198 49F20300 		movw	r0, #36867
 532 019c FFF7FEFF 		bl	buffer_add_uint16
 533 01a0 FB8B     		ldrh	r3, [r7, #30]
 534 01a2 9B00     		lsls	r3, r3, #2
 535 01a4 3A69     		ldr	r2, [r7, #16]
 536 01a6 1344     		add	r3, r3, r2
 537 01a8 1B68     		ldr	r3, [r3]
 538 01aa 1B68     		ldr	r3, [r3]
 539 01ac 1846     		mov	r0, r3
 540 01ae FFF7FEFF 		bl	buffer_add_string
 541 01b2 FB8B     		ldrh	r3, [r7, #30]
 542 01b4 9B00     		lsls	r3, r3, #2
 543 01b6 3A69     		ldr	r2, [r7, #16]
 544 01b8 1344     		add	r3, r3, r2
 545 01ba 1B68     		ldr	r3, [r3]
 546 01bc 5B68     		ldr	r3, [r3, #4]
 547 01be 1846     		mov	r0, r3
 548 01c0 FFF7FEFF 		bl	buffer_add_string
 549 01c4 0023     		movs	r3, #0
 550 01c6 BB83     		strh	r3, [r7, #28]	@ movhi
 551 01c8 02E0     		b	.L34
 552              	.L35:
 553 01ca BB8B     		ldrh	r3, [r7, #28]
 554 01cc 0133     		adds	r3, r3, #1
 555 01ce BB83     		strh	r3, [r7, #28]	@ movhi
 556              	.L34:
 557 01d0 FB8B     		ldrh	r3, [r7, #30]
 558 01d2 9B00     		lsls	r3, r3, #2
 559 01d4 3A69     		ldr	r2, [r7, #16]
 560 01d6 1344     		add	r3, r3, r2
 561 01d8 1B68     		ldr	r3, [r3]
 562 01da BA8B     		ldrh	r2, [r7, #28]
 563 01dc 0132     		adds	r2, r2, #1
 564 01de 33F93230 		ldrsh	r3, [r3, r2, lsl #3]
 565 01e2 002B     		cmp	r3, #0
 566 01e4 F1D1     		bne	.L35
ARM GAS  /var/folders/d2/nstgp4h54kz7g1l847x_b8wc0000gn/T//ccRa8b8D.s 			page 11


 567 01e6 BB8B     		ldrh	r3, [r7, #28]
 568 01e8 1846     		mov	r0, r3
 569 01ea FFF7FEFF 		bl	buffer_add_uint16
 570 01ee 0023     		movs	r3, #0
 571 01f0 BB83     		strh	r3, [r7, #28]	@ movhi
 572 01f2 1BE0     		b	.L36
 573              	.L37:
 574 01f4 FB8B     		ldrh	r3, [r7, #30]
 575 01f6 9B00     		lsls	r3, r3, #2
 576 01f8 3A69     		ldr	r2, [r7, #16]
 577 01fa 1344     		add	r3, r3, r2
 578 01fc 1B68     		ldr	r3, [r3]
 579 01fe BA8B     		ldrh	r2, [r7, #28]
 580 0200 0132     		adds	r2, r2, #1
 581 0202 33F93230 		ldrsh	r3, [r3, r2, lsl #3]
 582 0206 1846     		mov	r0, r3
 583 0208 FFF7FEFF 		bl	buffer_add_sint16
 584 020c FB8B     		ldrh	r3, [r7, #30]
 585 020e 9B00     		lsls	r3, r3, #2
 586 0210 3A69     		ldr	r2, [r7, #16]
 587 0212 1344     		add	r3, r3, r2
 588 0214 1A68     		ldr	r2, [r3]
 589 0216 BB8B     		ldrh	r3, [r7, #28]
 590 0218 0133     		adds	r3, r3, #1
 591 021a DB00     		lsls	r3, r3, #3
 592 021c 1344     		add	r3, r3, r2
 593 021e 5B68     		ldr	r3, [r3, #4]
 594 0220 1846     		mov	r0, r3
 595 0222 FFF7FEFF 		bl	buffer_add_string
 596 0226 BB8B     		ldrh	r3, [r7, #28]
 597 0228 0133     		adds	r3, r3, #1
 598 022a BB83     		strh	r3, [r7, #28]	@ movhi
 599              	.L36:
 600 022c FB8B     		ldrh	r3, [r7, #30]
 601 022e 9B00     		lsls	r3, r3, #2
 602 0230 3A69     		ldr	r2, [r7, #16]
 603 0232 1344     		add	r3, r3, r2
 604 0234 1B68     		ldr	r3, [r3]
 605 0236 BA8B     		ldrh	r2, [r7, #28]
 606 0238 0132     		adds	r2, r2, #1
 607 023a 33F93230 		ldrsh	r3, [r3, r2, lsl #3]
 608 023e 002B     		cmp	r3, #0
 609 0240 D8D1     		bne	.L37
 610 0242 0B4B     		ldr	r3, .L39
 611 0244 1B68     		ldr	r3, [r3]
 612 0246 9BB2     		uxth	r3, r3
 613 0248 1A46     		mov	r2, r3
 614 024a 0A49     		ldr	r1, .L39+4
 615 024c 7868     		ldr	r0, [r7, #4]
 616 024e FFF7FEFF 		bl	AsebaSendBuffer
 617 0252 FB8B     		ldrh	r3, [r7, #30]
 618 0254 0133     		adds	r3, r3, #1
 619 0256 FB83     		strh	r3, [r7, #30]	@ movhi
 620              	.L33:
 621 0258 FB8B     		ldrh	r3, [r7, #30]
 622 025a 9B00     		lsls	r3, r3, #2
 623 025c 3A69     		ldr	r2, [r7, #16]
ARM GAS  /var/folders/d2/nstgp4h54kz7g1l847x_b8wc0000gn/T//ccRa8b8D.s 			page 12


 624 025e 1344     		add	r3, r3, r2
 625 0260 1B68     		ldr	r3, [r3]
 626 0262 002B     		cmp	r3, #0
 627 0264 95D1     		bne	.L38
 628 0266 00BF     		nop
 629 0268 2037     		adds	r7, r7, #32
 630 026a BD46     		mov	sp, r7
 631              		@ sp needed
 632 026c 80BD     		pop	{r7, pc}
 633              	.L40:
 634 026e 00BF     		.align	2
 635              	.L39:
 636 0270 00000000 		.word	buffer_pos
 637 0274 00000000 		.word	buffer
 638              		.size	AsebaSendDescription, .-AsebaSendDescription
 639              		.section	.text.AsebaProcessIncomingEvents,"ax",%progbits
 640              		.align	1
 641              		.global	AsebaProcessIncomingEvents
 642              		.syntax unified
 643              		.thumb
 644              		.thumb_func
 645              		.fpu fpv4-sp-d16
 646              		.type	AsebaProcessIncomingEvents, %function
 647              	AsebaProcessIncomingEvents:
 648              		@ args = 0, pretend = 0, frame = 32
 649              		@ frame_needed = 1, uses_anonymous_args = 0
 650 0000 80B5     		push	{r7, lr}
 651 0002 88B0     		sub	sp, sp, #32
 652 0004 00AF     		add	r7, sp, #0
 653 0006 7860     		str	r0, [r7, #4]
 654 0008 7868     		ldr	r0, [r7, #4]
 655 000a FFF7FEFF 		bl	AsebaGetVMDescription
 656 000e B861     		str	r0, [r7, #24]
 657 0010 07F10803 		add	r3, r7, #8
 658 0014 40F20622 		movw	r2, #518
 659 0018 2F49     		ldr	r1, .L50
 660 001a 7868     		ldr	r0, [r7, #4]
 661 001c FFF7FEFF 		bl	AsebaGetBuffer
 662 0020 0346     		mov	r3, r0
 663 0022 FB82     		strh	r3, [r7, #22]	@ movhi
 664 0024 FB8A     		ldrh	r3, [r7, #22]
 665 0026 002B     		cmp	r3, #0
 666 0028 52D0     		beq	.L49
 667 002a 2B4B     		ldr	r3, .L50
 668 002c 1B88     		ldrh	r3, [r3]	@ movhi
 669 002e BB82     		strh	r3, [r7, #20]	@ movhi
 670 0030 2A4B     		ldr	r3, .L50+4
 671 0032 3B61     		str	r3, [r7, #16]
 672 0034 FB8A     		ldrh	r3, [r7, #22]
 673 0036 023B     		subs	r3, r3, #2
 674 0038 DA0F     		lsrs	r2, r3, #31
 675 003a 1344     		add	r3, r3, r2
 676 003c 5B10     		asrs	r3, r3, #1
 677 003e FB81     		strh	r3, [r7, #14]	@ movhi
 678 0040 B7F91430 		ldrsh	r3, [r7, #20]
 679 0044 002B     		cmp	r3, #0
 680 0046 3DDB     		blt	.L43
ARM GAS  /var/folders/d2/nstgp4h54kz7g1l847x_b8wc0000gn/T//ccRa8b8D.s 			page 13


 681 0048 7B68     		ldr	r3, [r7, #4]
 682 004a 1B8B     		ldrh	r3, [r3, #24]
 683 004c 03F00203 		and	r3, r3, #2
 684 0050 002B     		cmp	r3, #0
 685 0052 05D0     		beq	.L44
 686 0054 7B68     		ldr	r3, [r7, #4]
 687 0056 1B8B     		ldrh	r3, [r3, #24]
 688 0058 03F00103 		and	r3, r3, #1
 689 005c 002B     		cmp	r3, #0
 690 005e 37D1     		bne	.L49
 691              	.L44:
 692 0060 BB69     		ldr	r3, [r7, #24]
 693 0062 9B89     		ldrh	r3, [r3, #12]	@ movhi
 694 0064 BB81     		strh	r3, [r7, #12]	@ movhi
 695 0066 BB69     		ldr	r3, [r7, #24]
 696 0068 9B8A     		ldrh	r3, [r3, #20]	@ movhi
 697 006a 7B81     		strh	r3, [r7, #10]	@ movhi
 698 006c 3989     		ldrh	r1, [r7, #8]
 699 006e 7B68     		ldr	r3, [r7, #4]
 700 0070 DA68     		ldr	r2, [r3, #12]
 701 0072 BB89     		ldrh	r3, [r7, #12]
 702 0074 581C     		adds	r0, r3, #1
 703 0076 B881     		strh	r0, [r7, #12]	@ movhi
 704 0078 5B00     		lsls	r3, r3, #1
 705 007a 1344     		add	r3, r3, r2
 706 007c 0AB2     		sxth	r2, r1
 707 007e 1A80     		strh	r2, [r3]	@ movhi
 708 0080 0023     		movs	r3, #0
 709 0082 FB83     		strh	r3, [r7, #30]	@ movhi
 710 0084 10E0     		b	.L46
 711              	.L48:
 712 0086 FB8B     		ldrh	r3, [r7, #30]
 713 0088 5B00     		lsls	r3, r3, #1
 714 008a 3A69     		ldr	r2, [r7, #16]
 715 008c 1344     		add	r3, r3, r2
 716 008e 1888     		ldrh	r0, [r3]
 717 0090 7B68     		ldr	r3, [r7, #4]
 718 0092 DA68     		ldr	r2, [r3, #12]
 719 0094 B989     		ldrh	r1, [r7, #12]
 720 0096 FB8B     		ldrh	r3, [r7, #30]
 721 0098 0B44     		add	r3, r3, r1
 722 009a 5B00     		lsls	r3, r3, #1
 723 009c 1344     		add	r3, r3, r2
 724 009e 02B2     		sxth	r2, r0
 725 00a0 1A80     		strh	r2, [r3]	@ movhi
 726 00a2 FB8B     		ldrh	r3, [r7, #30]
 727 00a4 0133     		adds	r3, r3, #1
 728 00a6 FB83     		strh	r3, [r7, #30]	@ movhi
 729              	.L46:
 730 00a8 FA8B     		ldrh	r2, [r7, #30]
 731 00aa 7B89     		ldrh	r3, [r7, #10]
 732 00ac 9A42     		cmp	r2, r3
 733 00ae 03D2     		bcs	.L47
 734 00b0 FA8B     		ldrh	r2, [r7, #30]
 735 00b2 FB89     		ldrh	r3, [r7, #14]
 736 00b4 9A42     		cmp	r2, r3
 737 00b6 E6D3     		bcc	.L48
ARM GAS  /var/folders/d2/nstgp4h54kz7g1l847x_b8wc0000gn/T//ccRa8b8D.s 			page 14


 738              	.L47:
 739 00b8 BB8A     		ldrh	r3, [r7, #20]
 740 00ba 1946     		mov	r1, r3
 741 00bc 7868     		ldr	r0, [r7, #4]
 742 00be FFF7FEFF 		bl	AsebaVMSetupEvent
 743 00c2 05E0     		b	.L49
 744              	.L43:
 745 00c4 FB89     		ldrh	r3, [r7, #14]
 746 00c6 B98A     		ldrh	r1, [r7, #20]
 747 00c8 3A69     		ldr	r2, [r7, #16]
 748 00ca 7868     		ldr	r0, [r7, #4]
 749 00cc FFF7FEFF 		bl	AsebaVMDebugMessage
 750              	.L49:
 751 00d0 00BF     		nop
 752 00d2 2037     		adds	r7, r7, #32
 753 00d4 BD46     		mov	sp, r7
 754              		@ sp needed
 755 00d6 80BD     		pop	{r7, pc}
 756              	.L51:
 757              		.align	2
 758              	.L50:
 759 00d8 00000000 		.word	buffer
 760 00dc 02000000 		.word	buffer+2
 761              		.size	AsebaProcessIncomingEvents, .-AsebaProcessIncomingEvents
 762              		.ident	"GCC: (GNU Tools for Arm Embedded Processors 7-2017-q4-major) 7.2.1 20170904 (release) [ARM
ARM GAS  /var/folders/d2/nstgp4h54kz7g1l847x_b8wc0000gn/T//ccRa8b8D.s 			page 15


DEFINED SYMBOLS
                            *ABS*:0000000000000000 vm-buffer.c
/var/folders/d2/nstgp4h54kz7g1l847x_b8wc0000gn/T//ccRa8b8D.s:15     .bss.buffer:0000000000000000 $d
/var/folders/d2/nstgp4h54kz7g1l847x_b8wc0000gn/T//ccRa8b8D.s:18     .bss.buffer:0000000000000000 buffer
/var/folders/d2/nstgp4h54kz7g1l847x_b8wc0000gn/T//ccRa8b8D.s:21     .bss.buffer_pos:0000000000000000 $d
/var/folders/d2/nstgp4h54kz7g1l847x_b8wc0000gn/T//ccRa8b8D.s:24     .bss.buffer_pos:0000000000000000 buffer_pos
/var/folders/d2/nstgp4h54kz7g1l847x_b8wc0000gn/T//ccRa8b8D.s:27     .text.buffer_add:0000000000000000 $t
/var/folders/d2/nstgp4h54kz7g1l847x_b8wc0000gn/T//ccRa8b8D.s:33     .text.buffer_add:0000000000000000 buffer_add
/var/folders/d2/nstgp4h54kz7g1l847x_b8wc0000gn/T//ccRa8b8D.s:75     .text.buffer_add:0000000000000044 $d
/var/folders/d2/nstgp4h54kz7g1l847x_b8wc0000gn/T//ccRa8b8D.s:79     .text.buffer_add_uint8:0000000000000000 $t
/var/folders/d2/nstgp4h54kz7g1l847x_b8wc0000gn/T//ccRa8b8D.s:85     .text.buffer_add_uint8:0000000000000000 buffer_add_uint8
/var/folders/d2/nstgp4h54kz7g1l847x_b8wc0000gn/T//ccRa8b8D.s:104    .text.buffer_add_uint16:0000000000000000 $t
/var/folders/d2/nstgp4h54kz7g1l847x_b8wc0000gn/T//ccRa8b8D.s:110    .text.buffer_add_uint16:0000000000000000 buffer_add_uint16
/var/folders/d2/nstgp4h54kz7g1l847x_b8wc0000gn/T//ccRa8b8D.s:131    .text.buffer_add_sint16:0000000000000000 $t
/var/folders/d2/nstgp4h54kz7g1l847x_b8wc0000gn/T//ccRa8b8D.s:137    .text.buffer_add_sint16:0000000000000000 buffer_add_sint16
/var/folders/d2/nstgp4h54kz7g1l847x_b8wc0000gn/T//ccRa8b8D.s:158    .text.buffer_add_string:0000000000000000 $t
/var/folders/d2/nstgp4h54kz7g1l847x_b8wc0000gn/T//ccRa8b8D.s:164    .text.buffer_add_string:0000000000000000 buffer_add_string
/var/folders/d2/nstgp4h54kz7g1l847x_b8wc0000gn/T//ccRa8b8D.s:199    .text.AsebaSendMessage:0000000000000000 $t
/var/folders/d2/nstgp4h54kz7g1l847x_b8wc0000gn/T//ccRa8b8D.s:206    .text.AsebaSendMessage:0000000000000000 AsebaSendMessage
/var/folders/d2/nstgp4h54kz7g1l847x_b8wc0000gn/T//ccRa8b8D.s:258    .text.AsebaSendMessage:000000000000005c $d
/var/folders/d2/nstgp4h54kz7g1l847x_b8wc0000gn/T//ccRa8b8D.s:262    .text.AsebaSendVariables:0000000000000000 $t
/var/folders/d2/nstgp4h54kz7g1l847x_b8wc0000gn/T//ccRa8b8D.s:269    .text.AsebaSendVariables:0000000000000000 AsebaSendVariables
/var/folders/d2/nstgp4h54kz7g1l847x_b8wc0000gn/T//ccRa8b8D.s:326    .text.AsebaSendVariables:000000000000006c $d
/var/folders/d2/nstgp4h54kz7g1l847x_b8wc0000gn/T//ccRa8b8D.s:330    .text.AsebaSendDescription:0000000000000000 $t
/var/folders/d2/nstgp4h54kz7g1l847x_b8wc0000gn/T//ccRa8b8D.s:337    .text.AsebaSendDescription:0000000000000000 AsebaSendDescription
/var/folders/d2/nstgp4h54kz7g1l847x_b8wc0000gn/T//ccRa8b8D.s:636    .text.AsebaSendDescription:0000000000000270 $d
/var/folders/d2/nstgp4h54kz7g1l847x_b8wc0000gn/T//ccRa8b8D.s:640    .text.AsebaProcessIncomingEvents:0000000000000000 $t
/var/folders/d2/nstgp4h54kz7g1l847x_b8wc0000gn/T//ccRa8b8D.s:647    .text.AsebaProcessIncomingEvents:0000000000000000 AsebaProcessIncomingEvents
/var/folders/d2/nstgp4h54kz7g1l847x_b8wc0000gn/T//ccRa8b8D.s:759    .text.AsebaProcessIncomingEvents:00000000000000d8 $d

UNDEFINED SYMBOLS
strlen
AsebaSendBuffer
AsebaGetVMDescription
AsebaGetNativeFunctionsDescriptions
AsebaGetLocalEventsDescriptions
AsebaGetBuffer
AsebaVMSetupEvent
AsebaVMDebugMessage
