ARM GAS  /var/folders/d2/nstgp4h54kz7g1l847x_b8wc0000gn/T//ccZlAA6i.s 			page 1


   1              		.cpu cortex-m4
   2              		.eabi_attribute 27, 1
   3              		.eabi_attribute 28, 1
   4              		.eabi_attribute 20, 1
   5              		.eabi_attribute 21, 1
   6              		.eabi_attribute 23, 3
   7              		.eabi_attribute 24, 1
   8              		.eabi_attribute 25, 1
   9              		.eabi_attribute 26, 1
  10              		.eabi_attribute 30, 6
  11              		.eabi_attribute 34, 1
  12              		.eabi_attribute 18, 4
  13              		.file	"vm.c"
  14              		.section	.text.AsebaVMInit,"ax",%progbits
  15              		.align	1
  16              		.global	AsebaVMInit
  17              		.syntax unified
  18              		.thumb
  19              		.thumb_func
  20              		.fpu fpv4-sp-d16
  21              		.type	AsebaVMInit, %function
  22              	AsebaVMInit:
  23              		@ args = 0, pretend = 0, frame = 8
  24              		@ frame_needed = 1, uses_anonymous_args = 0
  25 0000 80B5     		push	{r7, lr}
  26 0002 82B0     		sub	sp, sp, #8
  27 0004 00AF     		add	r7, sp, #0
  28 0006 7860     		str	r0, [r7, #4]
  29 0008 7B68     		ldr	r3, [r7, #4]
  30 000a 0022     		movs	r2, #0
  31 000c 5A83     		strh	r2, [r3, #26]	@ movhi
  32 000e 7B68     		ldr	r3, [r7, #4]
  33 0010 0022     		movs	r2, #0
  34 0012 1A83     		strh	r2, [r3, #24]	@ movhi
  35 0014 7B68     		ldr	r3, [r7, #4]
  36 0016 0022     		movs	r2, #0
  37 0018 DA87     		strh	r2, [r3, #62]	@ movhi
  38 001a 7B68     		ldr	r3, [r7, #4]
  39 001c 5B68     		ldr	r3, [r3, #4]
  40 001e 0022     		movs	r2, #0
  41 0020 1A80     		strh	r2, [r3]	@ movhi
  42 0022 7B68     		ldr	r3, [r7, #4]
  43 0024 D868     		ldr	r0, [r3, #12]
  44 0026 7B68     		ldr	r3, [r7, #4]
  45 0028 1B89     		ldrh	r3, [r3, #8]
  46 002a 5B00     		lsls	r3, r3, #1
  47 002c 1A46     		mov	r2, r3
  48 002e 0021     		movs	r1, #0
  49 0030 FFF7FEFF 		bl	memset
  50 0034 00BF     		nop
  51 0036 0837     		adds	r7, r7, #8
  52 0038 BD46     		mov	sp, r7
  53              		@ sp needed
  54 003a 80BD     		pop	{r7, pc}
  55              		.size	AsebaVMInit, .-AsebaVMInit
  56              		.section	.text.AsebaVMGetEventAddress,"ax",%progbits
  57              		.align	1
ARM GAS  /var/folders/d2/nstgp4h54kz7g1l847x_b8wc0000gn/T//ccZlAA6i.s 			page 2


  58              		.global	AsebaVMGetEventAddress
  59              		.syntax unified
  60              		.thumb
  61              		.thumb_func
  62              		.fpu fpv4-sp-d16
  63              		.type	AsebaVMGetEventAddress, %function
  64              	AsebaVMGetEventAddress:
  65              		@ args = 0, pretend = 0, frame = 16
  66              		@ frame_needed = 1, uses_anonymous_args = 0
  67              		@ link register save eliminated.
  68 0000 80B4     		push	{r7}
  69 0002 85B0     		sub	sp, sp, #20
  70 0004 00AF     		add	r7, sp, #0
  71 0006 7860     		str	r0, [r7, #4]
  72 0008 0B46     		mov	r3, r1
  73 000a 7B80     		strh	r3, [r7, #2]	@ movhi
  74 000c 7B68     		ldr	r3, [r7, #4]
  75 000e 5B68     		ldr	r3, [r3, #4]
  76 0010 1B88     		ldrh	r3, [r3]	@ movhi
  77 0012 BB81     		strh	r3, [r7, #12]	@ movhi
  78 0014 0123     		movs	r3, #1
  79 0016 FB81     		strh	r3, [r7, #14]	@ movhi
  80 0018 13E0     		b	.L3
  81              	.L6:
  82 001a 7B68     		ldr	r3, [r7, #4]
  83 001c 5A68     		ldr	r2, [r3, #4]
  84 001e FB89     		ldrh	r3, [r7, #14]
  85 0020 5B00     		lsls	r3, r3, #1
  86 0022 1344     		add	r3, r3, r2
  87 0024 1B88     		ldrh	r3, [r3]
  88 0026 7A88     		ldrh	r2, [r7, #2]
  89 0028 9A42     		cmp	r2, r3
  90 002a 07D1     		bne	.L4
  91 002c 7B68     		ldr	r3, [r7, #4]
  92 002e 5A68     		ldr	r2, [r3, #4]
  93 0030 FB89     		ldrh	r3, [r7, #14]
  94 0032 0133     		adds	r3, r3, #1
  95 0034 5B00     		lsls	r3, r3, #1
  96 0036 1344     		add	r3, r3, r2
  97 0038 1B88     		ldrh	r3, [r3]
  98 003a 07E0     		b	.L5
  99              	.L4:
 100 003c FB89     		ldrh	r3, [r7, #14]	@ movhi
 101 003e 0233     		adds	r3, r3, #2
 102 0040 FB81     		strh	r3, [r7, #14]	@ movhi
 103              	.L3:
 104 0042 FA89     		ldrh	r2, [r7, #14]
 105 0044 BB89     		ldrh	r3, [r7, #12]
 106 0046 9A42     		cmp	r2, r3
 107 0048 E7D3     		bcc	.L6
 108 004a 0023     		movs	r3, #0
 109              	.L5:
 110 004c 1846     		mov	r0, r3
 111 004e 1437     		adds	r7, r7, #20
 112 0050 BD46     		mov	sp, r7
 113              		@ sp needed
 114 0052 5DF8047B 		ldr	r7, [sp], #4
ARM GAS  /var/folders/d2/nstgp4h54kz7g1l847x_b8wc0000gn/T//ccZlAA6i.s 			page 3


 115 0056 7047     		bx	lr
 116              		.size	AsebaVMGetEventAddress, .-AsebaVMGetEventAddress
 117              		.section	.text.AsebaVMSetupEvent,"ax",%progbits
 118              		.align	1
 119              		.global	AsebaVMSetupEvent
 120              		.syntax unified
 121              		.thumb
 122              		.thumb_func
 123              		.fpu fpv4-sp-d16
 124              		.type	AsebaVMSetupEvent, %function
 125              	AsebaVMSetupEvent:
 126              		@ args = 0, pretend = 0, frame = 16
 127              		@ frame_needed = 1, uses_anonymous_args = 0
 128 0000 80B5     		push	{r7, lr}
 129 0002 84B0     		sub	sp, sp, #16
 130 0004 00AF     		add	r7, sp, #0
 131 0006 7860     		str	r0, [r7, #4]
 132 0008 0B46     		mov	r3, r1
 133 000a 7B80     		strh	r3, [r7, #2]	@ movhi
 134 000c 7B88     		ldrh	r3, [r7, #2]
 135 000e 1946     		mov	r1, r3
 136 0010 7868     		ldr	r0, [r7, #4]
 137 0012 FFF7FEFF 		bl	AsebaVMGetEventAddress
 138 0016 0346     		mov	r3, r0
 139 0018 FB81     		strh	r3, [r7, #14]	@ movhi
 140 001a FB89     		ldrh	r3, [r7, #14]
 141 001c 002B     		cmp	r3, #0
 142 001e 25D0     		beq	.L8
 143 0020 7B68     		ldr	r3, [r7, #4]
 144 0022 1B8B     		ldrh	r3, [r3, #24]
 145 0024 03F00103 		and	r3, r3, #1
 146 0028 002B     		cmp	r3, #0
 147 002a 08D0     		beq	.L9
 148 002c 7B68     		ldr	r3, [r7, #4]
 149 002e 03F11A02 		add	r2, r3, #26
 150 0032 0223     		movs	r3, #2
 151 0034 49F20801 		movw	r1, #36872
 152 0038 7868     		ldr	r0, [r7, #4]
 153 003a FFF7FEFF 		bl	AsebaSendMessage
 154              	.L9:
 155 003e 7B68     		ldr	r3, [r7, #4]
 156 0040 FA89     		ldrh	r2, [r7, #14]	@ movhi
 157 0042 5A83     		strh	r2, [r3, #26]	@ movhi
 158 0044 7B68     		ldr	r3, [r7, #4]
 159 0046 4FF6FF72 		movw	r2, #65535
 160 004a 9A83     		strh	r2, [r3, #28]	@ movhi
 161 004c 7B68     		ldr	r3, [r7, #4]
 162 004e 1B8B     		ldrh	r3, [r3, #24]
 163 0050 43F00103 		orr	r3, r3, #1
 164 0054 9AB2     		uxth	r2, r3
 165 0056 7B68     		ldr	r3, [r7, #4]
 166 0058 1A83     		strh	r2, [r3, #24]	@ movhi
 167 005a 7B68     		ldr	r3, [r7, #4]
 168 005c 1B8B     		ldrh	r3, [r3, #24]
 169 005e 03F00203 		and	r3, r3, #2
 170 0062 002B     		cmp	r3, #0
 171 0064 02D0     		beq	.L8
ARM GAS  /var/folders/d2/nstgp4h54kz7g1l847x_b8wc0000gn/T//ccZlAA6i.s 			page 4


 172 0066 7868     		ldr	r0, [r7, #4]
 173 0068 FFF7FEFF 		bl	AsebaVMSendExecutionStateChanged
 174              	.L8:
 175 006c FB89     		ldrh	r3, [r7, #14]
 176 006e 1846     		mov	r0, r3
 177 0070 1037     		adds	r7, r7, #16
 178 0072 BD46     		mov	sp, r7
 179              		@ sp needed
 180 0074 80BD     		pop	{r7, pc}
 181              		.size	AsebaVMSetupEvent, .-AsebaVMSetupEvent
 182              		.section	.text.AsebaVMDoBinaryOperation,"ax",%progbits
 183              		.align	1
 184              		.syntax unified
 185              		.thumb
 186              		.thumb_func
 187              		.fpu fpv4-sp-d16
 188              		.type	AsebaVMDoBinaryOperation, %function
 189              	AsebaVMDoBinaryOperation:
 190              		@ args = 0, pretend = 0, frame = 16
 191              		@ frame_needed = 1, uses_anonymous_args = 0
 192 0000 80B5     		push	{r7, lr}
 193 0002 84B0     		sub	sp, sp, #16
 194 0004 00AF     		add	r7, sp, #0
 195 0006 F860     		str	r0, [r7, #12]
 196 0008 0846     		mov	r0, r1
 197 000a 1146     		mov	r1, r2
 198 000c 1A46     		mov	r2, r3
 199 000e 0346     		mov	r3, r0	@ movhi
 200 0010 7B81     		strh	r3, [r7, #10]	@ movhi
 201 0012 0B46     		mov	r3, r1	@ movhi
 202 0014 3B81     		strh	r3, [r7, #8]	@ movhi
 203 0016 1346     		mov	r3, r2	@ movhi
 204 0018 FB80     		strh	r3, [r7, #6]	@ movhi
 205 001a FB88     		ldrh	r3, [r7, #6]
 206 001c 112B     		cmp	r3, #17
 207 001e 00F2FA80 		bhi	.L12
 208 0022 01A2     		adr	r2, .L14
 209 0024 52F823F0 		ldr	pc, [r2, r3, lsl #2]
 210              		.p2align 2
 211              	.L14:
 212 0028 71000000 		.word	.L13+1
 213 002c 81000000 		.word	.L15+1
 214 0030 91000000 		.word	.L16+1
 215 0034 9D000000 		.word	.L17+1
 216 0038 A9000000 		.word	.L18+1
 217 003c B7000000 		.word	.L19+1
 218 0040 F9000000 		.word	.L20+1
 219 0044 41010000 		.word	.L21+1
 220 0048 4B010000 		.word	.L22+1
 221 004c 55010000 		.word	.L23+1
 222 0050 5F010000 		.word	.L24+1
 223 0054 75010000 		.word	.L25+1
 224 0058 8B010000 		.word	.L26+1
 225 005c A1010000 		.word	.L27+1
 226 0060 B7010000 		.word	.L28+1
 227 0064 CD010000 		.word	.L29+1
 228 0068 E3010000 		.word	.L30+1
ARM GAS  /var/folders/d2/nstgp4h54kz7g1l847x_b8wc0000gn/T//ccZlAA6i.s 			page 5


 229 006c FD010000 		.word	.L31+1
 230              		.p2align 1
 231              	.L13:
 232 0070 B7F90A20 		ldrsh	r2, [r7, #10]
 233 0074 B7F90830 		ldrsh	r3, [r7, #8]
 234 0078 02FA03F3 		lsl	r3, r2, r3
 235 007c 1BB2     		sxth	r3, r3
 236 007e CBE0     		b	.L32
 237              	.L15:
 238 0080 B7F90A20 		ldrsh	r2, [r7, #10]
 239 0084 B7F90830 		ldrsh	r3, [r7, #8]
 240 0088 42FA03F3 		asr	r3, r2, r3
 241 008c 1BB2     		sxth	r3, r3
 242 008e C3E0     		b	.L32
 243              	.L16:
 244 0090 7A89     		ldrh	r2, [r7, #10]
 245 0092 3B89     		ldrh	r3, [r7, #8]
 246 0094 1344     		add	r3, r3, r2
 247 0096 9BB2     		uxth	r3, r3
 248 0098 1BB2     		sxth	r3, r3
 249 009a BDE0     		b	.L32
 250              	.L17:
 251 009c 7A89     		ldrh	r2, [r7, #10]
 252 009e 3B89     		ldrh	r3, [r7, #8]
 253 00a0 D31A     		subs	r3, r2, r3
 254 00a2 9BB2     		uxth	r3, r3
 255 00a4 1BB2     		sxth	r3, r3
 256 00a6 B7E0     		b	.L32
 257              	.L18:
 258 00a8 7A89     		ldrh	r2, [r7, #10]
 259 00aa 3B89     		ldrh	r3, [r7, #8]
 260 00ac 12FB03F3 		smulbb	r3, r2, r3
 261 00b0 9BB2     		uxth	r3, r3
 262 00b2 1BB2     		sxth	r3, r3
 263 00b4 B0E0     		b	.L32
 264              	.L19:
 265 00b6 B7F90830 		ldrsh	r3, [r7, #8]
 266 00ba 002B     		cmp	r3, #0
 267 00bc 14D1     		bne	.L33
 268 00be 584B     		ldr	r3, .L42
 269 00c0 002B     		cmp	r3, #0
 270 00c2 03D0     		beq	.L34
 271 00c4 0021     		movs	r1, #0
 272 00c6 F868     		ldr	r0, [r7, #12]
 273 00c8 FFF7FEFF 		bl	AsebaVMErrorCB
 274              	.L34:
 275 00cc FB68     		ldr	r3, [r7, #12]
 276 00ce 0222     		movs	r2, #2
 277 00d0 1A83     		strh	r2, [r3, #24]	@ movhi
 278 00d2 FB68     		ldr	r3, [r7, #12]
 279 00d4 03F11A02 		add	r2, r3, #26
 280 00d8 0223     		movs	r3, #2
 281 00da 49F20701 		movw	r1, #36871
 282 00de F868     		ldr	r0, [r7, #12]
 283 00e0 FFF7FEFF 		bl	AsebaSendMessage
 284 00e4 0023     		movs	r3, #0
 285 00e6 97E0     		b	.L32
ARM GAS  /var/folders/d2/nstgp4h54kz7g1l847x_b8wc0000gn/T//ccZlAA6i.s 			page 6


 286              	.L33:
 287 00e8 B7F90A20 		ldrsh	r2, [r7, #10]
 288 00ec B7F90830 		ldrsh	r3, [r7, #8]
 289 00f0 92FBF3F3 		sdiv	r3, r2, r3
 290 00f4 1BB2     		sxth	r3, r3
 291 00f6 8FE0     		b	.L32
 292              	.L20:
 293 00f8 B7F90830 		ldrsh	r3, [r7, #8]
 294 00fc 002B     		cmp	r3, #0
 295 00fe 14D1     		bne	.L35
 296 0100 474B     		ldr	r3, .L42
 297 0102 002B     		cmp	r3, #0
 298 0104 03D0     		beq	.L36
 299 0106 0021     		movs	r1, #0
 300 0108 F868     		ldr	r0, [r7, #12]
 301 010a FFF7FEFF 		bl	AsebaVMErrorCB
 302              	.L36:
 303 010e FB68     		ldr	r3, [r7, #12]
 304 0110 0222     		movs	r2, #2
 305 0112 1A83     		strh	r2, [r3, #24]	@ movhi
 306 0114 FB68     		ldr	r3, [r7, #12]
 307 0116 03F11A02 		add	r2, r3, #26
 308 011a 0223     		movs	r3, #2
 309 011c 49F20701 		movw	r1, #36871
 310 0120 F868     		ldr	r0, [r7, #12]
 311 0122 FFF7FEFF 		bl	AsebaSendMessage
 312 0126 0023     		movs	r3, #0
 313 0128 76E0     		b	.L32
 314              	.L35:
 315 012a B7F90A30 		ldrsh	r3, [r7, #10]
 316 012e B7F90820 		ldrsh	r2, [r7, #8]
 317 0132 93FBF2F1 		sdiv	r1, r3, r2
 318 0136 02FB01F2 		mul	r2, r2, r1
 319 013a 9B1A     		subs	r3, r3, r2
 320 013c 1BB2     		sxth	r3, r3
 321 013e 6BE0     		b	.L32
 322              	.L21:
 323 0140 7A89     		ldrh	r2, [r7, #10]	@ movhi
 324 0142 3B89     		ldrh	r3, [r7, #8]	@ movhi
 325 0144 1343     		orrs	r3, r3, r2
 326 0146 1BB2     		sxth	r3, r3
 327 0148 66E0     		b	.L32
 328              	.L22:
 329 014a 7A89     		ldrh	r2, [r7, #10]	@ movhi
 330 014c 3B89     		ldrh	r3, [r7, #8]	@ movhi
 331 014e 5340     		eors	r3, r3, r2
 332 0150 1BB2     		sxth	r3, r3
 333 0152 61E0     		b	.L32
 334              	.L23:
 335 0154 7A89     		ldrh	r2, [r7, #10]	@ movhi
 336 0156 3B89     		ldrh	r3, [r7, #8]	@ movhi
 337 0158 1340     		ands	r3, r3, r2
 338 015a 1BB2     		sxth	r3, r3
 339 015c 5CE0     		b	.L32
 340              	.L24:
 341 015e B7F90A20 		ldrsh	r2, [r7, #10]
 342 0162 B7F90830 		ldrsh	r3, [r7, #8]
ARM GAS  /var/folders/d2/nstgp4h54kz7g1l847x_b8wc0000gn/T//ccZlAA6i.s 			page 7


 343 0166 9A42     		cmp	r2, r3
 344 0168 0CBF     		ite	eq
 345 016a 0123     		moveq	r3, #1
 346 016c 0023     		movne	r3, #0
 347 016e DBB2     		uxtb	r3, r3
 348 0170 1BB2     		sxth	r3, r3
 349 0172 51E0     		b	.L32
 350              	.L25:
 351 0174 B7F90A20 		ldrsh	r2, [r7, #10]
 352 0178 B7F90830 		ldrsh	r3, [r7, #8]
 353 017c 9A42     		cmp	r2, r3
 354 017e 14BF     		ite	ne
 355 0180 0123     		movne	r3, #1
 356 0182 0023     		moveq	r3, #0
 357 0184 DBB2     		uxtb	r3, r3
 358 0186 1BB2     		sxth	r3, r3
 359 0188 46E0     		b	.L32
 360              	.L26:
 361 018a B7F90A20 		ldrsh	r2, [r7, #10]
 362 018e B7F90830 		ldrsh	r3, [r7, #8]
 363 0192 9A42     		cmp	r2, r3
 364 0194 CCBF     		ite	gt
 365 0196 0123     		movgt	r3, #1
 366 0198 0023     		movle	r3, #0
 367 019a DBB2     		uxtb	r3, r3
 368 019c 1BB2     		sxth	r3, r3
 369 019e 3BE0     		b	.L32
 370              	.L27:
 371 01a0 B7F90A20 		ldrsh	r2, [r7, #10]
 372 01a4 B7F90830 		ldrsh	r3, [r7, #8]
 373 01a8 9A42     		cmp	r2, r3
 374 01aa ACBF     		ite	ge
 375 01ac 0123     		movge	r3, #1
 376 01ae 0023     		movlt	r3, #0
 377 01b0 DBB2     		uxtb	r3, r3
 378 01b2 1BB2     		sxth	r3, r3
 379 01b4 30E0     		b	.L32
 380              	.L28:
 381 01b6 B7F90A20 		ldrsh	r2, [r7, #10]
 382 01ba B7F90830 		ldrsh	r3, [r7, #8]
 383 01be 9A42     		cmp	r2, r3
 384 01c0 B4BF     		ite	lt
 385 01c2 0123     		movlt	r3, #1
 386 01c4 0023     		movge	r3, #0
 387 01c6 DBB2     		uxtb	r3, r3
 388 01c8 1BB2     		sxth	r3, r3
 389 01ca 25E0     		b	.L32
 390              	.L29:
 391 01cc B7F90A20 		ldrsh	r2, [r7, #10]
 392 01d0 B7F90830 		ldrsh	r3, [r7, #8]
 393 01d4 9A42     		cmp	r2, r3
 394 01d6 D4BF     		ite	le
 395 01d8 0123     		movle	r3, #1
 396 01da 0023     		movgt	r3, #0
 397 01dc DBB2     		uxtb	r3, r3
 398 01de 1BB2     		sxth	r3, r3
 399 01e0 1AE0     		b	.L32
ARM GAS  /var/folders/d2/nstgp4h54kz7g1l847x_b8wc0000gn/T//ccZlAA6i.s 			page 8


 400              	.L30:
 401 01e2 B7F90A30 		ldrsh	r3, [r7, #10]
 402 01e6 002B     		cmp	r3, #0
 403 01e8 03D1     		bne	.L37
 404 01ea B7F90830 		ldrsh	r3, [r7, #8]
 405 01ee 002B     		cmp	r3, #0
 406 01f0 01D0     		beq	.L38
 407              	.L37:
 408 01f2 0123     		movs	r3, #1
 409 01f4 00E0     		b	.L39
 410              	.L38:
 411 01f6 0023     		movs	r3, #0
 412              	.L39:
 413 01f8 1BB2     		sxth	r3, r3
 414 01fa 0DE0     		b	.L32
 415              	.L31:
 416 01fc B7F90A30 		ldrsh	r3, [r7, #10]
 417 0200 002B     		cmp	r3, #0
 418 0202 05D0     		beq	.L40
 419 0204 B7F90830 		ldrsh	r3, [r7, #8]
 420 0208 002B     		cmp	r3, #0
 421 020a 01D0     		beq	.L40
 422 020c 0123     		movs	r3, #1
 423 020e 00E0     		b	.L41
 424              	.L40:
 425 0210 0023     		movs	r3, #0
 426              	.L41:
 427 0212 1BB2     		sxth	r3, r3
 428 0214 00E0     		b	.L32
 429              	.L12:
 430 0216 0023     		movs	r3, #0
 431              	.L32:
 432 0218 1846     		mov	r0, r3
 433 021a 1037     		adds	r7, r7, #16
 434 021c BD46     		mov	sp, r7
 435              		@ sp needed
 436 021e 80BD     		pop	{r7, pc}
 437              	.L43:
 438              		.align	2
 439              	.L42:
 440 0220 00000000 		.word	AsebaVMErrorCB
 441              		.size	AsebaVMDoBinaryOperation, .-AsebaVMDoBinaryOperation
 442              		.section	.text.AsebaVMDoUnaryOperation,"ax",%progbits
 443              		.align	1
 444              		.syntax unified
 445              		.thumb
 446              		.thumb_func
 447              		.fpu fpv4-sp-d16
 448              		.type	AsebaVMDoUnaryOperation, %function
 449              	AsebaVMDoUnaryOperation:
 450              		@ args = 0, pretend = 0, frame = 8
 451              		@ frame_needed = 1, uses_anonymous_args = 0
 452              		@ link register save eliminated.
 453 0000 80B4     		push	{r7}
 454 0002 83B0     		sub	sp, sp, #12
 455 0004 00AF     		add	r7, sp, #0
 456 0006 7860     		str	r0, [r7, #4]
ARM GAS  /var/folders/d2/nstgp4h54kz7g1l847x_b8wc0000gn/T//ccZlAA6i.s 			page 9


 457 0008 0B46     		mov	r3, r1
 458 000a 7B80     		strh	r3, [r7, #2]	@ movhi
 459 000c 1346     		mov	r3, r2	@ movhi
 460 000e 3B80     		strh	r3, [r7]	@ movhi
 461 0010 3B88     		ldrh	r3, [r7]
 462 0012 012B     		cmp	r3, #1
 463 0014 08D0     		beq	.L46
 464 0016 022B     		cmp	r3, #2
 465 0018 0DD0     		beq	.L47
 466 001a 002B     		cmp	r3, #0
 467 001c 0FD1     		bne	.L50
 468 001e 7B88     		ldrh	r3, [r7, #2]
 469 0020 5B42     		negs	r3, r3
 470 0022 9BB2     		uxth	r3, r3
 471 0024 1BB2     		sxth	r3, r3
 472 0026 0BE0     		b	.L49
 473              	.L46:
 474 0028 B7F90230 		ldrsh	r3, [r7, #2]
 475 002c 002B     		cmp	r3, #0
 476 002e B8BF     		it	lt
 477 0030 5B42     		rsblt	r3, r3, #0
 478 0032 1BB2     		sxth	r3, r3
 479 0034 04E0     		b	.L49
 480              	.L47:
 481 0036 7B88     		ldrh	r3, [r7, #2]	@ movhi
 482 0038 DB43     		mvns	r3, r3
 483 003a 1BB2     		sxth	r3, r3
 484 003c 00E0     		b	.L49
 485              	.L50:
 486 003e 0023     		movs	r3, #0
 487              	.L49:
 488 0040 1846     		mov	r0, r3
 489 0042 0C37     		adds	r7, r7, #12
 490 0044 BD46     		mov	sp, r7
 491              		@ sp needed
 492 0046 5DF8047B 		ldr	r7, [sp], #4
 493 004a 7047     		bx	lr
 494              		.size	AsebaVMDoUnaryOperation, .-AsebaVMDoUnaryOperation
 495              		.section	.text.AsebaVMStep,"ax",%progbits
 496              		.align	1
 497              		.global	AsebaVMStep
 498              		.syntax unified
 499              		.thumb
 500              		.thumb_func
 501              		.fpu fpv4-sp-d16
 502              		.type	AsebaVMStep, %function
 503              	AsebaVMStep:
 504              		@ args = 0, pretend = 0, frame = 72
 505              		@ frame_needed = 1, uses_anonymous_args = 0
 506 0000 80B5     		push	{r7, lr}
 507 0002 92B0     		sub	sp, sp, #72
 508 0004 00AF     		add	r7, sp, #0
 509 0006 7860     		str	r0, [r7, #4]
 510 0008 7B68     		ldr	r3, [r7, #4]
 511 000a 5A68     		ldr	r2, [r3, #4]
 512 000c 7B68     		ldr	r3, [r7, #4]
 513 000e 5B8B     		ldrh	r3, [r3, #26]
ARM GAS  /var/folders/d2/nstgp4h54kz7g1l847x_b8wc0000gn/T//ccZlAA6i.s 			page 10


 514 0010 5B00     		lsls	r3, r3, #1
 515 0012 1344     		add	r3, r3, r2
 516 0014 1B88     		ldrh	r3, [r3]	@ movhi
 517 0016 A7F84430 		strh	r3, [r7, #68]	@ movhi
 518 001a B7F84430 		ldrh	r3, [r7, #68]
 519 001e 1B0B     		lsrs	r3, r3, #12
 520 0020 9BB2     		uxth	r3, r3
 521 0022 0E2B     		cmp	r3, #14
 522 0024 00F2BA82 		bhi	.L79
 523 0028 01A2     		adr	r2, .L54
 524 002a 52F823F0 		ldr	pc, [r2, r3, lsl #2]
 525 002e 00BF     		.p2align 2
 526              	.L54:
 527 0030 6D000000 		.word	.L53+1
 528 0034 7D000000 		.word	.L55+1
 529 0038 BB000000 		.word	.L56+1
 530 003c FD000000 		.word	.L57+1
 531 0040 45010000 		.word	.L58+1
 532 0044 89010000 		.word	.L59+1
 533 0048 29020000 		.word	.L60+1
 534 004c E3020000 		.word	.L61+1
 535 0050 2D030000 		.word	.L62+1
 536 0054 A3030000 		.word	.L63+1
 537 0058 BF030000 		.word	.L64+1
 538 005c BD040000 		.word	.L65+1
 539 0060 13050000 		.word	.L66+1
 540 0064 33050000 		.word	.L67+1
 541 0068 75050000 		.word	.L68+1
 542              		.p2align 1
 543              	.L53:
 544 006c 7B68     		ldr	r3, [r7, #4]
 545 006e 1B8B     		ldrh	r3, [r3, #24]
 546 0070 23F00103 		bic	r3, r3, #1
 547 0074 9AB2     		uxth	r2, r3
 548 0076 7B68     		ldr	r3, [r7, #4]
 549 0078 1A83     		strh	r2, [r3, #24]	@ movhi
 550 007a 94E2     		b	.L69
 551              	.L55:
 552 007c B7F84430 		ldrh	r3, [r7, #68]
 553 0080 1B01     		lsls	r3, r3, #4
 554 0082 1BB2     		sxth	r3, r3
 555 0084 1B11     		asrs	r3, r3, #4
 556 0086 3B83     		strh	r3, [r7, #24]	@ movhi
 557 0088 7B68     		ldr	r3, [r7, #4]
 558 008a 5A69     		ldr	r2, [r3, #20]
 559 008c 7B68     		ldr	r3, [r7, #4]
 560 008e B3F91C30 		ldrsh	r3, [r3, #28]
 561 0092 9BB2     		uxth	r3, r3
 562 0094 0133     		adds	r3, r3, #1
 563 0096 9BB2     		uxth	r3, r3
 564 0098 19B2     		sxth	r1, r3
 565 009a 7B68     		ldr	r3, [r7, #4]
 566 009c 9983     		strh	r1, [r3, #28]	@ movhi
 567 009e 7B68     		ldr	r3, [r7, #4]
 568 00a0 B3F91C30 		ldrsh	r3, [r3, #28]
 569 00a4 5B00     		lsls	r3, r3, #1
 570 00a6 1344     		add	r3, r3, r2
ARM GAS  /var/folders/d2/nstgp4h54kz7g1l847x_b8wc0000gn/T//ccZlAA6i.s 			page 11


 571 00a8 3A8B     		ldrh	r2, [r7, #24]	@ movhi
 572 00aa 1A80     		strh	r2, [r3]	@ movhi
 573 00ac 7B68     		ldr	r3, [r7, #4]
 574 00ae 5B8B     		ldrh	r3, [r3, #26]
 575 00b0 0133     		adds	r3, r3, #1
 576 00b2 9AB2     		uxth	r2, r3
 577 00b4 7B68     		ldr	r3, [r7, #4]
 578 00b6 5A83     		strh	r2, [r3, #26]	@ movhi
 579 00b8 75E2     		b	.L69
 580              	.L56:
 581 00ba 7B68     		ldr	r3, [r7, #4]
 582 00bc 5A68     		ldr	r2, [r3, #4]
 583 00be 7B68     		ldr	r3, [r7, #4]
 584 00c0 5B8B     		ldrh	r3, [r3, #26]
 585 00c2 0133     		adds	r3, r3, #1
 586 00c4 5B00     		lsls	r3, r3, #1
 587 00c6 1344     		add	r3, r3, r2
 588 00c8 1988     		ldrh	r1, [r3]
 589 00ca 7B68     		ldr	r3, [r7, #4]
 590 00cc 5A69     		ldr	r2, [r3, #20]
 591 00ce 7B68     		ldr	r3, [r7, #4]
 592 00d0 B3F91C30 		ldrsh	r3, [r3, #28]
 593 00d4 9BB2     		uxth	r3, r3
 594 00d6 0133     		adds	r3, r3, #1
 595 00d8 9BB2     		uxth	r3, r3
 596 00da 18B2     		sxth	r0, r3
 597 00dc 7B68     		ldr	r3, [r7, #4]
 598 00de 9883     		strh	r0, [r3, #28]	@ movhi
 599 00e0 7B68     		ldr	r3, [r7, #4]
 600 00e2 B3F91C30 		ldrsh	r3, [r3, #28]
 601 00e6 5B00     		lsls	r3, r3, #1
 602 00e8 1344     		add	r3, r3, r2
 603 00ea 0AB2     		sxth	r2, r1
 604 00ec 1A80     		strh	r2, [r3]	@ movhi
 605 00ee 7B68     		ldr	r3, [r7, #4]
 606 00f0 5B8B     		ldrh	r3, [r3, #26]
 607 00f2 0233     		adds	r3, r3, #2
 608 00f4 9AB2     		uxth	r2, r3
 609 00f6 7B68     		ldr	r3, [r7, #4]
 610 00f8 5A83     		strh	r2, [r3, #26]	@ movhi
 611 00fa 54E2     		b	.L69
 612              	.L57:
 613 00fc B7F84430 		ldrh	r3, [r7, #68]	@ movhi
 614 0100 C3F30B03 		ubfx	r3, r3, #0, #12
 615 0104 7B83     		strh	r3, [r7, #26]	@ movhi
 616 0106 7B68     		ldr	r3, [r7, #4]
 617 0108 DA68     		ldr	r2, [r3, #12]
 618 010a 7B8B     		ldrh	r3, [r7, #26]
 619 010c 5B00     		lsls	r3, r3, #1
 620 010e 1A44     		add	r2, r2, r3
 621 0110 7B68     		ldr	r3, [r7, #4]
 622 0112 5969     		ldr	r1, [r3, #20]
 623 0114 7B68     		ldr	r3, [r7, #4]
 624 0116 B3F91C30 		ldrsh	r3, [r3, #28]
 625 011a 9BB2     		uxth	r3, r3
 626 011c 0133     		adds	r3, r3, #1
 627 011e 9BB2     		uxth	r3, r3
ARM GAS  /var/folders/d2/nstgp4h54kz7g1l847x_b8wc0000gn/T//ccZlAA6i.s 			page 12


 628 0120 18B2     		sxth	r0, r3
 629 0122 7B68     		ldr	r3, [r7, #4]
 630 0124 9883     		strh	r0, [r3, #28]	@ movhi
 631 0126 7B68     		ldr	r3, [r7, #4]
 632 0128 B3F91C30 		ldrsh	r3, [r3, #28]
 633 012c 5B00     		lsls	r3, r3, #1
 634 012e 0B44     		add	r3, r3, r1
 635 0130 B2F90020 		ldrsh	r2, [r2]
 636 0134 1A80     		strh	r2, [r3]	@ movhi
 637 0136 7B68     		ldr	r3, [r7, #4]
 638 0138 5B8B     		ldrh	r3, [r3, #26]
 639 013a 0133     		adds	r3, r3, #1
 640 013c 9AB2     		uxth	r2, r3
 641 013e 7B68     		ldr	r3, [r7, #4]
 642 0140 5A83     		strh	r2, [r3, #26]	@ movhi
 643 0142 30E2     		b	.L69
 644              	.L58:
 645 0144 B7F84430 		ldrh	r3, [r7, #68]	@ movhi
 646 0148 C3F30B03 		ubfx	r3, r3, #0, #12
 647 014c BB83     		strh	r3, [r7, #28]	@ movhi
 648 014e 7B68     		ldr	r3, [r7, #4]
 649 0150 5A69     		ldr	r2, [r3, #20]
 650 0152 7B68     		ldr	r3, [r7, #4]
 651 0154 B3F91C10 		ldrsh	r1, [r3, #28]
 652 0158 8BB2     		uxth	r3, r1
 653 015a 013B     		subs	r3, r3, #1
 654 015c 9BB2     		uxth	r3, r3
 655 015e 18B2     		sxth	r0, r3
 656 0160 7B68     		ldr	r3, [r7, #4]
 657 0162 9883     		strh	r0, [r3, #28]	@ movhi
 658 0164 0B46     		mov	r3, r1
 659 0166 5B00     		lsls	r3, r3, #1
 660 0168 1A44     		add	r2, r2, r3
 661 016a 7B68     		ldr	r3, [r7, #4]
 662 016c D968     		ldr	r1, [r3, #12]
 663 016e BB8B     		ldrh	r3, [r7, #28]
 664 0170 5B00     		lsls	r3, r3, #1
 665 0172 0B44     		add	r3, r3, r1
 666 0174 B2F90020 		ldrsh	r2, [r2]
 667 0178 1A80     		strh	r2, [r3]	@ movhi
 668 017a 7B68     		ldr	r3, [r7, #4]
 669 017c 5B8B     		ldrh	r3, [r3, #26]
 670 017e 0133     		adds	r3, r3, #1
 671 0180 9AB2     		uxth	r2, r3
 672 0182 7B68     		ldr	r3, [r7, #4]
 673 0184 5A83     		strh	r2, [r3, #26]	@ movhi
 674 0186 0EE2     		b	.L69
 675              	.L59:
 676 0188 B7F84430 		ldrh	r3, [r7, #68]	@ movhi
 677 018c C3F30B03 		ubfx	r3, r3, #0, #12
 678 0190 7B84     		strh	r3, [r7, #34]	@ movhi
 679 0192 7B68     		ldr	r3, [r7, #4]
 680 0194 5A68     		ldr	r2, [r3, #4]
 681 0196 7B68     		ldr	r3, [r7, #4]
 682 0198 5B8B     		ldrh	r3, [r3, #26]
 683 019a 0133     		adds	r3, r3, #1
 684 019c 5B00     		lsls	r3, r3, #1
ARM GAS  /var/folders/d2/nstgp4h54kz7g1l847x_b8wc0000gn/T//ccZlAA6i.s 			page 13


 685 019e 1344     		add	r3, r3, r2
 686 01a0 1B88     		ldrh	r3, [r3]	@ movhi
 687 01a2 3B84     		strh	r3, [r7, #32]	@ movhi
 688 01a4 7B68     		ldr	r3, [r7, #4]
 689 01a6 5A69     		ldr	r2, [r3, #20]
 690 01a8 7B68     		ldr	r3, [r7, #4]
 691 01aa B3F91C30 		ldrsh	r3, [r3, #28]
 692 01ae 5B00     		lsls	r3, r3, #1
 693 01b0 1344     		add	r3, r3, r2
 694 01b2 B3F90030 		ldrsh	r3, [r3]
 695 01b6 FB83     		strh	r3, [r7, #30]	@ movhi
 696 01b8 FA8B     		ldrh	r2, [r7, #30]
 697 01ba 3B8C     		ldrh	r3, [r7, #32]
 698 01bc 9A42     		cmp	r2, r3
 699 01be 1BD3     		bcc	.L70
 700 01c0 7B68     		ldr	r3, [r7, #4]
 701 01c2 5B8B     		ldrh	r3, [r3, #26]
 702 01c4 3B82     		strh	r3, [r7, #16]	@ movhi
 703 01c6 3B8C     		ldrh	r3, [r7, #32]	@ movhi
 704 01c8 7B82     		strh	r3, [r7, #18]	@ movhi
 705 01ca FB8B     		ldrh	r3, [r7, #30]	@ movhi
 706 01cc BB82     		strh	r3, [r7, #20]	@ movhi
 707 01ce 7B68     		ldr	r3, [r7, #4]
 708 01d0 0222     		movs	r2, #2
 709 01d2 1A83     		strh	r2, [r3, #24]	@ movhi
 710 01d4 07F11002 		add	r2, r7, #16
 711 01d8 0623     		movs	r3, #6
 712 01da 49F20601 		movw	r1, #36870
 713 01de 7868     		ldr	r0, [r7, #4]
 714 01e0 FFF7FEFF 		bl	AsebaSendMessage
 715 01e4 A74B     		ldr	r3, .L82
 716 01e6 002B     		cmp	r3, #0
 717 01e8 00F0DA81 		beq	.L80
 718 01ec 0021     		movs	r1, #0
 719 01ee 7868     		ldr	r0, [r7, #4]
 720 01f0 FFF7FEFF 		bl	AsebaVMErrorCB
 721 01f4 00BF     		nop
 722 01f6 D3E1     		b	.L80
 723              	.L70:
 724 01f8 7B68     		ldr	r3, [r7, #4]
 725 01fa DA68     		ldr	r2, [r3, #12]
 726 01fc 798C     		ldrh	r1, [r7, #34]
 727 01fe FB8B     		ldrh	r3, [r7, #30]
 728 0200 0B44     		add	r3, r3, r1
 729 0202 5B00     		lsls	r3, r3, #1
 730 0204 1A44     		add	r2, r2, r3
 731 0206 7B68     		ldr	r3, [r7, #4]
 732 0208 5969     		ldr	r1, [r3, #20]
 733 020a 7B68     		ldr	r3, [r7, #4]
 734 020c B3F91C30 		ldrsh	r3, [r3, #28]
 735 0210 5B00     		lsls	r3, r3, #1
 736 0212 0B44     		add	r3, r3, r1
 737 0214 B2F90020 		ldrsh	r2, [r2]
 738 0218 1A80     		strh	r2, [r3]	@ movhi
 739 021a 7B68     		ldr	r3, [r7, #4]
 740 021c 5B8B     		ldrh	r3, [r3, #26]
 741 021e 0233     		adds	r3, r3, #2
ARM GAS  /var/folders/d2/nstgp4h54kz7g1l847x_b8wc0000gn/T//ccZlAA6i.s 			page 14


 742 0220 9AB2     		uxth	r2, r3
 743 0222 7B68     		ldr	r3, [r7, #4]
 744 0224 5A83     		strh	r2, [r3, #26]	@ movhi
 745 0226 BEE1     		b	.L69
 746              	.L60:
 747 0228 B7F84430 		ldrh	r3, [r7, #68]	@ movhi
 748 022c C3F30B03 		ubfx	r3, r3, #0, #12
 749 0230 7B85     		strh	r3, [r7, #42]	@ movhi
 750 0232 7B68     		ldr	r3, [r7, #4]
 751 0234 5A68     		ldr	r2, [r3, #4]
 752 0236 7B68     		ldr	r3, [r7, #4]
 753 0238 5B8B     		ldrh	r3, [r3, #26]
 754 023a 0133     		adds	r3, r3, #1
 755 023c 5B00     		lsls	r3, r3, #1
 756 023e 1344     		add	r3, r3, r2
 757 0240 1B88     		ldrh	r3, [r3]	@ movhi
 758 0242 3B85     		strh	r3, [r7, #40]	@ movhi
 759 0244 7B68     		ldr	r3, [r7, #4]
 760 0246 5A69     		ldr	r2, [r3, #20]
 761 0248 7B68     		ldr	r3, [r7, #4]
 762 024a B3F91C30 		ldrsh	r3, [r3, #28]
 763 024e 03F10043 		add	r3, r3, #-2147483648
 764 0252 013B     		subs	r3, r3, #1
 765 0254 5B00     		lsls	r3, r3, #1
 766 0256 1344     		add	r3, r3, r2
 767 0258 1B88     		ldrh	r3, [r3]	@ movhi
 768 025a FB84     		strh	r3, [r7, #38]	@ movhi
 769 025c 7B68     		ldr	r3, [r7, #4]
 770 025e 5A69     		ldr	r2, [r3, #20]
 771 0260 7B68     		ldr	r3, [r7, #4]
 772 0262 B3F91C30 		ldrsh	r3, [r3, #28]
 773 0266 5B00     		lsls	r3, r3, #1
 774 0268 1344     		add	r3, r3, r2
 775 026a B3F90030 		ldrsh	r3, [r3]
 776 026e BB84     		strh	r3, [r7, #36]	@ movhi
 777 0270 BA8C     		ldrh	r2, [r7, #36]
 778 0272 3B8D     		ldrh	r3, [r7, #40]
 779 0274 9A42     		cmp	r2, r3
 780 0276 1BD3     		bcc	.L72
 781 0278 7B68     		ldr	r3, [r7, #4]
 782 027a 5B8B     		ldrh	r3, [r3, #26]
 783 027c 3B81     		strh	r3, [r7, #8]	@ movhi
 784 027e 3B8D     		ldrh	r3, [r7, #40]	@ movhi
 785 0280 7B81     		strh	r3, [r7, #10]	@ movhi
 786 0282 BB8C     		ldrh	r3, [r7, #36]	@ movhi
 787 0284 BB81     		strh	r3, [r7, #12]	@ movhi
 788 0286 7B68     		ldr	r3, [r7, #4]
 789 0288 0222     		movs	r2, #2
 790 028a 1A83     		strh	r2, [r3, #24]	@ movhi
 791 028c 07F10802 		add	r2, r7, #8
 792 0290 0623     		movs	r3, #6
 793 0292 49F20601 		movw	r1, #36870
 794 0296 7868     		ldr	r0, [r7, #4]
 795 0298 FFF7FEFF 		bl	AsebaSendMessage
 796 029c 794B     		ldr	r3, .L82
 797 029e 002B     		cmp	r3, #0
 798 02a0 00F08081 		beq	.L81
ARM GAS  /var/folders/d2/nstgp4h54kz7g1l847x_b8wc0000gn/T//ccZlAA6i.s 			page 15


 799 02a4 0021     		movs	r1, #0
 800 02a6 7868     		ldr	r0, [r7, #4]
 801 02a8 FFF7FEFF 		bl	AsebaVMErrorCB
 802 02ac 00BF     		nop
 803 02ae 79E1     		b	.L81
 804              	.L72:
 805 02b0 7B68     		ldr	r3, [r7, #4]
 806 02b2 DA68     		ldr	r2, [r3, #12]
 807 02b4 798D     		ldrh	r1, [r7, #42]
 808 02b6 BB8C     		ldrh	r3, [r7, #36]
 809 02b8 0B44     		add	r3, r3, r1
 810 02ba 5B00     		lsls	r3, r3, #1
 811 02bc 1344     		add	r3, r3, r2
 812 02be FA8C     		ldrh	r2, [r7, #38]	@ movhi
 813 02c0 1A80     		strh	r2, [r3]	@ movhi
 814 02c2 7B68     		ldr	r3, [r7, #4]
 815 02c4 B3F91C30 		ldrsh	r3, [r3, #28]
 816 02c8 9BB2     		uxth	r3, r3
 817 02ca 023B     		subs	r3, r3, #2
 818 02cc 9BB2     		uxth	r3, r3
 819 02ce 1AB2     		sxth	r2, r3
 820 02d0 7B68     		ldr	r3, [r7, #4]
 821 02d2 9A83     		strh	r2, [r3, #28]	@ movhi
 822 02d4 7B68     		ldr	r3, [r7, #4]
 823 02d6 5B8B     		ldrh	r3, [r3, #26]
 824 02d8 0233     		adds	r3, r3, #2
 825 02da 9AB2     		uxth	r2, r3
 826 02dc 7B68     		ldr	r3, [r7, #4]
 827 02de 5A83     		strh	r2, [r3, #26]	@ movhi
 828 02e0 61E1     		b	.L69
 829              	.L61:
 830 02e2 7B68     		ldr	r3, [r7, #4]
 831 02e4 5A69     		ldr	r2, [r3, #20]
 832 02e6 7B68     		ldr	r3, [r7, #4]
 833 02e8 B3F91C30 		ldrsh	r3, [r3, #28]
 834 02ec 5B00     		lsls	r3, r3, #1
 835 02ee 1344     		add	r3, r3, r2
 836 02f0 1B88     		ldrh	r3, [r3]	@ movhi
 837 02f2 FB85     		strh	r3, [r7, #46]	@ movhi
 838 02f4 B7F84430 		ldrh	r3, [r7, #68]	@ movhi
 839 02f8 DBB2     		uxtb	r3, r3
 840 02fa 9AB2     		uxth	r2, r3
 841 02fc B7F92E30 		ldrsh	r3, [r7, #46]
 842 0300 1946     		mov	r1, r3
 843 0302 7868     		ldr	r0, [r7, #4]
 844 0304 FFF7FEFF 		bl	AsebaVMDoUnaryOperation
 845 0308 0346     		mov	r3, r0
 846 030a BB85     		strh	r3, [r7, #44]	@ movhi
 847 030c 7B68     		ldr	r3, [r7, #4]
 848 030e 5A69     		ldr	r2, [r3, #20]
 849 0310 7B68     		ldr	r3, [r7, #4]
 850 0312 B3F91C30 		ldrsh	r3, [r3, #28]
 851 0316 5B00     		lsls	r3, r3, #1
 852 0318 1344     		add	r3, r3, r2
 853 031a BA8D     		ldrh	r2, [r7, #44]	@ movhi
 854 031c 1A80     		strh	r2, [r3]	@ movhi
 855 031e 7B68     		ldr	r3, [r7, #4]
ARM GAS  /var/folders/d2/nstgp4h54kz7g1l847x_b8wc0000gn/T//ccZlAA6i.s 			page 16


 856 0320 5B8B     		ldrh	r3, [r3, #26]
 857 0322 0133     		adds	r3, r3, #1
 858 0324 9AB2     		uxth	r2, r3
 859 0326 7B68     		ldr	r3, [r7, #4]
 860 0328 5A83     		strh	r2, [r3, #26]	@ movhi
 861 032a 3CE1     		b	.L69
 862              	.L62:
 863 032c 7B68     		ldr	r3, [r7, #4]
 864 032e 5A69     		ldr	r2, [r3, #20]
 865 0330 7B68     		ldr	r3, [r7, #4]
 866 0332 B3F91C30 		ldrsh	r3, [r3, #28]
 867 0336 03F10043 		add	r3, r3, #-2147483648
 868 033a 013B     		subs	r3, r3, #1
 869 033c 5B00     		lsls	r3, r3, #1
 870 033e 1344     		add	r3, r3, r2
 871 0340 1B88     		ldrh	r3, [r3]	@ movhi
 872 0342 BB86     		strh	r3, [r7, #52]	@ movhi
 873 0344 7B68     		ldr	r3, [r7, #4]
 874 0346 5A69     		ldr	r2, [r3, #20]
 875 0348 7B68     		ldr	r3, [r7, #4]
 876 034a B3F91C30 		ldrsh	r3, [r3, #28]
 877 034e 5B00     		lsls	r3, r3, #1
 878 0350 1344     		add	r3, r3, r2
 879 0352 1B88     		ldrh	r3, [r3]	@ movhi
 880 0354 7B86     		strh	r3, [r7, #50]	@ movhi
 881 0356 B7F84430 		ldrh	r3, [r7, #68]	@ movhi
 882 035a DBB2     		uxtb	r3, r3
 883 035c 9BB2     		uxth	r3, r3
 884 035e B7F93220 		ldrsh	r2, [r7, #50]
 885 0362 B7F93410 		ldrsh	r1, [r7, #52]
 886 0366 7868     		ldr	r0, [r7, #4]
 887 0368 FFF7FEFF 		bl	AsebaVMDoBinaryOperation
 888 036c 0346     		mov	r3, r0
 889 036e 3B86     		strh	r3, [r7, #48]	@ movhi
 890 0370 7B68     		ldr	r3, [r7, #4]
 891 0372 B3F91C30 		ldrsh	r3, [r3, #28]
 892 0376 9BB2     		uxth	r3, r3
 893 0378 013B     		subs	r3, r3, #1
 894 037a 9BB2     		uxth	r3, r3
 895 037c 1AB2     		sxth	r2, r3
 896 037e 7B68     		ldr	r3, [r7, #4]
 897 0380 9A83     		strh	r2, [r3, #28]	@ movhi
 898 0382 7B68     		ldr	r3, [r7, #4]
 899 0384 5A69     		ldr	r2, [r3, #20]
 900 0386 7B68     		ldr	r3, [r7, #4]
 901 0388 B3F91C30 		ldrsh	r3, [r3, #28]
 902 038c 5B00     		lsls	r3, r3, #1
 903 038e 1344     		add	r3, r3, r2
 904 0390 3A8E     		ldrh	r2, [r7, #48]	@ movhi
 905 0392 1A80     		strh	r2, [r3]	@ movhi
 906 0394 7B68     		ldr	r3, [r7, #4]
 907 0396 5B8B     		ldrh	r3, [r3, #26]
 908 0398 0133     		adds	r3, r3, #1
 909 039a 9AB2     		uxth	r2, r3
 910 039c 7B68     		ldr	r3, [r7, #4]
 911 039e 5A83     		strh	r2, [r3, #26]	@ movhi
 912 03a0 01E1     		b	.L69
ARM GAS  /var/folders/d2/nstgp4h54kz7g1l847x_b8wc0000gn/T//ccZlAA6i.s 			page 17


 913              	.L63:
 914 03a2 B7F84430 		ldrh	r3, [r7, #68]
 915 03a6 1B01     		lsls	r3, r3, #4
 916 03a8 1BB2     		sxth	r3, r3
 917 03aa 1B11     		asrs	r3, r3, #4
 918 03ac FB86     		strh	r3, [r7, #54]	@ movhi
 919 03ae 7B68     		ldr	r3, [r7, #4]
 920 03b0 5A8B     		ldrh	r2, [r3, #26]
 921 03b2 FB8E     		ldrh	r3, [r7, #54]
 922 03b4 1344     		add	r3, r3, r2
 923 03b6 9AB2     		uxth	r2, r3
 924 03b8 7B68     		ldr	r3, [r7, #4]
 925 03ba 5A83     		strh	r2, [r3, #26]	@ movhi
 926 03bc F3E0     		b	.L69
 927              	.L64:
 928 03be 7B68     		ldr	r3, [r7, #4]
 929 03c0 5A69     		ldr	r2, [r3, #20]
 930 03c2 7B68     		ldr	r3, [r7, #4]
 931 03c4 B3F91C30 		ldrsh	r3, [r3, #28]
 932 03c8 03F10043 		add	r3, r3, #-2147483648
 933 03cc 013B     		subs	r3, r3, #1
 934 03ce 5B00     		lsls	r3, r3, #1
 935 03d0 1344     		add	r3, r3, r2
 936 03d2 1B88     		ldrh	r3, [r3]	@ movhi
 937 03d4 BB87     		strh	r3, [r7, #60]	@ movhi
 938 03d6 7B68     		ldr	r3, [r7, #4]
 939 03d8 5A69     		ldr	r2, [r3, #20]
 940 03da 7B68     		ldr	r3, [r7, #4]
 941 03dc B3F91C30 		ldrsh	r3, [r3, #28]
 942 03e0 5B00     		lsls	r3, r3, #1
 943 03e2 1344     		add	r3, r3, r2
 944 03e4 1B88     		ldrh	r3, [r3]	@ movhi
 945 03e6 7B87     		strh	r3, [r7, #58]	@ movhi
 946 03e8 B7F84430 		ldrh	r3, [r7, #68]	@ movhi
 947 03ec DBB2     		uxtb	r3, r3
 948 03ee 9BB2     		uxth	r3, r3
 949 03f0 B7F93A20 		ldrsh	r2, [r7, #58]
 950 03f4 B7F93C10 		ldrsh	r1, [r7, #60]
 951 03f8 7868     		ldr	r0, [r7, #4]
 952 03fa FFF7FEFF 		bl	AsebaVMDoBinaryOperation
 953 03fe 0346     		mov	r3, r0
 954 0400 3B87     		strh	r3, [r7, #56]	@ movhi
 955 0402 7B68     		ldr	r3, [r7, #4]
 956 0404 B3F91C30 		ldrsh	r3, [r3, #28]
 957 0408 9BB2     		uxth	r3, r3
 958 040a 023B     		subs	r3, r3, #2
 959 040c 9BB2     		uxth	r3, r3
 960 040e 1AB2     		sxth	r2, r3
 961 0410 7B68     		ldr	r3, [r7, #4]
 962 0412 9A83     		strh	r2, [r3, #28]	@ movhi
 963 0414 B7F93830 		ldrsh	r3, [r7, #56]
 964 0418 002B     		cmp	r3, #0
 965 041a 13D0     		beq	.L74
 966 041c B7F84430 		ldrh	r3, [r7, #68]
 967 0420 1B0A     		lsrs	r3, r3, #8
 968 0422 9BB2     		uxth	r3, r3
 969 0424 03F00103 		and	r3, r3, #1
ARM GAS  /var/folders/d2/nstgp4h54kz7g1l847x_b8wc0000gn/T//ccZlAA6i.s 			page 18


 970 0428 002B     		cmp	r3, #0
 971 042a 07D0     		beq	.L75
 972 042c B7F84430 		ldrh	r3, [r7, #68]
 973 0430 5B0A     		lsrs	r3, r3, #9
 974 0432 9BB2     		uxth	r3, r3
 975 0434 03F00103 		and	r3, r3, #1
 976 0438 002B     		cmp	r3, #0
 977 043a 03D1     		bne	.L74
 978              	.L75:
 979 043c 0223     		movs	r3, #2
 980 043e A7F84630 		strh	r3, [r7, #70]	@ movhi
 981 0442 09E0     		b	.L76
 982              	.L74:
 983 0444 7B68     		ldr	r3, [r7, #4]
 984 0446 5A68     		ldr	r2, [r3, #4]
 985 0448 7B68     		ldr	r3, [r7, #4]
 986 044a 5B8B     		ldrh	r3, [r3, #26]
 987 044c 0133     		adds	r3, r3, #1
 988 044e 5B00     		lsls	r3, r3, #1
 989 0450 1344     		add	r3, r3, r2
 990 0452 1B88     		ldrh	r3, [r3]
 991 0454 A7F84630 		strh	r3, [r7, #70]	@ movhi
 992              	.L76:
 993 0458 B7F93830 		ldrsh	r3, [r7, #56]
 994 045c 002B     		cmp	r3, #0
 995 045e 13D0     		beq	.L77
 996 0460 7B68     		ldr	r3, [r7, #4]
 997 0462 5A68     		ldr	r2, [r3, #4]
 998 0464 7B68     		ldr	r3, [r7, #4]
 999 0466 5B8B     		ldrh	r3, [r3, #26]
 1000 0468 5B00     		lsls	r3, r3, #1
 1001 046a 1344     		add	r3, r3, r2
 1002 046c 1A88     		ldrh	r2, [r3]
 1003 046e 7B68     		ldr	r3, [r7, #4]
 1004 0470 5968     		ldr	r1, [r3, #4]
 1005 0472 7B68     		ldr	r3, [r7, #4]
 1006 0474 5B8B     		ldrh	r3, [r3, #26]
 1007 0476 5B00     		lsls	r3, r3, #1
 1008 0478 0B44     		add	r3, r3, r1
 1009 047a 42F40072 		orr	r2, r2, #512
 1010 047e 92B2     		uxth	r2, r2
 1011 0480 1A80     		strh	r2, [r3]	@ movhi
 1012 0482 12E0     		b	.L78
 1013              	.L83:
 1014              		.align	2
 1015              	.L82:
 1016 0484 00000000 		.word	AsebaVMErrorCB
 1017              	.L77:
 1018 0488 7B68     		ldr	r3, [r7, #4]
 1019 048a 5A68     		ldr	r2, [r3, #4]
 1020 048c 7B68     		ldr	r3, [r7, #4]
 1021 048e 5B8B     		ldrh	r3, [r3, #26]
 1022 0490 5B00     		lsls	r3, r3, #1
 1023 0492 1344     		add	r3, r3, r2
 1024 0494 1A88     		ldrh	r2, [r3]
 1025 0496 7B68     		ldr	r3, [r7, #4]
 1026 0498 5968     		ldr	r1, [r3, #4]
ARM GAS  /var/folders/d2/nstgp4h54kz7g1l847x_b8wc0000gn/T//ccZlAA6i.s 			page 19


 1027 049a 7B68     		ldr	r3, [r7, #4]
 1028 049c 5B8B     		ldrh	r3, [r3, #26]
 1029 049e 5B00     		lsls	r3, r3, #1
 1030 04a0 0B44     		add	r3, r3, r1
 1031 04a2 22F40072 		bic	r2, r2, #512
 1032 04a6 92B2     		uxth	r2, r2
 1033 04a8 1A80     		strh	r2, [r3]	@ movhi
 1034              	.L78:
 1035 04aa 7B68     		ldr	r3, [r7, #4]
 1036 04ac 5A8B     		ldrh	r2, [r3, #26]
 1037 04ae B7F84630 		ldrh	r3, [r7, #70]
 1038 04b2 1344     		add	r3, r3, r2
 1039 04b4 9AB2     		uxth	r2, r3
 1040 04b6 7B68     		ldr	r3, [r7, #4]
 1041 04b8 5A83     		strh	r2, [r3, #26]	@ movhi
 1042 04ba 74E0     		b	.L69
 1043              	.L65:
 1044 04bc 7B68     		ldr	r3, [r7, #4]
 1045 04be 5A68     		ldr	r2, [r3, #4]
 1046 04c0 7B68     		ldr	r3, [r7, #4]
 1047 04c2 5B8B     		ldrh	r3, [r3, #26]
 1048 04c4 0133     		adds	r3, r3, #1
 1049 04c6 5B00     		lsls	r3, r3, #1
 1050 04c8 1344     		add	r3, r3, r2
 1051 04ca 1B88     		ldrh	r3, [r3]	@ movhi
 1052 04cc A7F84030 		strh	r3, [r7, #64]	@ movhi
 1053 04d0 7B68     		ldr	r3, [r7, #4]
 1054 04d2 5A68     		ldr	r2, [r3, #4]
 1055 04d4 7B68     		ldr	r3, [r7, #4]
 1056 04d6 5B8B     		ldrh	r3, [r3, #26]
 1057 04d8 0233     		adds	r3, r3, #2
 1058 04da 5B00     		lsls	r3, r3, #1
 1059 04dc 1344     		add	r3, r3, r2
 1060 04de 1B88     		ldrh	r3, [r3]	@ movhi
 1061 04e0 FB87     		strh	r3, [r7, #62]	@ movhi
 1062 04e2 B7F84430 		ldrh	r3, [r7, #68]	@ movhi
 1063 04e6 C3F30B03 		ubfx	r3, r3, #0, #12
 1064 04ea 99B2     		uxth	r1, r3
 1065 04ec 7B68     		ldr	r3, [r7, #4]
 1066 04ee DA68     		ldr	r2, [r3, #12]
 1067 04f0 B7F84030 		ldrh	r3, [r7, #64]
 1068 04f4 5B00     		lsls	r3, r3, #1
 1069 04f6 1A44     		add	r2, r2, r3
 1070 04f8 FB8F     		ldrh	r3, [r7, #62]	@ movhi
 1071 04fa 5B00     		lsls	r3, r3, #1
 1072 04fc 9BB2     		uxth	r3, r3
 1073 04fe 7868     		ldr	r0, [r7, #4]
 1074 0500 FFF7FEFF 		bl	AsebaSendMessage
 1075 0504 7B68     		ldr	r3, [r7, #4]
 1076 0506 5B8B     		ldrh	r3, [r3, #26]
 1077 0508 0333     		adds	r3, r3, #3
 1078 050a 9AB2     		uxth	r2, r3
 1079 050c 7B68     		ldr	r3, [r7, #4]
 1080 050e 5A83     		strh	r2, [r3, #26]	@ movhi
 1081 0510 49E0     		b	.L69
 1082              	.L66:
 1083 0512 B7F84430 		ldrh	r3, [r7, #68]	@ movhi
ARM GAS  /var/folders/d2/nstgp4h54kz7g1l847x_b8wc0000gn/T//ccZlAA6i.s 			page 20


 1084 0516 C3F30B03 		ubfx	r3, r3, #0, #12
 1085 051a 9BB2     		uxth	r3, r3
 1086 051c 1946     		mov	r1, r3
 1087 051e 7868     		ldr	r0, [r7, #4]
 1088 0520 FFF7FEFF 		bl	AsebaNativeFunction
 1089 0524 7B68     		ldr	r3, [r7, #4]
 1090 0526 5B8B     		ldrh	r3, [r3, #26]
 1091 0528 0133     		adds	r3, r3, #1
 1092 052a 9AB2     		uxth	r2, r3
 1093 052c 7B68     		ldr	r3, [r7, #4]
 1094 052e 5A83     		strh	r2, [r3, #26]	@ movhi
 1095 0530 39E0     		b	.L69
 1096              	.L67:
 1097 0532 B7F84430 		ldrh	r3, [r7, #68]	@ movhi
 1098 0536 C3F30B03 		ubfx	r3, r3, #0, #12
 1099 053a A7F84230 		strh	r3, [r7, #66]	@ movhi
 1100 053e 7B68     		ldr	r3, [r7, #4]
 1101 0540 5B8B     		ldrh	r3, [r3, #26]
 1102 0542 0133     		adds	r3, r3, #1
 1103 0544 99B2     		uxth	r1, r3
 1104 0546 7B68     		ldr	r3, [r7, #4]
 1105 0548 5A69     		ldr	r2, [r3, #20]
 1106 054a 7B68     		ldr	r3, [r7, #4]
 1107 054c B3F91C30 		ldrsh	r3, [r3, #28]
 1108 0550 9BB2     		uxth	r3, r3
 1109 0552 0133     		adds	r3, r3, #1
 1110 0554 9BB2     		uxth	r3, r3
 1111 0556 18B2     		sxth	r0, r3
 1112 0558 7B68     		ldr	r3, [r7, #4]
 1113 055a 9883     		strh	r0, [r3, #28]	@ movhi
 1114 055c 7B68     		ldr	r3, [r7, #4]
 1115 055e B3F91C30 		ldrsh	r3, [r3, #28]
 1116 0562 5B00     		lsls	r3, r3, #1
 1117 0564 1344     		add	r3, r3, r2
 1118 0566 0AB2     		sxth	r2, r1
 1119 0568 1A80     		strh	r2, [r3]	@ movhi
 1120 056a 7B68     		ldr	r3, [r7, #4]
 1121 056c B7F84220 		ldrh	r2, [r7, #66]	@ movhi
 1122 0570 5A83     		strh	r2, [r3, #26]	@ movhi
 1123 0572 18E0     		b	.L69
 1124              	.L68:
 1125 0574 7B68     		ldr	r3, [r7, #4]
 1126 0576 5A69     		ldr	r2, [r3, #20]
 1127 0578 7B68     		ldr	r3, [r7, #4]
 1128 057a B3F91C10 		ldrsh	r1, [r3, #28]
 1129 057e 8BB2     		uxth	r3, r1
 1130 0580 013B     		subs	r3, r3, #1
 1131 0582 9BB2     		uxth	r3, r3
 1132 0584 18B2     		sxth	r0, r3
 1133 0586 7B68     		ldr	r3, [r7, #4]
 1134 0588 9883     		strh	r0, [r3, #28]	@ movhi
 1135 058a 0B46     		mov	r3, r1
 1136 058c 5B00     		lsls	r3, r3, #1
 1137 058e 1344     		add	r3, r3, r2
 1138 0590 B3F90030 		ldrsh	r3, [r3]
 1139 0594 9AB2     		uxth	r2, r3
 1140 0596 7B68     		ldr	r3, [r7, #4]
ARM GAS  /var/folders/d2/nstgp4h54kz7g1l847x_b8wc0000gn/T//ccZlAA6i.s 			page 21


 1141 0598 5A83     		strh	r2, [r3, #26]	@ movhi
 1142 059a 04E0     		b	.L69
 1143              	.L79:
 1144 059c 00BF     		nop
 1145 059e 02E0     		b	.L69
 1146              	.L80:
 1147 05a0 00BF     		nop
 1148 05a2 00E0     		b	.L69
 1149              	.L81:
 1150 05a4 00BF     		nop
 1151              	.L69:
 1152 05a6 00BF     		nop
 1153 05a8 4837     		adds	r7, r7, #72
 1154 05aa BD46     		mov	sp, r7
 1155              		@ sp needed
 1156 05ac 80BD     		pop	{r7, pc}
 1157              		.size	AsebaVMStep, .-AsebaVMStep
 1158 05ae 00BF     		.section	.text.AsebaVMEmitNodeSpecificError,"ax",%progbits
 1159              		.align	1
 1160              		.global	AsebaVMEmitNodeSpecificError
 1161              		.syntax unified
 1162              		.thumb
 1163              		.thumb_func
 1164              		.fpu fpv4-sp-d16
 1165              		.type	AsebaVMEmitNodeSpecificError, %function
 1166              	AsebaVMEmitNodeSpecificError:
 1167              		@ args = 0, pretend = 0, frame = 24
 1168              		@ frame_needed = 1, uses_anonymous_args = 0
 1169 0000 B0B5     		push	{r4, r5, r7, lr}
 1170 0002 86B0     		sub	sp, sp, #24
 1171 0004 00AF     		add	r7, sp, #0
 1172 0006 7860     		str	r0, [r7, #4]
 1173 0008 3960     		str	r1, [r7]
 1174 000a 6B46     		mov	r3, sp
 1175 000c 1D46     		mov	r5, r3
 1176 000e 3868     		ldr	r0, [r7]
 1177 0010 FFF7FEFF 		bl	strlen
 1178 0014 0346     		mov	r3, r0
 1179 0016 FB82     		strh	r3, [r7, #22]	@ movhi
 1180 0018 FB8A     		ldrh	r3, [r7, #22]
 1181 001a D81C     		adds	r0, r3, #3
 1182 001c 431E     		subs	r3, r0, #1
 1183 001e 3B61     		str	r3, [r7, #16]
 1184 0020 0346     		mov	r3, r0
 1185 0022 1946     		mov	r1, r3
 1186 0024 4FF00002 		mov	r2, #0
 1187 0028 4FF00003 		mov	r3, #0
 1188 002c 4FF00004 		mov	r4, #0
 1189 0030 D400     		lsls	r4, r2, #3
 1190 0032 44EA5174 		orr	r4, r4, r1, lsr #29
 1191 0036 CB00     		lsls	r3, r1, #3
 1192 0038 0346     		mov	r3, r0
 1193 003a 1946     		mov	r1, r3
 1194 003c 4FF00002 		mov	r2, #0
 1195 0040 4FF00003 		mov	r3, #0
 1196 0044 4FF00004 		mov	r4, #0
 1197 0048 D400     		lsls	r4, r2, #3
ARM GAS  /var/folders/d2/nstgp4h54kz7g1l847x_b8wc0000gn/T//ccZlAA6i.s 			page 22


 1198 004a 44EA5174 		orr	r4, r4, r1, lsr #29
 1199 004e CB00     		lsls	r3, r1, #3
 1200 0050 0346     		mov	r3, r0
 1201 0052 0733     		adds	r3, r3, #7
 1202 0054 DB08     		lsrs	r3, r3, #3
 1203 0056 DB00     		lsls	r3, r3, #3
 1204 0058 ADEB030D 		sub	sp, sp, r3
 1205 005c 6B46     		mov	r3, sp
 1206 005e 0033     		adds	r3, r3, #0
 1207 0060 FB60     		str	r3, [r7, #12]
 1208 0062 134B     		ldr	r3, .L86
 1209 0064 002B     		cmp	r3, #0
 1210 0066 03D0     		beq	.L85
 1211 0068 3968     		ldr	r1, [r7]
 1212 006a 7868     		ldr	r0, [r7, #4]
 1213 006c FFF7FEFF 		bl	AsebaVMErrorCB
 1214              	.L85:
 1215 0070 7B68     		ldr	r3, [r7, #4]
 1216 0072 0222     		movs	r2, #2
 1217 0074 1A83     		strh	r2, [r3, #24]	@ movhi
 1218 0076 FB68     		ldr	r3, [r7, #12]
 1219 0078 7A68     		ldr	r2, [r7, #4]
 1220 007a 528B     		ldrh	r2, [r2, #26]
 1221 007c 1A80     		strh	r2, [r3]	@ movhi
 1222 007e FB8A     		ldrh	r3, [r7, #22]	@ movhi
 1223 0080 DAB2     		uxtb	r2, r3
 1224 0082 FB68     		ldr	r3, [r7, #12]
 1225 0084 9A70     		strb	r2, [r3, #2]
 1226 0086 FB68     		ldr	r3, [r7, #12]
 1227 0088 0333     		adds	r3, r3, #3
 1228 008a FA8A     		ldrh	r2, [r7, #22]
 1229 008c 3968     		ldr	r1, [r7]
 1230 008e 1846     		mov	r0, r3
 1231 0090 FFF7FEFF 		bl	memcpy
 1232 0094 FA68     		ldr	r2, [r7, #12]
 1233 0096 FB8A     		ldrh	r3, [r7, #22]	@ movhi
 1234 0098 0333     		adds	r3, r3, #3
 1235 009a 9BB2     		uxth	r3, r3
 1236 009c 49F20901 		movw	r1, #36873
 1237 00a0 7868     		ldr	r0, [r7, #4]
 1238 00a2 FFF7FEFF 		bl	AsebaSendMessage
 1239 00a6 AD46     		mov	sp, r5
 1240 00a8 00BF     		nop
 1241 00aa 1837     		adds	r7, r7, #24
 1242 00ac BD46     		mov	sp, r7
 1243              		@ sp needed
 1244 00ae B0BD     		pop	{r4, r5, r7, pc}
 1245              	.L87:
 1246              		.align	2
 1247              	.L86:
 1248 00b0 00000000 		.word	AsebaVMErrorCB
 1249              		.size	AsebaVMEmitNodeSpecificError, .-AsebaVMEmitNodeSpecificError
 1250              		.section	.text.AsebaVMCheckBreakpoint,"ax",%progbits
 1251              		.align	1
 1252              		.global	AsebaVMCheckBreakpoint
 1253              		.syntax unified
 1254              		.thumb
ARM GAS  /var/folders/d2/nstgp4h54kz7g1l847x_b8wc0000gn/T//ccZlAA6i.s 			page 23


 1255              		.thumb_func
 1256              		.fpu fpv4-sp-d16
 1257              		.type	AsebaVMCheckBreakpoint, %function
 1258              	AsebaVMCheckBreakpoint:
 1259              		@ args = 0, pretend = 0, frame = 16
 1260              		@ frame_needed = 1, uses_anonymous_args = 0
 1261              		@ link register save eliminated.
 1262 0000 80B4     		push	{r7}
 1263 0002 85B0     		sub	sp, sp, #20
 1264 0004 00AF     		add	r7, sp, #0
 1265 0006 7860     		str	r0, [r7, #4]
 1266 0008 0023     		movs	r3, #0
 1267 000a FB81     		strh	r3, [r7, #14]	@ movhi
 1268 000c 15E0     		b	.L89
 1269              	.L92:
 1270 000e FB89     		ldrh	r3, [r7, #14]
 1271 0010 7A68     		ldr	r2, [r7, #4]
 1272 0012 0C33     		adds	r3, r3, #12
 1273 0014 5B00     		lsls	r3, r3, #1
 1274 0016 1344     		add	r3, r3, r2
 1275 0018 DA88     		ldrh	r2, [r3, #6]
 1276 001a 7B68     		ldr	r3, [r7, #4]
 1277 001c 5B8B     		ldrh	r3, [r3, #26]
 1278 001e 9A42     		cmp	r2, r3
 1279 0020 08D1     		bne	.L90
 1280 0022 7B68     		ldr	r3, [r7, #4]
 1281 0024 1B8B     		ldrh	r3, [r3, #24]
 1282 0026 43F00203 		orr	r3, r3, #2
 1283 002a 9AB2     		uxth	r2, r3
 1284 002c 7B68     		ldr	r3, [r7, #4]
 1285 002e 1A83     		strh	r2, [r3, #24]	@ movhi
 1286 0030 0123     		movs	r3, #1
 1287 0032 08E0     		b	.L91
 1288              	.L90:
 1289 0034 FB89     		ldrh	r3, [r7, #14]
 1290 0036 0133     		adds	r3, r3, #1
 1291 0038 FB81     		strh	r3, [r7, #14]	@ movhi
 1292              	.L89:
 1293 003a 7B68     		ldr	r3, [r7, #4]
 1294 003c DB8F     		ldrh	r3, [r3, #62]
 1295 003e FA89     		ldrh	r2, [r7, #14]
 1296 0040 9A42     		cmp	r2, r3
 1297 0042 E4D3     		bcc	.L92
 1298 0044 0023     		movs	r3, #0
 1299              	.L91:
 1300 0046 1846     		mov	r0, r3
 1301 0048 1437     		adds	r7, r7, #20
 1302 004a BD46     		mov	sp, r7
 1303              		@ sp needed
 1304 004c 5DF8047B 		ldr	r7, [sp], #4
 1305 0050 7047     		bx	lr
 1306              		.size	AsebaVMCheckBreakpoint, .-AsebaVMCheckBreakpoint
 1307              		.section	.text.AsebaDebugBareRun,"ax",%progbits
 1308              		.align	1
 1309              		.global	AsebaDebugBareRun
 1310              		.syntax unified
 1311              		.thumb
ARM GAS  /var/folders/d2/nstgp4h54kz7g1l847x_b8wc0000gn/T//ccZlAA6i.s 			page 24


 1312              		.thumb_func
 1313              		.fpu fpv4-sp-d16
 1314              		.type	AsebaDebugBareRun, %function
 1315              	AsebaDebugBareRun:
 1316              		@ args = 0, pretend = 0, frame = 8
 1317              		@ frame_needed = 1, uses_anonymous_args = 0
 1318 0000 80B5     		push	{r7, lr}
 1319 0002 82B0     		sub	sp, sp, #8
 1320 0004 00AF     		add	r7, sp, #0
 1321 0006 7860     		str	r0, [r7, #4]
 1322 0008 0B46     		mov	r3, r1
 1323 000a 7B80     		strh	r3, [r7, #2]	@ movhi
 1324 000c 7B68     		ldr	r3, [r7, #4]
 1325 000e 1B8B     		ldrh	r3, [r3, #24]
 1326 0010 43F00403 		orr	r3, r3, #4
 1327 0014 9AB2     		uxth	r2, r3
 1328 0016 7B68     		ldr	r3, [r7, #4]
 1329 0018 1A83     		strh	r2, [r3, #24]	@ movhi
 1330 001a 7B88     		ldrh	r3, [r7, #2]
 1331 001c 002B     		cmp	r3, #0
 1332 001e 19D0     		beq	.L98
 1333 0020 05E0     		b	.L95
 1334              	.L97:
 1335 0022 7868     		ldr	r0, [r7, #4]
 1336 0024 FFF7FEFF 		bl	AsebaVMStep
 1337 0028 7B88     		ldrh	r3, [r7, #2]
 1338 002a 013B     		subs	r3, r3, #1
 1339 002c 7B80     		strh	r3, [r7, #2]	@ movhi
 1340              	.L95:
 1341 002e 7B68     		ldr	r3, [r7, #4]
 1342 0030 1B8B     		ldrh	r3, [r3, #24]
 1343 0032 03F00103 		and	r3, r3, #1
 1344 0036 002B     		cmp	r3, #0
 1345 0038 18D0     		beq	.L96
 1346 003a 7B68     		ldr	r3, [r7, #4]
 1347 003c 1B8B     		ldrh	r3, [r3, #24]
 1348 003e 03F00403 		and	r3, r3, #4
 1349 0042 002B     		cmp	r3, #0
 1350 0044 12D0     		beq	.L96
 1351 0046 7B88     		ldrh	r3, [r7, #2]
 1352 0048 002B     		cmp	r3, #0
 1353 004a EAD1     		bne	.L97
 1354 004c 0EE0     		b	.L96
 1355              	.L99:
 1356 004e 7868     		ldr	r0, [r7, #4]
 1357 0050 FFF7FEFF 		bl	AsebaVMStep
 1358              	.L98:
 1359 0054 7B68     		ldr	r3, [r7, #4]
 1360 0056 1B8B     		ldrh	r3, [r3, #24]
 1361 0058 03F00103 		and	r3, r3, #1
 1362 005c 002B     		cmp	r3, #0
 1363 005e 05D0     		beq	.L96
 1364 0060 7B68     		ldr	r3, [r7, #4]
 1365 0062 1B8B     		ldrh	r3, [r3, #24]
 1366 0064 03F00403 		and	r3, r3, #4
 1367 0068 002B     		cmp	r3, #0
 1368 006a F0D1     		bne	.L99
ARM GAS  /var/folders/d2/nstgp4h54kz7g1l847x_b8wc0000gn/T//ccZlAA6i.s 			page 25


 1369              	.L96:
 1370 006c 7B68     		ldr	r3, [r7, #4]
 1371 006e 1B8B     		ldrh	r3, [r3, #24]
 1372 0070 23F00403 		bic	r3, r3, #4
 1373 0074 9AB2     		uxth	r2, r3
 1374 0076 7B68     		ldr	r3, [r7, #4]
 1375 0078 1A83     		strh	r2, [r3, #24]	@ movhi
 1376 007a 00BF     		nop
 1377 007c 0837     		adds	r7, r7, #8
 1378 007e BD46     		mov	sp, r7
 1379              		@ sp needed
 1380 0080 80BD     		pop	{r7, pc}
 1381              		.size	AsebaDebugBareRun, .-AsebaDebugBareRun
 1382              		.section	.text.AsebaDebugBreakpointRun,"ax",%progbits
 1383              		.align	1
 1384              		.global	AsebaDebugBreakpointRun
 1385              		.syntax unified
 1386              		.thumb
 1387              		.thumb_func
 1388              		.fpu fpv4-sp-d16
 1389              		.type	AsebaDebugBreakpointRun, %function
 1390              	AsebaDebugBreakpointRun:
 1391              		@ args = 0, pretend = 0, frame = 8
 1392              		@ frame_needed = 1, uses_anonymous_args = 0
 1393 0000 80B5     		push	{r7, lr}
 1394 0002 82B0     		sub	sp, sp, #8
 1395 0004 00AF     		add	r7, sp, #0
 1396 0006 7860     		str	r0, [r7, #4]
 1397 0008 0B46     		mov	r3, r1
 1398 000a 7B80     		strh	r3, [r7, #2]	@ movhi
 1399 000c 7B68     		ldr	r3, [r7, #4]
 1400 000e 1B8B     		ldrh	r3, [r3, #24]
 1401 0010 43F00403 		orr	r3, r3, #4
 1402 0014 9AB2     		uxth	r2, r3
 1403 0016 7B68     		ldr	r3, [r7, #4]
 1404 0018 1A83     		strh	r2, [r3, #24]	@ movhi
 1405 001a 7B88     		ldrh	r3, [r7, #2]
 1406 001c 002B     		cmp	r3, #0
 1407 001e 3BD0     		beq	.L107
 1408 0020 16E0     		b	.L102
 1409              	.L106:
 1410 0022 7868     		ldr	r0, [r7, #4]
 1411 0024 FFF7FEFF 		bl	AsebaVMCheckBreakpoint
 1412 0028 0346     		mov	r3, r0
 1413 002a 002B     		cmp	r3, #0
 1414 002c 0AD0     		beq	.L103
 1415 002e 7B68     		ldr	r3, [r7, #4]
 1416 0030 1B8B     		ldrh	r3, [r3, #24]
 1417 0032 43F00203 		orr	r3, r3, #2
 1418 0036 9AB2     		uxth	r2, r3
 1419 0038 7B68     		ldr	r3, [r7, #4]
 1420 003a 1A83     		strh	r2, [r3, #24]	@ movhi
 1421 003c 7868     		ldr	r0, [r7, #4]
 1422 003e FFF7FEFF 		bl	AsebaVMSendExecutionStateChanged
 1423 0042 3CE0     		b	.L100
 1424              	.L103:
 1425 0044 7868     		ldr	r0, [r7, #4]
ARM GAS  /var/folders/d2/nstgp4h54kz7g1l847x_b8wc0000gn/T//ccZlAA6i.s 			page 26


 1426 0046 FFF7FEFF 		bl	AsebaVMStep
 1427 004a 7B88     		ldrh	r3, [r7, #2]
 1428 004c 013B     		subs	r3, r3, #1
 1429 004e 7B80     		strh	r3, [r7, #2]	@ movhi
 1430              	.L102:
 1431 0050 7B68     		ldr	r3, [r7, #4]
 1432 0052 1B8B     		ldrh	r3, [r3, #24]
 1433 0054 03F00103 		and	r3, r3, #1
 1434 0058 002B     		cmp	r3, #0
 1435 005a 29D0     		beq	.L105
 1436 005c 7B68     		ldr	r3, [r7, #4]
 1437 005e 1B8B     		ldrh	r3, [r3, #24]
 1438 0060 03F00403 		and	r3, r3, #4
 1439 0064 002B     		cmp	r3, #0
 1440 0066 23D0     		beq	.L105
 1441 0068 7B88     		ldrh	r3, [r7, #2]
 1442 006a 002B     		cmp	r3, #0
 1443 006c D9D1     		bne	.L106
 1444 006e 1FE0     		b	.L105
 1445              	.L109:
 1446 0070 7868     		ldr	r0, [r7, #4]
 1447 0072 FFF7FEFF 		bl	AsebaVMCheckBreakpoint
 1448 0076 0346     		mov	r3, r0
 1449 0078 002B     		cmp	r3, #0
 1450 007a 0AD0     		beq	.L108
 1451 007c 7B68     		ldr	r3, [r7, #4]
 1452 007e 1B8B     		ldrh	r3, [r3, #24]
 1453 0080 43F00203 		orr	r3, r3, #2
 1454 0084 9AB2     		uxth	r2, r3
 1455 0086 7B68     		ldr	r3, [r7, #4]
 1456 0088 1A83     		strh	r2, [r3, #24]	@ movhi
 1457 008a 7868     		ldr	r0, [r7, #4]
 1458 008c FFF7FEFF 		bl	AsebaVMSendExecutionStateChanged
 1459 0090 15E0     		b	.L100
 1460              	.L108:
 1461 0092 7868     		ldr	r0, [r7, #4]
 1462 0094 FFF7FEFF 		bl	AsebaVMStep
 1463              	.L107:
 1464 0098 7B68     		ldr	r3, [r7, #4]
 1465 009a 1B8B     		ldrh	r3, [r3, #24]
 1466 009c 03F00103 		and	r3, r3, #1
 1467 00a0 002B     		cmp	r3, #0
 1468 00a2 05D0     		beq	.L105
 1469 00a4 7B68     		ldr	r3, [r7, #4]
 1470 00a6 1B8B     		ldrh	r3, [r3, #24]
 1471 00a8 03F00403 		and	r3, r3, #4
 1472 00ac 002B     		cmp	r3, #0
 1473 00ae DFD1     		bne	.L109
 1474              	.L105:
 1475 00b0 7B68     		ldr	r3, [r7, #4]
 1476 00b2 1B8B     		ldrh	r3, [r3, #24]
 1477 00b4 23F00403 		bic	r3, r3, #4
 1478 00b8 9AB2     		uxth	r2, r3
 1479 00ba 7B68     		ldr	r3, [r7, #4]
 1480 00bc 1A83     		strh	r2, [r3, #24]	@ movhi
 1481              	.L100:
 1482 00be 0837     		adds	r7, r7, #8
ARM GAS  /var/folders/d2/nstgp4h54kz7g1l847x_b8wc0000gn/T//ccZlAA6i.s 			page 27


 1483 00c0 BD46     		mov	sp, r7
 1484              		@ sp needed
 1485 00c2 80BD     		pop	{r7, pc}
 1486              		.size	AsebaDebugBreakpointRun, .-AsebaDebugBreakpointRun
 1487              		.section	.text.AsebaVMRun,"ax",%progbits
 1488              		.align	1
 1489              		.global	AsebaVMRun
 1490              		.syntax unified
 1491              		.thumb
 1492              		.thumb_func
 1493              		.fpu fpv4-sp-d16
 1494              		.type	AsebaVMRun, %function
 1495              	AsebaVMRun:
 1496              		@ args = 0, pretend = 0, frame = 8
 1497              		@ frame_needed = 1, uses_anonymous_args = 0
 1498 0000 80B5     		push	{r7, lr}
 1499 0002 82B0     		sub	sp, sp, #8
 1500 0004 00AF     		add	r7, sp, #0
 1501 0006 7860     		str	r0, [r7, #4]
 1502 0008 0B46     		mov	r3, r1
 1503 000a 7B80     		strh	r3, [r7, #2]	@ movhi
 1504 000c 7B68     		ldr	r3, [r7, #4]
 1505 000e 1B8B     		ldrh	r3, [r3, #24]
 1506 0010 03F00103 		and	r3, r3, #1
 1507 0014 002B     		cmp	r3, #0
 1508 0016 01D1     		bne	.L111
 1509 0018 0023     		movs	r3, #0
 1510 001a 17E0     		b	.L112
 1511              	.L111:
 1512 001c 7B68     		ldr	r3, [r7, #4]
 1513 001e 1B8B     		ldrh	r3, [r3, #24]
 1514 0020 03F00203 		and	r3, r3, #2
 1515 0024 002B     		cmp	r3, #0
 1516 0026 01D0     		beq	.L113
 1517 0028 0023     		movs	r3, #0
 1518 002a 0FE0     		b	.L112
 1519              	.L113:
 1520 002c 7B68     		ldr	r3, [r7, #4]
 1521 002e DB8F     		ldrh	r3, [r3, #62]
 1522 0030 002B     		cmp	r3, #0
 1523 0032 05D0     		beq	.L114
 1524 0034 7B88     		ldrh	r3, [r7, #2]
 1525 0036 1946     		mov	r1, r3
 1526 0038 7868     		ldr	r0, [r7, #4]
 1527 003a FFF7FEFF 		bl	AsebaDebugBreakpointRun
 1528 003e 04E0     		b	.L115
 1529              	.L114:
 1530 0040 7B88     		ldrh	r3, [r7, #2]
 1531 0042 1946     		mov	r1, r3
 1532 0044 7868     		ldr	r0, [r7, #4]
 1533 0046 FFF7FEFF 		bl	AsebaDebugBareRun
 1534              	.L115:
 1535 004a 0123     		movs	r3, #1
 1536              	.L112:
 1537 004c 1846     		mov	r0, r3
 1538 004e 0837     		adds	r7, r7, #8
 1539 0050 BD46     		mov	sp, r7
ARM GAS  /var/folders/d2/nstgp4h54kz7g1l847x_b8wc0000gn/T//ccZlAA6i.s 			page 28


 1540              		@ sp needed
 1541 0052 80BD     		pop	{r7, pc}
 1542              		.size	AsebaVMRun, .-AsebaVMRun
 1543              		.section	.text.AsebaVMSetBreakpoint,"ax",%progbits
 1544              		.align	1
 1545              		.global	AsebaVMSetBreakpoint
 1546              		.syntax unified
 1547              		.thumb
 1548              		.thumb_func
 1549              		.fpu fpv4-sp-d16
 1550              		.type	AsebaVMSetBreakpoint, %function
 1551              	AsebaVMSetBreakpoint:
 1552              		@ args = 0, pretend = 0, frame = 8
 1553              		@ frame_needed = 1, uses_anonymous_args = 0
 1554              		@ link register save eliminated.
 1555 0000 80B4     		push	{r7}
 1556 0002 83B0     		sub	sp, sp, #12
 1557 0004 00AF     		add	r7, sp, #0
 1558 0006 7860     		str	r0, [r7, #4]
 1559 0008 0B46     		mov	r3, r1
 1560 000a 7B80     		strh	r3, [r7, #2]	@ movhi
 1561 000c 7B68     		ldr	r3, [r7, #4]
 1562 000e DB8F     		ldrh	r3, [r3, #62]
 1563 0010 0F2B     		cmp	r3, #15
 1564 0012 0DD8     		bhi	.L117
 1565 0014 7B68     		ldr	r3, [r7, #4]
 1566 0016 DB8F     		ldrh	r3, [r3, #62]
 1567 0018 5A1C     		adds	r2, r3, #1
 1568 001a 91B2     		uxth	r1, r2
 1569 001c 7A68     		ldr	r2, [r7, #4]
 1570 001e D187     		strh	r1, [r2, #62]	@ movhi
 1571 0020 7A68     		ldr	r2, [r7, #4]
 1572 0022 0C33     		adds	r3, r3, #12
 1573 0024 5B00     		lsls	r3, r3, #1
 1574 0026 1344     		add	r3, r3, r2
 1575 0028 7A88     		ldrh	r2, [r7, #2]	@ movhi
 1576 002a DA80     		strh	r2, [r3, #6]	@ movhi
 1577 002c 0123     		movs	r3, #1
 1578 002e 00E0     		b	.L118
 1579              	.L117:
 1580 0030 0023     		movs	r3, #0
 1581              	.L118:
 1582 0032 1846     		mov	r0, r3
 1583 0034 0C37     		adds	r7, r7, #12
 1584 0036 BD46     		mov	sp, r7
 1585              		@ sp needed
 1586 0038 5DF8047B 		ldr	r7, [sp], #4
 1587 003c 7047     		bx	lr
 1588              		.size	AsebaVMSetBreakpoint, .-AsebaVMSetBreakpoint
 1589              		.section	.text.AsebaVMClearBreakpoint,"ax",%progbits
 1590              		.align	1
 1591              		.global	AsebaVMClearBreakpoint
 1592              		.syntax unified
 1593              		.thumb
 1594              		.thumb_func
 1595              		.fpu fpv4-sp-d16
 1596              		.type	AsebaVMClearBreakpoint, %function
ARM GAS  /var/folders/d2/nstgp4h54kz7g1l847x_b8wc0000gn/T//ccZlAA6i.s 			page 29


 1597              	AsebaVMClearBreakpoint:
 1598              		@ args = 0, pretend = 0, frame = 16
 1599              		@ frame_needed = 1, uses_anonymous_args = 0
 1600              		@ link register save eliminated.
 1601 0000 80B4     		push	{r7}
 1602 0002 85B0     		sub	sp, sp, #20
 1603 0004 00AF     		add	r7, sp, #0
 1604 0006 7860     		str	r0, [r7, #4]
 1605 0008 0B46     		mov	r3, r1
 1606 000a 7B80     		strh	r3, [r7, #2]	@ movhi
 1607 000c 0023     		movs	r3, #0
 1608 000e FB81     		strh	r3, [r7, #14]	@ movhi
 1609 0010 2DE0     		b	.L120
 1610              	.L125:
 1611 0012 FB89     		ldrh	r3, [r7, #14]
 1612 0014 7A68     		ldr	r2, [r7, #4]
 1613 0016 0C33     		adds	r3, r3, #12
 1614 0018 5B00     		lsls	r3, r3, #1
 1615 001a 1344     		add	r3, r3, r2
 1616 001c DB88     		ldrh	r3, [r3, #6]
 1617 001e 7A88     		ldrh	r2, [r7, #2]
 1618 0020 9A42     		cmp	r2, r3
 1619 0022 21D1     		bne	.L121
 1620 0024 7B68     		ldr	r3, [r7, #4]
 1621 0026 DB8F     		ldrh	r3, [r3, #62]
 1622 0028 013B     		subs	r3, r3, #1
 1623 002a 9AB2     		uxth	r2, r3
 1624 002c 7B68     		ldr	r3, [r7, #4]
 1625 002e DA87     		strh	r2, [r3, #62]	@ movhi
 1626 0030 FB89     		ldrh	r3, [r7, #14]	@ movhi
 1627 0032 BB81     		strh	r3, [r7, #12]	@ movhi
 1628 0034 11E0     		b	.L122
 1629              	.L123:
 1630 0036 BB89     		ldrh	r3, [r7, #12]
 1631 0038 0133     		adds	r3, r3, #1
 1632 003a B989     		ldrh	r1, [r7, #12]
 1633 003c 7A68     		ldr	r2, [r7, #4]
 1634 003e 0C33     		adds	r3, r3, #12
 1635 0040 5B00     		lsls	r3, r3, #1
 1636 0042 1344     		add	r3, r3, r2
 1637 0044 D888     		ldrh	r0, [r3, #6]
 1638 0046 7A68     		ldr	r2, [r7, #4]
 1639 0048 01F10C03 		add	r3, r1, #12
 1640 004c 5B00     		lsls	r3, r3, #1
 1641 004e 1344     		add	r3, r3, r2
 1642 0050 0246     		mov	r2, r0	@ movhi
 1643 0052 DA80     		strh	r2, [r3, #6]	@ movhi
 1644 0054 BB89     		ldrh	r3, [r7, #12]
 1645 0056 0133     		adds	r3, r3, #1
 1646 0058 BB81     		strh	r3, [r7, #12]	@ movhi
 1647              	.L122:
 1648 005a 7B68     		ldr	r3, [r7, #4]
 1649 005c DB8F     		ldrh	r3, [r3, #62]
 1650 005e BA89     		ldrh	r2, [r7, #12]
 1651 0060 9A42     		cmp	r2, r3
 1652 0062 E8D3     		bcc	.L123
 1653 0064 0123     		movs	r3, #1
ARM GAS  /var/folders/d2/nstgp4h54kz7g1l847x_b8wc0000gn/T//ccZlAA6i.s 			page 30


 1654 0066 08E0     		b	.L124
 1655              	.L121:
 1656 0068 FB89     		ldrh	r3, [r7, #14]
 1657 006a 0133     		adds	r3, r3, #1
 1658 006c FB81     		strh	r3, [r7, #14]	@ movhi
 1659              	.L120:
 1660 006e 7B68     		ldr	r3, [r7, #4]
 1661 0070 DB8F     		ldrh	r3, [r3, #62]
 1662 0072 FA89     		ldrh	r2, [r7, #14]
 1663 0074 9A42     		cmp	r2, r3
 1664 0076 CCD3     		bcc	.L125
 1665 0078 0023     		movs	r3, #0
 1666              	.L124:
 1667 007a 1846     		mov	r0, r3
 1668 007c 1437     		adds	r7, r7, #20
 1669 007e BD46     		mov	sp, r7
 1670              		@ sp needed
 1671 0080 5DF8047B 		ldr	r7, [sp], #4
 1672 0084 7047     		bx	lr
 1673              		.size	AsebaVMClearBreakpoint, .-AsebaVMClearBreakpoint
 1674              		.section	.text.AsebaVMClearBreakpoints,"ax",%progbits
 1675              		.align	1
 1676              		.global	AsebaVMClearBreakpoints
 1677              		.syntax unified
 1678              		.thumb
 1679              		.thumb_func
 1680              		.fpu fpv4-sp-d16
 1681              		.type	AsebaVMClearBreakpoints, %function
 1682              	AsebaVMClearBreakpoints:
 1683              		@ args = 0, pretend = 0, frame = 8
 1684              		@ frame_needed = 1, uses_anonymous_args = 0
 1685              		@ link register save eliminated.
 1686 0000 80B4     		push	{r7}
 1687 0002 83B0     		sub	sp, sp, #12
 1688 0004 00AF     		add	r7, sp, #0
 1689 0006 7860     		str	r0, [r7, #4]
 1690 0008 7B68     		ldr	r3, [r7, #4]
 1691 000a 0022     		movs	r2, #0
 1692 000c DA87     		strh	r2, [r3, #62]	@ movhi
 1693 000e 00BF     		nop
 1694 0010 0C37     		adds	r7, r7, #12
 1695 0012 BD46     		mov	sp, r7
 1696              		@ sp needed
 1697 0014 5DF8047B 		ldr	r7, [sp], #4
 1698 0018 7047     		bx	lr
 1699              		.size	AsebaVMClearBreakpoints, .-AsebaVMClearBreakpoints
 1700              		.section	.text.AsebaVMSendExecutionStateChanged,"ax",%progbits
 1701              		.align	1
 1702              		.global	AsebaVMSendExecutionStateChanged
 1703              		.syntax unified
 1704              		.thumb
 1705              		.thumb_func
 1706              		.fpu fpv4-sp-d16
 1707              		.type	AsebaVMSendExecutionStateChanged, %function
 1708              	AsebaVMSendExecutionStateChanged:
 1709              		@ args = 0, pretend = 0, frame = 16
 1710              		@ frame_needed = 1, uses_anonymous_args = 0
ARM GAS  /var/folders/d2/nstgp4h54kz7g1l847x_b8wc0000gn/T//ccZlAA6i.s 			page 31


 1711 0000 80B5     		push	{r7, lr}
 1712 0002 84B0     		sub	sp, sp, #16
 1713 0004 00AF     		add	r7, sp, #0
 1714 0006 7860     		str	r0, [r7, #4]
 1715 0008 7B68     		ldr	r3, [r7, #4]
 1716 000a 5B8B     		ldrh	r3, [r3, #26]
 1717 000c BB81     		strh	r3, [r7, #12]	@ movhi
 1718 000e 7B68     		ldr	r3, [r7, #4]
 1719 0010 1B8B     		ldrh	r3, [r3, #24]
 1720 0012 FB81     		strh	r3, [r7, #14]	@ movhi
 1721 0014 07F10C02 		add	r2, r7, #12
 1722 0018 0423     		movs	r3, #4
 1723 001a 49F20A01 		movw	r1, #36874
 1724 001e 7868     		ldr	r0, [r7, #4]
 1725 0020 FFF7FEFF 		bl	AsebaSendMessage
 1726 0024 00BF     		nop
 1727 0026 1037     		adds	r7, r7, #16
 1728 0028 BD46     		mov	sp, r7
 1729              		@ sp needed
 1730 002a 80BD     		pop	{r7, pc}
 1731              		.size	AsebaVMSendExecutionStateChanged, .-AsebaVMSendExecutionStateChanged
 1732              		.section	.text.AsebaVMResetWhenFlags,"ax",%progbits
 1733              		.align	1
 1734              		.syntax unified
 1735              		.thumb
 1736              		.thumb_func
 1737              		.fpu fpv4-sp-d16
 1738              		.type	AsebaVMResetWhenFlags, %function
 1739              	AsebaVMResetWhenFlags:
 1740              		@ args = 0, pretend = 0, frame = 16
 1741              		@ frame_needed = 1, uses_anonymous_args = 0
 1742              		@ link register save eliminated.
 1743 0000 80B4     		push	{r7}
 1744 0002 85B0     		sub	sp, sp, #20
 1745 0004 00AF     		add	r7, sp, #0
 1746 0006 7860     		str	r0, [r7, #4]
 1747 0008 0023     		movs	r3, #0
 1748 000a FB81     		strh	r3, [r7, #14]	@ movhi
 1749 000c 1DE0     		b	.L129
 1750              	.L131:
 1751 000e 7B68     		ldr	r3, [r7, #4]
 1752 0010 5A68     		ldr	r2, [r3, #4]
 1753 0012 FB89     		ldrh	r3, [r7, #14]
 1754 0014 5B00     		lsls	r3, r3, #1
 1755 0016 1344     		add	r3, r3, r2
 1756 0018 1B88     		ldrh	r3, [r3]	@ movhi
 1757 001a BB81     		strh	r3, [r7, #12]	@ movhi
 1758 001c BB89     		ldrh	r3, [r7, #12]
 1759 001e 1B0B     		lsrs	r3, r3, #12
 1760 0020 9BB2     		uxth	r3, r3
 1761 0022 0A2B     		cmp	r3, #10
 1762 0024 0ED1     		bne	.L130
 1763 0026 7B68     		ldr	r3, [r7, #4]
 1764 0028 5A68     		ldr	r2, [r3, #4]
 1765 002a FB89     		ldrh	r3, [r7, #14]
 1766 002c 5B00     		lsls	r3, r3, #1
 1767 002e 1344     		add	r3, r3, r2
ARM GAS  /var/folders/d2/nstgp4h54kz7g1l847x_b8wc0000gn/T//ccZlAA6i.s 			page 32


 1768 0030 1A88     		ldrh	r2, [r3]
 1769 0032 7B68     		ldr	r3, [r7, #4]
 1770 0034 5968     		ldr	r1, [r3, #4]
 1771 0036 FB89     		ldrh	r3, [r7, #14]
 1772 0038 5B00     		lsls	r3, r3, #1
 1773 003a 0B44     		add	r3, r3, r1
 1774 003c 22F40072 		bic	r2, r2, #512
 1775 0040 92B2     		uxth	r2, r2
 1776 0042 1A80     		strh	r2, [r3]	@ movhi
 1777              	.L130:
 1778 0044 FB89     		ldrh	r3, [r7, #14]
 1779 0046 0133     		adds	r3, r3, #1
 1780 0048 FB81     		strh	r3, [r7, #14]	@ movhi
 1781              	.L129:
 1782 004a 7B68     		ldr	r3, [r7, #4]
 1783 004c 5B88     		ldrh	r3, [r3, #2]
 1784 004e FA89     		ldrh	r2, [r7, #14]
 1785 0050 9A42     		cmp	r2, r3
 1786 0052 DCD3     		bcc	.L131
 1787 0054 00BF     		nop
 1788 0056 1437     		adds	r7, r7, #20
 1789 0058 BD46     		mov	sp, r7
 1790              		@ sp needed
 1791 005a 5DF8047B 		ldr	r7, [sp], #4
 1792 005e 7047     		bx	lr
 1793              		.size	AsebaVMResetWhenFlags, .-AsebaVMResetWhenFlags
 1794              		.section	.text.AsebaVMDebugMessage,"ax",%progbits
 1795              		.align	1
 1796              		.global	AsebaVMDebugMessage
 1797              		.syntax unified
 1798              		.thumb
 1799              		.thumb_func
 1800              		.fpu fpv4-sp-d16
 1801              		.type	AsebaVMDebugMessage, %function
 1802              	AsebaVMDebugMessage:
 1803              		@ args = 0, pretend = 0, frame = 40
 1804              		@ frame_needed = 1, uses_anonymous_args = 0
 1805 0000 80B5     		push	{r7, lr}
 1806 0002 8AB0     		sub	sp, sp, #40
 1807 0004 00AF     		add	r7, sp, #0
 1808 0006 F860     		str	r0, [r7, #12]
 1809 0008 7A60     		str	r2, [r7, #4]
 1810 000a 1A46     		mov	r2, r3
 1811 000c 0B46     		mov	r3, r1	@ movhi
 1812 000e 7B81     		strh	r3, [r7, #10]	@ movhi
 1813 0010 1346     		mov	r3, r2	@ movhi
 1814 0012 3B81     		strh	r3, [r7, #8]	@ movhi
 1815 0014 7B89     		ldrh	r3, [r7, #10]
 1816 0016 B3F5204F 		cmp	r3, #40960
 1817 001a 0AD1     		bne	.L133
 1818 001c 7B68     		ldr	r3, [r7, #4]
 1819 001e 1B88     		ldrh	r3, [r3]	@ movhi
 1820 0020 FB82     		strh	r3, [r7, #22]	@ movhi
 1821 0022 FB8A     		ldrh	r3, [r7, #22]
 1822 0024 042B     		cmp	r3, #4
 1823 0026 00F21981 		bhi	.L165
 1824 002a F868     		ldr	r0, [r7, #12]
ARM GAS  /var/folders/d2/nstgp4h54kz7g1l847x_b8wc0000gn/T//ccZlAA6i.s 			page 33


 1825 002c FFF7FEFF 		bl	AsebaSendDescription
 1826 0030 14E1     		b	.L165
 1827              	.L133:
 1828 0032 7B89     		ldrh	r3, [r7, #10]
 1829 0034 4AF21102 		movw	r2, #40977
 1830 0038 9342     		cmp	r3, r2
 1831 003a 0BD1     		bne	.L136
 1832 003c 0523     		movs	r3, #5
 1833 003e BB82     		strh	r3, [r7, #20]	@ movhi
 1834 0040 07F11402 		add	r2, r7, #20
 1835 0044 0223     		movs	r3, #2
 1836 0046 49F20C01 		movw	r1, #36876
 1837 004a F868     		ldr	r0, [r7, #12]
 1838 004c FFF7FEFF 		bl	AsebaSendMessage
 1839 0050 00BF     		nop
 1840 0052 10E1     		b	.L132
 1841              	.L136:
 1842 0054 3B89     		ldrh	r3, [r7, #8]
 1843 0056 002B     		cmp	r3, #0
 1844 0058 00F00281 		beq	.L166
 1845 005c 7B68     		ldr	r3, [r7, #4]
 1846 005e 1A88     		ldrh	r2, [r3]
 1847 0060 FB68     		ldr	r3, [r7, #12]
 1848 0062 1B88     		ldrh	r3, [r3]
 1849 0064 9A42     		cmp	r2, r3
 1850 0066 40F0FD80 		bne	.L167
 1851 006a 7B68     		ldr	r3, [r7, #4]
 1852 006c 0233     		adds	r3, r3, #2
 1853 006e 7B60     		str	r3, [r7, #4]
 1854 0070 3B89     		ldrh	r3, [r7, #8]
 1855 0072 013B     		subs	r3, r3, #1
 1856 0074 3B81     		strh	r3, [r7, #8]	@ movhi
 1857 0076 7B89     		ldrh	r3, [r7, #10]
 1858 0078 A3F52043 		sub	r3, r3, #40960
 1859 007c 013B     		subs	r3, r3, #1
 1860 007e 0F2B     		cmp	r3, #15
 1861 0080 00F2F280 		bhi	.L168
 1862 0084 01A2     		adr	r2, .L141
 1863 0086 52F823F0 		ldr	pc, [r2, r3, lsl #2]
 1864 008a 00BF     		.p2align 2
 1865              	.L141:
 1866 008c CD000000 		.word	.L140+1
 1867 0090 09010000 		.word	.L142+1
 1868 0094 3B010000 		.word	.L143+1
 1869 0098 5F010000 		.word	.L144+1
 1870 009c 75010000 		.word	.L145+1
 1871 00a0 8F010000 		.word	.L146+1
 1872 00a4 9D010000 		.word	.L147+1
 1873 00a8 A5010000 		.word	.L148+1
 1874 00ac CD010000 		.word	.L149+1
 1875 00b0 DB010000 		.word	.L150+1
 1876 00b4 E3010000 		.word	.L151+1
 1877 00b8 FD010000 		.word	.L152+1
 1878 00bc 3D020000 		.word	.L153+1
 1879 00c0 45020000 		.word	.L154+1
 1880 00c4 4D020000 		.word	.L155+1
 1881 00c8 55020000 		.word	.L156+1
ARM GAS  /var/folders/d2/nstgp4h54kz7g1l847x_b8wc0000gn/T//ccZlAA6i.s 			page 34


 1882              		.p2align 1
 1883              	.L140:
 1884 00cc 7B68     		ldr	r3, [r7, #4]
 1885 00ce 1B88     		ldrh	r3, [r3]	@ movhi
 1886 00d0 7B83     		strh	r3, [r7, #26]	@ movhi
 1887 00d2 3B89     		ldrh	r3, [r7, #8]	@ movhi
 1888 00d4 013B     		subs	r3, r3, #1
 1889 00d6 3B83     		strh	r3, [r7, #24]	@ movhi
 1890 00d8 0023     		movs	r3, #0
 1891 00da FB84     		strh	r3, [r7, #38]	@ movhi
 1892 00dc 10E0     		b	.L157
 1893              	.L158:
 1894 00de FB8C     		ldrh	r3, [r7, #38]
 1895 00e0 0133     		adds	r3, r3, #1
 1896 00e2 5B00     		lsls	r3, r3, #1
 1897 00e4 7A68     		ldr	r2, [r7, #4]
 1898 00e6 1A44     		add	r2, r2, r3
 1899 00e8 FB68     		ldr	r3, [r7, #12]
 1900 00ea 5968     		ldr	r1, [r3, #4]
 1901 00ec 788B     		ldrh	r0, [r7, #26]
 1902 00ee FB8C     		ldrh	r3, [r7, #38]
 1903 00f0 0344     		add	r3, r3, r0
 1904 00f2 5B00     		lsls	r3, r3, #1
 1905 00f4 0B44     		add	r3, r3, r1
 1906 00f6 1288     		ldrh	r2, [r2]
 1907 00f8 1A80     		strh	r2, [r3]	@ movhi
 1908 00fa FB8C     		ldrh	r3, [r7, #38]
 1909 00fc 0133     		adds	r3, r3, #1
 1910 00fe FB84     		strh	r3, [r7, #38]	@ movhi
 1911              	.L157:
 1912 0100 FA8C     		ldrh	r2, [r7, #38]
 1913 0102 3B8B     		ldrh	r3, [r7, #24]
 1914 0104 9A42     		cmp	r2, r3
 1915 0106 EAD3     		bcc	.L158
 1916              	.L142:
 1917 0108 FB68     		ldr	r3, [r7, #12]
 1918 010a 0222     		movs	r2, #2
 1919 010c 1A83     		strh	r2, [r3, #24]	@ movhi
 1920 010e F868     		ldr	r0, [r7, #12]
 1921 0110 FFF7FEFF 		bl	AsebaVMResetWhenFlags
 1922 0114 594B     		ldr	r3, .L172
 1923 0116 002B     		cmp	r3, #0
 1924 0118 02D0     		beq	.L159
 1925 011a F868     		ldr	r0, [r7, #12]
 1926 011c FFF7FEFF 		bl	AsebaVMResetCB
 1927              	.L159:
 1928 0120 4FF6FF71 		movw	r1, #65535
 1929 0124 F868     		ldr	r0, [r7, #12]
 1930 0126 FFF7FEFF 		bl	AsebaVMSetupEvent
 1931 012a 0346     		mov	r3, r0
 1932 012c 002B     		cmp	r3, #0
 1933 012e 40F09D80 		bne	.L169
 1934 0132 F868     		ldr	r0, [r7, #12]
 1935 0134 FFF7FEFF 		bl	AsebaVMSendExecutionStateChanged
 1936 0138 98E0     		b	.L169
 1937              	.L143:
 1938 013a FB68     		ldr	r3, [r7, #12]
ARM GAS  /var/folders/d2/nstgp4h54kz7g1l847x_b8wc0000gn/T//ccZlAA6i.s 			page 35


 1939 013c 1B8B     		ldrh	r3, [r3, #24]
 1940 013e 23F00203 		bic	r3, r3, #2
 1941 0142 9AB2     		uxth	r2, r3
 1942 0144 FB68     		ldr	r3, [r7, #12]
 1943 0146 1A83     		strh	r2, [r3, #24]	@ movhi
 1944 0148 F868     		ldr	r0, [r7, #12]
 1945 014a FFF7FEFF 		bl	AsebaVMSendExecutionStateChanged
 1946 014e 4C4B     		ldr	r3, .L172+4
 1947 0150 002B     		cmp	r3, #0
 1948 0152 00F08D80 		beq	.L170
 1949 0156 F868     		ldr	r0, [r7, #12]
 1950 0158 FFF7FEFF 		bl	AsebaVMRunCB
 1951 015c 88E0     		b	.L170
 1952              	.L144:
 1953 015e FB68     		ldr	r3, [r7, #12]
 1954 0160 1B8B     		ldrh	r3, [r3, #24]
 1955 0162 43F00203 		orr	r3, r3, #2
 1956 0166 9AB2     		uxth	r2, r3
 1957 0168 FB68     		ldr	r3, [r7, #12]
 1958 016a 1A83     		strh	r2, [r3, #24]	@ movhi
 1959 016c F868     		ldr	r0, [r7, #12]
 1960 016e FFF7FEFF 		bl	AsebaVMSendExecutionStateChanged
 1961 0172 80E0     		b	.L132
 1962              	.L145:
 1963 0174 FB68     		ldr	r3, [r7, #12]
 1964 0176 1B8B     		ldrh	r3, [r3, #24]
 1965 0178 03F00103 		and	r3, r3, #1
 1966 017c 002B     		cmp	r3, #0
 1967 017e 79D0     		beq	.L171
 1968 0180 F868     		ldr	r0, [r7, #12]
 1969 0182 FFF7FEFF 		bl	AsebaVMStep
 1970 0186 F868     		ldr	r0, [r7, #12]
 1971 0188 FFF7FEFF 		bl	AsebaVMSendExecutionStateChanged
 1972 018c 72E0     		b	.L171
 1973              	.L146:
 1974 018e FB68     		ldr	r3, [r7, #12]
 1975 0190 0222     		movs	r2, #2
 1976 0192 1A83     		strh	r2, [r3, #24]	@ movhi
 1977 0194 F868     		ldr	r0, [r7, #12]
 1978 0196 FFF7FEFF 		bl	AsebaVMSendExecutionStateChanged
 1979 019a 6CE0     		b	.L132
 1980              	.L147:
 1981 019c F868     		ldr	r0, [r7, #12]
 1982 019e FFF7FEFF 		bl	AsebaVMSendExecutionStateChanged
 1983 01a2 68E0     		b	.L132
 1984              	.L148:
 1985 01a4 7B68     		ldr	r3, [r7, #4]
 1986 01a6 1B88     		ldrh	r3, [r3]
 1987 01a8 3B82     		strh	r3, [r7, #16]	@ movhi
 1988 01aa 3B8A     		ldrh	r3, [r7, #16]
 1989 01ac 1946     		mov	r1, r3
 1990 01ae F868     		ldr	r0, [r7, #12]
 1991 01b0 FFF7FEFF 		bl	AsebaVMSetBreakpoint
 1992 01b4 0346     		mov	r3, r0
 1993 01b6 9BB2     		uxth	r3, r3
 1994 01b8 7B82     		strh	r3, [r7, #18]	@ movhi
 1995 01ba 07F11002 		add	r2, r7, #16
ARM GAS  /var/folders/d2/nstgp4h54kz7g1l847x_b8wc0000gn/T//ccZlAA6i.s 			page 36


 1996 01be 0423     		movs	r3, #4
 1997 01c0 49F20B01 		movw	r1, #36875
 1998 01c4 F868     		ldr	r0, [r7, #12]
 1999 01c6 FFF7FEFF 		bl	AsebaSendMessage
 2000 01ca 54E0     		b	.L132
 2001              	.L149:
 2002 01cc 7B68     		ldr	r3, [r7, #4]
 2003 01ce 1B88     		ldrh	r3, [r3]
 2004 01d0 1946     		mov	r1, r3
 2005 01d2 F868     		ldr	r0, [r7, #12]
 2006 01d4 FFF7FEFF 		bl	AsebaVMClearBreakpoint
 2007 01d8 4DE0     		b	.L132
 2008              	.L150:
 2009 01da F868     		ldr	r0, [r7, #12]
 2010 01dc FFF7FEFF 		bl	AsebaVMClearBreakpoints
 2011 01e0 49E0     		b	.L132
 2012              	.L151:
 2013 01e2 7B68     		ldr	r3, [r7, #4]
 2014 01e4 1B88     		ldrh	r3, [r3]	@ movhi
 2015 01e6 FB83     		strh	r3, [r7, #30]	@ movhi
 2016 01e8 7B68     		ldr	r3, [r7, #4]
 2017 01ea 5B88     		ldrh	r3, [r3, #2]	@ movhi
 2018 01ec BB83     		strh	r3, [r7, #28]	@ movhi
 2019 01ee BA8B     		ldrh	r2, [r7, #28]
 2020 01f0 FB8B     		ldrh	r3, [r7, #30]
 2021 01f2 1946     		mov	r1, r3
 2022 01f4 F868     		ldr	r0, [r7, #12]
 2023 01f6 FFF7FEFF 		bl	AsebaSendVariables
 2024 01fa 3CE0     		b	.L132
 2025              	.L152:
 2026 01fc 7B68     		ldr	r3, [r7, #4]
 2027 01fe 1B88     		ldrh	r3, [r3]	@ movhi
 2028 0200 7B84     		strh	r3, [r7, #34]	@ movhi
 2029 0202 3B89     		ldrh	r3, [r7, #8]	@ movhi
 2030 0204 013B     		subs	r3, r3, #1
 2031 0206 3B84     		strh	r3, [r7, #32]	@ movhi
 2032 0208 0023     		movs	r3, #0
 2033 020a BB84     		strh	r3, [r7, #36]	@ movhi
 2034 020c 11E0     		b	.L163
 2035              	.L164:
 2036 020e BB8C     		ldrh	r3, [r7, #36]
 2037 0210 0133     		adds	r3, r3, #1
 2038 0212 5B00     		lsls	r3, r3, #1
 2039 0214 7A68     		ldr	r2, [r7, #4]
 2040 0216 1344     		add	r3, r3, r2
 2041 0218 1888     		ldrh	r0, [r3]
 2042 021a FB68     		ldr	r3, [r7, #12]
 2043 021c DA68     		ldr	r2, [r3, #12]
 2044 021e 798C     		ldrh	r1, [r7, #34]
 2045 0220 BB8C     		ldrh	r3, [r7, #36]
 2046 0222 0B44     		add	r3, r3, r1
 2047 0224 5B00     		lsls	r3, r3, #1
 2048 0226 1344     		add	r3, r3, r2
 2049 0228 02B2     		sxth	r2, r0
 2050 022a 1A80     		strh	r2, [r3]	@ movhi
 2051 022c BB8C     		ldrh	r3, [r7, #36]
 2052 022e 0133     		adds	r3, r3, #1
ARM GAS  /var/folders/d2/nstgp4h54kz7g1l847x_b8wc0000gn/T//ccZlAA6i.s 			page 37


 2053 0230 BB84     		strh	r3, [r7, #36]	@ movhi
 2054              	.L163:
 2055 0232 BA8C     		ldrh	r2, [r7, #36]
 2056 0234 3B8C     		ldrh	r3, [r7, #32]
 2057 0236 9A42     		cmp	r2, r3
 2058 0238 E9D3     		bcc	.L164
 2059 023a 1CE0     		b	.L132
 2060              	.L153:
 2061 023c F868     		ldr	r0, [r7, #12]
 2062 023e FFF7FEFF 		bl	AsebaWriteBytecode
 2063 0242 18E0     		b	.L132
 2064              	.L154:
 2065 0244 F868     		ldr	r0, [r7, #12]
 2066 0246 FFF7FEFF 		bl	AsebaResetIntoBootloader
 2067 024a 14E0     		b	.L132
 2068              	.L155:
 2069 024c F868     		ldr	r0, [r7, #12]
 2070 024e FFF7FEFF 		bl	AsebaPutVmToSleep
 2071 0252 10E0     		b	.L132
 2072              	.L156:
 2073 0254 F868     		ldr	r0, [r7, #12]
 2074 0256 FFF7FEFF 		bl	AsebaSendDescription
 2075 025a 0CE0     		b	.L132
 2076              	.L165:
 2077 025c 00BF     		nop
 2078 025e 0AE0     		b	.L132
 2079              	.L166:
 2080 0260 00BF     		nop
 2081 0262 08E0     		b	.L132
 2082              	.L167:
 2083 0264 00BF     		nop
 2084 0266 06E0     		b	.L132
 2085              	.L168:
 2086 0268 00BF     		nop
 2087 026a 04E0     		b	.L132
 2088              	.L169:
 2089 026c 00BF     		nop
 2090 026e 02E0     		b	.L132
 2091              	.L170:
 2092 0270 00BF     		nop
 2093 0272 00E0     		b	.L132
 2094              	.L171:
 2095 0274 00BF     		nop
 2096              	.L132:
 2097 0276 2837     		adds	r7, r7, #40
 2098 0278 BD46     		mov	sp, r7
 2099              		@ sp needed
 2100 027a 80BD     		pop	{r7, pc}
 2101              	.L173:
 2102              		.align	2
 2103              	.L172:
 2104 027c 00000000 		.word	AsebaVMResetCB
 2105 0280 00000000 		.word	AsebaVMRunCB
 2106              		.size	AsebaVMDebugMessage, .-AsebaVMDebugMessage
 2107              		.section	.text.AsebaVMShouldDropPacket,"ax",%progbits
 2108              		.align	1
 2109              		.global	AsebaVMShouldDropPacket
ARM GAS  /var/folders/d2/nstgp4h54kz7g1l847x_b8wc0000gn/T//ccZlAA6i.s 			page 38


 2110              		.syntax unified
 2111              		.thumb
 2112              		.thumb_func
 2113              		.fpu fpv4-sp-d16
 2114              		.type	AsebaVMShouldDropPacket, %function
 2115              	AsebaVMShouldDropPacket:
 2116              		@ args = 0, pretend = 0, frame = 24
 2117              		@ frame_needed = 1, uses_anonymous_args = 0
 2118 0000 80B5     		push	{r7, lr}
 2119 0002 86B0     		sub	sp, sp, #24
 2120 0004 00AF     		add	r7, sp, #0
 2121 0006 F860     		str	r0, [r7, #12]
 2122 0008 0B46     		mov	r3, r1
 2123 000a 7A60     		str	r2, [r7, #4]
 2124 000c 7B81     		strh	r3, [r7, #10]	@ movhi
 2125 000e 7B68     		ldr	r3, [r7, #4]
 2126 0010 1B88     		ldrh	r3, [r3]	@ movhi
 2127 0012 FB82     		strh	r3, [r7, #22]	@ movhi
 2128 0014 B7F91630 		ldrsh	r3, [r7, #22]
 2129 0018 002B     		cmp	r3, #0
 2130 001a 0CDB     		blt	.L175
 2131 001c FB8A     		ldrh	r3, [r7, #22]
 2132 001e 1946     		mov	r1, r3
 2133 0020 F868     		ldr	r0, [r7, #12]
 2134 0022 FFF7FEFF 		bl	AsebaVMGetEventAddress
 2135 0026 0346     		mov	r3, r0
 2136 0028 002B     		cmp	r3, #0
 2137 002a 0CBF     		ite	eq
 2138 002c 0123     		moveq	r3, #1
 2139 002e 0023     		movne	r3, #0
 2140 0030 DBB2     		uxtb	r3, r3
 2141 0032 9BB2     		uxth	r3, r3
 2142 0034 1CE0     		b	.L176
 2143              	.L175:
 2144 0036 FB8A     		ldrh	r3, [r7, #22]
 2145 0038 B3F5204F 		cmp	r3, #40960
 2146 003c 17D3     		bcc	.L177
 2147 003e 7B68     		ldr	r3, [r7, #4]
 2148 0040 5B88     		ldrh	r3, [r3, #2]	@ movhi
 2149 0042 BB82     		strh	r3, [r7, #20]	@ movhi
 2150 0044 FB8A     		ldrh	r3, [r7, #22]
 2151 0046 B3F5204F 		cmp	r3, #40960
 2152 004a 04D0     		beq	.L178
 2153 004c FB8A     		ldrh	r3, [r7, #22]
 2154 004e 4AF21102 		movw	r2, #40977
 2155 0052 9342     		cmp	r3, r2
 2156 0054 01D1     		bne	.L179
 2157              	.L178:
 2158 0056 0023     		movs	r3, #0
 2159 0058 0AE0     		b	.L176
 2160              	.L179:
 2161 005a FB68     		ldr	r3, [r7, #12]
 2162 005c 1B88     		ldrh	r3, [r3]
 2163 005e BA8A     		ldrh	r2, [r7, #20]
 2164 0060 9A42     		cmp	r2, r3
 2165 0062 14BF     		ite	ne
 2166 0064 0123     		movne	r3, #1
ARM GAS  /var/folders/d2/nstgp4h54kz7g1l847x_b8wc0000gn/T//ccZlAA6i.s 			page 39


 2167 0066 0023     		moveq	r3, #0
 2168 0068 DBB2     		uxtb	r3, r3
 2169 006a 9BB2     		uxth	r3, r3
 2170 006c 00E0     		b	.L176
 2171              	.L177:
 2172 006e 0123     		movs	r3, #1
 2173              	.L176:
 2174 0070 1846     		mov	r0, r3
 2175 0072 1837     		adds	r7, r7, #24
 2176 0074 BD46     		mov	sp, r7
 2177              		@ sp needed
 2178 0076 80BD     		pop	{r7, pc}
 2179              		.size	AsebaVMShouldDropPacket, .-AsebaVMShouldDropPacket
 2180              		.weak	AsebaVMRunCB
 2181              		.weak	AsebaVMResetCB
 2182              		.weak	AsebaVMErrorCB
 2183              		.ident	"GCC: (GNU Tools for Arm Embedded Processors 7-2017-q4-major) 7.2.1 20170904 (release) [ARM
ARM GAS  /var/folders/d2/nstgp4h54kz7g1l847x_b8wc0000gn/T//ccZlAA6i.s 			page 40

